///////////////////////////////////////////////////////////////////////////////
//
// IAR C/C++ Compiler V10.10.1.4655 for 8051              06/Feb/2026  14:07:49
// Copyright 2004-2017 IAR Systems AB.
// Standalone license - IAR Embedded Workbench for 8051
//
//    Core               =  plain
//    Code model         =  banked
//    Data model         =  large
//    Calling convention =  xdata reentrant
//    Constant location  =  data_rom
//    Dptr setup         =  1,16
//                          
//    Source file        =  D:\project\Z-Stack 3.0.2\Components\stack\bdb\bdb.c
//    Command line       =  
//        -f C:\Users\KLF\AppData\Local\Temp\EW23C7.tmp ("D:\project\Z-Stack
//        3.0.2\Components\stack\bdb\bdb.c" -D BDB_REPORTING -D xZTOOL_P1 -D
//        xMT_TASK -D xMT_APP_FUNC -D xMT_SYS_FUNC -D xMT_ZDO_FUNC -D
//        xMT_APP_CNF_FUNC -D LCD_SUPPORTED=DEBUG -D MULTICAST_ENABLED=FALSE -D
//        ZCL_READ -D ZCL_DISCOVER -D ZCL_WRITE -D ZCL_BASIC -D ZCL_IDENTIFY -D
//        ZCL_TEMPERATURE_MEASUREMENT -D ZCL_GROUPS -D HAL_LED=TRUE -D
//        HAL_UART=TRUE -D INT_HEAP_LEN=2048 -lC "D:\project\Z-Stack
//        3.0.2\Projects\zstack\HomeAutomation\ZEM\CC2530DB\CoordinatorEB\List"
//        -lA "D:\project\Z-Stack
//        3.0.2\Projects\zstack\HomeAutomation\ZEM\CC2530DB\CoordinatorEB\List"
//        --diag_suppress Pe001,Pa010 -o "D:\project\Z-Stack
//        3.0.2\Projects\zstack\HomeAutomation\ZEM\CC2530DB\CoordinatorEB\Obj"
//        -e --debug --core=plain --dptr=16,1 --data_model=large
//        --code_model=banked --calling_convention=xdata_reentrant
//        --place_constants=data_rom --nr_virtual_regs 16 -f
//        "D:\project\Z-Stack
//        3.0.2\Projects\zstack\HomeAutomation\ZEM\CC2530DB\..\..\..\Tools\CC2530DB\f8wCoord.cfg"
//        (-DCPU32MHZ -DROOT=__near_func -DMAC_CFG_APP_PENDING_QUEUE=TRUE
//        -DMAC_CFG_TX_DATA_MAX=5 -DMAC_CFG_TX_MAX=8 -DMAC_CFG_RX_MAX=5
//        -DZDO_COORDINATOR -DRTR_NWK) -f "D:\project\Z-Stack
//        3.0.2\Projects\zstack\HomeAutomation\ZEM\CC2530DB\..\..\..\Tools\CC2530DB\f8wConfig.cfg"
//        (-DZIGBEEPRO -DSECURE=1 -DZG_SECURE_DYNAMIC=0 -DREFLECTOR
//        -DDEFAULT_CHANLIST=0x00100000 -DZDAPP_CONFIG_PAN_ID=0x1234
//        -DNWK_START_DELAY=100 -DEXTENDED_JOINING_RANDOM_MASK=0x007F
//        -DBEACON_REQUEST_DELAY=100 -DBEACON_REQ_DELAY_MASK=0x00FF
//        -DLINK_STATUS_JITTER_MASK=0x007F -DROUTE_EXPIRY_TIME=30
//        -DAPSC_ACK_WAIT_DURATION_POLLED=3000 -DNWK_INDIRECT_MSG_TIMEOUT=7
//        -DMAX_RREQ_ENTRIES=8 -DAPSC_MAX_FRAME_RETRIES=3
//        -DNWK_MAX_DATA_RETRIES=2 -DMAX_POLL_FAILURE_RETRIES=2 -DMAX_BCAST=9
//        -DAPS_MAX_GROUPS=16 -DMAX_RTG_ENTRIES=40 -DNWK_MAX_BINDING_ENTRIES=4
//        -DMAX_BINDING_CLUSTER_IDS=4 -DDEFAULT_KEY={0}
//        -DMAC_MAX_FRAME_SIZE=116 -DZDNWKMGR_MIN_TRANSMISSIONS=20
//        "-DCONST=const __code" -DGENERIC=__generic -DRFD_RCVC_ALWAYS_ON=FALSE
//        -DPOLL_RATE=1000 -DQUEUED_POLL_RATE=100 -DRESPONSE_POLL_RATE=100
//        -DREJOIN_POLL_RATE=440 -DREJOIN_BACKOFF=900000 -DREJOIN_SCAN=900000
//        -DENABLE_LED4_DISABLE_S1) -f "D:\project\Z-Stack
//        3.0.2\Projects\zstack\HomeAutomation\ZEM\CC2530DB\..\..\..\Tools\CC2530DB\f8wZCL.cfg"
//        -I "D:\project\Z-Stack
//        3.0.2\Projects\zstack\HomeAutomation\ZEM\CC2530DB\" -I
//        "D:\project\Z-Stack
//        3.0.2\Projects\zstack\HomeAutomation\ZEM\CC2530DB\..\Source\" -I
//        "D:\project\Z-Stack
//        3.0.2\Projects\zstack\HomeAutomation\ZEM\CC2530DB\..\..\Source\" -I
//        "D:\project\Z-Stack
//        3.0.2\Projects\zstack\HomeAutomation\ZEM\CC2530DB\..\..\..\ZMain\TI2530DB\"
//        -I "D:\project\Z-Stack
//        3.0.2\Projects\zstack\HomeAutomation\ZEM\CC2530DB\..\..\..\..\..\Components\hal\include\"
//        -I "D:\project\Z-Stack
//        3.0.2\Projects\zstack\HomeAutomation\ZEM\CC2530DB\..\..\..\..\..\Components\hal\target\CC2530EB\"
//        -I "D:\project\Z-Stack
//        3.0.2\Projects\zstack\HomeAutomation\ZEM\CC2530DB\..\..\..\..\..\Components\mac\include\"
//        -I "D:\project\Z-Stack
//        3.0.2\Projects\zstack\HomeAutomation\ZEM\CC2530DB\..\..\..\..\..\Components\mac\high_level\"
//        -I "D:\project\Z-Stack
//        3.0.2\Projects\zstack\HomeAutomation\ZEM\CC2530DB\..\..\..\..\..\Components\mac\low_level\srf04\"
//        -I "D:\project\Z-Stack
//        3.0.2\Projects\zstack\HomeAutomation\ZEM\CC2530DB\..\..\..\..\..\Components\mac\low_level\srf04\single_chip\"
//        -I "D:\project\Z-Stack
//        3.0.2\Projects\zstack\HomeAutomation\ZEM\CC2530DB\..\..\..\..\..\Components\mt\"
//        -I "D:\project\Z-Stack
//        3.0.2\Projects\zstack\HomeAutomation\ZEM\CC2530DB\..\..\..\..\..\Components\osal\include\"
//        -I "D:\project\Z-Stack
//        3.0.2\Projects\zstack\HomeAutomation\ZEM\CC2530DB\..\..\..\..\..\Components\services\saddr\"
//        -I "D:\project\Z-Stack
//        3.0.2\Projects\zstack\HomeAutomation\ZEM\CC2530DB\..\..\..\..\..\Components\services\sdata\"
//        -I "D:\project\Z-Stack
//        3.0.2\Projects\zstack\HomeAutomation\ZEM\CC2530DB\..\..\..\..\..\Components\stack\af\"
//        -I "D:\project\Z-Stack
//        3.0.2\Projects\zstack\HomeAutomation\ZEM\CC2530DB\..\..\..\..\..\Components\stack\bdb\"
//        -I "D:\project\Z-Stack
//        3.0.2\Projects\zstack\HomeAutomation\ZEM\CC2530DB\..\..\..\..\..\Components\stack\gp\"
//        -I "D:\project\Z-Stack
//        3.0.2\Projects\zstack\HomeAutomation\ZEM\CC2530DB\..\..\..\..\..\Components\stack\nwk\"
//        -I "D:\project\Z-Stack
//        3.0.2\Projects\zstack\HomeAutomation\ZEM\CC2530DB\..\..\..\..\..\Components\stack\sapi\"
//        -I "D:\project\Z-Stack
//        3.0.2\Projects\zstack\HomeAutomation\ZEM\CC2530DB\..\..\..\..\..\Components\stack\sec\"
//        -I "D:\project\Z-Stack
//        3.0.2\Projects\zstack\HomeAutomation\ZEM\CC2530DB\..\..\..\..\..\Components\stack\sys\"
//        -I "D:\project\Z-Stack
//        3.0.2\Projects\zstack\HomeAutomation\ZEM\CC2530DB\..\..\..\..\..\Components\stack\zcl\"
//        -I "D:\project\Z-Stack
//        3.0.2\Projects\zstack\HomeAutomation\ZEM\CC2530DB\..\..\..\..\..\Components\stack\zdo\"
//        -I "D:\project\Z-Stack
//        3.0.2\Projects\zstack\HomeAutomation\ZEM\CC2530DB\..\..\..\..\..\Components\zmac\"
//        -I "D:\project\Z-Stack
//        3.0.2\Projects\zstack\HomeAutomation\ZEM\CC2530DB\..\..\..\..\..\Components\zmac\f8w\"
//        -Ohz --require_prototypes)
//    Locale             =  Chinese (Simplified)_China.936
//    List file          =  
//        D:\project\Z-Stack
//        3.0.2\Projects\zstack\HomeAutomation\ZEM\CC2530DB\CoordinatorEB\List\bdb.s51
//
///////////////////////////////////////////////////////////////////////////////

        NAME bdb

        RTMODEL "__SystemLibrary", "CLib"
        RTMODEL "__calling_convention", "xdata_reentrant"
        RTMODEL "__code_model", "banked"
        RTMODEL "__core", "plain"
        RTMODEL "__data_model", "large"
        RTMODEL "__dptr_size", "16"
        RTMODEL "__extended_stack", "disabled"
        RTMODEL "__location_for_constants", "data"
        RTMODEL "__number_of_dptrs", "1"
        RTMODEL "__register_banks", "*"
        RTMODEL "__rt_version", "1"

        RSEG DOVERLAY:DATA:NOROOT(0)
        RSEG IOVERLAY:IDATA:NOROOT(0)
        RSEG ISTACK:IDATA:NOROOT(0)
        RSEG PSTACK:XDATA:NOROOT(0)
        RSEG XSTACK:XDATA:NOROOT(0)

        EXTERN ?V0
        EXTERN ?V1
        EXTERN ?V2
        EXTERN ?V3
        EXTERN ?V4
        EXTERN ?V5
        EXTERN ?V6
        EXTERN ?V7
        EXTERN ?V8
        EXTERN ?V9
        EXTERN ?V10
        EXTERN ?V11
        EXTERN ?ALLOC_XSTACK8
        EXTERN ?BANKED_ENTER_XDATA
        EXTERN ?BANKED_LEAVE_XDATA
        EXTERN ?BDISPATCH
        EXTERN ?BRET
        EXTERN ?CALL_IND
        EXTERN ?DEALLOC_XSTACK8
        EXTERN ?L_MOV_TO_X
        EXTERN ?L_MOV_X
        EXTERN ?MOVE_LONG8_XDATA_XDATA
        EXTERN ?PUSH_XSTACK8_X_FOUR
        EXTERN ?PUSH_XSTACK8_X_TWO
        EXTERN ?PUSH_XSTACK_I_THREE
        EXTERN ?PUSH_XSTACK_I_TWO
        EXTERN ?S_SHL
        EXTERN ?UL_GT
        EXTERN ?US_SHR
        EXTERN ?US_SWITCH_DENSE
        EXTERN ?XLOAD_R0123
        EXTERN ?XLOAD_R2345
        EXTERN ?XSP
        EXTERN ?XSTACK_DISP0_8
        EXTERN ?XSTACK_DISP100_8
        EXTERN ?XSTACK_DISP101_8
        EXTERN ?XSTACK_DISP102_8
        EXTERN __INIT_XDATA_I
        EXTERN __INIT_XDATA_Z

        PUBLIC `??bdb_AddRespondentNode::?relay`
        FUNCTION `??bdb_AddRespondentNode::?relay`,0203H
        PUBLIC `??bdb_ClearNetworkParams::?relay`
        FUNCTION `??bdb_ClearNetworkParams::?relay`,0203H
        PUBLIC `??bdb_CreateRespondentList::?relay`
        FUNCTION `??bdb_CreateRespondentList::?relay`,0203H
        PUBLIC `??bdb_GenerateInstallCodeCRC::?relay`
        FUNCTION `??bdb_GenerateInstallCodeCRC::?relay`,0203H
        PUBLIC `??bdb_Init::?relay`
        FUNCTION `??bdb_Init::?relay`,0203H
        PUBLIC `??bdb_NetworkRestoredResumeState::?relay`
        FUNCTION `??bdb_NetworkRestoredResumeState::?relay`,0203H
        PUBLIC `??bdb_NotifyCommissioningModeStart::?relay`
        FUNCTION `??bdb_NotifyCommissioningModeStart::?relay`,0203H
        PUBLIC `??bdb_ProcessNodeDescRsp::?relay`
        FUNCTION `??bdb_ProcessNodeDescRsp::?relay`,0203H
        PUBLIC `??bdb_RegisterCommissioningStatusCB::?relay`
        FUNCTION `??bdb_RegisterCommissioningStatusCB::?relay`,0203H
        PUBLIC `??bdb_RegisterSimpleDescriptor::?relay`
        FUNCTION `??bdb_RegisterSimpleDescriptor::?relay`,0203H
        PUBLIC `??bdb_RegisterTCLinkKeyExchangeProcessCB::?rela`
        FUNCTION `??bdb_RegisterTCLinkKeyExchangeProcessCB::?rela`,0203H
        PUBLIC `??bdb_SendMsg::?relay`
        FUNCTION `??bdb_SendMsg::?relay`,0203H
        PUBLIC `??bdb_StartCommissioning::?relay`
        FUNCTION `??bdb_StartCommissioning::?relay`,0203H
        PUBLIC `??bdb_TCAddJoiningDevice::?relay`
        FUNCTION `??bdb_TCAddJoiningDevice::?relay`,0203H
        FUNCTION `??bdb_TCJoiningDeviceFree::?relay`,0203H
        FUNCTION `??bdb_TCProcessJoiningList::?relay`,0203H
        PUBLIC `??bdb_TCjoiningDeviceComplete::?relay`
        FUNCTION `??bdb_TCjoiningDeviceComplete::?relay`,0203H
        PUBLIC `??bdb_ZclIdentifyCmdInd::?relay`
        FUNCTION `??bdb_ZclIdentifyCmdInd::?relay`,0203H
        PUBLIC `??bdb_addInstallCode::?relay`
        FUNCTION `??bdb_addInstallCode::?relay`,0203H
        PUBLIC `??bdb_calculateCCITT_CRC::?relay`
        FUNCTION `??bdb_calculateCCITT_CRC::?relay`,0203H
        PUBLIC `??bdb_crcBitByBitFast::?relay`
        FUNCTION `??bdb_crcBitByBitFast::?relay`,0203H
        PUBLIC `??bdb_crcInit::?relay`
        FUNCTION `??bdb_crcInit::?relay`,0203H
        PUBLIC `??bdb_crcReflect::?relay`
        FUNCTION `??bdb_crcReflect::?relay`,0203H
        PUBLIC `??bdb_doTrustCenterRequireKeyExchange::?relay`
        FUNCTION `??bdb_doTrustCenterRequireKeyExchange::?relay`,0203H
        PUBLIC `??bdb_event_loop::?relay`
        FUNCTION `??bdb_event_loop::?relay`,0203H
        PUBLIC `??bdb_getZCLFrameCounter::?relay`
        FUNCTION `??bdb_getZCLFrameCounter::?relay`,0203H
        PUBLIC `??bdb_isDeviceNonFactoryNew::?relay`
        FUNCTION `??bdb_isDeviceNonFactoryNew::?relay`,0203H
        PUBLIC `??bdb_nwkFormationAttempt::?relay`
        FUNCTION `??bdb_nwkFormationAttempt::?relay`,0203H
        FUNCTION `??bdb_nwkJoiningFormation::?relay`,0203H
        FUNCTION `??bdb_nwkSteeringDeviceOnNwk::?relay`,0203H
        PUBLIC `??bdb_parentLost::?relay`
        FUNCTION `??bdb_parentLost::?relay`,0203H
        PUBLIC `??bdb_rejoinNwk::?relay`
        FUNCTION `??bdb_rejoinNwk::?relay`,0203H
        PUBLIC `??bdb_reportCommissioningState::?relay`
        FUNCTION `??bdb_reportCommissioningState::?relay`,0203H
        PUBLIC `??bdb_resetLocalAction::?relay`
        FUNCTION `??bdb_resetLocalAction::?relay`,0203H
        PUBLIC `??bdb_setChannel::?relay`
        FUNCTION `??bdb_setChannel::?relay`,0203H
        PUBLIC `??bdb_setChannelAttribute::?relay`
        FUNCTION `??bdb_setChannelAttribute::?relay`,0203H
        PUBLIC `??bdb_setCommissioningGroupID::?relay`
        FUNCTION `??bdb_setCommissioningGroupID::?relay`,0203H
        PUBLIC `??bdb_setFN::?relay`
        FUNCTION `??bdb_setFN::?relay`,0203H
        PUBLIC `??bdb_setJoinUsesInstallCodeKey::?relay`
        FUNCTION `??bdb_setJoinUsesInstallCodeKey::?relay`,0203H
        PUBLIC `??bdb_setNodeIsOnANetwork::?relay`
        FUNCTION `??bdb_setNodeIsOnANetwork::?relay`,0203H
        PUBLIC `??bdb_setTCRequireKeyExchange::?relay`
        FUNCTION `??bdb_setTCRequireKeyExchange::?relay`,0203H
        FUNCTION `??bdb_startResumeCommissioningProcess::?relay`,0203H
        PUBLIC `??bdb_touchlinkSendFNReset::?relay`
        FUNCTION `??bdb_touchlinkSendFNReset::?relay`,0203H
        PUBLIC `??bdb_zclRespondentListClean::?relay`
        FUNCTION `??bdb_zclRespondentListClean::?relay`,0203H
        FUNCTION `??gp_ChangeChannelReq::?relay`,0203H
        PUBWEAK __Constant_10
        PUBWEAK __Constant_32
        PUBWEAK __Constant_3a98
        PUBWEAK __Constant_3e8
        PUBWEAK __Constant_c8
        PUBLIC bdbAttributes
        PUBLIC bdbCommissioningProcedureState
        PUBLIC bdb_AddRespondentNode
        FUNCTION bdb_AddRespondentNode,0a1203H
        ARGFRAME XSTACK, 0, STACK
        LOCFRAME XSTACK, 10, STACK
        PUBLIC bdb_ClearNetworkParams
        FUNCTION bdb_ClearNetworkParams,0203H
        ARGFRAME XSTACK, 0, STACK
        PUBLIC bdb_CreateRespondentList
        FUNCTION bdb_CreateRespondentList,0a1203H
        ARGFRAME XSTACK, 10, STACK
        ARGFRAME IOVERLAY, 0, STATIC
        ARGFRAME DOVERLAY, 0, STATIC
        LOCFRAME XSTACK, 10, STACK
        PUBLIC bdb_CurrEpDescriptorList
        PUBLIC bdb_FB_InitiatorCurrentCyclesNumber
        PUBLIC bdb_GenerateInstallCodeCRC
        FUNCTION bdb_GenerateInstallCodeCRC,021203H
        ARGFRAME XSTACK, 30, STACK
        ARGFRAME IOVERLAY, 0, STATIC
        ARGFRAME DOVERLAY, 0, STATIC
        LOCFRAME ISTACK, 2, STACK
        LOCFRAME XSTACK, 6, STACK
        PUBLIC bdb_HeadEpDescriptorList
        PUBLIC bdb_Init
        FUNCTION bdb_Init,021203H
        ARGFRAME XSTACK, 0, STACK
        LOCFRAME XSTACK, 9, STACK
        PUBLIC bdb_NetworkRestoredResumeState
        FUNCTION bdb_NetworkRestoredResumeState,0203H
        ARGFRAME XSTACK, 0, STACK
        PUBLIC bdb_NotifyCommissioningModeStart
        FUNCTION bdb_NotifyCommissioningModeStart,0a1203H
        ARGFRAME XSTACK, 21, STACK
        ARGFRAME IOVERLAY, 0, STATIC
        ARGFRAME DOVERLAY, 0, STATIC
        LOCFRAME ISTACK, 1, STACK
        LOCFRAME XSTACK, 15, STACK
        PUBLIC bdb_ProcessNodeDescRsp
        FUNCTION bdb_ProcessNodeDescRsp,0a1203H
        ARGFRAME XSTACK, 0, STACK
        LOCFRAME XSTACK, 49, STACK
        PUBLIC bdb_RegisterCommissioningStatusCB
        FUNCTION bdb_RegisterCommissioningStatusCB,0203H
        ARGFRAME XSTACK, 0, STACK
        LOCFRAME ISTACK, 2, STACK
        PUBLIC bdb_RegisterSimpleDescriptor
        FUNCTION bdb_RegisterSimpleDescriptor,0a1203H
        ARGFRAME XSTACK, 0, STACK
        LOCFRAME ISTACK, 1, STACK
        LOCFRAME XSTACK, 10, STACK
        PUBLIC bdb_RegisterTCLinkKeyExchangeProcessCB
        FUNCTION bdb_RegisterTCLinkKeyExchangeProcessCB,0203H
        ARGFRAME XSTACK, 0, STACK
        LOCFRAME ISTACK, 2, STACK
        PUBLIC bdb_SendMsg
        FUNCTION bdb_SendMsg,0a1203H
        ARGFRAME XSTACK, 59, STACK
        ARGFRAME IOVERLAY, 0, STATIC
        ARGFRAME DOVERLAY, 0, STATIC
        LOCFRAME ISTACK, 1, STACK
        LOCFRAME XSTACK, 20, STACK
        PUBLIC bdb_StartCommissioning
        FUNCTION bdb_StartCommissioning,0a1203H
        ARGFRAME XSTACK, 0, STACK
        LOCFRAME ISTACK, 1, STACK
        LOCFRAME XSTACK, 101, STACK
        PUBLIC bdb_TCAddJoiningDevice
        FUNCTION bdb_TCAddJoiningDevice,0a1203H
        ARGFRAME XSTACK, 0, STACK
        LOCFRAME ISTACK, 1, STACK
        LOCFRAME XSTACK, 32, STACK
        FUNCTION bdb_TCJoiningDeviceFree,0a1203H
        ARGFRAME XSTACK, 57, STACK
        ARGFRAME IOVERLAY, 0, STATIC
        ARGFRAME DOVERLAY, 0, STATIC
        LOCFRAME XSTACK, 18, STACK
        FUNCTION bdb_TCProcessJoiningList,0a1203H
        ARGFRAME XSTACK, 24, STACK
        ARGFRAME IOVERLAY, 0, STATIC
        ARGFRAME DOVERLAY, 0, STATIC
        LOCFRAME XSTACK, 61, STACK
        PUBLIC bdb_TCjoiningDeviceComplete
        FUNCTION bdb_TCjoiningDeviceComplete,0a1203H
        ARGFRAME XSTACK, 0, STACK
        LOCFRAME XSTACK, 31, STACK
        PUBLIC bdb_TaskID
        PUBLIC bdb_ZclIdentifyCmdInd
        FUNCTION bdb_ZclIdentifyCmdInd,0a1203H
        ARGFRAME XSTACK, 0, STACK
        LOCFRAME XSTACK, 24, STACK
        PUBLIC bdb_ZclTransactionSequenceNumber
        PUBLIC bdb_addInstallCode
        FUNCTION bdb_addInstallCode,0a1203H
        ARGFRAME XSTACK, 0, STACK
        LOCFRAME XSTACK, 34, STACK
        PUBLIC bdb_calculateCCITT_CRC
        FUNCTION bdb_calculateCCITT_CRC,0a1203H
        ARGFRAME XSTACK, 6, STACK
        ARGFRAME IOVERLAY, 0, STATIC
        ARGFRAME DOVERLAY, 0, STATIC
        LOCFRAME XSTACK, 22, STACK
        PUBLIC bdb_crcBitByBitFast
        FUNCTION bdb_crcBitByBitFast,0a1203H
        ARGFRAME XSTACK, 22, STACK
        ARGFRAME IOVERLAY, 0, STATIC
        ARGFRAME DOVERLAY, 0, STATIC
        LOCFRAME XSTACK, 20, STACK
        PUBLIC bdb_crcInit
        FUNCTION bdb_crcInit,0203H
        ARGFRAME XSTACK, 18, STACK
        ARGFRAME IOVERLAY, 0, STATIC
        ARGFRAME DOVERLAY, 0, STATIC
        LOCFRAME XSTACK, 9, STACK
        PUBLIC bdb_crcReflect
        FUNCTION bdb_crcReflect,080203H
        ARGFRAME XSTACK, 20, STACK
        ARGFRAME IOVERLAY, 0, STATIC
        ARGFRAME DOVERLAY, 0, STATIC
        LOCFRAME XSTACK, 12, STACK
        PUBLIC bdb_doTrustCenterRequireKeyExchange
        FUNCTION bdb_doTrustCenterRequireKeyExchange,0203H
        ARGFRAME XSTACK, 0, STACK
        LOCFRAME ISTACK, 2, STACK
        PUBLIC bdb_event_loop
        FUNCTION bdb_event_loop,0a1203H
        ARGFRAME XSTACK, 0, STACK
        LOCFRAME ISTACK, 1, STACK
        LOCFRAME XSTACK, 28, STACK
        PUBLIC bdb_getZCLFrameCounter
        FUNCTION bdb_getZCLFrameCounter,0203H
        ARGFRAME XSTACK, 0, STACK
        LOCFRAME ISTACK, 2, STACK
        PUBLIC bdb_initialization
        PUBLIC bdb_isDeviceNonFactoryNew
        FUNCTION bdb_isDeviceNonFactoryNew,0203H
        ARGFRAME XSTACK, 0, STACK
        LOCFRAME ISTACK, 2, STACK
        PUBLIC bdb_nwkFormationAttempt
        FUNCTION bdb_nwkFormationAttempt,021203H
        ARGFRAME XSTACK, 0, STACK
        LOCFRAME XSTACK, 9, STACK
        FUNCTION bdb_nwkJoiningFormation,0a1203H
        ARGFRAME XSTACK, 21, STACK
        ARGFRAME IOVERLAY, 0, STATIC
        ARGFRAME DOVERLAY, 0, STATIC
        LOCFRAME XSTACK, 12, STACK
        FUNCTION bdb_nwkSteeringDeviceOnNwk,021203H
        ARGFRAME XSTACK, 97, STACK
        ARGFRAME IOVERLAY, 0, STATIC
        ARGFRAME DOVERLAY, 0, STATIC
        LOCFRAME ISTACK, 2, STACK
        LOCFRAME XSTACK, 9, STACK
        PUBLIC bdb_parentLost
        FUNCTION bdb_parentLost,0203H
        ARGFRAME XSTACK, 0, STACK
        PUBLIC bdb_rejoinNwk
        FUNCTION bdb_rejoinNwk,0a1203H
        ARGFRAME XSTACK, 0, STACK
        LOCFRAME XSTACK, 15, STACK
        PUBLIC bdb_reportCommissioningState
        FUNCTION bdb_reportCommissioningState,0a1203H
        ARGFRAME XSTACK, 97, STACK
        ARGFRAME IOVERLAY, 0, STATIC
        ARGFRAME DOVERLAY, 0, STATIC
        LOCFRAME ISTACK, 1, STACK
        LOCFRAME XSTACK, 18, STACK
        PUBLIC bdb_resetLocalAction
        FUNCTION bdb_resetLocalAction,021203H
        ARGFRAME XSTACK, 0, STACK
        LOCFRAME ISTACK, 2, STACK
        PUBLIC bdb_setChannel
        FUNCTION bdb_setChannel,0a1203H
        ARGFRAME XSTACK, 12, STACK
        ARGFRAME IOVERLAY, 0, STATIC
        ARGFRAME DOVERLAY, 0, STATIC
        LOCFRAME XSTACK, 16, STACK
        PUBLIC bdb_setChannelAttribute
        FUNCTION bdb_setChannelAttribute,080203H
        ARGFRAME XSTACK, 0, STACK
        LOCFRAME XSTACK, 12, STACK
        PUBLIC bdb_setCommissioningGroupID
        FUNCTION bdb_setCommissioningGroupID,0203H
        ARGFRAME XSTACK, 0, STACK
        LOCFRAME ISTACK, 2, STACK
        PUBLIC bdb_setFN
        FUNCTION bdb_setFN,021203H
        ARGFRAME XSTACK, 14, STACK
        ARGFRAME IOVERLAY, 0, STATIC
        ARGFRAME DOVERLAY, 0, STATIC
        LOCFRAME ISTACK, 2, STACK
        PUBLIC bdb_setJoinUsesInstallCodeKey
        FUNCTION bdb_setJoinUsesInstallCodeKey,0203H
        ARGFRAME XSTACK, 0, STACK
        LOCFRAME ISTACK, 2, STACK
        PUBLIC bdb_setNodeIsOnANetwork
        FUNCTION bdb_setNodeIsOnANetwork,0a1203H
        ARGFRAME XSTACK, 97, STACK
        ARGFRAME IOVERLAY, 0, STATIC
        ARGFRAME DOVERLAY, 0, STATIC
        LOCFRAME XSTACK, 14, STACK
        PUBLIC bdb_setTCRequireKeyExchange
        FUNCTION bdb_setTCRequireKeyExchange,0203H
        ARGFRAME XSTACK, 0, STACK
        LOCFRAME ISTACK, 2, STACK
        FUNCTION bdb_startResumeCommissioningProcess,0a1203H
        ARGFRAME XSTACK, 24, STACK
        ARGFRAME IOVERLAY, 0, STATIC
        ARGFRAME DOVERLAY, 0, STATIC
        LOCFRAME XSTACK, 25, STACK
        PUBLIC bdb_touchlinkSendFNReset
        FUNCTION bdb_touchlinkSendFNReset,0203H
        ARGFRAME XSTACK, 0, STACK
        PUBLIC bdb_zclRespondentListClean
        FUNCTION bdb_zclRespondentListClean,0a1203H
        ARGFRAME XSTACK, 14, STACK
        ARGFRAME IOVERLAY, 0, STATIC
        ARGFRAME DOVERLAY, 0, STATIC
        LOCFRAME XSTACK, 12, STACK
        FUNCTION gp_ChangeChannelReq,0603H
        ARGFRAME XSTACK, 0, STACK
        LOCFRAME ISTACK, 2, STACK
        PUBLIC pRespondentCurr
        PUBLIC pRespondentHead
        PUBLIC pRespondentNext
        PUBLIC touchLinkTargetEnabled
        PUBLIC vDoPrimaryScan
        PUBLIC zgBdbInstallCodeCRC
        
          CFI Names cfiNames0
          CFI StackFrame CFA_SP SP IDATA
          CFI StackFrame CFA_PSP16 PSP16 XDATA
          CFI StackFrame CFA_XSP16 XSP16 XDATA
          CFI StaticOverlayFrame CFA_IOVERLAY IOVERLAY
          CFI StaticOverlayFrame CFA_DOVERLAY DOVERLAY
          CFI Resource `PSW.CY`:1, `B.BR0`:1, `B.BR1`:1, `B.BR2`:1, `B.BR3`:1
          CFI Resource `B.BR4`:1, `B.BR5`:1, `B.BR6`:1, `B.BR7`:1, `VB.BR8`:1
          CFI Resource `VB.BR9`:1, `VB.BR10`:1, `VB.BR11`:1, `VB.BR12`:1
          CFI Resource `VB.BR13`:1, `VB.BR14`:1, `VB.BR15`:1, VB:8, B:8, A:8
          CFI Resource PSW:8, DPL0:8, DPH0:8, R0:8, R1:8, R2:8, R3:8, R4:8, R5:8
          CFI Resource R6:8, R7:8, V0:8, V1:8, V2:8, V3:8, V4:8, V5:8, V6:8, V7:8
          CFI Resource V8:8, V9:8, V10:8, V11:8, V12:8, V13:8, V14:8, V15:8, SP:8
          CFI Resource PSPH:8, PSPL:8, PSP16:16, XSPH:8, XSPL:8, XSP16:16
          CFI VirtualResource ?RET:24
          CFI Resource ?BRET_EXT:8
          CFI VirtualResource ?RET_HIGH:8, ?RET_LOW:8
          CFI ResourceParts PSP16 PSPH, PSPL
          CFI ResourceParts XSP16 XSPH, XSPL
          CFI ResourceParts ?RET ?BRET_EXT, ?RET_HIGH, ?RET_LOW
          CFI EndNames cfiNames0
        
          CFI Common cfiCommon0 Using cfiNames0
          CFI CodeAlign 1
          CFI DataAlign -1
          CFI ReturnAddress ?RET CODE
          CFI CFA_DOVERLAY Used
          CFI CFA_IOVERLAY Used
          CFI CFA_SP SP+-3
          CFI CFA_PSP16 PSP16+0
          CFI CFA_XSP16 XSP16+0
          CFI `PSW.CY` SameValue
          CFI `B.BR0` SameValue
          CFI `B.BR1` SameValue
          CFI `B.BR2` SameValue
          CFI `B.BR3` SameValue
          CFI `B.BR4` SameValue
          CFI `B.BR5` SameValue
          CFI `B.BR6` SameValue
          CFI `B.BR7` SameValue
          CFI `VB.BR8` SameValue
          CFI `VB.BR9` SameValue
          CFI `VB.BR10` SameValue
          CFI `VB.BR11` SameValue
          CFI `VB.BR12` SameValue
          CFI `VB.BR13` SameValue
          CFI `VB.BR14` SameValue
          CFI `VB.BR15` SameValue
          CFI VB SameValue
          CFI B Undefined
          CFI A Undefined
          CFI PSW SameValue
          CFI DPL0 SameValue
          CFI DPH0 SameValue
          CFI R0 Undefined
          CFI R1 Undefined
          CFI R2 Undefined
          CFI R3 Undefined
          CFI R4 Undefined
          CFI R5 Undefined
          CFI R6 SameValue
          CFI R7 SameValue
          CFI V0 SameValue
          CFI V1 SameValue
          CFI V2 SameValue
          CFI V3 SameValue
          CFI V4 SameValue
          CFI V5 SameValue
          CFI V6 SameValue
          CFI V7 SameValue
          CFI V8 SameValue
          CFI V9 SameValue
          CFI V10 SameValue
          CFI V11 SameValue
          CFI V12 SameValue
          CFI V13 SameValue
          CFI V14 SameValue
          CFI V15 SameValue
          CFI PSPH Undefined
          CFI PSPL Undefined
          CFI XSPH Undefined
          CFI XSPL Undefined
          CFI ?RET Concat
          CFI ?BRET_EXT Frame(CFA_SP, 3)
          CFI ?RET_HIGH Frame(CFA_SP, 2)
          CFI ?RET_LOW Frame(CFA_SP, 1)
          CFI EndCommon cfiCommon0
        
        
          CFI Common cfiCommon1 Using cfiNames0
          CFI CodeAlign 1
          CFI DataAlign -1
          CFI ReturnAddress ?RET CODE
          CFI CFA_DOVERLAY Used
          CFI CFA_IOVERLAY Used
          CFI CFA_SP SP+-2
          CFI CFA_PSP16 PSP16+0
          CFI CFA_XSP16 XSP16+0
          CFI `PSW.CY` SameValue
          CFI `B.BR0` SameValue
          CFI `B.BR1` SameValue
          CFI `B.BR2` SameValue
          CFI `B.BR3` SameValue
          CFI `B.BR4` SameValue
          CFI `B.BR5` SameValue
          CFI `B.BR6` SameValue
          CFI `B.BR7` SameValue
          CFI `VB.BR8` SameValue
          CFI `VB.BR9` SameValue
          CFI `VB.BR10` SameValue
          CFI `VB.BR11` SameValue
          CFI `VB.BR12` SameValue
          CFI `VB.BR13` SameValue
          CFI `VB.BR14` SameValue
          CFI `VB.BR15` SameValue
          CFI VB SameValue
          CFI B SameValue
          CFI A SameValue
          CFI PSW SameValue
          CFI DPL0 SameValue
          CFI DPH0 SameValue
          CFI R0 SameValue
          CFI R1 SameValue
          CFI R2 SameValue
          CFI R3 SameValue
          CFI R4 SameValue
          CFI R5 SameValue
          CFI R6 SameValue
          CFI R7 SameValue
          CFI V0 SameValue
          CFI V1 SameValue
          CFI V2 SameValue
          CFI V3 SameValue
          CFI V4 SameValue
          CFI V5 SameValue
          CFI V6 SameValue
          CFI V7 SameValue
          CFI V8 SameValue
          CFI V9 SameValue
          CFI V10 SameValue
          CFI V11 SameValue
          CFI V12 SameValue
          CFI V13 SameValue
          CFI V14 SameValue
          CFI V15 SameValue
          CFI PSPH Undefined
          CFI PSPL Undefined
          CFI XSPH Undefined
          CFI XSPL Undefined
          CFI ?RET Concat
          CFI ?BRET_EXT SameValue
          CFI ?RET_HIGH Frame(CFA_SP, 2)
          CFI ?RET_LOW Frame(CFA_SP, 1)
          CFI EndCommon cfiCommon1
        
APSME_AddTCLinkKey  SYMBOL "APSME_AddTCLinkKey"
`??APSME_AddTCLinkKey::?relay` SYMBOL "?relay", APSME_AddTCLinkKey
APSME_IsDistributedSecurity SYMBOL "APSME_IsDistributedSecurity"
`??APSME_IsDistributedSecurity::?relay` SYMBOL "?relay", APSME_IsDistributedSecurity
APSME_SearchTCLinkKeyEntry SYMBOL "APSME_SearchTCLinkKeyEntry"
`??APSME_SearchTCLinkKeyEntry::?relay` SYMBOL "?relay", APSME_SearchTCLinkKeyEntry
AddrMgrEntryLookupExt SYMBOL "AddrMgrEntryLookupExt"
`??AddrMgrEntryLookupExt::?relay` SYMBOL "?relay", AddrMgrEntryLookupExt
`?<Name GP_DataCnf 8>` SYMBOL "GP_DataCnf"
`??GP_DataCnf::?relay` SYMBOL "?relay", `?<Name GP_DataCnf 8>`
`?<Name GP_DataInd 10>` SYMBOL "GP_DataInd"
`??GP_DataInd::?relay` SYMBOL "?relay", `?<Name GP_DataInd 10>`
`?<Name GP_SecReq 12>` SYMBOL "GP_SecReq"
`??GP_SecReq::?relay` SYMBOL "?relay", `?<Name GP_SecReq 12>`
HalUARTWrite        SYMBOL "HalUARTWrite"
`??HalUARTWrite::?relay` SYMBOL "?relay", HalUARTWrite
NLME_ReJoinRequest  SYMBOL "NLME_ReJoinRequest"
`??NLME_ReJoinRequest::?relay` SYMBOL "?relay", NLME_ReJoinRequest
NLME_ReJoinRequestUnsecure SYMBOL "NLME_ReJoinRequestUnsecure"
`??NLME_ReJoinRequestUnsecure::?relay` SYMBOL "?relay", NLME_ReJoinRequestUnsecure
NLME_ResetRequest   SYMBOL "NLME_ResetRequest"
`??NLME_ResetRequest::?relay` SYMBOL "?relay", NLME_ResetRequest
ZDApp_ChangeState   SYMBOL "ZDApp_ChangeState"
`??ZDApp_ChangeState::?relay` SYMBOL "?relay", ZDApp_ChangeState
ZDApp_ReadNetworkRestoreState SYMBOL "ZDApp_ReadNetworkRestoreState"
`??ZDApp_ReadNetworkRestoreState::?relay` SYMBOL "?relay", ZDApp_ReadNetworkRestoreState
ZDApp_ResetTimerStart SYMBOL "ZDApp_ResetTimerStart"
`??ZDApp_ResetTimerStart::?relay` SYMBOL "?relay", ZDApp_ResetTimerStart
ZDApp_RestoreNwkKey SYMBOL "ZDApp_RestoreNwkKey"
`??ZDApp_RestoreNwkKey::?relay` SYMBOL "?relay", ZDApp_RestoreNwkKey
ZDApp_RestoreNwkSecMaterial SYMBOL "ZDApp_RestoreNwkSecMaterial"
`??ZDApp_RestoreNwkSecMaterial::?relay` SYMBOL "?relay", ZDApp_RestoreNwkSecMaterial
ZDOInitDeviceEx     SYMBOL "ZDOInitDeviceEx"
`??ZDOInitDeviceEx::?relay` SYMBOL "?relay", ZDOInitDeviceEx
ZDO_ParseNodeDescRsp SYMBOL "ZDO_ParseNodeDescRsp"
`??ZDO_ParseNodeDescRsp::?relay` SYMBOL "?relay", ZDO_ParseNodeDescRsp
ZDO_RegisterForZDOMsg SYMBOL "ZDO_RegisterForZDOMsg"
`??ZDO_RegisterForZDOMsg::?relay` SYMBOL "?relay", ZDO_RegisterForZDOMsg
ZDP_MgmtPermitJoinReq SYMBOL "ZDP_MgmtPermitJoinReq"
`??ZDP_MgmtPermitJoinReq::?relay` SYMBOL "?relay", ZDP_MgmtPermitJoinReq
ZDSecMgrAPSRemove   SYMBOL "ZDSecMgrAPSRemove"
`??ZDSecMgrAPSRemove::?relay` SYMBOL "?relay", ZDSecMgrAPSRemove
ZDSecMgrAddrClear   SYMBOL "ZDSecMgrAddrClear"
`??ZDSecMgrAddrClear::?relay` SYMBOL "?relay", ZDSecMgrAddrClear
ZMacSetReq          SYMBOL "ZMacSetReq"
`??ZMacSetReq::?relay` SYMBOL "?relay", ZMacSetReq
afRegister          SYMBOL "afRegister"
`??afRegister::?relay` SYMBOL "?relay", afRegister
bdb_ProcessIEEEAddrRsp SYMBOL "bdb_ProcessIEEEAddrRsp"
`??bdb_ProcessIEEEAddrRsp::?relay` SYMBOL "?relay", bdb_ProcessIEEEAddrRsp
bdb_ProcessRespondentList SYMBOL "bdb_ProcessRespondentList"
`??bdb_ProcessRespondentList::?relay` SYMBOL "?relay", bdb_ProcessRespondentList
bdb_ProcessSimpleDesc SYMBOL "bdb_ProcessSimpleDesc"
`??bdb_ProcessSimpleDesc::?relay` SYMBOL "?relay", bdb_ProcessSimpleDesc
bdb_RepConstructReportingData SYMBOL "bdb_RepConstructReportingData"
`??bdb_RepConstructReportingData::?relay` SYMBOL "?relay", bdb_RepConstructReportingData
bdb_RepInit         SYMBOL "bdb_RepInit"
`??bdb_RepInit::?relay` SYMBOL "?relay", bdb_RepInit
bdb_RepProcessEvent SYMBOL "bdb_RepProcessEvent"
`??bdb_RepProcessEvent::?relay` SYMBOL "?relay", bdb_RepProcessEvent
bdb_RepUpdateMarkBindings SYMBOL "bdb_RepUpdateMarkBindings"
`??bdb_RepUpdateMarkBindings::?relay` SYMBOL "?relay", bdb_RepUpdateMarkBindings
bdb_SendIdentifyQuery SYMBOL "bdb_SendIdentifyQuery"
`??bdb_SendIdentifyQuery::?relay` SYMBOL "?relay", bdb_SendIdentifyQuery
bdb_exitFindingBindingWStatus SYMBOL "bdb_exitFindingBindingWStatus"
`??bdb_exitFindingBindingWStatus::?relay` SYMBOL "?relay", bdb_exitFindingBindingWStatus
bdb_getRespondentRetry SYMBOL "bdb_getRespondentRetry"
`??bdb_getRespondentRetry::?relay` SYMBOL "?relay", bdb_getRespondentRetry
bdb_setEpDescListToActiveEndpoint SYMBOL "bdb_setEpDescListToActiveEndpoint"
`??bdb_setEpDescListToActiveEndpoint::?relay` SYMBOL "?relay", bdb_setEpDescListToActiveEndpoint
bdb_setNodeJoinLinkKeyType SYMBOL "bdb_setNodeJoinLinkKeyType"
`??bdb_setNodeJoinLinkKeyType::?relay` SYMBOL "?relay", bdb_setNodeJoinLinkKeyType
bdb_tcLinkKeyExchangeAttempt SYMBOL "bdb_tcLinkKeyExchangeAttempt"
`??bdb_tcLinkKeyExchangeAttempt::?relay` SYMBOL "?relay", bdb_tcLinkKeyExchangeAttempt
`?<Name gp_CheckAnnouncedDev 74>` SYMBOL "gp_CheckAnnouncedDevice"
`??gp_CheckAnnouncedDevice::?relay` SYMBOL "?relay", `?<Name gp_CheckAnnouncedDev 74>`
gp_RegisterGPChangeChannelReqForBDBCB SYMBOL "gp_RegisterGPChangeChannelReqForBDBCB"
`??gp_RegisterGPChangeChannelReqForBDBCB::?relay` SYMBOL "?relay", gp_RegisterGPChangeChannelReqForBDBCB
gp_endpointInit     SYMBOL "gp_endpointInit"
`??gp_endpointInit::?relay` SYMBOL "?relay", gp_endpointInit
`?<Name gp_expireDuplicateFi 80>` SYMBOL "gp_expireDuplicateFiltering"
`??gp_expireDuplicateFiltering::?relay` SYMBOL "?relay", `?<Name gp_expireDuplicateFi 80>`
`?<Name gp_returnOperational 82>` SYMBOL "gp_returnOperationalChannel"
`??gp_returnOperationalChannel::?relay` SYMBOL "?relay", `?<Name gp_returnOperational 82>`
`?<Name gp_stopCommissioning 84>` SYMBOL "gp_stopCommissioningMode"
`??gp_stopCommissioningMode::?relay` SYMBOL "?relay", `?<Name gp_stopCommissioning 84>`
nwk_setStateIdle    SYMBOL "nwk_setStateIdle"
`??nwk_setStateIdle::?relay` SYMBOL "?relay", nwk_setStateIdle
osal_build_uint16   SYMBOL "osal_build_uint16"
`??osal_build_uint16::?relay` SYMBOL "?relay", osal_build_uint16
osal_get_timeoutEx  SYMBOL "osal_get_timeoutEx"
`??osal_get_timeoutEx::?relay` SYMBOL "?relay", osal_get_timeoutEx
osal_isbufset       SYMBOL "osal_isbufset"
`??osal_isbufset::?relay` SYMBOL "?relay", osal_isbufset
osal_mem_alloc      SYMBOL "osal_mem_alloc"
`??osal_mem_alloc::?relay` SYMBOL "?relay", osal_mem_alloc
osal_mem_free       SYMBOL "osal_mem_free"
`??osal_mem_free::?relay` SYMBOL "?relay", osal_mem_free
osal_memcmp         SYMBOL "osal_memcmp"
`??osal_memcmp::?relay` SYMBOL "?relay", osal_memcmp
osal_memcpy         SYMBOL "osal_memcpy"
`??osal_memcpy::?relay` SYMBOL "?relay", osal_memcpy
osal_memset         SYMBOL "osal_memset"
`??osal_memset::?relay` SYMBOL "?relay", osal_memset
osal_msg_allocate   SYMBOL "osal_msg_allocate"
`??osal_msg_allocate::?relay` SYMBOL "?relay", osal_msg_allocate
osal_msg_deallocate SYMBOL "osal_msg_deallocate"
`??osal_msg_deallocate::?relay` SYMBOL "?relay", osal_msg_deallocate
osal_msg_receive    SYMBOL "osal_msg_receive"
`??osal_msg_receive::?relay` SYMBOL "?relay", osal_msg_receive
osal_msg_send       SYMBOL "osal_msg_send"
`??osal_msg_send::?relay` SYMBOL "?relay", osal_msg_send
osal_nv_delete      SYMBOL "osal_nv_delete"
`??osal_nv_delete::?relay` SYMBOL "?relay", osal_nv_delete
osal_nv_item_len    SYMBOL "osal_nv_item_len"
`??osal_nv_item_len::?relay` SYMBOL "?relay", osal_nv_item_len
osal_nv_read        SYMBOL "osal_nv_read"
`??osal_nv_read::?relay` SYMBOL "?relay", osal_nv_read
osal_nv_write       SYMBOL "osal_nv_write"
`??osal_nv_write::?relay` SYMBOL "?relay", osal_nv_write
osal_set_event      SYMBOL "osal_set_event"
`??osal_set_event::?relay` SYMBOL "?relay", osal_set_event
osal_start_reload_timer SYMBOL "osal_start_reload_timer"
`??osal_start_reload_timer::?relay` SYMBOL "?relay", osal_start_reload_timer
osal_start_timerEx  SYMBOL "osal_start_timerEx"
`??osal_start_timerEx::?relay` SYMBOL "?relay", osal_start_timerEx
osal_stop_timerEx   SYMBOL "osal_stop_timerEx"
`??osal_stop_timerEx::?relay` SYMBOL "?relay", osal_stop_timerEx
sspMMOHash          SYMBOL "sspMMOHash"
`??sspMMOHash::?relay` SYMBOL "?relay", sspMMOHash
zclFindAttrRec      SYMBOL "zclFindAttrRec"
`??zclFindAttrRec::?relay` SYMBOL "?relay", zclFindAttrRec
zgWriteStartupOptions SYMBOL "zgWriteStartupOptions"
`??zgWriteStartupOptions::?relay` SYMBOL "?relay", zgWriteStartupOptions
bdb_AddRespondentNode SYMBOL "bdb_AddRespondentNode"
`??bdb_AddRespondentNode::?relay` SYMBOL "?relay", bdb_AddRespondentNode
bdb_ClearNetworkParams SYMBOL "bdb_ClearNetworkParams"
`??bdb_ClearNetworkParams::?relay` SYMBOL "?relay", bdb_ClearNetworkParams
bdb_CreateRespondentList SYMBOL "bdb_CreateRespondentList"
`??bdb_CreateRespondentList::?relay` SYMBOL "?relay", bdb_CreateRespondentList
bdb_GenerateInstallCodeCRC SYMBOL "bdb_GenerateInstallCodeCRC"
`??bdb_GenerateInstallCodeCRC::?relay` SYMBOL "?relay", bdb_GenerateInstallCodeCRC
bdb_Init            SYMBOL "bdb_Init"
`??bdb_Init::?relay` SYMBOL "?relay", bdb_Init
bdb_NetworkRestoredResumeState SYMBOL "bdb_NetworkRestoredResumeState"
`??bdb_NetworkRestoredResumeState::?relay` SYMBOL "?relay", bdb_NetworkRestoredResumeState
bdb_NotifyCommissioningModeStart SYMBOL "bdb_NotifyCommissioningModeStart"
`??bdb_NotifyCommissioningModeStart::?relay` SYMBOL "?relay", bdb_NotifyCommissioningModeStart
bdb_ProcessNodeDescRsp SYMBOL "bdb_ProcessNodeDescRsp"
`??bdb_ProcessNodeDescRsp::?relay` SYMBOL "?relay", bdb_ProcessNodeDescRsp
bdb_RegisterCommissioningStatusCB SYMBOL "bdb_RegisterCommissioningStatusCB"
`??bdb_RegisterCommissioningStatusCB::?relay` SYMBOL "?relay", bdb_RegisterCommissioningStatusCB
bdb_RegisterSimpleDescriptor SYMBOL "bdb_RegisterSimpleDescriptor"
`??bdb_RegisterSimpleDescriptor::?relay` SYMBOL "?relay", bdb_RegisterSimpleDescriptor
bdb_RegisterTCLinkKeyExchangeProcessCB SYMBOL "bdb_RegisterTCLinkKeyExchangeProcessCB"
`??bdb_RegisterTCLinkKeyExchangeProcessCB::?rela` SYMBOL "?relay", bdb_RegisterTCLinkKeyExchangeProcessCB
bdb_SendMsg         SYMBOL "bdb_SendMsg"
`??bdb_SendMsg::?relay` SYMBOL "?relay", bdb_SendMsg
bdb_StartCommissioning SYMBOL "bdb_StartCommissioning"
`??bdb_StartCommissioning::?relay` SYMBOL "?relay", bdb_StartCommissioning
bdb_TCAddJoiningDevice SYMBOL "bdb_TCAddJoiningDevice"
`??bdb_TCAddJoiningDevice::?relay` SYMBOL "?relay", bdb_TCAddJoiningDevice
bdb_TCjoiningDeviceComplete SYMBOL "bdb_TCjoiningDeviceComplete"
`??bdb_TCjoiningDeviceComplete::?relay` SYMBOL "?relay", bdb_TCjoiningDeviceComplete
bdb_ZclIdentifyCmdInd SYMBOL "bdb_ZclIdentifyCmdInd"
`??bdb_ZclIdentifyCmdInd::?relay` SYMBOL "?relay", bdb_ZclIdentifyCmdInd
bdb_addInstallCode  SYMBOL "bdb_addInstallCode"
`??bdb_addInstallCode::?relay` SYMBOL "?relay", bdb_addInstallCode
bdb_calculateCCITT_CRC SYMBOL "bdb_calculateCCITT_CRC"
`??bdb_calculateCCITT_CRC::?relay` SYMBOL "?relay", bdb_calculateCCITT_CRC
bdb_crcBitByBitFast SYMBOL "bdb_crcBitByBitFast"
`??bdb_crcBitByBitFast::?relay` SYMBOL "?relay", bdb_crcBitByBitFast
bdb_crcInit         SYMBOL "bdb_crcInit"
`??bdb_crcInit::?relay` SYMBOL "?relay", bdb_crcInit
bdb_crcReflect      SYMBOL "bdb_crcReflect"
`??bdb_crcReflect::?relay` SYMBOL "?relay", bdb_crcReflect
bdb_doTrustCenterRequireKeyExchange SYMBOL "bdb_doTrustCenterRequireKeyExchange"
`??bdb_doTrustCenterRequireKeyExchange::?relay` SYMBOL "?relay", bdb_doTrustCenterRequireKeyExchange
bdb_event_loop      SYMBOL "bdb_event_loop"
`??bdb_event_loop::?relay` SYMBOL "?relay", bdb_event_loop
bdb_getZCLFrameCounter SYMBOL "bdb_getZCLFrameCounter"
`??bdb_getZCLFrameCounter::?relay` SYMBOL "?relay", bdb_getZCLFrameCounter
bdb_isDeviceNonFactoryNew SYMBOL "bdb_isDeviceNonFactoryNew"
`??bdb_isDeviceNonFactoryNew::?relay` SYMBOL "?relay", bdb_isDeviceNonFactoryNew
bdb_nwkFormationAttempt SYMBOL "bdb_nwkFormationAttempt"
`??bdb_nwkFormationAttempt::?relay` SYMBOL "?relay", bdb_nwkFormationAttempt
bdb_parentLost      SYMBOL "bdb_parentLost"
`??bdb_parentLost::?relay` SYMBOL "?relay", bdb_parentLost
bdb_rejoinNwk       SYMBOL "bdb_rejoinNwk"
`??bdb_rejoinNwk::?relay` SYMBOL "?relay", bdb_rejoinNwk
bdb_reportCommissioningState SYMBOL "bdb_reportCommissioningState"
`??bdb_reportCommissioningState::?relay` SYMBOL "?relay", bdb_reportCommissioningState
bdb_resetLocalAction SYMBOL "bdb_resetLocalAction"
`??bdb_resetLocalAction::?relay` SYMBOL "?relay", bdb_resetLocalAction
bdb_setChannel      SYMBOL "bdb_setChannel"
`??bdb_setChannel::?relay` SYMBOL "?relay", bdb_setChannel
bdb_setChannelAttribute SYMBOL "bdb_setChannelAttribute"
`??bdb_setChannelAttribute::?relay` SYMBOL "?relay", bdb_setChannelAttribute
bdb_setCommissioningGroupID SYMBOL "bdb_setCommissioningGroupID"
`??bdb_setCommissioningGroupID::?relay` SYMBOL "?relay", bdb_setCommissioningGroupID
bdb_setFN           SYMBOL "bdb_setFN"
`??bdb_setFN::?relay` SYMBOL "?relay", bdb_setFN
bdb_setJoinUsesInstallCodeKey SYMBOL "bdb_setJoinUsesInstallCodeKey"
`??bdb_setJoinUsesInstallCodeKey::?relay` SYMBOL "?relay", bdb_setJoinUsesInstallCodeKey
bdb_setNodeIsOnANetwork SYMBOL "bdb_setNodeIsOnANetwork"
`??bdb_setNodeIsOnANetwork::?relay` SYMBOL "?relay", bdb_setNodeIsOnANetwork
bdb_setTCRequireKeyExchange SYMBOL "bdb_setTCRequireKeyExchange"
`??bdb_setTCRequireKeyExchange::?relay` SYMBOL "?relay", bdb_setTCRequireKeyExchange
bdb_touchlinkSendFNReset SYMBOL "bdb_touchlinkSendFNReset"
`??bdb_touchlinkSendFNReset::?relay` SYMBOL "?relay", bdb_touchlinkSendFNReset
bdb_zclRespondentListClean SYMBOL "bdb_zclRespondentListClean"
`??bdb_zclRespondentListClean::?relay` SYMBOL "?relay", bdb_zclRespondentListClean

        EXTERN `??APSME_AddTCLinkKey::?relay`
        FUNCTION `??APSME_AddTCLinkKey::?relay`,00H
        EXTERN `??APSME_IsDistributedSecurity::?relay`
        FUNCTION `??APSME_IsDistributedSecurity::?relay`,00H
        EXTERN `??APSME_SearchTCLinkKeyEntry::?relay`
        FUNCTION `??APSME_SearchTCLinkKeyEntry::?relay`,00H
        EXTERN `??AddrMgrEntryLookupExt::?relay`
        FUNCTION `??AddrMgrEntryLookupExt::?relay`,00H
        EXTERN `??GP_DataCnf::?relay`
        FUNCTION `??GP_DataCnf::?relay`,00H
        EXTERN `??GP_DataInd::?relay`
        FUNCTION `??GP_DataInd::?relay`,00H
        EXTERN `??GP_SecReq::?relay`
        FUNCTION `??GP_SecReq::?relay`,00H
        EXTERN `??HalUARTWrite::?relay`
        FUNCTION `??HalUARTWrite::?relay`,00H
        EXTERN `??NLME_ReJoinRequest::?relay`
        FUNCTION `??NLME_ReJoinRequest::?relay`,00H
        EXTERN `??NLME_ReJoinRequestUnsecure::?relay`
        FUNCTION `??NLME_ReJoinRequestUnsecure::?relay`,00H
        EXTERN `??NLME_ResetRequest::?relay`
        FUNCTION `??NLME_ResetRequest::?relay`,00H
        EXTERN `??ZDApp_ChangeState::?relay`
        FUNCTION `??ZDApp_ChangeState::?relay`,00H
        EXTERN `??ZDApp_ReadNetworkRestoreState::?relay`
        FUNCTION `??ZDApp_ReadNetworkRestoreState::?relay`,00H
        EXTERN `??ZDApp_ResetTimerStart::?relay`
        FUNCTION `??ZDApp_ResetTimerStart::?relay`,00H
        EXTERN `??ZDApp_RestoreNwkKey::?relay`
        FUNCTION `??ZDApp_RestoreNwkKey::?relay`,00H
        EXTERN `??ZDApp_RestoreNwkSecMaterial::?relay`
        FUNCTION `??ZDApp_RestoreNwkSecMaterial::?relay`,00H
        EXTERN `??ZDOInitDeviceEx::?relay`
        FUNCTION `??ZDOInitDeviceEx::?relay`,00H
        EXTERN `??ZDO_ParseNodeDescRsp::?relay`
        FUNCTION `??ZDO_ParseNodeDescRsp::?relay`,00H
        EXTERN `??ZDO_RegisterForZDOMsg::?relay`
        FUNCTION `??ZDO_RegisterForZDOMsg::?relay`,00H
        EXTERN `??ZDP_MgmtPermitJoinReq::?relay`
        FUNCTION `??ZDP_MgmtPermitJoinReq::?relay`,00H
        EXTERN `??ZDSecMgrAPSRemove::?relay`
        FUNCTION `??ZDSecMgrAPSRemove::?relay`,00H
        EXTERN `??ZDSecMgrAddrClear::?relay`
        FUNCTION `??ZDSecMgrAddrClear::?relay`,00H
        EXTERN `??ZMacSetReq::?relay`
        FUNCTION `??ZMacSetReq::?relay`,00H
        EXTERN `??afRegister::?relay`
        FUNCTION `??afRegister::?relay`,00H
        EXTERN `??bdb_ProcessIEEEAddrRsp::?relay`
        FUNCTION `??bdb_ProcessIEEEAddrRsp::?relay`,00H
        EXTERN `??bdb_ProcessRespondentList::?relay`
        FUNCTION `??bdb_ProcessRespondentList::?relay`,00H
        EXTERN `??bdb_ProcessSimpleDesc::?relay`
        FUNCTION `??bdb_ProcessSimpleDesc::?relay`,00H
        EXTERN `??bdb_RepConstructReportingData::?relay`
        FUNCTION `??bdb_RepConstructReportingData::?relay`,00H
        EXTERN `??bdb_RepInit::?relay`
        FUNCTION `??bdb_RepInit::?relay`,00H
        EXTERN `??bdb_RepProcessEvent::?relay`
        FUNCTION `??bdb_RepProcessEvent::?relay`,00H
        EXTERN `??bdb_RepUpdateMarkBindings::?relay`
        FUNCTION `??bdb_RepUpdateMarkBindings::?relay`,00H
        EXTERN `??bdb_SendIdentifyQuery::?relay`
        FUNCTION `??bdb_SendIdentifyQuery::?relay`,00H
        EXTERN `??bdb_exitFindingBindingWStatus::?relay`
        FUNCTION `??bdb_exitFindingBindingWStatus::?relay`,00H
        EXTERN `??bdb_getRespondentRetry::?relay`
        FUNCTION `??bdb_getRespondentRetry::?relay`,00H
        EXTERN `??bdb_setEpDescListToActiveEndpoint::?relay`
        FUNCTION `??bdb_setEpDescListToActiveEndpoint::?relay`,00H
        EXTERN `??bdb_setNodeJoinLinkKeyType::?relay`
        FUNCTION `??bdb_setNodeJoinLinkKeyType::?relay`,00H
        EXTERN `??bdb_tcLinkKeyExchangeAttempt::?relay`
        FUNCTION `??bdb_tcLinkKeyExchangeAttempt::?relay`,00H
        EXTERN `??gp_CheckAnnouncedDevice::?relay`
        FUNCTION `??gp_CheckAnnouncedDevice::?relay`,00H
        EXTERN `??gp_RegisterGPChangeChannelReqForBDBCB::?relay`
        FUNCTION `??gp_RegisterGPChangeChannelReqForBDBCB::?relay`,00H
        EXTERN `??gp_endpointInit::?relay`
        FUNCTION `??gp_endpointInit::?relay`,00H
        EXTERN `??gp_expireDuplicateFiltering::?relay`
        FUNCTION `??gp_expireDuplicateFiltering::?relay`,00H
        EXTERN `??gp_returnOperationalChannel::?relay`
        FUNCTION `??gp_returnOperationalChannel::?relay`,00H
        EXTERN `??gp_stopCommissioningMode::?relay`
        FUNCTION `??gp_stopCommissioningMode::?relay`,00H
        EXTERN `??nwk_setStateIdle::?relay`
        FUNCTION `??nwk_setStateIdle::?relay`,00H
        EXTERN `??osal_build_uint16::?relay`
        FUNCTION `??osal_build_uint16::?relay`,00H
        EXTERN `??osal_get_timeoutEx::?relay`
        FUNCTION `??osal_get_timeoutEx::?relay`,00H
        EXTERN `??osal_isbufset::?relay`
        FUNCTION `??osal_isbufset::?relay`,00H
        EXTERN `??osal_mem_alloc::?relay`
        FUNCTION `??osal_mem_alloc::?relay`,00H
        EXTERN `??osal_mem_free::?relay`
        FUNCTION `??osal_mem_free::?relay`,00H
        EXTERN `??osal_memcmp::?relay`
        FUNCTION `??osal_memcmp::?relay`,00H
        EXTERN `??osal_memcpy::?relay`
        FUNCTION `??osal_memcpy::?relay`,00H
        EXTERN `??osal_memset::?relay`
        FUNCTION `??osal_memset::?relay`,00H
        EXTERN `??osal_msg_allocate::?relay`
        FUNCTION `??osal_msg_allocate::?relay`,00H
        EXTERN `??osal_msg_deallocate::?relay`
        FUNCTION `??osal_msg_deallocate::?relay`,00H
        EXTERN `??osal_msg_receive::?relay`
        FUNCTION `??osal_msg_receive::?relay`,00H
        EXTERN `??osal_msg_send::?relay`
        FUNCTION `??osal_msg_send::?relay`,00H
        EXTERN `??osal_nv_delete::?relay`
        FUNCTION `??osal_nv_delete::?relay`,00H
        EXTERN `??osal_nv_item_len::?relay`
        FUNCTION `??osal_nv_item_len::?relay`,00H
        EXTERN `??osal_nv_read::?relay`
        FUNCTION `??osal_nv_read::?relay`,00H
        EXTERN `??osal_nv_write::?relay`
        FUNCTION `??osal_nv_write::?relay`,00H
        EXTERN `??osal_set_event::?relay`
        FUNCTION `??osal_set_event::?relay`,00H
        EXTERN `??osal_start_reload_timer::?relay`
        FUNCTION `??osal_start_reload_timer::?relay`,00H
        EXTERN `??osal_start_timerEx::?relay`
        FUNCTION `??osal_start_timerEx::?relay`,00H
        EXTERN `??osal_stop_timerEx::?relay`
        FUNCTION `??osal_stop_timerEx::?relay`,00H
        EXTERN `??sspMMOHash::?relay`
        FUNCTION `??sspMMOHash::?relay`,00H
        EXTERN `??zclFindAttrRec::?relay`
        FUNCTION `??zclFindAttrRec::?relay`,00H
        EXTERN `??zgWriteStartupOptions::?relay`
        FUNCTION `??zgWriteStartupOptions::?relay`,00H
        EXTERN AIB_apsTrustCenterAddress
        EXTERN APSME_AddTCLinkKey
        FUNCTION APSME_AddTCLinkKey,0202H
        ARGFRAME ISTACK, 0, STACK
        ARGFRAME PSTACK, 0, STACK
        ARGFRAME XSTACK, 30, STACK
        ARGFRAME IOVERLAY, 0, STATIC
        ARGFRAME DOVERLAY, 0, STATIC
        EXTERN APSME_IsDistributedSecurity
        FUNCTION APSME_IsDistributedSecurity,0202H
        ARGFRAME ISTACK, 0, STACK
        ARGFRAME PSTACK, 0, STACK
        ARGFRAME XSTACK, 97, STACK
        ARGFRAME IOVERLAY, 0, STATIC
        ARGFRAME DOVERLAY, 0, STATIC
        EXTERN APSME_SearchTCLinkKeyEntry
        FUNCTION APSME_SearchTCLinkKeyEntry,0202H
        ARGFRAME ISTACK, 0, STACK
        ARGFRAME PSTACK, 0, STACK
        ARGFRAME XSTACK, 59, STACK
        ARGFRAME IOVERLAY, 0, STATIC
        ARGFRAME DOVERLAY, 0, STATIC
        EXTERN AddrMgrEntryLookupExt
        FUNCTION AddrMgrEntryLookupExt,0202H
        ARGFRAME ISTACK, 0, STACK
        ARGFRAME PSTACK, 0, STACK
        ARGFRAME XSTACK, 57, STACK
        ARGFRAME IOVERLAY, 0, STATIC
        ARGFRAME DOVERLAY, 0, STATIC
        EXTERN GP_CheckAnnouncedDeviceGCB
        EXTERN GP_DataCnfGCB
        EXTERN GP_DataIndGCB
        EXTERN GP_SecReqGCB
        EXTERN GP_aliasConflictAnnce
        EXTERN GP_endpointInitGCB
        EXTERN GP_expireDuplicateFilteringGCB
        EXTERN GP_returnOperationalChannelGCB
        EXTERN GP_stopCommissioningModeGCB
        EXTERN HalUARTWrite
        FUNCTION HalUARTWrite,0202H
        ARGFRAME ISTACK, 0, STACK
        ARGFRAME PSTACK, 0, STACK
        ARGFRAME XSTACK, 97, STACK
        ARGFRAME IOVERLAY, 0, STATIC
        ARGFRAME DOVERLAY, 0, STATIC
        EXTERN NLME_ReJoinRequest
        FUNCTION NLME_ReJoinRequest,0202H
        ARGFRAME ISTACK, 0, STACK
        ARGFRAME PSTACK, 0, STACK
        ARGFRAME XSTACK, 11, STACK
        ARGFRAME IOVERLAY, 0, STATIC
        ARGFRAME DOVERLAY, 0, STATIC
        EXTERN NLME_ReJoinRequestUnsecure
        FUNCTION NLME_ReJoinRequestUnsecure,0202H
        ARGFRAME ISTACK, 0, STACK
        ARGFRAME PSTACK, 0, STACK
        ARGFRAME XSTACK, 11, STACK
        ARGFRAME IOVERLAY, 0, STATIC
        ARGFRAME DOVERLAY, 0, STATIC
        EXTERN NLME_ResetRequest
        FUNCTION NLME_ResetRequest,0202H
        ARGFRAME ISTACK, 0, STACK
        ARGFRAME PSTACK, 0, STACK
        ARGFRAME XSTACK, 14, STACK
        ARGFRAME IOVERLAY, 0, STATIC
        ARGFRAME DOVERLAY, 0, STATIC
        EXTERN TCLinkKeyFrmCntr
        EXTERN ZDApp_ChangeState
        FUNCTION ZDApp_ChangeState,0202H
        ARGFRAME ISTACK, 0, STACK
        ARGFRAME PSTACK, 0, STACK
        ARGFRAME XSTACK, 14, STACK
        ARGFRAME IOVERLAY, 0, STATIC
        ARGFRAME DOVERLAY, 0, STATIC
        EXTERN ZDApp_ReadNetworkRestoreState
        FUNCTION ZDApp_ReadNetworkRestoreState,0202H
        ARGFRAME ISTACK, 0, STACK
        ARGFRAME PSTACK, 0, STACK
        ARGFRAME XSTACK, 97, STACK
        ARGFRAME IOVERLAY, 0, STATIC
        ARGFRAME DOVERLAY, 0, STATIC
        EXTERN ZDApp_ResetTimerStart
        FUNCTION ZDApp_ResetTimerStart,0202H
        ARGFRAME ISTACK, 2, STACK
        ARGFRAME PSTACK, 0, STACK
        ARGFRAME XSTACK, 0, STACK
        ARGFRAME IOVERLAY, 0, STATIC
        ARGFRAME DOVERLAY, 0, STATIC
        EXTERN ZDApp_RestoreNwkKey
        FUNCTION ZDApp_RestoreNwkKey,0202H
        ARGFRAME ISTACK, 0, STACK
        ARGFRAME PSTACK, 0, STACK
        ARGFRAME XSTACK, 11, STACK
        ARGFRAME IOVERLAY, 0, STATIC
        ARGFRAME DOVERLAY, 0, STATIC
        EXTERN ZDApp_RestoreNwkSecMaterial
        FUNCTION ZDApp_RestoreNwkSecMaterial,0202H
        ARGFRAME ISTACK, 0, STACK
        ARGFRAME PSTACK, 0, STACK
        ARGFRAME XSTACK, 14, STACK
        ARGFRAME IOVERLAY, 0, STATIC
        ARGFRAME DOVERLAY, 0, STATIC
        EXTERN ZDOInitDeviceEx
        FUNCTION ZDOInitDeviceEx,0202H
        ARGFRAME ISTACK, 0, STACK
        ARGFRAME PSTACK, 0, STACK
        ARGFRAME XSTACK, 97, STACK
        ARGFRAME IOVERLAY, 0, STATIC
        ARGFRAME DOVERLAY, 0, STATIC
        EXTERN ZDO_ParseNodeDescRsp
        FUNCTION ZDO_ParseNodeDescRsp,0202H
        ARGFRAME ISTACK, 0, STACK
        ARGFRAME PSTACK, 0, STACK
        ARGFRAME XSTACK, 45, STACK
        ARGFRAME IOVERLAY, 0, STATIC
        ARGFRAME DOVERLAY, 0, STATIC
        EXTERN ZDO_RegisterForZDOMsg
        FUNCTION ZDO_RegisterForZDOMsg,0202H
        ARGFRAME ISTACK, 0, STACK
        ARGFRAME PSTACK, 0, STACK
        ARGFRAME XSTACK, 9, STACK
        ARGFRAME IOVERLAY, 0, STATIC
        ARGFRAME DOVERLAY, 0, STATIC
        EXTERN ZDO_UseExtendedPANID
        EXTERN ZDP_MgmtPermitJoinReq
        FUNCTION ZDP_MgmtPermitJoinReq,0202H
        ARGFRAME ISTACK, 2, STACK
        ARGFRAME PSTACK, 0, STACK
        ARGFRAME XSTACK, 9, STACK
        ARGFRAME IOVERLAY, 0, STATIC
        ARGFRAME DOVERLAY, 0, STATIC
        EXTERN ZDSecMgrAPSRemove
        FUNCTION ZDSecMgrAPSRemove,0202H
        ARGFRAME ISTACK, 0, STACK
        ARGFRAME PSTACK, 0, STACK
        ARGFRAME XSTACK, 59, STACK
        ARGFRAME IOVERLAY, 0, STATIC
        ARGFRAME DOVERLAY, 0, STATIC
        EXTERN ZDSecMgrAddrClear
        FUNCTION ZDSecMgrAddrClear,0202H
        ARGFRAME ISTACK, 0, STACK
        ARGFRAME PSTACK, 0, STACK
        ARGFRAME XSTACK, 57, STACK
        ARGFRAME IOVERLAY, 0, STATIC
        ARGFRAME DOVERLAY, 0, STATIC
        EXTERN ZMacSetReq
        FUNCTION ZMacSetReq,0202H
        ARGFRAME ISTACK, 0, STACK
        ARGFRAME PSTACK, 0, STACK
        ARGFRAME XSTACK, 14, STACK
        ARGFRAME IOVERLAY, 0, STATIC
        ARGFRAME DOVERLAY, 0, STATIC
        EXTERN _NIB
        EXTERN afRegister
        FUNCTION afRegister,0202H
        ARGFRAME ISTACK, 0, STACK
        ARGFRAME PSTACK, 0, STACK
        ARGFRAME XSTACK, 10, STACK
        ARGFRAME IOVERLAY, 0, STATIC
        ARGFRAME DOVERLAY, 0, STATIC
        EXTERN aliasConflictAnnce
        EXTERN bdbIndentifyActiveEndpoint
        EXTERN bdb_ProcessIEEEAddrRsp
        FUNCTION bdb_ProcessIEEEAddrRsp,0202H
        ARGFRAME ISTACK, 0, STACK
        ARGFRAME PSTACK, 0, STACK
        ARGFRAME XSTACK, 24, STACK
        ARGFRAME IOVERLAY, 0, STATIC
        ARGFRAME DOVERLAY, 0, STATIC
        EXTERN bdb_ProcessRespondentList
        FUNCTION bdb_ProcessRespondentList,0202H
        ARGFRAME ISTACK, 0, STACK
        ARGFRAME PSTACK, 0, STACK
        ARGFRAME XSTACK, 24, STACK
        ARGFRAME IOVERLAY, 0, STATIC
        ARGFRAME DOVERLAY, 0, STATIC
        EXTERN bdb_ProcessSimpleDesc
        FUNCTION bdb_ProcessSimpleDesc,0202H
        ARGFRAME ISTACK, 0, STACK
        ARGFRAME PSTACK, 0, STACK
        ARGFRAME XSTACK, 24, STACK
        ARGFRAME IOVERLAY, 0, STATIC
        ARGFRAME DOVERLAY, 0, STATIC
        EXTERN bdb_RepConstructReportingData
        FUNCTION bdb_RepConstructReportingData,0202H
        ARGFRAME ISTACK, 0, STACK
        ARGFRAME PSTACK, 0, STACK
        ARGFRAME XSTACK, 97, STACK
        ARGFRAME IOVERLAY, 0, STATIC
        ARGFRAME DOVERLAY, 0, STATIC
        EXTERN bdb_RepInit
        FUNCTION bdb_RepInit,0202H
        ARGFRAME ISTACK, 0, STACK
        ARGFRAME PSTACK, 0, STACK
        ARGFRAME XSTACK, 9, STACK
        ARGFRAME IOVERLAY, 0, STATIC
        ARGFRAME DOVERLAY, 0, STATIC
        EXTERN bdb_RepProcessEvent
        FUNCTION bdb_RepProcessEvent,0202H
        ARGFRAME ISTACK, 0, STACK
        ARGFRAME PSTACK, 0, STACK
        ARGFRAME XSTACK, 24, STACK
        ARGFRAME IOVERLAY, 0, STATIC
        ARGFRAME DOVERLAY, 0, STATIC
        EXTERN bdb_RepUpdateMarkBindings
        FUNCTION bdb_RepUpdateMarkBindings,0202H
        ARGFRAME ISTACK, 0, STACK
        ARGFRAME PSTACK, 0, STACK
        ARGFRAME XSTACK, 97, STACK
        ARGFRAME IOVERLAY, 0, STATIC
        ARGFRAME DOVERLAY, 0, STATIC
        EXTERN bdb_SendIdentifyQuery
        FUNCTION bdb_SendIdentifyQuery,0202H
        ARGFRAME ISTACK, 0, STACK
        ARGFRAME PSTACK, 0, STACK
        ARGFRAME XSTACK, 24, STACK
        ARGFRAME IOVERLAY, 0, STATIC
        ARGFRAME DOVERLAY, 0, STATIC
        EXTERN bdb_exitFindingBindingWStatus
        FUNCTION bdb_exitFindingBindingWStatus,0202H
        ARGFRAME ISTACK, 0, STACK
        ARGFRAME PSTACK, 0, STACK
        ARGFRAME XSTACK, 24, STACK
        ARGFRAME IOVERLAY, 0, STATIC
        ARGFRAME DOVERLAY, 0, STATIC
        EXTERN bdb_getRespondentRetry
        FUNCTION bdb_getRespondentRetry,0202H
        ARGFRAME ISTACK, 0, STACK
        ARGFRAME PSTACK, 0, STACK
        ARGFRAME XSTACK, 24, STACK
        ARGFRAME IOVERLAY, 0, STATIC
        ARGFRAME DOVERLAY, 0, STATIC
        EXTERN bdb_setEpDescListToActiveEndpoint
        FUNCTION bdb_setEpDescListToActiveEndpoint,0202H
        ARGFRAME ISTACK, 0, STACK
        ARGFRAME PSTACK, 0, STACK
        ARGFRAME XSTACK, 24, STACK
        ARGFRAME IOVERLAY, 0, STATIC
        ARGFRAME DOVERLAY, 0, STATIC
        EXTERN bdb_setNodeJoinLinkKeyType
        FUNCTION bdb_setNodeJoinLinkKeyType,0202H
        ARGFRAME ISTACK, 0, STACK
        ARGFRAME PSTACK, 0, STACK
        ARGFRAME XSTACK, 45, STACK
        ARGFRAME IOVERLAY, 0, STATIC
        ARGFRAME DOVERLAY, 0, STATIC
        EXTERN bdb_tcLinkKeyExchangeAttempt
        FUNCTION bdb_tcLinkKeyExchangeAttempt,0202H
        ARGFRAME ISTACK, 0, STACK
        ARGFRAME PSTACK, 0, STACK
        ARGFRAME XSTACK, 45, STACK
        ARGFRAME IOVERLAY, 0, STATIC
        ARGFRAME DOVERLAY, 0, STATIC
        EXTERN gp_RegisterGPChangeChannelReqForBDBCB
        FUNCTION gp_RegisterGPChangeChannelReqForBDBCB,0202H
        ARGFRAME ISTACK, 0, STACK
        ARGFRAME PSTACK, 0, STACK
        ARGFRAME XSTACK, 9, STACK
        ARGFRAME IOVERLAY, 0, STATIC
        ARGFRAME DOVERLAY, 0, STATIC
        EXTERN gp_endpointInit
        FUNCTION gp_endpointInit,0602H
        ARGFRAME ISTACK, 0, STACK
        ARGFRAME PSTACK, 0, STACK
        ARGFRAME XSTACK, 9, STACK
        ARGFRAME IOVERLAY, 0, STATIC
        ARGFRAME DOVERLAY, 0, STATIC
        EXTERN nwk_setStateIdle
        FUNCTION nwk_setStateIdle,0202H
        ARGFRAME ISTACK, 0, STACK
        ARGFRAME PSTACK, 0, STACK
        ARGFRAME XSTACK, 14, STACK
        ARGFRAME IOVERLAY, 0, STATIC
        ARGFRAME DOVERLAY, 0, STATIC
        EXTERN osal_build_uint16
        FUNCTION osal_build_uint16,0202H
        ARGFRAME ISTACK, 0, STACK
        ARGFRAME PSTACK, 0, STACK
        ARGFRAME XSTACK, 30, STACK
        ARGFRAME IOVERLAY, 0, STATIC
        ARGFRAME DOVERLAY, 0, STATIC
        EXTERN osal_get_timeoutEx
        FUNCTION osal_get_timeoutEx,0202H
        ARGFRAME ISTACK, 0, STACK
        ARGFRAME PSTACK, 0, STACK
        ARGFRAME XSTACK, 97, STACK
        ARGFRAME IOVERLAY, 0, STATIC
        ARGFRAME DOVERLAY, 0, STATIC
        EXTERN osal_isbufset
        FUNCTION osal_isbufset,0202H
        ARGFRAME ISTACK, 0, STACK
        ARGFRAME PSTACK, 0, STACK
        ARGFRAME XSTACK, 97, STACK
        ARGFRAME IOVERLAY, 0, STATIC
        ARGFRAME DOVERLAY, 0, STATIC
        EXTERN osal_mem_alloc
        FUNCTION osal_mem_alloc,0202H
        ARGFRAME ISTACK, 0, STACK
        ARGFRAME PSTACK, 0, STACK
        ARGFRAME XSTACK, 28, STACK
        ARGFRAME IOVERLAY, 0, STATIC
        ARGFRAME DOVERLAY, 0, STATIC
        EXTERN osal_mem_free
        FUNCTION osal_mem_free,0202H
        ARGFRAME ISTACK, 0, STACK
        ARGFRAME PSTACK, 0, STACK
        ARGFRAME XSTACK, 15, STACK
        ARGFRAME IOVERLAY, 0, STATIC
        ARGFRAME DOVERLAY, 0, STATIC
        EXTERN osal_memcmp
        FUNCTION osal_memcmp,0202H
        ARGFRAME ISTACK, 0, STACK
        ARGFRAME PSTACK, 0, STACK
        ARGFRAME XSTACK, 31, STACK
        ARGFRAME IOVERLAY, 0, STATIC
        ARGFRAME DOVERLAY, 0, STATIC
        EXTERN osal_memcpy
        FUNCTION osal_memcpy,0202H
        ARGFRAME ISTACK, 0, STACK
        ARGFRAME PSTACK, 0, STACK
        ARGFRAME XSTACK, 60, STACK
        ARGFRAME IOVERLAY, 0, STATIC
        ARGFRAME DOVERLAY, 0, STATIC
        EXTERN osal_memset
        FUNCTION osal_memset,0202H
        ARGFRAME ISTACK, 0, STACK
        ARGFRAME PSTACK, 0, STACK
        ARGFRAME XSTACK, 97, STACK
        ARGFRAME IOVERLAY, 0, STATIC
        ARGFRAME DOVERLAY, 0, STATIC
        EXTERN osal_msg_allocate
        FUNCTION osal_msg_allocate,0202H
        ARGFRAME ISTACK, 0, STACK
        ARGFRAME PSTACK, 0, STACK
        ARGFRAME XSTACK, 17, STACK
        ARGFRAME IOVERLAY, 0, STATIC
        ARGFRAME DOVERLAY, 0, STATIC
        EXTERN osal_msg_deallocate
        FUNCTION osal_msg_deallocate,0202H
        ARGFRAME ISTACK, 0, STACK
        ARGFRAME PSTACK, 0, STACK
        ARGFRAME XSTACK, 24, STACK
        ARGFRAME IOVERLAY, 0, STATIC
        ARGFRAME DOVERLAY, 0, STATIC
        EXTERN osal_msg_receive
        FUNCTION osal_msg_receive,0202H
        ARGFRAME ISTACK, 0, STACK
        ARGFRAME PSTACK, 0, STACK
        ARGFRAME XSTACK, 24, STACK
        ARGFRAME IOVERLAY, 0, STATIC
        ARGFRAME DOVERLAY, 0, STATIC
        EXTERN osal_msg_send
        FUNCTION osal_msg_send,0202H
        ARGFRAME ISTACK, 0, STACK
        ARGFRAME PSTACK, 0, STACK
        ARGFRAME XSTACK, 17, STACK
        ARGFRAME IOVERLAY, 0, STATIC
        ARGFRAME DOVERLAY, 0, STATIC
        EXTERN osal_nv_delete
        FUNCTION osal_nv_delete,0202H
        ARGFRAME ISTACK, 0, STACK
        ARGFRAME PSTACK, 0, STACK
        ARGFRAME XSTACK, 97, STACK
        ARGFRAME IOVERLAY, 0, STATIC
        ARGFRAME DOVERLAY, 0, STATIC
        EXTERN osal_nv_item_len
        FUNCTION osal_nv_item_len,0202H
        ARGFRAME ISTACK, 0, STACK
        ARGFRAME PSTACK, 0, STACK
        ARGFRAME XSTACK, 97, STACK
        ARGFRAME IOVERLAY, 0, STATIC
        ARGFRAME DOVERLAY, 0, STATIC
        EXTERN osal_nv_read
        FUNCTION osal_nv_read,0202H
        ARGFRAME ISTACK, 0, STACK
        ARGFRAME PSTACK, 0, STACK
        ARGFRAME XSTACK, 101, STACK
        ARGFRAME IOVERLAY, 0, STATIC
        ARGFRAME DOVERLAY, 0, STATIC
        EXTERN osal_nv_write
        FUNCTION osal_nv_write,0202H
        ARGFRAME ISTACK, 0, STACK
        ARGFRAME PSTACK, 0, STACK
        ARGFRAME XSTACK, 101, STACK
        ARGFRAME IOVERLAY, 0, STATIC
        ARGFRAME DOVERLAY, 0, STATIC
        EXTERN osal_set_event
        FUNCTION osal_set_event,0202H
        ARGFRAME ISTACK, 0, STACK
        ARGFRAME PSTACK, 0, STACK
        ARGFRAME XSTACK, 97, STACK
        ARGFRAME IOVERLAY, 0, STATIC
        ARGFRAME DOVERLAY, 0, STATIC
        EXTERN osal_start_reload_timer
        FUNCTION osal_start_reload_timer,0202H
        ARGFRAME ISTACK, 0, STACK
        ARGFRAME PSTACK, 0, STACK
        ARGFRAME XSTACK, 32, STACK
        ARGFRAME IOVERLAY, 0, STATIC
        ARGFRAME DOVERLAY, 0, STATIC
        EXTERN osal_start_timerEx
        FUNCTION osal_start_timerEx,0202H
        ARGFRAME ISTACK, 0, STACK
        ARGFRAME PSTACK, 0, STACK
        ARGFRAME XSTACK, 28, STACK
        ARGFRAME IOVERLAY, 0, STATIC
        ARGFRAME DOVERLAY, 0, STATIC
        EXTERN osal_stop_timerEx
        FUNCTION osal_stop_timerEx,0202H
        ARGFRAME ISTACK, 0, STACK
        ARGFRAME PSTACK, 0, STACK
        ARGFRAME XSTACK, 57, STACK
        ARGFRAME IOVERLAY, 0, STATIC
        ARGFRAME DOVERLAY, 0, STATIC
        EXTERN pbindAddEntry
        EXTERN pfnIdentifyTimeChangeCB
        EXTERN requestNewTrustCenterLinkKey
        EXTERN runtimeChannel
        EXTERN sspMMOHash
        FUNCTION sspMMOHash,0202H
        ARGFRAME ISTACK, 0, STACK
        ARGFRAME PSTACK, 0, STACK
        ARGFRAME XSTACK, 34, STACK
        ARGFRAME IOVERLAY, 0, STATIC
        ARGFRAME DOVERLAY, 0, STATIC
        EXTERN zclFindAttrRec
        FUNCTION zclFindAttrRec,0202H
        ARGFRAME ISTACK, 0, STACK
        ARGFRAME PSTACK, 0, STACK
        ARGFRAME XSTACK, 26, STACK
        ARGFRAME IOVERLAY, 0, STATIC
        ARGFRAME DOVERLAY, 0, STATIC
        EXTERN zcl_TaskID
        EXTERN zgAllowInstallCodes
        EXTERN zgDefaultChannelList
        EXTERN zgDeviceLogicalType
        EXTERN zgWriteStartupOptions
        FUNCTION zgWriteStartupOptions,0202H
        ARGFRAME ISTACK, 2, STACK
        ARGFRAME PSTACK, 0, STACK
        ARGFRAME XSTACK, 97, STACK
        ARGFRAME IOVERLAY, 0, STATIC
        ARGFRAME DOVERLAY, 0, STATIC

// D:\project\Z-Stack 3.0.2\Components\stack\bdb\bdb.c
//    1 /**************************************************************************************************
//    2   Filename:       bdb.c
//    3   Revised:        $Date: 2016-02-25 11:51:49 -0700 (Thu, 25 Feb 2016) $
//    4   Revision:       $Revision: - $
//    5 
//    6   Description:    This file contains the Base Device Behavior functions and attributes.
//    7 
//    8 
//    9   Copyright 2006-2015 Texas Instruments Incorporated. All rights reserved.
//   10 
//   11   IMPORTANT: Your use of this Software is limited to those specific rights
//   12   granted under the terms of a software license agreement between the user
//   13   who downloaded the software, his/her employer (which must be your employer)
//   14   and Texas Instruments Incorporated (the "License").  You may not use this
//   15   Software unless you agree to abide by the terms of the License. The License
//   16   limits your use, and you acknowledge, that the Software may not be modified,
//   17   copied or distributed unless embedded on a Texas Instruments microcontroller
//   18   or used solely and exclusively in conjunction with a Texas Instruments radio
//   19   frequency transceiver, which is integrated into your product.  Other than for
//   20   the foregoing purpose, you may not use, reproduce, copy, prepare derivative
//   21   works of, modify, distribute, perform, display or sell this Software and/or
//   22   its documentation for any purpose.
//   23 
//   24   YOU FURTHER ACKNOWLEDGE AND AGREE THAT THE SOFTWARE AND DOCUMENTATION ARE
//   25   PROVIDED "AS IS" WITHOUT WARRANTY OF ANY KIND, EITHER EXPRESS OR IMPLIED,
//   26   INCLUDING WITHOUT LIMITATION, ANY WARRANTY OF MERCHANTABILITY, TITLE,
//   27   NON-INFRINGEMENT AND FITNESS FOR A PARTICULAR PURPOSE. IN NO EVENT SHALL
//   28   TEXAS INSTRUMENTS OR ITS LICENSORS BE LIABLE OR OBLIGATED UNDER CONTRACT,
//   29   NEGLIGENCE, STRICT LIABILITY, CONTRIBUTION, BREACH OF WARRANTY, OR OTHER
//   30   LEGAL EQUITABLE THEORY ANY DIRECT OR INDIRECT DAMAGES OR EXPENSES
//   31   INCLUDING BUT NOT LIMITED TO ANY INCIDENTAL, SPECIAL, INDIRECT, PUNITIVE
//   32   OR CONSEQUENTIAL DAMAGES, LOST PROFITS OR LOST DATA, COST OF PROCUREMENT
//   33   OF SUBSTITUTE GOODS, TECHNOLOGY, SERVICES, OR ANY CLAIMS BY THIRD PARTIES
//   34   (INCLUDING BUT NOT LIMITED TO ANY DEFENSE THEREOF), OR OTHER SIMILAR COSTS.
//   35 
//   36   Should you have any questions regarding your right to use this Software,
//   37   contact Texas Instruments Incorporated at www.TI.com.
//   38 **************************************************************************************************/
//   39 
//   40 /*********************************************************************
//   41  * INCLUDES
//   42  */
//   43 
//   44 #include "bdb.h"
//   45 #include "ZDApp.h"
//   46 #include "OSAL.h"
//   47 #include "ZDConfig.h"
//   48 #include "hal_led.h"
//   49 #include "ZDObject.h"
//   50 #include "OSAL_Nv.h"
//   51 #include "AddrMgr.h"
//   52 #include "ZDSecMgr.h"
//   53 #include "nwk.h"
//   54 #include "nwk_util.h"
//   55 #include "ssp_hash.h"
//   56 #ifdef BDB_REPORTING
//   57 #include "bdb_Reporting.h"
//   58 #endif 
//   59 
//   60 #if !defined (DISABLE_GREENPOWER_BASIC_PROXY) && (ZG_BUILD_RTR_TYPE)
//   61 #include "gp_interface.h"
//   62 #include "gp_common.h"
//   63 #include "dgp_stub.h"
//   64 #endif
//   65 
//   66 #include "bdb_interface.h"
//   67 
//   68 #if defined ( INTER_PAN ) 
//   69 #if defined ( BDB_TL_INITIATOR )  
//   70 #include "bdb_touchlink_initiator.h"
//   71 #endif
//   72 #if defined ( BDB_TL_TARGET )  
//   73 #include "bdb_touchlink_target.h"
//   74 #endif
//   75 #endif
//   76    
//   77 #if defined ( INTER_PAN ) && ( defined ( BDB_TL_INITIATOR ) || defined ( BDB_TL_TARGET ) )
//   78   #include "bdb_touchlink.h"
//   79 #endif
//   80  
//   81 #ifdef MT_APP_CNF_FUNC
//   82 #include "MT_APP_CONFIG.h"
//   83 #endif
//   84    
//   85  /*********************************************************************
//   86  * MACROS
//   87  */
//   88 //This is actually the channels used
//   89 #define vScanChannels  zgDefaultChannelList
//   90    
//   91  /*********************************************************************
//   92  * CONSTANTS
//   93  */
//   94 
//   95 #define NUMBER_OF_CHANNELS     16
//   96 
//   97 #define CHANNEL_11_MASK_POS    11
//   98 #define CHANNEL_26_MASK_POS    26
//   99    

        RSEG XDATA_Z:XDATA:NOROOT(0)
        DATA8
//  100 uint8 bdb_FB_InitiatorCurrentCyclesNumber = 0; //last cycle is #1 (i.e. cycles-left = (bdb_FB_InitiatorCurrentCyclesNumber - 1))
bdb_FB_InitiatorCurrentCyclesNumber:
        DS 1
        REQUIRE __INIT_XDATA_Z
//  101 
//  102 /*********************************************************************
//  103  * TYPEDEFS
//  104  */
//  105  
//  106  
//  107  /*********************************************************************
//  108  * GLOBAL VARIABLES
//  109  */
//  110 

        RSEG XDATA_Z:XDATA:NOROOT(0)
        DATA8
//  111 byte bdb_TaskID;
bdb_TaskID:
        DS 1
        REQUIRE __INIT_XDATA_Z

        RSEG XDATA_I:XDATA:NOROOT(0)
//  112 bdbAttributes_t bdbAttributes = BDB_ATTRIBUTES_DEFAULT_CONFIG;
bdbAttributes:
        DATA8
        DS 18
        REQUIRE `?<Initializer for bdbAttributes>`
        REQUIRE __INIT_XDATA_I

        RSEG XDATA_Z:XDATA:NOROOT(0)
        DATA16
//  113 epList_t *bdb_HeadEpDescriptorList = NULL;
bdb_HeadEpDescriptorList:
        DS 2
        REQUIRE __INIT_XDATA_Z

        RSEG XDATA_Z:XDATA:NOROOT(0)
        DATA16
//  114 epList_t *bdb_CurrEpDescriptorList = NULL;
bdb_CurrEpDescriptorList:
        DS 2
        REQUIRE __INIT_XDATA_Z
//  115 

        RSEG XDATA_Z:XDATA:NOROOT(0)
        DATA16
//  116 bdbFindingBindingRespondent_t *pRespondentHead = NULL;
pRespondentHead:
        DS 2
        REQUIRE __INIT_XDATA_Z

        RSEG XDATA_Z:XDATA:NOROOT(0)
        DATA16
//  117 bdbFindingBindingRespondent_t *pRespondentCurr = NULL;
pRespondentCurr:
        DS 2
        REQUIRE __INIT_XDATA_Z

        RSEG XDATA_Z:XDATA:NOROOT(0)
        DATA16
//  118 bdbFindingBindingRespondent_t *pRespondentNext = NULL;
pRespondentNext:
        DS 2
        REQUIRE __INIT_XDATA_Z
//  119 

        RSEG XDATA_Z:XDATA:NOROOT(0)
        DATA32
//  120 bdbCommissioningProcedureState_t bdbCommissioningProcedureState; 
bdbCommissioningProcedureState:
        DS 4
        REQUIRE __INIT_XDATA_Z

        RSEG XDATA_Z:XDATA:NOROOT(0)
        DATA8
//  121 bool bdb_initialization = FALSE;  //Variable to tell if the initialization process has been started
bdb_initialization:
        DS 1
        REQUIRE __INIT_XDATA_Z
//  122 
//  123 //Nwk formation and nwk steering for nodes not in nwk

        RSEG XDATA_I:XDATA:NOROOT(0)
//  124 bool vDoPrimaryScan = TRUE;
vDoPrimaryScan:
        DATA8
        DS 1
        REQUIRE `?<Initializer for vDoPrimaryScan>`
        REQUIRE __INIT_XDATA_I
//  125 

        RSEG XDATA_I:XDATA:NOROOT(0)
//  126 uint8 zgBdbInstallCodeCRC[INSTALL_CODE_LEN + INSTALL_CODE_CRC_LEN] = {0x83,0xFE,0xD3,0x40,0x7A,0x93,0x97,0x23,0xA5,0xC6,0x39,0xB2,0x69,0x16,0xD5,0x05,0xC3,0xB5};
zgBdbInstallCodeCRC:
        DATA8
        DS 18
        REQUIRE `?<Initializer for zgBdbInstallCodeCRC>`
        REQUIRE __INIT_XDATA_I
//  127 
//  128 //Pointer of the nwk being tried in association process
//  129 #if (ZG_BUILD_JOINING_TYPE)
//  130 static networkDesc_t *pBDBListNwk = NULL;
//  131 #endif
//  132 

        RSEG XDATA_Z:XDATA:NOROOT(0)
        DATA8
//  133 uint8 bdb_ZclTransactionSequenceNumber=0x00;
bdb_ZclTransactionSequenceNumber:
        DS 1
        REQUIRE __INIT_XDATA_Z
//  134 

        RSEG XDATA_Z:XDATA:NOROOT(0)
        DATA8
//  135 bool touchLinkTargetEnabled = FALSE;
touchLinkTargetEnabled:
        DS 1
        REQUIRE __INIT_XDATA_Z
//  136 
//  137  /*********************************************************************
//  138  * EXTERNAL VARIABLES
//  139  */
//  140 
//  141 extern devStartModes_t devStartMode;
//  142 extern bool  requestNewTrustCenterLinkKey;
//  143 extern uint32 requestLinkKeyTimeout;
//  144 extern uint32 ZDApp_SavedPollRate;
//  145 
//  146 #if (BDB_FINDING_BINDING_CAPABILITY_ENABLED==1)
//  147 extern bdbGCB_IdentifyTimeChange_t pfnIdentifyTimeChangeCB;
//  148 extern uint8 bdbIndentifyActiveEndpoint;
//  149 #endif
//  150 
//  151 extern bdbFindingBindingRespondent_t *pRespondentNext;
//  152 
//  153 #ifndef DISABLE_GREENPOWER_BASIC_PROXY
//  154 extern ZDO_DeviceAnnce_t aliasConflictAnnce;
//  155 #endif
//  156 
//  157 /*********************************************************************
//  158  * EXTERNAL FUNCTIONS
//  159  */
//  160 
//  161 extern void ZDApp_ResetTimerStart( uint16 delay );
//  162 extern void ZDApp_NodeProfileSync( uint8 stackProfile );
//  163 extern uint8 ZDApp_RestoreNwkKey( uint8 incrFrmCnt );
//  164 extern uint8 ZDApp_ReadNetworkRestoreState( void );
//  165 
//  166 extern bdbFindingBindingRespondent_t* bdb_getRespondentRetry(bdbFindingBindingRespondent_t* pRespondentHead);
//  167 extern void bdb_ProcessSimpleDesc( zdoIncomingMsg_t *msgPtr );
//  168 extern void bdb_ProcessIEEEAddrRsp(zdoIncomingMsg_t *pMsg);
//  169 
//  170 /*********************************************************************
//  171  * LOCAL VARIABLES
//  172  */
//  173 #if (ZG_BUILD_JOINING_TYPE)
//  174   static uint8 bdb_nwkAssocRetriesCount = 0;
//  175 #endif
//  176 #if (ZG_BUILD_COORDINATOR_TYPE)

        RSEG XDATA_Z:XDATA:NOROOT(0)
        DATA16
//  177   static bdb_joiningDeviceList_t *bdb_joiningDeviceList = NULL;
bdb_joiningDeviceList:
        DS 2
        REQUIRE __INIT_XDATA_Z
//  178 #endif
//  179   
//  180 #if (BDB_FINDING_BINDING_CAPABILITY_ENABLED==1) 
//  181 //Latch to save the status success of any attempt in the periodic F&B process  

        RSEG XDATA_Z:XDATA:NOROOT(0)
        DATA8
//  182 static uint8 bdb_FBStateSuccessLatch = FALSE;
bdb_FBStateSuccessLatch:
        DS 1
        REQUIRE __INIT_XDATA_Z
//  183 #endif
//  184  /*********************************************************************
//  185  * LOCAL FUNCTIONS
//  186  */
//  187 static void bdb_ProcessOSALMsg(bdbInMsg_t *msgPtr);
//  188 void bdb_NotifyCommissioningModeStart(uint8 commissioningMode);
//  189 static void bdb_processZDOMgs(zdoIncomingMsg_t *pMsg);
//  190 
//  191 #if (ZG_BUILD_JOINING_TYPE)
//  192 static void bdb_requestTCStackVersion(void);
//  193 static void bdb_requestTCLinkKey(void);
//  194 static void bdb_requestVerifyTCLinkKey(void);
//  195 static void bdb_tryNwkAssoc(void);
//  196 #endif
//  197 
//  198 
//  199 static void bdb_processTimeout(void);
//  200 static void bdb_startResumeCommissioningProcess(void);
//  201 static void bdb_nwkSteeringDeviceOnNwk(void);
//  202 static void bdb_nwkJoiningFormation(bool isJoining);
//  203 
//  204 #if !defined (DISABLE_GREENPOWER_BASIC_PROXY) && (ZG_BUILD_RTR_TYPE)
//  205 static uint8 gp_ChangeChannelReq(void);
//  206 static void gp_CBInit(void);
//  207 #endif
//  208 
//  209 
//  210 #if (ZG_BUILD_COORDINATOR_TYPE)
//  211 static void bdb_TCProcessJoiningList(void);
//  212 static ZStatus_t bdb_TCJoiningDeviceFree(bdb_joiningDeviceList_t* JoiningDeviceToRemove);
//  213 #endif
//  214 #if (ZG_BUILD_COORDINATOR_TYPE)

        RSEG XDATA_Z:XDATA:NOROOT(0)
        DATA16
//  215 static bdbGCB_TCLinkKeyExchangeProcess_t  pfnTCLinkKeyExchangeProcessCB = NULL;
pfnTCLinkKeyExchangeProcessCB:
        DS 2
        REQUIRE __INIT_XDATA_Z
//  216 #endif

        RSEG XDATA_Z:XDATA:NOROOT(0)
        DATA16
//  217 static bdbGCB_CommissioningStatus_t       pfnCommissioningStatusCB = NULL; 
pfnCommissioningStatusCB:
        DS 2
        REQUIRE __INIT_XDATA_Z
//  218 #if (ZG_BUILD_JOINING_TYPE)
//  219 static bdbGCB_CBKETCLinkKeyExchange_t     pfnCBKETCLinkKeyExchange = NULL;
//  220 static bdbGCB_FilterNwkDesc_t             pfnFilterNwkDesc = NULL;   
//  221 #endif
//  222 
//  223 
//  224 
//  225 void bdb_calculateCCITT_CRC (uint8 *Mb, uint32 msglen, uint16 *crc);
//  226 void bdb_crcInit(uint16 *crc, uint16 *crcinit_direct, uint16 *crcinit_nondirect);
//  227 uint16 bdb_crcReflect (uint16 crc, uint16 bitnum);
//  228 uint16 bdb_crcBitByBitFast(uint8 * p, uint32 len, uint16 crcinit_direct, uint16 crcinit_nondirect);
//  229 void bdb_ProcessNodeDescRsp(zdoIncomingMsg_t *pMsg);
//  230 
//  231 /*********************************************************************
//  232  * PUBLIC FUNCTIONS
//  233  *********************************************************************/
//  234 void bdb_filterNwkDisc(void);
//  235 ZStatus_t bdb_joinProcess(networkDesc_t *pChosenNwk);
//  236 
//  237 ZStatus_t bdb_TCAddJoiningDevice(uint16 parentAddr, uint8* JoiningExtAddr);
//  238 void bdb_TCjoiningDeviceComplete(uint8* JoiningExtAddr);
//  239 
//  240  /*********************************************************************
//  241  * @fn          bdb_Init
//  242  *
//  243  * @brief       Initialization function for the Base Device Behavior.
//  244  *
//  245  * @param       task_id - bdb_TaskID Task ID
//  246  *
//  247  * @return      none
//  248  */

        RSEG BANKED_CODE:HUGECODE:NOROOT(0)
//  249 void bdb_Init( byte task_id )
bdb_Init:
          CFI Block cfiBlock0 Using cfiCommon0
          CFI Function bdb_Init
        CODE
//  250 {
        FUNCALL bdb_Init, bdb_RepInit
        LOCFRAME ISTACK, 0, STACK
        LOCFRAME PSTACK, 0, STACK
        LOCFRAME XSTACK, 9, STACK
        LOCFRAME IOVERLAY, 0, STATIC
        LOCFRAME DOVERLAY, 0, STATIC
        ARGFRAME ISTACK, 0, STACK
        ARGFRAME PSTACK, 0, STACK
        ARGFRAME XSTACK, 9, STACK
        ARGFRAME IOVERLAY, 0, STATIC
        ARGFRAME DOVERLAY, 0, STATIC
        FUNCALL bdb_Init, ZDO_RegisterForZDOMsg
        LOCFRAME ISTACK, 0, STACK
        LOCFRAME PSTACK, 0, STACK
        LOCFRAME XSTACK, 9, STACK
        LOCFRAME IOVERLAY, 0, STATIC
        LOCFRAME DOVERLAY, 0, STATIC
        ARGFRAME ISTACK, 0, STACK
        ARGFRAME PSTACK, 0, STACK
        ARGFRAME XSTACK, 9, STACK
        ARGFRAME IOVERLAY, 0, STATIC
        ARGFRAME DOVERLAY, 0, STATIC
        FUNCALL bdb_Init, ZDO_RegisterForZDOMsg
        LOCFRAME ISTACK, 0, STACK
        LOCFRAME PSTACK, 0, STACK
        LOCFRAME XSTACK, 9, STACK
        LOCFRAME IOVERLAY, 0, STATIC
        LOCFRAME DOVERLAY, 0, STATIC
        ARGFRAME ISTACK, 0, STACK
        ARGFRAME PSTACK, 0, STACK
        ARGFRAME XSTACK, 9, STACK
        ARGFRAME IOVERLAY, 0, STATIC
        ARGFRAME DOVERLAY, 0, STATIC
        FUNCALL bdb_Init, ZDO_RegisterForZDOMsg
        LOCFRAME ISTACK, 0, STACK
        LOCFRAME PSTACK, 0, STACK
        LOCFRAME XSTACK, 9, STACK
        LOCFRAME IOVERLAY, 0, STATIC
        LOCFRAME DOVERLAY, 0, STATIC
        ARGFRAME ISTACK, 0, STACK
        ARGFRAME PSTACK, 0, STACK
        ARGFRAME XSTACK, 9, STACK
        ARGFRAME IOVERLAY, 0, STATIC
        ARGFRAME DOVERLAY, 0, STATIC
        FUNCALL bdb_Init, gp_RegisterGPChangeChannelReqForBDBCB
        LOCFRAME ISTACK, 0, STACK
        LOCFRAME PSTACK, 0, STACK
        LOCFRAME XSTACK, 9, STACK
        LOCFRAME IOVERLAY, 0, STATIC
        LOCFRAME DOVERLAY, 0, STATIC
        ARGFRAME ISTACK, 0, STACK
        ARGFRAME PSTACK, 0, STACK
        ARGFRAME XSTACK, 9, STACK
        ARGFRAME IOVERLAY, 0, STATIC
        ARGFRAME DOVERLAY, 0, STATIC
        FUNCALL bdb_Init, gp_endpointInit
        LOCFRAME ISTACK, 0, STACK
        LOCFRAME PSTACK, 0, STACK
        LOCFRAME XSTACK, 9, STACK
        LOCFRAME IOVERLAY, 0, STATIC
        LOCFRAME DOVERLAY, 0, STATIC
        ARGFRAME ISTACK, 0, STACK
        ARGFRAME PSTACK, 0, STACK
        ARGFRAME XSTACK, 9, STACK
        ARGFRAME IOVERLAY, 0, STATIC
        ARGFRAME DOVERLAY, 0, STATIC
        MOV       A,#-0x9
        LCALL     ?BANKED_ENTER_XDATA
          CFI DPH0 load(1, XDATA, add(CFA_XSP16, literal(-1)))
          CFI DPL0 load(1, XDATA, add(CFA_XSP16, literal(-2)))
          CFI ?BRET_EXT load(1, XDATA, add(CFA_XSP16, literal(-3)))
          CFI ?RET_HIGH load(1, XDATA, add(CFA_XSP16, literal(-4)))
          CFI ?RET_LOW load(1, XDATA, add(CFA_XSP16, literal(-5)))
          CFI R7 load(1, XDATA, add(CFA_XSP16, literal(-6)))
          CFI V0 load(1, XDATA, add(CFA_XSP16, literal(-7)))
          CFI VB load(1, XDATA, add(CFA_XSP16, literal(-8)))
          CFI R6 load(1, XDATA, add(CFA_XSP16, literal(-9)))
          CFI CFA_SP SP+0
          CFI CFA_XSP16 add(XSP16, 9)
        ; Saved register size: 9
        ; Auto size: 0
        MOV       A,R1
        MOV       R6,A
//  251   bdb_TaskID = task_id;
        MOV       DPTR,#bdb_TaskID
        MOVX      @DPTR,A
//  252     
//  253 #if (ZG_BUILD_COORDINATOR_TYPE)
//  254   if(ZG_DEVICE_COORDINATOR_TYPE)
//  255   {
//  256     if(bdbAttributes.bdbJoinUsesInstallCodeKey)
        MOV       DPTR,#bdbAttributes + 15
        MOVX      A,@DPTR
        JZ        ??bdb_Init_0
//  257     {
//  258       zgAllowInstallCodes = ZG_IC_MUST_USED;
        MOV       DPTR,#zgAllowInstallCodes
        MOV       A,#0x2
        MOVX      @DPTR,A
//  259     }
//  260   }
//  261 #endif
//  262   
//  263 #if defined ( INTER_PAN ) && defined ( BDB_TL_INITIATOR )  
//  264   touchLinkInitiator_InitDevice( );
//  265 #endif
//  266 
//  267 #if (BDB_REPORTING)
//  268   bdb_RepInit();
??bdb_Init_0:
        ; Setup parameters for call to function bdb_RepInit
        LCALL     `??bdb_RepInit::?relay`; Banked call to: bdb_RepInit
//  269 #endif  
//  270   
//  271   //Register ZDO callbacks
//  272   ZDO_RegisterForZDOMsg ( task_id, Node_Desc_rsp );
        ; Setup parameters for call to function ZDO_RegisterForZDOMsg
        MOV       R2,#0x2
        MOV       R3,#-0x80
        MOV       A,R6
        MOV       R1,A
        LCALL     `??ZDO_RegisterForZDOMsg::?relay`; Banked call to: ZDO_RegisterForZDOMsg
//  273 #if (BDB_FINDING_BINDING_CAPABILITY_ENABLED==1)  
//  274   ZDO_RegisterForZDOMsg ( task_id, IEEE_addr_rsp );
        ; Setup parameters for call to function ZDO_RegisterForZDOMsg
        MOV       R2,#0x1
        MOV       R3,#-0x80
        MOV       A,R6
        MOV       R1,A
        LCALL     `??ZDO_RegisterForZDOMsg::?relay`; Banked call to: ZDO_RegisterForZDOMsg
//  275   ZDO_RegisterForZDOMsg ( task_id, Simple_Desc_rsp );
        ; Setup parameters for call to function ZDO_RegisterForZDOMsg
        MOV       R2,#0x4
        MOV       R3,#-0x80
        MOV       A,R6
        MOV       R1,A
        LCALL     `??ZDO_RegisterForZDOMsg::?relay`; Banked call to: ZDO_RegisterForZDOMsg
//  276 #endif
//  277   
//  278 #if !defined (DISABLE_GREENPOWER_BASIC_PROXY) && (ZG_BUILD_RTR_TYPE)
//  279   gp_RegisterGPChangeChannelReqForBDBCB(gp_ChangeChannelReq);
        ; Setup parameters for call to function gp_RegisterGPChangeChannelReqForBDBCB
        MOV       R2,#`??gp_ChangeChannelReq::?relay` & 0xff
        MOV       R3,#(`??gp_ChangeChannelReq::?relay` >> 8) & 0xff
        LCALL     `??gp_RegisterGPChangeChannelReqForBDBCB::?relay`; Banked call to: gp_RegisterGPChangeChannelReqForBDBCB
//  280   gp_CBInit();
        MOV       DPTR,#GP_DataCnfGCB
        MOV       A,#`??GP_DataCnf::?relay` & 0xff
        MOVX      @DPTR,A
        INC       DPTR
        MOV       A,#(`??GP_DataCnf::?relay` >> 8) & 0xff
        MOVX      @DPTR,A
        MOV       DPTR,#GP_endpointInitGCB
        MOV       A,#`??gp_endpointInit::?relay` & 0xff
        MOVX      @DPTR,A
        INC       DPTR
        MOV       A,#(`??gp_endpointInit::?relay` >> 8) & 0xff
        MOVX      @DPTR,A
        MOV       DPTR,#GP_expireDuplicateFilteringGCB
        MOV       A,#`??gp_expireDuplicateFiltering::?relay` & 0xff
        MOVX      @DPTR,A
        INC       DPTR
        MOV       A,#(`??gp_expireDuplicateFiltering::?relay` >> 8) & 0xff
        MOVX      @DPTR,A
        MOV       DPTR,#GP_stopCommissioningModeGCB
        MOV       A,#`??gp_stopCommissioningMode::?relay` & 0xff
        MOVX      @DPTR,A
        INC       DPTR
        MOV       A,#(`??gp_stopCommissioningMode::?relay` >> 8) & 0xff
        MOVX      @DPTR,A
        MOV       DPTR,#GP_returnOperationalChannelGCB
        MOV       A,#`??gp_returnOperationalChannel::?relay` & 0xff
        MOVX      @DPTR,A
        INC       DPTR
        MOV       A,#(`??gp_returnOperationalChannel::?relay` >> 8) & 0xff
        MOVX      @DPTR,A
        MOV       DPTR,#GP_DataIndGCB
        MOV       A,#`??GP_DataInd::?relay` & 0xff
        MOVX      @DPTR,A
        INC       DPTR
        MOV       A,#(`??GP_DataInd::?relay` >> 8) & 0xff
        MOVX      @DPTR,A
        MOV       DPTR,#GP_SecReqGCB
        MOV       A,#`??GP_SecReq::?relay` & 0xff
        MOVX      @DPTR,A
        INC       DPTR
        MOV       A,#(`??GP_SecReq::?relay` >> 8) & 0xff
        MOVX      @DPTR,A
        MOV       DPTR,#GP_CheckAnnouncedDeviceGCB
        MOV       A,#`??gp_CheckAnnouncedDevice::?relay` & 0xff
        MOVX      @DPTR,A
        INC       DPTR
        MOV       A,#(`??gp_CheckAnnouncedDevice::?relay` >> 8) & 0xff
        MOVX      @DPTR,A
        MOV       DPTR,#GP_aliasConflictAnnce
        MOV       A,#aliasConflictAnnce & 0xff
        MOVX      @DPTR,A
        INC       DPTR
        MOV       A,#(aliasConflictAnnce >> 8) & 0xff
        MOVX      @DPTR,A
        ; Setup parameters for call to function gp_endpointInit
        LCALL     `??gp_endpointInit::?relay`; Banked call to: gp_endpointInit
//  281 #endif
//  282 }
          CFI EndBlock cfiBlock0
        REQUIRE ?Subroutine0
        ; // Fall through to label ?Subroutine0

        RSEG BANKED_CODE:HUGECODE:NOROOT(0)
?Subroutine0:
          CFI Block cfiBlock1 Using cfiCommon0
          CFI NoFunction
          CFI CFA_SP SP+0
          CFI CFA_XSP16 add(XSP16, 9)
          CFI VB load(1, XDATA, add(CFA_XSP16, literal(-8)))
          CFI DPL0 load(1, XDATA, add(CFA_XSP16, literal(-2)))
          CFI DPH0 load(1, XDATA, add(CFA_XSP16, literal(-1)))
          CFI R6 load(1, XDATA, add(CFA_XSP16, literal(-9)))
          CFI R7 load(1, XDATA, add(CFA_XSP16, literal(-6)))
          CFI V0 load(1, XDATA, add(CFA_XSP16, literal(-7)))
          CFI ?BRET_EXT load(1, XDATA, add(CFA_XSP16, literal(-3)))
          CFI ?RET_HIGH load(1, XDATA, add(CFA_XSP16, literal(-4)))
          CFI ?RET_LOW load(1, XDATA, add(CFA_XSP16, literal(-5)))
        MOV       R7,#0x1
        LJMP      ?BANKED_LEAVE_XDATA
          CFI EndBlock cfiBlock1
//  283 
//  284 /*********************************************************************
//  285  * @fn      bdb_RegisterSimpleDescriptor
//  286  *
//  287  * @brief   Register the Simple descriptor. This function also registers 
//  288  *          the profile's cluster conversion table.
//  289  *
//  290  * @param   simpleDesc - a pointer to a valid SimpleDescriptionFormat_t, must not be NULL.
//  291  *
//  292  * @return  none
//  293  */

        RSEG BANKED_CODE:HUGECODE:NOROOT(0)
//  294 void bdb_RegisterSimpleDescriptor( SimpleDescriptionFormat_t *simpleDesc )
bdb_RegisterSimpleDescriptor:
          CFI Block cfiBlock2 Using cfiCommon0
          CFI Function bdb_RegisterSimpleDescriptor
        CODE
//  295 {
        FUNCALL bdb_RegisterSimpleDescriptor, osal_mem_alloc
        LOCFRAME ISTACK, 0, STACK
        LOCFRAME PSTACK, 0, STACK
        LOCFRAME XSTACK, 10, STACK
        LOCFRAME IOVERLAY, 0, STATIC
        LOCFRAME DOVERLAY, 0, STATIC
        ARGFRAME ISTACK, 0, STACK
        ARGFRAME PSTACK, 0, STACK
        ARGFRAME XSTACK, 10, STACK
        ARGFRAME IOVERLAY, 0, STATIC
        ARGFRAME DOVERLAY, 0, STATIC
        FUNCALL bdb_RegisterSimpleDescriptor, afRegister
        LOCFRAME ISTACK, 0, STACK
        LOCFRAME PSTACK, 0, STACK
        LOCFRAME XSTACK, 10, STACK
        LOCFRAME IOVERLAY, 0, STATIC
        LOCFRAME DOVERLAY, 0, STATIC
        ARGFRAME ISTACK, 0, STACK
        ARGFRAME PSTACK, 0, STACK
        ARGFRAME XSTACK, 10, STACK
        ARGFRAME IOVERLAY, 0, STATIC
        ARGFRAME DOVERLAY, 0, STATIC
        REQUIRE ?V0
        REQUIRE ?V1
        MOV       A,#-0xa
        LCALL     ?BANKED_ENTER_XDATA
          CFI DPH0 load(1, XDATA, add(CFA_XSP16, literal(-1)))
          CFI DPL0 load(1, XDATA, add(CFA_XSP16, literal(-2)))
          CFI ?BRET_EXT load(1, XDATA, add(CFA_XSP16, literal(-3)))
          CFI ?RET_HIGH load(1, XDATA, add(CFA_XSP16, literal(-4)))
          CFI ?RET_LOW load(1, XDATA, add(CFA_XSP16, literal(-5)))
          CFI R7 load(1, XDATA, add(CFA_XSP16, literal(-6)))
          CFI V1 load(1, XDATA, add(CFA_XSP16, literal(-7)))
          CFI V0 load(1, XDATA, add(CFA_XSP16, literal(-8)))
          CFI VB load(1, XDATA, add(CFA_XSP16, literal(-9)))
          CFI R6 load(1, XDATA, add(CFA_XSP16, literal(-10)))
          CFI CFA_SP SP+0
          CFI CFA_XSP16 add(XSP16, 10)
        ; Saved register size: 10
        ; Auto size: 0
        MOV       A,R2
        MOV       R6,A
        MOV       A,R3
        MOV       R7,A
//  296   endPointDesc_t *epDesc;
//  297 
//  298   // Register the application's endpoint descriptor
//  299   //  - This memory is allocated and never freed.
//  300   epDesc = osal_mem_alloc( sizeof ( endPointDesc_t ) );
        ; Setup parameters for call to function osal_mem_alloc
        MOV       R2,#0x7
        MOV       R3,#0x0
        LCALL     `??osal_mem_alloc::?relay`; Banked call to: osal_mem_alloc
//  301   if ( epDesc )
        MOV       A,R2
        ORL       A,R3
        JZ        ??bdb_RegisterSimpleDescriptor_0
//  302   {
//  303     // Fill out the endpoint description.
//  304     epDesc->endPoint = simpleDesc->EndPoint;
        MOV       DPL,R6
        MOV       DPH,R7
        MOVX      A,@DPTR
        MOV       DPL,R2
        MOV       DPH,R3
        MOVX      @DPTR,A
//  305     epDesc->task_id = &zcl_TaskID;   // all messages get sent to ZCL first
        INC       DPTR
        INC       DPTR
        MOV       A,#zcl_TaskID & 0xff
        MOVX      @DPTR,A
        INC       DPTR
        MOV       A,#(zcl_TaskID >> 8) & 0xff
        LCALL     ?Subroutine11 & 0xFFFF
//  306     epDesc->simpleDesc = simpleDesc;
??CrossCallReturnLabel_0:
        MOV       A,R6
        MOVX      @DPTR,A
        INC       DPTR
        MOV       A,R7
        LCALL     ?Subroutine11 & 0xFFFF
//  307     epDesc->latencyReq = noLatencyReqs;
??CrossCallReturnLabel_1:
        INC       DPTR
        INC       DPTR
        CLR       A
        MOVX      @DPTR,A
//  308 
//  309     // Register the endpoint description with the AF
//  310     afRegister( epDesc );
        ; Setup parameters for call to function afRegister
        LCALL     `??afRegister::?relay`; Banked call to: afRegister
//  311   }
//  312 }
??bdb_RegisterSimpleDescriptor_0:
        LJMP      ??Subroutine42_0 & 0xFFFF
          CFI EndBlock cfiBlock2

        RSEG BANKED_CODE:HUGECODE:NOROOT(0)
?Subroutine11:
          CFI Block cfiCond3 Using cfiCommon0
          CFI Function bdb_RegisterSimpleDescriptor
          CFI Conditional ??CrossCallReturnLabel_0
          CFI R6 load(1, XDATA, add(CFA_XSP16, literal(-10)))
          CFI VB load(1, XDATA, add(CFA_XSP16, literal(-9)))
          CFI V0 load(1, XDATA, add(CFA_XSP16, literal(-8)))
          CFI V1 load(1, XDATA, add(CFA_XSP16, literal(-7)))
          CFI R7 load(1, XDATA, add(CFA_XSP16, literal(-6)))
          CFI ?RET_LOW load(1, XDATA, add(CFA_XSP16, literal(-5)))
          CFI ?RET_HIGH load(1, XDATA, add(CFA_XSP16, literal(-4)))
          CFI ?BRET_EXT load(1, XDATA, add(CFA_XSP16, literal(-3)))
          CFI DPL0 load(1, XDATA, add(CFA_XSP16, literal(-2)))
          CFI DPH0 load(1, XDATA, add(CFA_XSP16, literal(-1)))
          CFI CFA_SP SP+-2
          CFI CFA_XSP16 add(XSP16, 10)
          CFI Block cfiCond4 Using cfiCommon0
          CFI (cfiCond4) Function bdb_RegisterSimpleDescriptor
          CFI (cfiCond4) Conditional ??CrossCallReturnLabel_1
          CFI (cfiCond4) R6 load(1, XDATA, add(CFA_XSP16, literal(-10)))
          CFI (cfiCond4) VB load(1, XDATA, add(CFA_XSP16, literal(-9)))
          CFI (cfiCond4) V0 load(1, XDATA, add(CFA_XSP16, literal(-8)))
          CFI (cfiCond4) V1 load(1, XDATA, add(CFA_XSP16, literal(-7)))
          CFI (cfiCond4) R7 load(1, XDATA, add(CFA_XSP16, literal(-6)))
          CFI (cfiCond4) ?RET_LOW load(1, XDATA, add(CFA_XSP16, literal(-5)))
          CFI (cfiCond4) ?RET_HIGH load(1, XDATA, add(CFA_XSP16, literal(-4)))
          CFI (cfiCond4) ?BRET_EXT load(1, XDATA, add(CFA_XSP16, literal(-3)))
          CFI (cfiCond4) DPL0 load(1, XDATA, add(CFA_XSP16, literal(-2)))
          CFI (cfiCond4) DPH0 load(1, XDATA, add(CFA_XSP16, literal(-1)))
          CFI (cfiCond4) CFA_SP SP+-2
          CFI (cfiCond4) CFA_XSP16 add(XSP16, 10)
          CFI Block cfiPicker5 Using cfiCommon1
          CFI (cfiPicker5) NoFunction
          CFI (cfiPicker5) Picker
        MOVX      @DPTR,A
        MOV       DPL,R2
        MOV       DPH,R3
        INC       DPTR
        INC       DPTR
        INC       DPTR
        INC       DPTR
        RET
          CFI EndBlock cfiCond3
          CFI EndBlock cfiCond4
          CFI EndBlock cfiPicker5
//  313 
//  314 #if (BDB_FINDING_BINDING_CAPABILITY_ENABLED==1)  
//  315 /*********************************************************************
//  316  * @fn      bdb_ZclIdentifyCmdInd
//  317  *
//  318  * @brief   Callback from the ZCL General Cluster Library when
//  319  *          it received an Identity Command for this application.
//  320  *
//  321  * @param   identifyTime - the number of seconds to identify yourself
//  322  * @param   endpoint - destination endpoint
//  323  *
//  324  * @return  none
//  325  */

        RSEG BANKED_CODE:HUGECODE:NOROOT(0)
//  326 void bdb_ZclIdentifyCmdInd( uint16 identifyTime, uint8 endpoint )
bdb_ZclIdentifyCmdInd:
          CFI Block cfiBlock6 Using cfiCommon0
          CFI Function bdb_ZclIdentifyCmdInd
        CODE
//  327 {
        FUNCALL bdb_ZclIdentifyCmdInd, zclFindAttrRec
        LOCFRAME ISTACK, 0, STACK
        LOCFRAME PSTACK, 0, STACK
        LOCFRAME XSTACK, 22, STACK
        LOCFRAME IOVERLAY, 0, STATIC
        LOCFRAME DOVERLAY, 0, STATIC
        ARGFRAME ISTACK, 0, STACK
        ARGFRAME PSTACK, 0, STACK
        ARGFRAME XSTACK, 22, STACK
        ARGFRAME IOVERLAY, 0, STATIC
        ARGFRAME DOVERLAY, 0, STATIC
        FUNCALL bdb_ZclIdentifyCmdInd, osal_start_timerEx
        LOCFRAME ISTACK, 0, STACK
        LOCFRAME PSTACK, 0, STACK
        LOCFRAME XSTACK, 24, STACK
        LOCFRAME IOVERLAY, 0, STATIC
        LOCFRAME DOVERLAY, 0, STATIC
        ARGFRAME ISTACK, 0, STACK
        ARGFRAME PSTACK, 0, STACK
        ARGFRAME XSTACK, 24, STACK
        ARGFRAME IOVERLAY, 0, STATIC
        ARGFRAME DOVERLAY, 0, STATIC
        FUNCALL bdb_ZclIdentifyCmdInd, osal_stop_timerEx
        LOCFRAME ISTACK, 0, STACK
        LOCFRAME PSTACK, 0, STACK
        LOCFRAME XSTACK, 20, STACK
        LOCFRAME IOVERLAY, 0, STATIC
        LOCFRAME DOVERLAY, 0, STATIC
        ARGFRAME ISTACK, 0, STACK
        ARGFRAME PSTACK, 0, STACK
        ARGFRAME XSTACK, 20, STACK
        ARGFRAME IOVERLAY, 0, STATIC
        ARGFRAME DOVERLAY, 0, STATIC
        REQUIRE ?V0
        REQUIRE ?V2
        REQUIRE ?V3
        MOV       A,#-0xc
        LCALL     ?BANKED_ENTER_XDATA
          CFI DPH0 load(1, XDATA, add(CFA_XSP16, literal(-1)))
          CFI DPL0 load(1, XDATA, add(CFA_XSP16, literal(-2)))
          CFI ?BRET_EXT load(1, XDATA, add(CFA_XSP16, literal(-3)))
          CFI ?RET_HIGH load(1, XDATA, add(CFA_XSP16, literal(-4)))
          CFI ?RET_LOW load(1, XDATA, add(CFA_XSP16, literal(-5)))
          CFI R7 load(1, XDATA, add(CFA_XSP16, literal(-6)))
          CFI V3 load(1, XDATA, add(CFA_XSP16, literal(-7)))
          CFI V2 load(1, XDATA, add(CFA_XSP16, literal(-8)))
          CFI V1 load(1, XDATA, add(CFA_XSP16, literal(-9)))
          CFI V0 load(1, XDATA, add(CFA_XSP16, literal(-10)))
          CFI VB load(1, XDATA, add(CFA_XSP16, literal(-11)))
          CFI R6 load(1, XDATA, add(CFA_XSP16, literal(-12)))
          CFI CFA_SP SP+0
          CFI CFA_XSP16 add(XSP16, 12)
        ; Saved register size: 12
        ; Auto size: 8
        MOV       A,#-0x8
        LCALL     ?ALLOC_XSTACK8
          CFI CFA_XSP16 add(XSP16, 20)
        MOV       A,R2
        MOV       R6,A
        MOV       A,R3
        MOV       R7,A
        MOV       ?V0,R1
//  328   zclAttrRec_t identifyAttrRec;
//  329   
//  330   if ( zclFindAttrRec( endpoint, ZCL_CLUSTER_ID_GEN_IDENTIFY,
//  331                       ATTRID_IDENTIFY_TIME, &identifyAttrRec ) )
        ; Setup parameters for call to function zclFindAttrRec
        MOV       R0,?XSP + 0
        MOV       R1,?XSP + 1
        MOV       ?V2,R0
        MOV       ?V3,R1
        MOV       R0,#?V2
        LCALL     ?PUSH_XSTACK_I_TWO
          CFI CFA_XSP16 add(XSP16, 22)
        MOV       R4,#0x0
        MOV       R5,#0x0
        MOV       R2,#0x3
        MOV       R3,#0x0
        MOV       R1,?V0
        LCALL     `??zclFindAttrRec::?relay`; Banked call to: zclFindAttrRec
        MOV       A,#0x2
        LCALL     ?DEALLOC_XSTACK8
          CFI CFA_XSP16 add(XSP16, 20)
        MOV       A,R1
        JZ        ??bdb_ZclIdentifyCmdInd_0
//  332   {
//  333     //If we are processing an actual change
//  334     if(*(uint16*)identifyAttrRec.attr.dataPtr != identifyTime)
        MOV       A,#0x6
        LCALL     ?XSTACK_DISP0_8
        LCALL     ?Subroutine15 & 0xFFFF
??CrossCallReturnLabel_9:
        MOVX      A,@DPTR
        XRL       A,R6
        JNZ       ??bdb_ZclIdentifyCmdInd_1
        INC       DPTR
        MOVX      A,@DPTR
        XRL       A,R7
??bdb_ZclIdentifyCmdInd_1:
        JZ        ??bdb_ZclIdentifyCmdInd_0
//  335     {
//  336       if ( identifyTime > 0 )
        MOV       A,R6
        ORL       A,R7
        MOV       DPL,R0
        MOV       DPH,R1
        JZ        ??bdb_ZclIdentifyCmdInd_2
//  337       {
//  338         *((uint16*)identifyAttrRec.attr.dataPtr) = identifyTime;
        MOV       A,R6
        MOVX      @DPTR,A
        INC       DPTR
        MOV       A,R7
        MOVX      @DPTR,A
//  339         osal_start_timerEx( bdb_TaskID, BDB_IDENTIFY_TIMEOUT, 1000 );
        ; Setup parameters for call to function osal_start_timerEx
        MOV       DPTR,#__Constant_3e8
        LCALL     ?PUSH_XSTACK8_X_FOUR
          CFI CFA_XSP16 add(XSP16, 24)
        MOV       R2,#0x0
        MOV       R3,#0x20
        MOV       DPTR,#bdb_TaskID
        MOVX      A,@DPTR
        MOV       R1,A
        LCALL     `??osal_start_timerEx::?relay`; Banked call to: osal_start_timerEx
        MOV       A,#0x4
        LCALL     ?DEALLOC_XSTACK8
          CFI CFA_XSP16 add(XSP16, 20)
        SJMP      ??bdb_ZclIdentifyCmdInd_3
//  340       }
//  341       else if ( identifyTime <= 0 )
//  342       {
//  343         *((uint16*)identifyAttrRec.attr.dataPtr) = 0;
??bdb_ZclIdentifyCmdInd_2:
        CLR       A
        MOVX      @DPTR,A
        INC       DPTR
        MOVX      @DPTR,A
//  344         osal_stop_timerEx( bdb_TaskID, BDB_IDENTIFY_TIMEOUT );
        ; Setup parameters for call to function osal_stop_timerEx
        MOV       R2,A
        MOV       R3,#0x20
        MOV       DPTR,#bdb_TaskID
        MOVX      A,@DPTR
        MOV       R1,A
        LCALL     `??osal_stop_timerEx::?relay`; Banked call to: osal_stop_timerEx
//  345       }
//  346       
//  347       if(pfnIdentifyTimeChangeCB != NULL)
??bdb_ZclIdentifyCmdInd_3:
        MOV       DPTR,#pfnIdentifyTimeChangeCB
        LCALL     ??Subroutine41_0 & 0xFFFF
??CrossCallReturnLabel_54:
        JZ        ??bdb_ZclIdentifyCmdInd_0
//  348       {
//  349         pfnIdentifyTimeChangeCB(endpoint);
        ; Setup parameters for indirect call
        MOV       R1,?V0
        LCALL     ??Subroutine38_0 & 0xFFFF
//  350       }
//  351     }
//  352   }
??CrossCallReturnLabel_45:
        LCALL     ?CALL_IND
//  353 }
??bdb_ZclIdentifyCmdInd_0:
        MOV       A,#0x8
        LJMP      ??Subroutine36_0 & 0xFFFF
          CFI EndBlock cfiBlock6
//  354 #endif
//  355 
//  356 
//  357 #if (ZG_BUILD_JOINING_TYPE) 
//  358  /*********************************************************************
//  359  * @fn          bdb_setActiveCentralizedLinkKey
//  360  *
//  361  * @brief       Set the active centralized key to be used, Global or IC derived. See zstack_CentralizedLinkKeyModes_t
//  362  *
//  363  * @param       zstack_CentralizedLinkKeyModes - Key to be used for joining centralized network
//  364  * @param       pKey - Key to be used (if any)
//  365  *
//  366  * @return      ZStatus_t - ZFailure when no valid BDB_INSTALL_CODE_USE is used
//  367  *                          ZInvalidParameter when IC buffer is null
//  368  */
//  369 ZStatus_t bdb_setActiveCentralizedLinkKey(uint8 zstack_CentralizedLinkKeyModes, uint8* pKey)
//  370 {
//  371   ZStatus_t Status;
//  372 
//  373   uint8 extAddr[Z_EXTADDR_LEN];
//  374 
//  375   osal_memset(extAddr,0x00,Z_EXTADDR_LEN);
//  376 
//  377   if(pKey == NULL)
//  378   {
//  379     return ZInvalidParameter;
//  380   }
//  381 
//  382   //Clear it, if the request requires it, it will be set
//  383   gZDSECMGR_TC_ATTEMPT_DEFAULT_KEY = FALSE;
//  384 
//  385   switch(zstack_CentralizedLinkKeyModes)
//  386   {
//  387     case zstack_UseDefaultGlobalTrustCenterLinkKey:
//  388       //Set the default key to be used in centralized networks as defaultTCLinkKey
//  389       Status = APSME_SetDefaultKey();
//  390     break;
//  391 
//  392     case zstack_UseInstallCodeWithFallback:
//  393       //same as zstack_UseInstallCode but attempt default TRUE
//  394       gZDSECMGR_TC_ATTEMPT_DEFAULT_KEY = TRUE;
//  395     case zstack_UseInstallCode:
//  396        //Set the install code as default key
//  397       Status = bdb_addInstallCode(pKey,extAddr);
//  398     break;
//  399 
//  400     case zstack_UseAPSKeyWithFallback:
//  401       //same as zstack_UseAPSKey but attempt default TRUE
//  402       gZDSECMGR_TC_ATTEMPT_DEFAULT_KEY = TRUE;
//  403     case zstack_UseAPSKey:
//  404       //Set the key as global default
//  405       Status = APSME_AddTCLinkKey(pKey,extAddr);
//  406     break;
//  407     
//  408     default:
//  409       Status = ZInvalidParameter;
//  410     break;
//  411   }
//  412 
//  413   return Status;
//  414 }
//  415 #endif
//  416 
//  417 
//  418     
//  419   
//  420 /******************************************************************************
//  421  * @fn          bdb_addInstallCode
//  422  *
//  423  * @brief       Interface to add an install codes and adds a APS TC Link key.
//  424  *
//  425  * @param       pInstallCode - [in] Install Code with CRC (buffer size of 18 bytes).
//  426  *              pExt - [in] Extended address of the node.
//  427  *
//  428  * @return      ZStatus_t
//  429  */

        RSEG BANKED_CODE:HUGECODE:NOROOT(0)
//  430 ZStatus_t bdb_addInstallCode(uint8* pInstallCode, uint8* pExt)
bdb_addInstallCode:
          CFI Block cfiBlock7 Using cfiCommon0
          CFI Function bdb_addInstallCode
        CODE
//  431 {
        FUNCALL bdb_addInstallCode, bdb_GenerateInstallCodeCRC
        LOCFRAME ISTACK, 0, STACK
        LOCFRAME PSTACK, 0, STACK
        LOCFRAME XSTACK, 30, STACK
        LOCFRAME IOVERLAY, 0, STATIC
        LOCFRAME DOVERLAY, 0, STATIC
        ARGFRAME ISTACK, 0, STACK
        ARGFRAME PSTACK, 0, STACK
        ARGFRAME XSTACK, 30, STACK
        ARGFRAME IOVERLAY, 0, STATIC
        ARGFRAME DOVERLAY, 0, STATIC
        FUNCALL bdb_addInstallCode, osal_build_uint16
        LOCFRAME ISTACK, 0, STACK
        LOCFRAME PSTACK, 0, STACK
        LOCFRAME XSTACK, 30, STACK
        LOCFRAME IOVERLAY, 0, STATIC
        LOCFRAME DOVERLAY, 0, STATIC
        ARGFRAME ISTACK, 0, STACK
        ARGFRAME PSTACK, 0, STACK
        ARGFRAME XSTACK, 30, STACK
        ARGFRAME IOVERLAY, 0, STATIC
        ARGFRAME DOVERLAY, 0, STATIC
        FUNCALL bdb_addInstallCode, sspMMOHash
        LOCFRAME ISTACK, 0, STACK
        LOCFRAME PSTACK, 0, STACK
        LOCFRAME XSTACK, 34, STACK
        LOCFRAME IOVERLAY, 0, STATIC
        LOCFRAME DOVERLAY, 0, STATIC
        ARGFRAME ISTACK, 0, STACK
        ARGFRAME PSTACK, 0, STACK
        ARGFRAME XSTACK, 34, STACK
        ARGFRAME IOVERLAY, 0, STATIC
        ARGFRAME DOVERLAY, 0, STATIC
        FUNCALL bdb_addInstallCode, APSME_AddTCLinkKey
        LOCFRAME ISTACK, 0, STACK
        LOCFRAME PSTACK, 0, STACK
        LOCFRAME XSTACK, 30, STACK
        LOCFRAME IOVERLAY, 0, STATIC
        LOCFRAME DOVERLAY, 0, STATIC
        ARGFRAME ISTACK, 0, STACK
        ARGFRAME PSTACK, 0, STACK
        ARGFRAME XSTACK, 30, STACK
        ARGFRAME IOVERLAY, 0, STATIC
        ARGFRAME DOVERLAY, 0, STATIC
        REQUIRE ?V0
        REQUIRE ?V1
        REQUIRE ?V2
        REQUIRE ?V3
        REQUIRE ?V4
        REQUIRE ?V5
        MOV       A,#-0xe
        LCALL     ?BANKED_ENTER_XDATA
          CFI DPH0 load(1, XDATA, add(CFA_XSP16, literal(-1)))
          CFI DPL0 load(1, XDATA, add(CFA_XSP16, literal(-2)))
          CFI ?BRET_EXT load(1, XDATA, add(CFA_XSP16, literal(-3)))
          CFI ?RET_HIGH load(1, XDATA, add(CFA_XSP16, literal(-4)))
          CFI ?RET_LOW load(1, XDATA, add(CFA_XSP16, literal(-5)))
          CFI R7 load(1, XDATA, add(CFA_XSP16, literal(-6)))
          CFI V5 load(1, XDATA, add(CFA_XSP16, literal(-7)))
          CFI V4 load(1, XDATA, add(CFA_XSP16, literal(-8)))
          CFI V3 load(1, XDATA, add(CFA_XSP16, literal(-9)))
          CFI V2 load(1, XDATA, add(CFA_XSP16, literal(-10)))
          CFI V1 load(1, XDATA, add(CFA_XSP16, literal(-11)))
          CFI V0 load(1, XDATA, add(CFA_XSP16, literal(-12)))
          CFI VB load(1, XDATA, add(CFA_XSP16, literal(-13)))
          CFI R6 load(1, XDATA, add(CFA_XSP16, literal(-14)))
          CFI CFA_SP SP+0
          CFI CFA_XSP16 add(XSP16, 14)
        ; Saved register size: 14
        ; Auto size: 16
        MOV       A,#-0x10
        LCALL     ?ALLOC_XSTACK8
          CFI CFA_XSP16 add(XSP16, 30)
        MOV       A,R2
        MOV       R6,A
        MOV       A,R3
        MOV       R7,A
        MOV       ?V0,R4
        MOV       ?V1,R5
//  432   uint8  hashOutput[16];
//  433   uint16 CRC;
//  434   
//  435 #if (ZG_BUILD_COORDINATOR_TYPE)
//  436   if(ZG_DEVICE_COORDINATOR_TYPE)
//  437   {
//  438     if(zgAllowInstallCodes == ZG_IC_NOT_SUPPORTED)
        MOV       DPTR,#zgAllowInstallCodes
        MOVX      A,@DPTR
        JNZ       ??bdb_addInstallCode_0
//  439     {
//  440       return ZFailure;
        MOV       R1,#0x1
        SJMP      ??bdb_addInstallCode_1
//  441     }
//  442   }
//  443 #endif
//  444        
//  445   if((pInstallCode == NULL) || (pExt == NULL))
??bdb_addInstallCode_0:
        MOV       A,R6
        ORL       A,R7
        JZ        ??bdb_addInstallCode_2
        MOV       A,R4
        ORL       A,?V1
        JZ        ??bdb_addInstallCode_2
//  446   {
//  447     return ZInvalidParameter;
//  448   }
//  449   
//  450   CRC = bdb_GenerateInstallCodeCRC(pInstallCode);
        ; Setup parameters for call to function bdb_GenerateInstallCodeCRC
        LCALL     `??bdb_GenerateInstallCodeCRC::?relay`; Banked call to: bdb_GenerateInstallCodeCRC
        MOV       ?V2,R2
        MOV       ?V3,R3
//  451 
//  452   //Validate CRC
//  453   if(CRC != osal_build_uint16(&pInstallCode[INSTALL_CODE_LEN]))
        ; Setup parameters for call to function osal_build_uint16
        MOV       A,R6
        ADD       A,#0x10
        MOV       R2,A
        CLR       A
        ADDC      A,R7
        MOV       R3,A
        LCALL     `??osal_build_uint16::?relay`; Banked call to: osal_build_uint16
        MOV       A,R2
        XRL       A,?V2
        JNZ       ??bdb_addInstallCode_3
        MOV       A,R3
        XRL       A,?V3
??bdb_addInstallCode_3:
        JZ        ??bdb_addInstallCode_4
//  454   {
//  455     return ZInvalidParameter;
??bdb_addInstallCode_2:
        MOV       R1,#0x2
        SJMP      ??bdb_addInstallCode_1
//  456   }
//  457 
//  458   sspMMOHash (NULL, 0, pInstallCode,(INSTALL_CODE_LEN + INSTALL_CODE_CRC_LEN) * BITS_PER_BYTE, hashOutput);
??bdb_addInstallCode_4:
        ; Setup parameters for call to function sspMMOHash
        MOV       R0,?XSP + 0
        MOV       R1,?XSP + 1
        MOV       ?V2,R0
        MOV       ?V3,R1
        MOV       R0,#?V2
        LCALL     ?PUSH_XSTACK_I_TWO
          CFI CFA_XSP16 add(XSP16, 32)
        MOV       ?V2,#-0x70
        MOV       ?V3,#0x0
        MOV       R0,#?V2
        LCALL     ?PUSH_XSTACK_I_TWO
          CFI CFA_XSP16 add(XSP16, 34)
        MOV       A,R6
        MOV       R4,A
        MOV       A,R7
        MOV       R5,A
        MOV       R1,#0x0
        MOV       R2,#0x0
        MOV       R3,#0x0
        LCALL     `??sspMMOHash::?relay`; Banked call to: sspMMOHash
        MOV       A,#0x4
        LCALL     ?DEALLOC_XSTACK8
          CFI CFA_XSP16 add(XSP16, 30)
//  459 
//  460   return APSME_AddTCLinkKey(hashOutput,pExt);
        ; Setup parameters for call to function APSME_AddTCLinkKey
        MOV       R4,?V0
        MOV       R5,?V1
        MOV       R2,?XSP + 0
        MOV       R3,?XSP + 1
        LCALL     `??APSME_AddTCLinkKey::?relay`; Banked call to: APSME_AddTCLinkKey
??bdb_addInstallCode_1:
        MOV       A,#0x10
        LCALL     ?DEALLOC_XSTACK8
          CFI CFA_XSP16 add(XSP16, 14)
        MOV       R7,#0x6
        LJMP      ?BANKED_LEAVE_XDATA
//  461 }    
          CFI EndBlock cfiBlock7
//  462     
//  463 
//  464 #if (ZG_BUILD_COORDINATOR_TYPE)
//  465  /*********************************************************************
//  466  * @fn      bdb_RegisterTCLinkKeyExchangeProcessCB
//  467  *
//  468  * @brief   Register a callback to receive notifications on the joining devices 
//  469  *          and its status on TC link key exchange
//  470  *
//  471  * @param   bdbGCB_TCLinkKeyExchangeProcess - application callback 
//  472  *          (extended address of device, status: 0 = Joining, 1 = TC link key exchange success, 2 = TC link key exchange failed)
//  473  *
//  474  * @return  none
//  475  */

        RSEG BANKED_CODE:HUGECODE:NOROOT(0)
//  476 void bdb_RegisterTCLinkKeyExchangeProcessCB(bdbGCB_TCLinkKeyExchangeProcess_t bdbGCB_TCLinkKeyExchangeProcess)
bdb_RegisterTCLinkKeyExchangeProcessCB:
          CFI Block cfiBlock8 Using cfiCommon0
          CFI Function bdb_RegisterTCLinkKeyExchangeProcessCB
        CODE
//  477 {
        PUSH      DPL
          CFI DPL0 Frame(CFA_SP, 4)
          CFI CFA_SP SP+-4
        PUSH      DPH
          CFI DPH0 Frame(CFA_SP, 5)
          CFI CFA_SP SP+-5
        ; Saved register size: 2
        ; Auto size: 0
//  478   if(bdbGCB_TCLinkKeyExchangeProcess != NULL)
        MOV       A,R2
        ORL       A,R3
        JZ        ??bdb_RegisterTCLinkKeyExchangeProcessCB_0
//  479   {
//  480     pfnTCLinkKeyExchangeProcessCB = bdbGCB_TCLinkKeyExchangeProcess;
        MOV       DPTR,#pfnTCLinkKeyExchangeProcessCB
        MOV       A,R2
        MOVX      @DPTR,A
        INC       DPTR
        MOV       A,R3
        MOVX      @DPTR,A
//  481   }
//  482 }
??bdb_RegisterTCLinkKeyExchangeProcessCB_0:
        LJMP      ??Subroutine34_0 & 0xFFFF
          CFI EndBlock cfiBlock8
//  483 
//  484 
//  485 
//  486  /*********************************************************************
//  487  * @fn          bdb_setTCRequireKeyExchange
//  488  *
//  489  * @brief       Set the bdb_setTCRequireKeyExchange attribute
//  490  *
//  491  * @param       isKeyExchangeRequired - True if TC will remove devices that do 
//  492  *              not perform key exchange after bdbTrustCenterNodeJoinTimeout, 
//  493  *              False to not remove devices.
//  494  *
//  495  * @return      none
//  496  */

        RSEG BANKED_CODE:HUGECODE:NOROOT(0)
//  497 void bdb_setTCRequireKeyExchange(bool isKeyExchangeRequired)
bdb_setTCRequireKeyExchange:
          CFI Block cfiBlock9 Using cfiCommon0
          CFI Function bdb_setTCRequireKeyExchange
        CODE
//  498 {
        PUSH      DPL
          CFI DPL0 Frame(CFA_SP, 4)
          CFI CFA_SP SP+-4
        PUSH      DPH
          CFI DPH0 Frame(CFA_SP, 5)
          CFI CFA_SP SP+-5
        ; Saved register size: 2
        ; Auto size: 0
//  499   bdbAttributes.bdbTrustCenterRequireKeyExchange = isKeyExchangeRequired;
        MOV       A,R1
        MOV       DPTR,#bdbAttributes + 17
        LJMP      ??Subroutine33_0 & 0xFFFF
//  500 }
          CFI EndBlock cfiBlock9
//  501 
//  502 
//  503 
//  504  /*********************************************************************
//  505  * @fn          bdb_TCAddJoiningDevice
//  506  *
//  507  * @brief       Add a joining device to the list of devices that must request a 
//  508  *              key before bdbTrustCenterNodeJoinTimeout.
//  509  *
//  510  * @param       parentAddr - Address of the parent device
//  511  * @param       JoiningExtAddr - IEEE address of the joining device
//  512  *
//  513  * @return      ZStatus_t - ZFailure No memory to allocate the device in the list
//  514  *                          ZInvalidParameter
//  515  */

        RSEG BANKED_CODE:HUGECODE:NOROOT(0)
//  516 ZStatus_t bdb_TCAddJoiningDevice(uint16 parentAddr, uint8* JoiningExtAddr)
bdb_TCAddJoiningDevice:
          CFI Block cfiBlock10 Using cfiCommon0
          CFI Function bdb_TCAddJoiningDevice
        CODE
//  517 {
        FUNCALL bdb_TCAddJoiningDevice, osal_mem_alloc
        LOCFRAME ISTACK, 0, STACK
        LOCFRAME PSTACK, 0, STACK
        LOCFRAME XSTACK, 28, STACK
        LOCFRAME IOVERLAY, 0, STATIC
        LOCFRAME DOVERLAY, 0, STATIC
        ARGFRAME ISTACK, 0, STACK
        ARGFRAME PSTACK, 0, STACK
        ARGFRAME XSTACK, 28, STACK
        ARGFRAME IOVERLAY, 0, STATIC
        ARGFRAME DOVERLAY, 0, STATIC
        FUNCALL bdb_TCAddJoiningDevice, osal_start_reload_timer
        LOCFRAME ISTACK, 0, STACK
        LOCFRAME PSTACK, 0, STACK
        LOCFRAME XSTACK, 32, STACK
        LOCFRAME IOVERLAY, 0, STATIC
        LOCFRAME DOVERLAY, 0, STATIC
        ARGFRAME ISTACK, 0, STACK
        ARGFRAME PSTACK, 0, STACK
        ARGFRAME XSTACK, 32, STACK
        ARGFRAME IOVERLAY, 0, STATIC
        ARGFRAME DOVERLAY, 0, STATIC
        FUNCALL bdb_TCAddJoiningDevice, osal_memcmp
        LOCFRAME ISTACK, 0, STACK
        LOCFRAME PSTACK, 0, STACK
        LOCFRAME XSTACK, 31, STACK
        LOCFRAME IOVERLAY, 0, STATIC
        LOCFRAME DOVERLAY, 0, STATIC
        ARGFRAME ISTACK, 0, STACK
        ARGFRAME PSTACK, 0, STACK
        ARGFRAME XSTACK, 31, STACK
        ARGFRAME IOVERLAY, 0, STATIC
        ARGFRAME DOVERLAY, 0, STATIC
        FUNCALL bdb_TCAddJoiningDevice, osal_memcmp
        LOCFRAME ISTACK, 0, STACK
        LOCFRAME PSTACK, 0, STACK
        LOCFRAME XSTACK, 31, STACK
        LOCFRAME IOVERLAY, 0, STATIC
        LOCFRAME DOVERLAY, 0, STATIC
        ARGFRAME ISTACK, 0, STACK
        ARGFRAME PSTACK, 0, STACK
        ARGFRAME XSTACK, 31, STACK
        ARGFRAME IOVERLAY, 0, STATIC
        ARGFRAME DOVERLAY, 0, STATIC
        FUNCALL bdb_TCAddJoiningDevice, osal_mem_alloc
        LOCFRAME ISTACK, 0, STACK
        LOCFRAME PSTACK, 0, STACK
        LOCFRAME XSTACK, 28, STACK
        LOCFRAME IOVERLAY, 0, STATIC
        LOCFRAME DOVERLAY, 0, STATIC
        ARGFRAME ISTACK, 0, STACK
        ARGFRAME PSTACK, 0, STACK
        ARGFRAME XSTACK, 28, STACK
        ARGFRAME IOVERLAY, 0, STATIC
        ARGFRAME DOVERLAY, 0, STATIC
        FUNCALL bdb_TCAddJoiningDevice, osal_memcpy
        LOCFRAME ISTACK, 0, STACK
        LOCFRAME PSTACK, 0, STACK
        LOCFRAME XSTACK, 31, STACK
        LOCFRAME IOVERLAY, 0, STATIC
        LOCFRAME DOVERLAY, 0, STATIC
        ARGFRAME ISTACK, 0, STACK
        ARGFRAME PSTACK, 0, STACK
        ARGFRAME XSTACK, 31, STACK
        ARGFRAME IOVERLAY, 0, STATIC
        ARGFRAME DOVERLAY, 0, STATIC
        FUNCALL bdb_TCAddJoiningDevice, bdb_SendMsg
        LOCFRAME ISTACK, 0, STACK
        LOCFRAME PSTACK, 0, STACK
        LOCFRAME XSTACK, 30, STACK
        LOCFRAME IOVERLAY, 0, STATIC
        LOCFRAME DOVERLAY, 0, STATIC
        ARGFRAME ISTACK, 0, STACK
        ARGFRAME PSTACK, 0, STACK
        ARGFRAME XSTACK, 30, STACK
        ARGFRAME IOVERLAY, 0, STATIC
        ARGFRAME DOVERLAY, 0, STATIC
        FUNCALL bdb_TCAddJoiningDevice, osal_memcpy
        LOCFRAME ISTACK, 0, STACK
        LOCFRAME PSTACK, 0, STACK
        LOCFRAME XSTACK, 31, STACK
        LOCFRAME IOVERLAY, 0, STATIC
        LOCFRAME DOVERLAY, 0, STATIC
        ARGFRAME ISTACK, 0, STACK
        ARGFRAME PSTACK, 0, STACK
        ARGFRAME XSTACK, 31, STACK
        ARGFRAME IOVERLAY, 0, STATIC
        ARGFRAME DOVERLAY, 0, STATIC
        REQUIRE ?V0
        REQUIRE ?V1
        REQUIRE ?V2
        REQUIRE ?V4
        REQUIRE ?V5
        REQUIRE ?V6
        REQUIRE ?V7
        REQUIRE ?V8
        REQUIRE ?V9
        REQUIRE ?V10
        MOV       A,#-0x13
        LCALL     ?BANKED_ENTER_XDATA
          CFI DPH0 load(1, XDATA, add(CFA_XSP16, literal(-1)))
          CFI DPL0 load(1, XDATA, add(CFA_XSP16, literal(-2)))
          CFI ?BRET_EXT load(1, XDATA, add(CFA_XSP16, literal(-3)))
          CFI ?RET_HIGH load(1, XDATA, add(CFA_XSP16, literal(-4)))
          CFI ?RET_LOW load(1, XDATA, add(CFA_XSP16, literal(-5)))
          CFI R7 load(1, XDATA, add(CFA_XSP16, literal(-6)))
          CFI V10 load(1, XDATA, add(CFA_XSP16, literal(-7)))
          CFI V9 load(1, XDATA, add(CFA_XSP16, literal(-8)))
          CFI V8 load(1, XDATA, add(CFA_XSP16, literal(-9)))
          CFI V7 load(1, XDATA, add(CFA_XSP16, literal(-10)))
          CFI V6 load(1, XDATA, add(CFA_XSP16, literal(-11)))
          CFI V5 load(1, XDATA, add(CFA_XSP16, literal(-12)))
          CFI V4 load(1, XDATA, add(CFA_XSP16, literal(-13)))
          CFI V3 load(1, XDATA, add(CFA_XSP16, literal(-14)))
          CFI V2 load(1, XDATA, add(CFA_XSP16, literal(-15)))
          CFI V1 load(1, XDATA, add(CFA_XSP16, literal(-16)))
          CFI V0 load(1, XDATA, add(CFA_XSP16, literal(-17)))
          CFI VB load(1, XDATA, add(CFA_XSP16, literal(-18)))
          CFI R6 load(1, XDATA, add(CFA_XSP16, literal(-19)))
          CFI CFA_SP SP+0
          CFI CFA_XSP16 add(XSP16, 19)
        ; Saved register size: 19
        ; Auto size: 9
        MOV       A,#-0x9
        LCALL     ?ALLOC_XSTACK8
          CFI CFA_XSP16 add(XSP16, 28)
        MOV       ?V6,R2
        MOV       ?V7,R3
//  518   bdb_joiningDeviceList_t* tempJoiningDescNode;
//  519   
//  520   if((parentAddr == INVALID_NODE_ADDR) || (JoiningExtAddr == NULL))
        MOV       A,#-0x2
        XRL       A,?V6
        JNZ       ??bdb_TCAddJoiningDevice_0
        MOV       A,#-0x1
        XRL       A,?V7
??bdb_TCAddJoiningDevice_0:
        JZ        ??bdb_TCAddJoiningDevice_1
        MOV       A,R4
        ORL       A,R5
        JNZ       ??bdb_TCAddJoiningDevice_2
//  521   {
//  522     return ZInvalidParameter;
??bdb_TCAddJoiningDevice_1:
        MOV       R1,#0x2
        LJMP      ??bdb_TCAddJoiningDevice_3 & 0xFFFF
//  523   }
//  524   
//  525   //If the list was empty and element was allocated, then start the timer
//  526   if(bdb_joiningDeviceList == NULL)
??bdb_TCAddJoiningDevice_2:
        MOV       ?V0,R4
        MOV       ?V1,R5
        MOV       ?V2,#0x0
        MOV       DPTR,#bdb_joiningDeviceList
        LCALL     ??Subroutine41_0 & 0xFFFF
??CrossCallReturnLabel_55:
        JNZ       ??bdb_TCAddJoiningDevice_4
//  527   {
//  528     bdb_joiningDeviceList = osal_mem_alloc(sizeof(bdb_joiningDeviceList_t));
        ; Setup parameters for call to function osal_mem_alloc
        MOV       R2,#0xd
        MOV       R3,#0x0
        LCALL     `??osal_mem_alloc::?relay`; Banked call to: osal_mem_alloc
        MOV       DPTR,#bdb_joiningDeviceList
        MOV       A,R2
        MOVX      @DPTR,A
        INC       DPTR
        MOV       A,R3
        MOVX      @DPTR,A
//  529     if(bdb_joiningDeviceList == NULL)
        MOV       DPTR,#bdb_joiningDeviceList
        LCALL     ??Subroutine41_0 & 0xFFFF
??CrossCallReturnLabel_56:
        JNZ       $+5
        LJMP      ??bdb_TCAddJoiningDevice_5 & 0xFFFF
//  530     {
//  531       return ZFailure;
//  532     }
//  533    
//  534     osal_start_reload_timer(bdb_TaskID,BDB_TC_JOIN_TIMEOUT,1000);
        ; Setup parameters for call to function osal_start_reload_timer
        MOV       DPTR,#__Constant_3e8
        LCALL     ?PUSH_XSTACK8_X_FOUR
          CFI CFA_XSP16 add(XSP16, 32)
        MOV       R2,#0x0
        MOV       R3,#0x8
        MOV       DPTR,#bdb_TaskID
        MOVX      A,@DPTR
        MOV       R1,A
        LCALL     `??osal_start_reload_timer::?relay`; Banked call to: osal_start_reload_timer
        MOV       A,#0x4
        LCALL     ?DEALLOC_XSTACK8
          CFI CFA_XSP16 add(XSP16, 28)
//  535     tempJoiningDescNode = bdb_joiningDeviceList;
        MOV       DPTR,#bdb_joiningDeviceList
        MOVX      A,@DPTR
        MOV       R6,A
        INC       DPTR
        MOVX      A,@DPTR
        LJMP      ??bdb_TCAddJoiningDevice_6 & 0xFFFF
//  536   }
//  537   //if the list was not empty then add the entry at the end of the list
//  538   else
//  539   {
//  540     tempJoiningDescNode = bdb_joiningDeviceList;
??bdb_TCAddJoiningDevice_4:
        LCALL     ?Subroutine29 & 0xFFFF
//  541     
//  542     //Validate that this is not already in the list... somehow
//  543     if(osal_memcmp(JoiningExtAddr,tempJoiningDescNode->bdbJoiningNodeEui64,Z_EXTADDR_LEN))
??CrossCallReturnLabel_80:
        ; Setup parameters for call to function osal_memcmp
        MOV       DPL,R6
        MOV       DPH,R7
        INC       DPTR
        INC       DPTR
        MOV       R1,DPL
        MOV       R2,DPH
        MOV       ?V8,R1
        MOV       ?V9,R2
        MOV       ?V10,#0x0
        MOV       R0,#?V8
        LCALL     ?PUSH_XSTACK_I_THREE
          CFI CFA_XSP16 add(XSP16, 31)
        MOV       R4,#0x8
        MOV       R5,#0x0
        MOV       R1,?V0
        MOV       R2,?V1
        MOV       R3,?V2
        LCALL     `??osal_memcmp::?relay`; Banked call to: osal_memcmp
        MOV       A,#0x3
        LCALL     ?DEALLOC_XSTACK8
          CFI CFA_XSP16 add(XSP16, 28)
        MOV       A,R1
        JNZ       ??bdb_TCAddJoiningDevice_7
//  544     {
//  545       //The device added is already in the list, refresh its time and do nothing else
//  546       tempJoiningDescNode->NodeJoinTimeout = bdbAttributes.bdbTrustCenterNodeJoinTimeout;
//  547       return ZSuccess;
//  548     }
//  549     
//  550     while(tempJoiningDescNode->nextDev != NULL)
??bdb_TCAddJoiningDevice_8:
        MOV       A,R6
        ADD       A,#0xb
        MOV       R6,A
        JNC       ??bdb_TCAddJoiningDevice_9
        INC       R7
??bdb_TCAddJoiningDevice_9:
        LCALL     ??Subroutine40_0 & 0xFFFF
??CrossCallReturnLabel_69:
        JZ        ??bdb_TCAddJoiningDevice_10
//  551     {
//  552       tempJoiningDescNode = tempJoiningDescNode->nextDev;
        MOV       A,R0
        MOV       R6,A
        MOV       A,R1
        MOV       R7,A
//  553       
//  554       //Validate that this is not already in the list... somehow
//  555       if(osal_memcmp(JoiningExtAddr,tempJoiningDescNode->bdbJoiningNodeEui64,Z_EXTADDR_LEN))
        ; Setup parameters for call to function osal_memcmp
        MOV       DPL,R6
        MOV       DPH,R7
        INC       DPTR
        INC       DPTR
        MOV       R1,DPL
        MOV       R2,DPH
        MOV       ?V8,R1
        MOV       ?V9,R2
        MOV       R0,#?V8
        LCALL     ?PUSH_XSTACK_I_THREE
          CFI CFA_XSP16 add(XSP16, 31)
        MOV       R4,#0x8
        MOV       R5,#0x0
        MOV       R1,?V0
        MOV       R2,?V1
        MOV       R3,?V2
        LCALL     `??osal_memcmp::?relay`; Banked call to: osal_memcmp
        MOV       A,#0x3
        LCALL     ?DEALLOC_XSTACK8
          CFI CFA_XSP16 add(XSP16, 28)
        MOV       A,R1
        JZ        ??bdb_TCAddJoiningDevice_8
//  556       {
//  557         //The device added is already in the list, refresh its time and do nothing else
//  558         tempJoiningDescNode->NodeJoinTimeout = bdbAttributes.bdbTrustCenterNodeJoinTimeout;
??bdb_TCAddJoiningDevice_7:
        LCALL     ?Subroutine17 & 0xFFFF
//  559         return ZSuccess;
??CrossCallReturnLabel_15:
        LJMP      ??bdb_TCAddJoiningDevice_11 & 0xFFFF
//  560       }
//  561     }
//  562     
//  563     tempJoiningDescNode->nextDev = osal_mem_alloc(sizeof(bdb_joiningDeviceList_t));
??bdb_TCAddJoiningDevice_10:
        ; Setup parameters for call to function osal_mem_alloc
        MOV       R2,#0xd
        MOV       R3,#0x0
        LCALL     `??osal_mem_alloc::?relay`; Banked call to: osal_mem_alloc
        MOV       ?V4,R2
        MOV       ?V5,R3
        MOV       R0,?V4
        MOV       R1,?V5
        LCALL     ??Subroutine43_0 & 0xFFFF
//  564     if(tempJoiningDescNode->nextDev == NULL)
??CrossCallReturnLabel_77:
        JNZ       ??bdb_TCAddJoiningDevice_12
//  565     {
//  566       return ZFailure;
??bdb_TCAddJoiningDevice_5:
        MOV       R1,#0x1
        LJMP      ??bdb_TCAddJoiningDevice_3 & 0xFFFF
//  567     }
//  568     
//  569     tempJoiningDescNode = tempJoiningDescNode->nextDev;
??bdb_TCAddJoiningDevice_12:
        MOV       A,R0
        MOV       R6,A
        MOV       A,R1
??bdb_TCAddJoiningDevice_6:
        MOV       R7,A
//  570   }
//  571   
//  572   if(pfnTCLinkKeyExchangeProcessCB)
        MOV       A,R6
        ADD       A,#0x2
        MOV       ?V4,A
        CLR       A
        ADDC      A,R7
        MOV       ?V5,A
        MOV       DPTR,#pfnTCLinkKeyExchangeProcessCB
        LCALL     ??Subroutine41_0 & 0xFFFF
??CrossCallReturnLabel_57:
        JZ        ??bdb_TCAddJoiningDevice_13
//  573   {
//  574     bdb_TCLinkKeyExchProcess_t bdb_TCLinkKeyExchProcess;
//  575     osal_memcpy(bdb_TCLinkKeyExchProcess.extAddr,tempJoiningDescNode->bdbJoiningNodeEui64, Z_EXTADDR_LEN);
        ; Setup parameters for call to function osal_memcpy
        MOV       ?V8,?V4
        MOV       ?V9,?V5
        MOV       ?V10,#0x0
        MOV       R0,#?V8
        LCALL     ?PUSH_XSTACK_I_THREE
          CFI CFA_XSP16 add(XSP16, 31)
        MOV       R4,#0x8
        MOV       R5,#0x0
        MOV       A,#0x4
        LCALL     ?XSTACK_DISP0_8
        MOV       R2,DPL
        MOV       R3,DPH
        LCALL     `??osal_memcpy::?relay`; Banked call to: osal_memcpy
        MOV       A,#0x3
        LCALL     ?DEALLOC_XSTACK8
          CFI CFA_XSP16 add(XSP16, 28)
//  576     bdb_TCLinkKeyExchProcess.status = BDB_TC_LK_EXCH_PROCESS_JOINING;
        MOV       DPL,?XSP + 0
        MOV       DPH,?XSP + 1
        CLR       A
        MOVX      @DPTR,A
//  577     
//  578     bdb_SendMsg(bdb_TaskID, BDB_TC_LINK_KEY_EXCHANGE_PROCESS, BDB_MSG_EVENT_SUCCESS,sizeof(bdb_TCLinkKeyExchProcess_t),(uint8*)&bdb_TCLinkKeyExchProcess);
        ; Setup parameters for call to function bdb_SendMsg
        MOV       R0,?XSP + 0
        MOV       R1,?XSP + 1
        MOV       ?V8,R0
        MOV       ?V9,R1
        MOV       R0,#?V8
        LCALL     ?PUSH_XSTACK_I_TWO
          CFI CFA_XSP16 add(XSP16, 30)
        MOV       R4,#0x9
        MOV       R3,#0x0
        MOV       R2,#0x9
        MOV       DPTR,#bdb_TaskID
        MOVX      A,@DPTR
        MOV       R1,A
        LCALL     `??bdb_SendMsg::?relay`; Banked call to: bdb_SendMsg
        MOV       A,#0x2
        LCALL     ?DEALLOC_XSTACK8
          CFI CFA_XSP16 add(XSP16, 28)
//  579   }
//  580   
//  581   tempJoiningDescNode->nextDev = NULL;
??bdb_TCAddJoiningDevice_13:
        LCALL     ?Subroutine25 & 0xFFFF
??CrossCallReturnLabel_28:
        CLR       A
        MOVX      @DPTR,A
        INC       DPTR
        MOVX      @DPTR,A
//  582   tempJoiningDescNode->NodeJoinTimeout = bdbAttributes.bdbTrustCenterNodeJoinTimeout;
        LCALL     ?Subroutine17 & 0xFFFF
//  583   tempJoiningDescNode->parentAddr = parentAddr;
??CrossCallReturnLabel_16:
        MOV       DPL,R6
        MOV       DPH,R7
        MOV       A,?V6
        MOVX      @DPTR,A
        INC       DPTR
        MOV       A,?V7
        MOVX      @DPTR,A
//  584   osal_memcpy(tempJoiningDescNode->bdbJoiningNodeEui64, JoiningExtAddr, Z_EXTADDR_LEN);
        ; Setup parameters for call to function osal_memcpy
        MOV       R0,#?V0
        LCALL     ?PUSH_XSTACK_I_THREE
          CFI CFA_XSP16 add(XSP16, 31)
        MOV       R4,#0x8
        MOV       R5,#0x0
        MOV       R2,?V4
        MOV       R3,?V5
        LCALL     `??osal_memcpy::?relay`; Banked call to: osal_memcpy
        MOV       A,#0x3
        LCALL     ?DEALLOC_XSTACK8
          CFI CFA_XSP16 add(XSP16, 28)
//  585   
//  586   return ZSuccess;
??bdb_TCAddJoiningDevice_11:
        MOV       R1,#0x0
??bdb_TCAddJoiningDevice_3:
          CFI EndBlock cfiBlock10
        REQUIRE ?Subroutine4
        ; // Fall through to label ?Subroutine4
//  587 }

        RSEG BANKED_CODE:HUGECODE:NOROOT(0)
?Subroutine4:
          CFI Block cfiBlock11 Using cfiCommon0
          CFI NoFunction
          CFI CFA_SP SP+0
          CFI CFA_XSP16 add(XSP16, 28)
          CFI VB load(1, XDATA, add(CFA_XSP16, literal(-18)))
          CFI DPL0 load(1, XDATA, add(CFA_XSP16, literal(-2)))
          CFI DPH0 load(1, XDATA, add(CFA_XSP16, literal(-1)))
          CFI R6 load(1, XDATA, add(CFA_XSP16, literal(-19)))
          CFI R7 load(1, XDATA, add(CFA_XSP16, literal(-6)))
          CFI V0 load(1, XDATA, add(CFA_XSP16, literal(-17)))
          CFI V1 load(1, XDATA, add(CFA_XSP16, literal(-16)))
          CFI V2 load(1, XDATA, add(CFA_XSP16, literal(-15)))
          CFI V3 load(1, XDATA, add(CFA_XSP16, literal(-14)))
          CFI V4 load(1, XDATA, add(CFA_XSP16, literal(-13)))
          CFI V5 load(1, XDATA, add(CFA_XSP16, literal(-12)))
          CFI V6 load(1, XDATA, add(CFA_XSP16, literal(-11)))
          CFI V7 load(1, XDATA, add(CFA_XSP16, literal(-10)))
          CFI V8 load(1, XDATA, add(CFA_XSP16, literal(-9)))
          CFI V9 load(1, XDATA, add(CFA_XSP16, literal(-8)))
          CFI V10 load(1, XDATA, add(CFA_XSP16, literal(-7)))
          CFI ?BRET_EXT load(1, XDATA, add(CFA_XSP16, literal(-3)))
          CFI ?RET_HIGH load(1, XDATA, add(CFA_XSP16, literal(-4)))
          CFI ?RET_LOW load(1, XDATA, add(CFA_XSP16, literal(-5)))
        MOV       A,#0x9
        LCALL     ?DEALLOC_XSTACK8
          CFI CFA_XSP16 add(XSP16, 19)
        MOV       R7,#0xb
        LJMP      ?BANKED_LEAVE_XDATA
          CFI EndBlock cfiBlock11

        RSEG BANKED_CODE:HUGECODE:NOROOT(0)
?Subroutine17:
          CFI Block cfiCond12 Using cfiCommon0
          CFI Function bdb_TCAddJoiningDevice
          CFI Conditional ??CrossCallReturnLabel_15
          CFI R6 load(1, XDATA, add(CFA_XSP16, literal(-19)))
          CFI VB load(1, XDATA, add(CFA_XSP16, literal(-18)))
          CFI V0 load(1, XDATA, add(CFA_XSP16, literal(-17)))
          CFI V1 load(1, XDATA, add(CFA_XSP16, literal(-16)))
          CFI V2 load(1, XDATA, add(CFA_XSP16, literal(-15)))
          CFI V3 load(1, XDATA, add(CFA_XSP16, literal(-14)))
          CFI V4 load(1, XDATA, add(CFA_XSP16, literal(-13)))
          CFI V5 load(1, XDATA, add(CFA_XSP16, literal(-12)))
          CFI V6 load(1, XDATA, add(CFA_XSP16, literal(-11)))
          CFI V7 load(1, XDATA, add(CFA_XSP16, literal(-10)))
          CFI V8 load(1, XDATA, add(CFA_XSP16, literal(-9)))
          CFI V9 load(1, XDATA, add(CFA_XSP16, literal(-8)))
          CFI V10 load(1, XDATA, add(CFA_XSP16, literal(-7)))
          CFI R7 load(1, XDATA, add(CFA_XSP16, literal(-6)))
          CFI ?RET_LOW load(1, XDATA, add(CFA_XSP16, literal(-5)))
          CFI ?RET_HIGH load(1, XDATA, add(CFA_XSP16, literal(-4)))
          CFI ?BRET_EXT load(1, XDATA, add(CFA_XSP16, literal(-3)))
          CFI DPL0 load(1, XDATA, add(CFA_XSP16, literal(-2)))
          CFI DPH0 load(1, XDATA, add(CFA_XSP16, literal(-1)))
          CFI CFA_SP SP+-2
          CFI CFA_XSP16 add(XSP16, 28)
          CFI Block cfiCond13 Using cfiCommon0
          CFI (cfiCond13) Function bdb_TCAddJoiningDevice
          CFI (cfiCond13) Conditional ??CrossCallReturnLabel_16
          CFI (cfiCond13) R6 load(1, XDATA, add(CFA_XSP16, literal(-19)))
          CFI (cfiCond13) VB load(1, XDATA, add(CFA_XSP16, literal(-18)))
          CFI (cfiCond13) V0 load(1, XDATA, add(CFA_XSP16, literal(-17)))
          CFI (cfiCond13) V1 load(1, XDATA, add(CFA_XSP16, literal(-16)))
          CFI (cfiCond13) V2 load(1, XDATA, add(CFA_XSP16, literal(-15)))
          CFI (cfiCond13) V3 load(1, XDATA, add(CFA_XSP16, literal(-14)))
          CFI (cfiCond13) V4 load(1, XDATA, add(CFA_XSP16, literal(-13)))
          CFI (cfiCond13) V5 load(1, XDATA, add(CFA_XSP16, literal(-12)))
          CFI (cfiCond13) V6 load(1, XDATA, add(CFA_XSP16, literal(-11)))
          CFI (cfiCond13) V7 load(1, XDATA, add(CFA_XSP16, literal(-10)))
          CFI (cfiCond13) V8 load(1, XDATA, add(CFA_XSP16, literal(-9)))
          CFI (cfiCond13) V9 load(1, XDATA, add(CFA_XSP16, literal(-8)))
          CFI (cfiCond13) V10 load(1, XDATA, add(CFA_XSP16, literal(-7)))
          CFI (cfiCond13) R7 load(1, XDATA, add(CFA_XSP16, literal(-6)))
          CFI (cfiCond13) ?RET_LOW load(1, XDATA, add(CFA_XSP16, literal(-5)))
          CFI (cfiCond13) ?RET_HIGH load(1, XDATA, add(CFA_XSP16, literal(-4)))
          CFI (cfiCond13) ?BRET_EXT load(1, XDATA, add(CFA_XSP16, literal(-3)))
          CFI (cfiCond13) DPL0 load(1, XDATA, add(CFA_XSP16, literal(-2)))
          CFI (cfiCond13) DPH0 load(1, XDATA, add(CFA_XSP16, literal(-1)))
          CFI (cfiCond13) CFA_SP SP+-2
          CFI (cfiCond13) CFA_XSP16 add(XSP16, 28)
          CFI Block cfiPicker14 Using cfiCommon1
          CFI (cfiPicker14) NoFunction
          CFI (cfiPicker14) Picker
        MOV       DPTR,#bdbAttributes + 16
        MOVX      A,@DPTR
        MOV       DPL,R6
        MOV       DPH,R7
        INC       DPTR
        INC       DPTR
        INC       DPTR
        INC       DPTR
        INC       DPTR
        INC       DPTR
        INC       DPTR
        INC       DPTR
        INC       DPTR
        INC       DPTR
        MOVX      @DPTR,A
        RET
          CFI EndBlock cfiCond12
          CFI EndBlock cfiCond13
          CFI EndBlock cfiPicker14
//  588 
//  589 /****************************************************************************
//  590  * @fn          bdb_TCProcessJoiningList
//  591  *
//  592  * @brief       Process the timer to handle the joining devices if the TC link 
//  593  *              key is mandatory for all devices
//  594  *
//  595  * @param       none
//  596  *
//  597  * @return      none
//  598  */

        RSEG BANKED_CODE:HUGECODE:NOROOT(0)
//  599 void bdb_TCProcessJoiningList(void)
bdb_TCProcessJoiningList:
          CFI Block cfiBlock15 Using cfiCommon0
          CFI Function bdb_TCProcessJoiningList
        CODE
//  600 {
        FUNCALL bdb_TCProcessJoiningList, osal_memcpy
        LOCFRAME ISTACK, 0, STACK
        LOCFRAME PSTACK, 0, STACK
        LOCFRAME XSTACK, 60, STACK
        LOCFRAME IOVERLAY, 0, STATIC
        LOCFRAME DOVERLAY, 0, STATIC
        ARGFRAME ISTACK, 0, STACK
        ARGFRAME PSTACK, 0, STACK
        ARGFRAME XSTACK, 60, STACK
        ARGFRAME IOVERLAY, 0, STATIC
        ARGFRAME DOVERLAY, 0, STATIC
        FUNCALL bdb_TCProcessJoiningList, AddrMgrEntryLookupExt
        LOCFRAME ISTACK, 0, STACK
        LOCFRAME PSTACK, 0, STACK
        LOCFRAME XSTACK, 57, STACK
        LOCFRAME IOVERLAY, 0, STATIC
        LOCFRAME DOVERLAY, 0, STATIC
        ARGFRAME ISTACK, 0, STACK
        ARGFRAME PSTACK, 0, STACK
        ARGFRAME XSTACK, 57, STACK
        ARGFRAME IOVERLAY, 0, STATIC
        ARGFRAME DOVERLAY, 0, STATIC
        FUNCALL bdb_TCProcessJoiningList, ZDSecMgrAPSRemove
        LOCFRAME ISTACK, 0, STACK
        LOCFRAME PSTACK, 0, STACK
        LOCFRAME XSTACK, 59, STACK
        LOCFRAME IOVERLAY, 0, STATIC
        LOCFRAME DOVERLAY, 0, STATIC
        ARGFRAME ISTACK, 0, STACK
        ARGFRAME PSTACK, 0, STACK
        ARGFRAME XSTACK, 59, STACK
        ARGFRAME IOVERLAY, 0, STATIC
        ARGFRAME DOVERLAY, 0, STATIC
        FUNCALL bdb_TCProcessJoiningList, ZDSecMgrAddrClear
        LOCFRAME ISTACK, 0, STACK
        LOCFRAME PSTACK, 0, STACK
        LOCFRAME XSTACK, 57, STACK
        LOCFRAME IOVERLAY, 0, STATIC
        LOCFRAME DOVERLAY, 0, STATIC
        ARGFRAME ISTACK, 0, STACK
        ARGFRAME PSTACK, 0, STACK
        ARGFRAME XSTACK, 57, STACK
        ARGFRAME IOVERLAY, 0, STATIC
        ARGFRAME DOVERLAY, 0, STATIC
        FUNCALL bdb_TCProcessJoiningList, APSME_SearchTCLinkKeyEntry
        LOCFRAME ISTACK, 0, STACK
        LOCFRAME PSTACK, 0, STACK
        LOCFRAME XSTACK, 59, STACK
        LOCFRAME IOVERLAY, 0, STATIC
        LOCFRAME DOVERLAY, 0, STATIC
        ARGFRAME ISTACK, 0, STACK
        ARGFRAME PSTACK, 0, STACK
        ARGFRAME XSTACK, 59, STACK
        ARGFRAME IOVERLAY, 0, STATIC
        ARGFRAME DOVERLAY, 0, STATIC
        FUNCALL bdb_TCProcessJoiningList, osal_memset
        LOCFRAME ISTACK, 0, STACK
        LOCFRAME PSTACK, 0, STACK
        LOCFRAME XSTACK, 57, STACK
        LOCFRAME IOVERLAY, 0, STATIC
        LOCFRAME DOVERLAY, 0, STATIC
        ARGFRAME ISTACK, 0, STACK
        ARGFRAME PSTACK, 0, STACK
        ARGFRAME XSTACK, 57, STACK
        ARGFRAME IOVERLAY, 0, STATIC
        ARGFRAME DOVERLAY, 0, STATIC
        FUNCALL bdb_TCProcessJoiningList, osal_nv_write
        LOCFRAME ISTACK, 0, STACK
        LOCFRAME PSTACK, 0, STACK
        LOCFRAME XSTACK, 61, STACK
        LOCFRAME IOVERLAY, 0, STATIC
        LOCFRAME DOVERLAY, 0, STATIC
        ARGFRAME ISTACK, 0, STACK
        ARGFRAME PSTACK, 0, STACK
        ARGFRAME XSTACK, 61, STACK
        ARGFRAME IOVERLAY, 0, STATIC
        ARGFRAME DOVERLAY, 0, STATIC
        FUNCALL bdb_TCProcessJoiningList, osal_memcpy
        LOCFRAME ISTACK, 0, STACK
        LOCFRAME PSTACK, 0, STACK
        LOCFRAME XSTACK, 60, STACK
        LOCFRAME IOVERLAY, 0, STATIC
        LOCFRAME DOVERLAY, 0, STATIC
        ARGFRAME ISTACK, 0, STACK
        ARGFRAME PSTACK, 0, STACK
        ARGFRAME XSTACK, 60, STACK
        ARGFRAME IOVERLAY, 0, STATIC
        ARGFRAME DOVERLAY, 0, STATIC
        FUNCALL bdb_TCProcessJoiningList, bdb_SendMsg
        LOCFRAME ISTACK, 0, STACK
        LOCFRAME PSTACK, 0, STACK
        LOCFRAME XSTACK, 59, STACK
        LOCFRAME IOVERLAY, 0, STATIC
        LOCFRAME DOVERLAY, 0, STATIC
        ARGFRAME ISTACK, 0, STACK
        ARGFRAME PSTACK, 0, STACK
        ARGFRAME XSTACK, 59, STACK
        ARGFRAME IOVERLAY, 0, STATIC
        ARGFRAME DOVERLAY, 0, STATIC
        FUNCALL bdb_TCProcessJoiningList, bdb_TCJoiningDeviceFree
        LOCFRAME ISTACK, 0, STACK
        LOCFRAME PSTACK, 0, STACK
        LOCFRAME XSTACK, 57, STACK
        LOCFRAME IOVERLAY, 0, STATIC
        LOCFRAME DOVERLAY, 0, STATIC
        ARGFRAME ISTACK, 0, STACK
        ARGFRAME PSTACK, 0, STACK
        ARGFRAME XSTACK, 57, STACK
        ARGFRAME IOVERLAY, 0, STATIC
        ARGFRAME DOVERLAY, 0, STATIC
        FUNCALL bdb_TCProcessJoiningList, osal_stop_timerEx
        LOCFRAME ISTACK, 0, STACK
        LOCFRAME PSTACK, 0, STACK
        LOCFRAME XSTACK, 57, STACK
        LOCFRAME IOVERLAY, 0, STATIC
        LOCFRAME DOVERLAY, 0, STATIC
        ARGFRAME ISTACK, 0, STACK
        ARGFRAME PSTACK, 0, STACK
        ARGFRAME XSTACK, 57, STACK
        ARGFRAME IOVERLAY, 0, STATIC
        ARGFRAME DOVERLAY, 0, STATIC
        REQUIRE ?V0
        REQUIRE ?V1
        REQUIRE ?V2
        REQUIRE ?V3
        REQUIRE ?V4
        REQUIRE ?V5
        REQUIRE ?V6
        MOV       A,#-0xf
        LCALL     ?BANKED_ENTER_XDATA
          CFI DPH0 load(1, XDATA, add(CFA_XSP16, literal(-1)))
          CFI DPL0 load(1, XDATA, add(CFA_XSP16, literal(-2)))
          CFI ?BRET_EXT load(1, XDATA, add(CFA_XSP16, literal(-3)))
          CFI ?RET_HIGH load(1, XDATA, add(CFA_XSP16, literal(-4)))
          CFI ?RET_LOW load(1, XDATA, add(CFA_XSP16, literal(-5)))
          CFI R7 load(1, XDATA, add(CFA_XSP16, literal(-6)))
          CFI V6 load(1, XDATA, add(CFA_XSP16, literal(-7)))
          CFI V5 load(1, XDATA, add(CFA_XSP16, literal(-8)))
          CFI V4 load(1, XDATA, add(CFA_XSP16, literal(-9)))
          CFI V3 load(1, XDATA, add(CFA_XSP16, literal(-10)))
          CFI V2 load(1, XDATA, add(CFA_XSP16, literal(-11)))
          CFI V1 load(1, XDATA, add(CFA_XSP16, literal(-12)))
          CFI V0 load(1, XDATA, add(CFA_XSP16, literal(-13)))
          CFI VB load(1, XDATA, add(CFA_XSP16, literal(-14)))
          CFI R6 load(1, XDATA, add(CFA_XSP16, literal(-15)))
          CFI CFA_SP SP+0
          CFI CFA_XSP16 add(XSP16, 15)
        ; Saved register size: 15
        ; Auto size: 42
        MOV       A,#-0x2a
        LCALL     ?ALLOC_XSTACK8
          CFI CFA_XSP16 add(XSP16, 57)
//  601   bdb_joiningDeviceList_t* tempJoiningDescNode;
//  602   
//  603   if(bdb_joiningDeviceList)
        MOV       DPTR,#bdb_joiningDeviceList
        LCALL     ??Subroutine41_0 & 0xFFFF
??CrossCallReturnLabel_58:
        JNZ       $+5
        LJMP      ??bdb_TCProcessJoiningList_0 & 0xFFFF
//  604   {
//  605     tempJoiningDescNode = bdb_joiningDeviceList;
        MOV       DPTR,#bdb_joiningDeviceList
        LCALL     ?Subroutine21 & 0xFFFF
//  606   
//  607     while(tempJoiningDescNode)
//  608     {
//  609       if(tempJoiningDescNode->NodeJoinTimeout)
??CrossCallReturnLabel_21:
        MOV       A,?V0
        ADD       A,#0xa
        MOV       DPL,A
        CLR       A
        ADDC      A,?V1
        MOV       DPH,A
        MOVX      A,@DPTR
        JZ        ??bdb_TCProcessJoiningList_1
//  610       {
//  611         tempJoiningDescNode->NodeJoinTimeout--;
        DEC       A
        MOVX      @DPTR,A
//  612       }
//  613       
//  614       if(tempJoiningDescNode->NodeJoinTimeout == 0)
        JZ        $+5
        LJMP      ??bdb_TCProcessJoiningList_2 & 0xFFFF
//  615       {
//  616         //Check if the key exchange is required 
//  617         if(bdb_doTrustCenterRequireKeyExchange())
??bdb_TCProcessJoiningList_1:
        MOV       A,?V0
        ADD       A,#0x2
        MOV       R6,A
        CLR       A
        ADDC      A,?V1
        MOV       R7,A
        MOV       ?V4,R6
        MOV       ?V5,R7
        MOV       ?V6,#0x0
        MOV       DPTR,#bdbAttributes + 17
        MOVX      A,@DPTR
        JZ        ??bdb_TCProcessJoiningList_3
//  618         {
//  619             AddrMgrEntry_t entry;
//  620             
//  621             entry.user = ADDRMGR_USER_DEFAULT;
        MOV       A,#0xa
        LCALL     ?XSTACK_DISP0_8
        CLR       A
        MOVX      @DPTR,A
//  622             osal_memcpy(entry.extAddr,tempJoiningDescNode->bdbJoiningNodeEui64, Z_EXTADDR_LEN);
        ; Setup parameters for call to function osal_memcpy
        MOV       R0,#?V4
        LCALL     ?PUSH_XSTACK_I_THREE
          CFI CFA_XSP16 add(XSP16, 60)
        MOV       R4,#0x8
        MOV       R5,#0x0
        MOV       A,#0x10
        LCALL     ?XSTACK_DISP0_8
        MOV       R2,DPL
        MOV       R3,DPH
        LCALL     `??osal_memcpy::?relay`; Banked call to: osal_memcpy
        MOV       A,#0x3
        LCALL     ?DEALLOC_XSTACK8
          CFI CFA_XSP16 add(XSP16, 57)
//  623             
//  624             if(AddrMgrEntryLookupExt(&entry))
        ; Setup parameters for call to function AddrMgrEntryLookupExt
        MOV       A,#0xa
        LCALL     ?XSTACK_DISP101_8
        LCALL     `??AddrMgrEntryLookupExt::?relay`; Banked call to: AddrMgrEntryLookupExt
        MOV       A,R1
        JZ        ??bdb_TCProcessJoiningList_3
//  625             {
//  626               ZDSecMgrAPSRemove(entry.nwkAddr,entry.extAddr,tempJoiningDescNode->parentAddr);
        ; Setup parameters for call to function ZDSecMgrAPSRemove
        MOV       DPL,?V0
        MOV       DPH,?V1
        LCALL     ?PUSH_XSTACK8_X_TWO
          CFI CFA_XSP16 add(XSP16, 59)
        MOV       A,#0xf
        LCALL     ?XSTACK_DISP0_8
        MOV       R4,DPL
        MOV       R5,DPH
        MOV       A,#0xd
        LCALL     ?XSTACK_DISP0_8
        LCALL     ??Subroutine45_0 & 0xFFFF
//  627             }
//  628         }
??CrossCallReturnLabel_82:
        LCALL     `??ZDSecMgrAPSRemove::?relay`; Banked call to: ZDSecMgrAPSRemove
        MOV       A,#0x2
        LCALL     ?DEALLOC_XSTACK8
          CFI CFA_XSP16 add(XSP16, 57)
//  629         
//  630         //Expired device either is legacy device not using the TCLK entry or got 
//  631         //removed from the network because of timeout, eitherway it is not using
//  632         //TCLK entry neither the Security user in the address manager, so free the entry
//  633         //in both tables.
//  634         
//  635         uint16 keyNvIndex;
//  636         uint16 index;        
//  637         APSME_TCLKDevEntry_t TCLKDevEntry;
//  638         uint8 found;
//  639         
//  640         //Remove the entry in address manager
//  641         ZDSecMgrAddrClear(tempJoiningDescNode->bdbJoiningNodeEui64);
??bdb_TCProcessJoiningList_3:
        ; Setup parameters for call to function ZDSecMgrAddrClear
        MOV       A,R6
        MOV       R2,A
        MOV       A,R7
        MOV       R3,A
        LCALL     `??ZDSecMgrAddrClear::?relay`; Banked call to: ZDSecMgrAddrClear
//  642         
//  643         //search for the entry in the TCLK table
//  644         keyNvIndex = APSME_SearchTCLinkKeyEntry(tempJoiningDescNode->bdbJoiningNodeEui64,&found, NULL);
        ; Setup parameters for call to function APSME_SearchTCLinkKeyEntry
        CLR       A
        MOV       ?V2,A
        MOV       ?V3,A
        MOV       R0,#?V2
        LCALL     ?PUSH_XSTACK_I_TWO
          CFI CFA_XSP16 add(XSP16, 59)
        MOV       A,#0x2
        LCALL     ?XSTACK_DISP102_8
        MOV       A,R6
        MOV       R2,A
        MOV       A,R7
        MOV       R3,A
        LCALL     `??APSME_SearchTCLinkKeyEntry::?relay`; Banked call to: APSME_SearchTCLinkKeyEntry
        MOV       A,#0x2
        LCALL     ?DEALLOC_XSTACK8
          CFI CFA_XSP16 add(XSP16, 57)
        MOV       ?V2,R2
        MOV       ?V3,R3
        MOV       R6,?V2
        MOV       R7,?V3
//  645         
//  646         //If found, erase it.
//  647         if(found == TRUE)
        MOV       DPL,?XSP + 0
        MOV       DPH,?XSP + 1
        MOVX      A,@DPTR
        XRL       A,#0x1
        JNZ       ??bdb_TCProcessJoiningList_4
//  648         {
//  649           osal_memset(&TCLKDevEntry,0,sizeof(APSME_TCLKDevEntry_t));
        ; Setup parameters for call to function osal_memset
        MOV       R4,#0x13
        MOV       R5,#0x0
        MOV       R1,#0x0
        MOV       A,#0x17
        LCALL     ?XSTACK_DISP101_8
        LCALL     `??osal_memset::?relay`; Banked call to: osal_memset
//  650           TCLKDevEntry.keyAttributes = ZG_DEFAULT_KEY;
        MOV       A,#0x27
        LCALL     ?XSTACK_DISP0_8
        MOV       A,#-0x1
        MOVX      @DPTR,A
//  651           
//  652           //Increase the shift by one. Validate the maximum shift of the seed which is 15
//  653           index = keyNvIndex - ZCD_NV_TCLK_TABLE_START;
        MOV       A,R6
        ADD       A,#-0x11
        MOV       R0,A
        MOV       A,R7
        ADDC      A,#-0x2
        MOV       R1,A
//  654           
//  655           TCLinkKeyFrmCntr[index].rxFrmCntr = 0;
        MOV       A,R0
        MOV       B,#0x9
        MUL       AB
        MOV       R0,A
        MOV       R2,B
        MOV       B,#0x9
        MOV       A,R1
        MUL       AB
        ADD       A,R2
        MOV       R1,A
        MOV       A,#TCLinkKeyFrmCntr & 0xff
        ADD       A,R0
        MOV       R0,A
        MOV       A,#(TCLinkKeyFrmCntr >> 8) & 0xff
        ADDC      A,R1
        MOV       R1,A
        MOV       DPL,R0
        MOV       DPH,R1
        INC       DPTR
        INC       DPTR
        INC       DPTR
        INC       DPTR
        LCALL     ?Subroutine9 & 0xFFFF
//  656           TCLinkKeyFrmCntr[index].txFrmCntr = 0;
??CrossCallReturnLabel_43:
        MOV       DPL,R0
        MOV       DPH,R1
        LCALL     ??Subroutine32_0 & 0xFFFF
//  657           
//  658           //Update the entry
//  659           osal_nv_write(keyNvIndex,0,sizeof(APSME_TCLKDevEntry_t), &TCLKDevEntry );
??CrossCallReturnLabel_41:
        ; Setup parameters for call to function osal_nv_write
        MOV       A,#0x17
        LCALL     ?XSTACK_DISP100_8
        MOV       ?V2,R0
        MOV       ?V3,R1
        MOV       R0,#?V2
        LCALL     ?PUSH_XSTACK_I_TWO
          CFI CFA_XSP16 add(XSP16, 59)
        MOV       ?V2,#0x13
        MOV       ?V3,#0x0
        MOV       R0,#?V2
        LCALL     ?PUSH_XSTACK_I_TWO
          CFI CFA_XSP16 add(XSP16, 61)
        MOV       R4,#0x0
        MOV       R5,#0x0
        MOV       A,R6
        MOV       R2,A
        MOV       A,R7
        MOV       R3,A
        LCALL     `??osal_nv_write::?relay`; Banked call to: osal_nv_write
        MOV       A,#0x4
        LCALL     ?DEALLOC_XSTACK8
          CFI CFA_XSP16 add(XSP16, 57)
//  660         }
//  661         
//  662         if(pfnTCLinkKeyExchangeProcessCB)
??bdb_TCProcessJoiningList_4:
        MOV       DPTR,#pfnTCLinkKeyExchangeProcessCB
        LCALL     ??Subroutine41_0 & 0xFFFF
??CrossCallReturnLabel_59:
        JZ        ??bdb_TCProcessJoiningList_5
//  663         {
//  664           bdb_TCLinkKeyExchProcess_t bdb_TCLinkKeyExchProcess;
//  665           osal_memcpy(bdb_TCLinkKeyExchProcess.extAddr,tempJoiningDescNode->bdbJoiningNodeEui64, Z_EXTADDR_LEN);
        ; Setup parameters for call to function osal_memcpy
        MOV       R0,#?V4
        LCALL     ?PUSH_XSTACK_I_THREE
          CFI CFA_XSP16 add(XSP16, 60)
        MOV       R4,#0x8
        MOV       R5,#0x0
        MOV       A,#0x5
        LCALL     ?XSTACK_DISP0_8
        MOV       R2,DPL
        MOV       R3,DPH
        LCALL     `??osal_memcpy::?relay`; Banked call to: osal_memcpy
        MOV       A,#0x3
        LCALL     ?DEALLOC_XSTACK8
          CFI CFA_XSP16 add(XSP16, 57)
//  666           bdb_TCLinkKeyExchProcess.status = BDB_TC_LK_EXCH_PROCESS_EXCH_FAIL;
        MOV       A,#0x1
        LCALL     ?XSTACK_DISP0_8
        MOV       A,#0x2
        MOVX      @DPTR,A
//  667           
//  668           bdb_SendMsg(bdb_TaskID, BDB_TC_LINK_KEY_EXCHANGE_PROCESS, BDB_MSG_EVENT_SUCCESS,sizeof(bdb_TCLinkKeyExchProcess_t),(uint8*)&bdb_TCLinkKeyExchProcess);
        ; Setup parameters for call to function bdb_SendMsg
        DEC       A
        LCALL     ?XSTACK_DISP100_8
        MOV       ?V2,R0
        MOV       ?V3,R1
        MOV       R0,#?V2
        LCALL     ?PUSH_XSTACK_I_TWO
          CFI CFA_XSP16 add(XSP16, 59)
        MOV       R4,#0x9
        MOV       R3,#0x0
        MOV       R2,#0x9
        MOV       DPTR,#bdb_TaskID
        MOVX      A,@DPTR
        MOV       R1,A
        LCALL     `??bdb_SendMsg::?relay`; Banked call to: bdb_SendMsg
        MOV       A,#0x2
        LCALL     ?DEALLOC_XSTACK8
          CFI CFA_XSP16 add(XSP16, 57)
//  669         }
//  670        
//  671         //Free the device from the list
//  672         bdb_TCJoiningDeviceFree(tempJoiningDescNode);
??bdb_TCProcessJoiningList_5:
        ; Setup parameters for call to function bdb_TCJoiningDeviceFree
        MOV       R2,?V0
        MOV       R3,?V1
        LCALL     `??bdb_TCJoiningDeviceFree::?relay`; Banked call to: bdb_TCJoiningDeviceFree
//  673       }
//  674       tempJoiningDescNode = tempJoiningDescNode->nextDev;
??bdb_TCProcessJoiningList_2:
        MOV       A,?V0
        ADD       A,#0xb
        MOV       DPL,A
        CLR       A
        ADDC      A,?V1
        MOV       DPH,A
        LCALL     ?Subroutine20 & 0xFFFF
//  675     }
//  676   }
??CrossCallReturnLabel_19:
        JZ        $+5
        LJMP      ??CrossCallReturnLabel_21 & 0xFFFF
//  677 
//  678   //we are done with the list
//  679   if(bdb_joiningDeviceList == NULL)
        MOV       DPTR,#bdb_joiningDeviceList
        LCALL     ??Subroutine41_0 & 0xFFFF
??CrossCallReturnLabel_60:
        JNZ       ??bdb_TCProcessJoiningList_6
//  680   {
//  681     osal_stop_timerEx(bdb_TaskID,BDB_TC_JOIN_TIMEOUT);
??bdb_TCProcessJoiningList_0:
        ; Setup parameters for call to function osal_stop_timerEx
        MOV       R2,#0x0
        MOV       R3,#0x8
        MOV       DPTR,#bdb_TaskID
        MOVX      A,@DPTR
        MOV       R1,A
        LCALL     `??osal_stop_timerEx::?relay`; Banked call to: osal_stop_timerEx
//  682   }
//  683 }
??bdb_TCProcessJoiningList_6:
        MOV       A,#0x2a
        LCALL     ?DEALLOC_XSTACK8
          CFI EndBlock cfiBlock15
        REQUIRE ?Subroutine5
        ; // Fall through to label ?Subroutine5

        RSEG BANKED_CODE:HUGECODE:NOROOT(0)
?Subroutine5:
          CFI Block cfiBlock16 Using cfiCommon0
          CFI NoFunction
          CFI CFA_SP SP+0
          CFI CFA_XSP16 add(XSP16, 15)
          CFI VB load(1, XDATA, add(CFA_XSP16, literal(-14)))
          CFI DPL0 load(1, XDATA, add(CFA_XSP16, literal(-2)))
          CFI DPH0 load(1, XDATA, add(CFA_XSP16, literal(-1)))
          CFI R6 load(1, XDATA, add(CFA_XSP16, literal(-15)))
          CFI R7 load(1, XDATA, add(CFA_XSP16, literal(-6)))
          CFI V0 load(1, XDATA, add(CFA_XSP16, literal(-13)))
          CFI V1 load(1, XDATA, add(CFA_XSP16, literal(-12)))
          CFI V2 load(1, XDATA, add(CFA_XSP16, literal(-11)))
          CFI V3 load(1, XDATA, add(CFA_XSP16, literal(-10)))
          CFI V4 load(1, XDATA, add(CFA_XSP16, literal(-9)))
          CFI V5 load(1, XDATA, add(CFA_XSP16, literal(-8)))
          CFI V6 load(1, XDATA, add(CFA_XSP16, literal(-7)))
          CFI ?BRET_EXT load(1, XDATA, add(CFA_XSP16, literal(-3)))
          CFI ?RET_HIGH load(1, XDATA, add(CFA_XSP16, literal(-4)))
          CFI ?RET_LOW load(1, XDATA, add(CFA_XSP16, literal(-5)))
        MOV       R7,#0x7
        LJMP      ?BANKED_LEAVE_XDATA
          CFI EndBlock cfiBlock16
//  684 
//  685 
//  686 
//  687 /****************************************************************************
//  688  * @fn          bdb_TCjoiningDeviceComplete
//  689  *
//  690  * @brief       This function frees a joining device from the list that has 
//  691  *              finished TC link key exchange process
//  692  *
//  693  * @param       JoiningExtAddr - Extended address of the device
//  694  *
//  695  * @return      none
//  696  */

        RSEG BANKED_CODE:HUGECODE:NOROOT(0)
//  697 void bdb_TCjoiningDeviceComplete(uint8* JoiningExtAddr)
bdb_TCjoiningDeviceComplete:
          CFI Block cfiBlock17 Using cfiCommon0
          CFI Function bdb_TCjoiningDeviceComplete
        CODE
//  698 {
        FUNCALL bdb_TCjoiningDeviceComplete, osal_memcmp
        LOCFRAME ISTACK, 0, STACK
        LOCFRAME PSTACK, 0, STACK
        LOCFRAME XSTACK, 31, STACK
        LOCFRAME IOVERLAY, 0, STATIC
        LOCFRAME DOVERLAY, 0, STATIC
        ARGFRAME ISTACK, 0, STACK
        ARGFRAME PSTACK, 0, STACK
        ARGFRAME XSTACK, 31, STACK
        ARGFRAME IOVERLAY, 0, STATIC
        ARGFRAME DOVERLAY, 0, STATIC
        FUNCALL bdb_TCjoiningDeviceComplete, osal_memcpy
        LOCFRAME ISTACK, 0, STACK
        LOCFRAME PSTACK, 0, STACK
        LOCFRAME XSTACK, 31, STACK
        LOCFRAME IOVERLAY, 0, STATIC
        LOCFRAME DOVERLAY, 0, STATIC
        ARGFRAME ISTACK, 0, STACK
        ARGFRAME PSTACK, 0, STACK
        ARGFRAME XSTACK, 31, STACK
        ARGFRAME IOVERLAY, 0, STATIC
        ARGFRAME DOVERLAY, 0, STATIC
        FUNCALL bdb_TCjoiningDeviceComplete, bdb_SendMsg
        LOCFRAME ISTACK, 0, STACK
        LOCFRAME PSTACK, 0, STACK
        LOCFRAME XSTACK, 30, STACK
        LOCFRAME IOVERLAY, 0, STATIC
        LOCFRAME DOVERLAY, 0, STATIC
        ARGFRAME ISTACK, 0, STACK
        ARGFRAME PSTACK, 0, STACK
        ARGFRAME XSTACK, 30, STACK
        ARGFRAME IOVERLAY, 0, STATIC
        ARGFRAME DOVERLAY, 0, STATIC
        FUNCALL bdb_TCjoiningDeviceComplete, bdb_TCJoiningDeviceFree
        LOCFRAME ISTACK, 0, STACK
        LOCFRAME PSTACK, 0, STACK
        LOCFRAME XSTACK, 28, STACK
        LOCFRAME IOVERLAY, 0, STATIC
        LOCFRAME DOVERLAY, 0, STATIC
        ARGFRAME ISTACK, 0, STACK
        ARGFRAME PSTACK, 0, STACK
        ARGFRAME XSTACK, 28, STACK
        ARGFRAME IOVERLAY, 0, STATIC
        ARGFRAME DOVERLAY, 0, STATIC
        FUNCALL bdb_TCjoiningDeviceComplete, osal_stop_timerEx
        LOCFRAME ISTACK, 0, STACK
        LOCFRAME PSTACK, 0, STACK
        LOCFRAME XSTACK, 28, STACK
        LOCFRAME IOVERLAY, 0, STATIC
        LOCFRAME DOVERLAY, 0, STATIC
        ARGFRAME ISTACK, 0, STACK
        ARGFRAME PSTACK, 0, STACK
        ARGFRAME XSTACK, 28, STACK
        ARGFRAME IOVERLAY, 0, STATIC
        ARGFRAME DOVERLAY, 0, STATIC
        REQUIRE ?V0
        REQUIRE ?V1
        REQUIRE ?V4
        REQUIRE ?V5
        REQUIRE ?V6
        REQUIRE ?V8
        REQUIRE ?V9
        REQUIRE ?V10
        MOV       A,#-0x13
        LCALL     ?BANKED_ENTER_XDATA
          CFI DPH0 load(1, XDATA, add(CFA_XSP16, literal(-1)))
          CFI DPL0 load(1, XDATA, add(CFA_XSP16, literal(-2)))
          CFI ?BRET_EXT load(1, XDATA, add(CFA_XSP16, literal(-3)))
          CFI ?RET_HIGH load(1, XDATA, add(CFA_XSP16, literal(-4)))
          CFI ?RET_LOW load(1, XDATA, add(CFA_XSP16, literal(-5)))
          CFI R7 load(1, XDATA, add(CFA_XSP16, literal(-6)))
          CFI V10 load(1, XDATA, add(CFA_XSP16, literal(-7)))
          CFI V9 load(1, XDATA, add(CFA_XSP16, literal(-8)))
          CFI V8 load(1, XDATA, add(CFA_XSP16, literal(-9)))
          CFI V7 load(1, XDATA, add(CFA_XSP16, literal(-10)))
          CFI V6 load(1, XDATA, add(CFA_XSP16, literal(-11)))
          CFI V5 load(1, XDATA, add(CFA_XSP16, literal(-12)))
          CFI V4 load(1, XDATA, add(CFA_XSP16, literal(-13)))
          CFI V3 load(1, XDATA, add(CFA_XSP16, literal(-14)))
          CFI V2 load(1, XDATA, add(CFA_XSP16, literal(-15)))
          CFI V1 load(1, XDATA, add(CFA_XSP16, literal(-16)))
          CFI V0 load(1, XDATA, add(CFA_XSP16, literal(-17)))
          CFI VB load(1, XDATA, add(CFA_XSP16, literal(-18)))
          CFI R6 load(1, XDATA, add(CFA_XSP16, literal(-19)))
          CFI CFA_SP SP+0
          CFI CFA_XSP16 add(XSP16, 19)
        ; Saved register size: 19
        ; Auto size: 9
        MOV       A,#-0x9
        LCALL     ?ALLOC_XSTACK8
          CFI CFA_XSP16 add(XSP16, 28)
        MOV       ?V0,R2
        MOV       ?V1,R3
//  699   bdb_joiningDeviceList_t* tempJoiningDescNode;
//  700   
//  701   if((bdb_joiningDeviceList != NULL) && (JoiningExtAddr != NULL))
        MOV       DPTR,#bdb_joiningDeviceList
        LCALL     ??Subroutine41_0 & 0xFFFF
??CrossCallReturnLabel_61:
        JNZ       $+5
        LJMP      ??bdb_TCjoiningDeviceComplete_0 & 0xFFFF
        MOV       A,R2
        ORL       A,?V1
        JNZ       $+5
        LJMP      ??bdb_TCjoiningDeviceComplete_0 & 0xFFFF
//  702   {
//  703     tempJoiningDescNode = bdb_joiningDeviceList;
        LCALL     ?Subroutine29 & 0xFFFF
??CrossCallReturnLabel_81:
        MOV       DPL,R6
        MOV       DPH,R7
        INC       DPTR
        INC       DPTR
        MOV       R1,DPL
        MOV       R2,DPH
        MOV       ?V4,R1
        MOV       ?V5,R2
        MOV       ?V6,#0x0
        ; Setup parameters for call to function osal_memcmp
        MOV       ?V8,?V0
        MOV       ?V9,?V1
        MOV       ?V10,#0x0
        MOV       R0,#?V8
        LCALL     ?PUSH_XSTACK_I_THREE
          CFI CFA_XSP16 add(XSP16, 31)
        MOV       R4,#0x8
        MOV       R5,#0x0
        MOV       R3,?V6
//  704     
//  705     while(tempJoiningDescNode != NULL)
//  706     {
//  707       if(osal_memcmp(tempJoiningDescNode->bdbJoiningNodeEui64,JoiningExtAddr,Z_EXTADDR_LEN))
        LCALL     `??osal_memcmp::?relay`; Banked call to: osal_memcmp
        MOV       A,#0x3
        LCALL     ?DEALLOC_XSTACK8
          CFI CFA_XSP16 add(XSP16, 28)
        MOV       A,R1
        JZ        ??bdb_TCjoiningDeviceComplete_1
//  708       {
//  709         if(pfnTCLinkKeyExchangeProcessCB)
        MOV       DPTR,#pfnTCLinkKeyExchangeProcessCB
        LCALL     ??Subroutine41_0 & 0xFFFF
??CrossCallReturnLabel_62:
        JZ        ??bdb_TCjoiningDeviceComplete_2
//  710         {
//  711           bdb_TCLinkKeyExchProcess_t bdb_TCLinkKeyExchProcess;
//  712           osal_memcpy(bdb_TCLinkKeyExchProcess.extAddr,tempJoiningDescNode->bdbJoiningNodeEui64, Z_EXTADDR_LEN);
        ; Setup parameters for call to function osal_memcpy
        MOV       R0,#?V4
        LCALL     ?PUSH_XSTACK_I_THREE
          CFI CFA_XSP16 add(XSP16, 31)
        MOV       R4,#0x8
        MOV       R5,#0x0
        MOV       A,#0x4
        LCALL     ?XSTACK_DISP0_8
        MOV       R2,DPL
        MOV       R3,DPH
        LCALL     `??osal_memcpy::?relay`; Banked call to: osal_memcpy
        MOV       A,#0x3
        LCALL     ?DEALLOC_XSTACK8
          CFI CFA_XSP16 add(XSP16, 28)
//  713           bdb_TCLinkKeyExchProcess.status = BDB_TC_LK_EXCH_PROCESS_EXCH_SUCCESS;
        LCALL     ?Subroutine8 & 0xFFFF
//  714           
//  715           bdb_SendMsg(bdb_TaskID, BDB_TC_LINK_KEY_EXCHANGE_PROCESS, BDB_MSG_EVENT_SUCCESS,sizeof(bdb_TCLinkKeyExchProcess_t),(uint8*)&bdb_TCLinkKeyExchProcess);
//  716         }        
??CrossCallReturnLabel_36:
        LCALL     ?PUSH_XSTACK_I_TWO
          CFI CFA_XSP16 add(XSP16, 30)
        MOV       R4,#0x9
        MOV       R3,#0x0
        MOV       R2,#0x9
        MOV       DPTR,#bdb_TaskID
        MOVX      A,@DPTR
        MOV       R1,A
        LCALL     `??bdb_SendMsg::?relay`; Banked call to: bdb_SendMsg
        MOV       A,#0x2
        LCALL     ?DEALLOC_XSTACK8
          CFI CFA_XSP16 add(XSP16, 28)
//  717         
//  718         bdb_TCJoiningDeviceFree(tempJoiningDescNode);
??bdb_TCjoiningDeviceComplete_2:
        ; Setup parameters for call to function bdb_TCJoiningDeviceFree
        MOV       A,R6
        MOV       R2,A
        MOV       A,R7
        MOV       R3,A
        LCALL     `??bdb_TCJoiningDeviceFree::?relay`; Banked call to: bdb_TCJoiningDeviceFree
//  719         break;
        SJMP      ??bdb_TCjoiningDeviceComplete_3
//  720       }
//  721       tempJoiningDescNode = tempJoiningDescNode->nextDev;
??bdb_TCjoiningDeviceComplete_1:
        LCALL     ?Subroutine25 & 0xFFFF
//  722     }
??CrossCallReturnLabel_29:
        LCALL     ??Subroutine44_0 & 0xFFFF
??CrossCallReturnLabel_78:
        MOV       A,R6
        ORL       A,R7
        JNZ       ??CrossCallReturnLabel_81
//  723    
//  724     if(bdb_joiningDeviceList == NULL)
??bdb_TCjoiningDeviceComplete_3:
        MOV       DPTR,#bdb_joiningDeviceList
        LCALL     ??Subroutine41_0 & 0xFFFF
??CrossCallReturnLabel_63:
        JNZ       ??bdb_TCjoiningDeviceComplete_0
//  725     {
//  726       osal_stop_timerEx(bdb_TaskID,BDB_TC_JOIN_TIMEOUT);
        ; Setup parameters for call to function osal_stop_timerEx
        MOV       R2,#0x0
        MOV       R3,#0x8
        MOV       DPTR,#bdb_TaskID
        MOVX      A,@DPTR
        MOV       R1,A
        LCALL     `??osal_stop_timerEx::?relay`; Banked call to: osal_stop_timerEx
//  727     }
//  728   }
//  729 }
??bdb_TCjoiningDeviceComplete_0:
        LJMP      ?Subroutine4 & 0xFFFF
          CFI EndBlock cfiBlock17

        RSEG BANKED_CODE:HUGECODE:NOROOT(0)
?Subroutine25:
          CFI Block cfiCond18 Using cfiCommon0
          CFI Function bdb_TCAddJoiningDevice
          CFI Conditional ??CrossCallReturnLabel_28
          CFI R6 load(1, XDATA, add(CFA_XSP16, literal(-19)))
          CFI VB load(1, XDATA, add(CFA_XSP16, literal(-18)))
          CFI V0 load(1, XDATA, add(CFA_XSP16, literal(-17)))
          CFI V1 load(1, XDATA, add(CFA_XSP16, literal(-16)))
          CFI V2 load(1, XDATA, add(CFA_XSP16, literal(-15)))
          CFI V3 load(1, XDATA, add(CFA_XSP16, literal(-14)))
          CFI V4 load(1, XDATA, add(CFA_XSP16, literal(-13)))
          CFI V5 load(1, XDATA, add(CFA_XSP16, literal(-12)))
          CFI V6 load(1, XDATA, add(CFA_XSP16, literal(-11)))
          CFI V7 load(1, XDATA, add(CFA_XSP16, literal(-10)))
          CFI V8 load(1, XDATA, add(CFA_XSP16, literal(-9)))
          CFI V9 load(1, XDATA, add(CFA_XSP16, literal(-8)))
          CFI V10 load(1, XDATA, add(CFA_XSP16, literal(-7)))
          CFI R7 load(1, XDATA, add(CFA_XSP16, literal(-6)))
          CFI ?RET_LOW load(1, XDATA, add(CFA_XSP16, literal(-5)))
          CFI ?RET_HIGH load(1, XDATA, add(CFA_XSP16, literal(-4)))
          CFI ?BRET_EXT load(1, XDATA, add(CFA_XSP16, literal(-3)))
          CFI DPL0 load(1, XDATA, add(CFA_XSP16, literal(-2)))
          CFI DPH0 load(1, XDATA, add(CFA_XSP16, literal(-1)))
          CFI CFA_SP SP+-2
          CFI CFA_XSP16 add(XSP16, 28)
          CFI Block cfiCond19 Using cfiCommon0
          CFI (cfiCond19) Function bdb_TCjoiningDeviceComplete
          CFI (cfiCond19) Conditional ??CrossCallReturnLabel_29
          CFI (cfiCond19) R6 load(1, XDATA, add(CFA_XSP16, literal(-19)))
          CFI (cfiCond19) VB load(1, XDATA, add(CFA_XSP16, literal(-18)))
          CFI (cfiCond19) V0 load(1, XDATA, add(CFA_XSP16, literal(-17)))
          CFI (cfiCond19) V1 load(1, XDATA, add(CFA_XSP16, literal(-16)))
          CFI (cfiCond19) V2 load(1, XDATA, add(CFA_XSP16, literal(-15)))
          CFI (cfiCond19) V3 load(1, XDATA, add(CFA_XSP16, literal(-14)))
          CFI (cfiCond19) V4 load(1, XDATA, add(CFA_XSP16, literal(-13)))
          CFI (cfiCond19) V5 load(1, XDATA, add(CFA_XSP16, literal(-12)))
          CFI (cfiCond19) V6 load(1, XDATA, add(CFA_XSP16, literal(-11)))
          CFI (cfiCond19) V7 load(1, XDATA, add(CFA_XSP16, literal(-10)))
          CFI (cfiCond19) V8 load(1, XDATA, add(CFA_XSP16, literal(-9)))
          CFI (cfiCond19) V9 load(1, XDATA, add(CFA_XSP16, literal(-8)))
          CFI (cfiCond19) V10 load(1, XDATA, add(CFA_XSP16, literal(-7)))
          CFI (cfiCond19) R7 load(1, XDATA, add(CFA_XSP16, literal(-6)))
          CFI (cfiCond19) ?RET_LOW load(1, XDATA, add(CFA_XSP16, literal(-5)))
          CFI (cfiCond19) ?RET_HIGH load(1, XDATA, add(CFA_XSP16, literal(-4)))
          CFI (cfiCond19) ?BRET_EXT load(1, XDATA, add(CFA_XSP16, literal(-3)))
          CFI (cfiCond19) DPL0 load(1, XDATA, add(CFA_XSP16, literal(-2)))
          CFI (cfiCond19) DPH0 load(1, XDATA, add(CFA_XSP16, literal(-1)))
          CFI (cfiCond19) CFA_SP SP+-2
          CFI (cfiCond19) CFA_XSP16 add(XSP16, 28)
          CFI Block cfiPicker20 Using cfiCommon1
          CFI (cfiPicker20) NoFunction
          CFI (cfiPicker20) Picker
        MOV       A,R6
        ADD       A,#0xb
        MOV       DPL,A
        CLR       A
        ADDC      A,R7
        MOV       DPH,A
        RET
          CFI EndBlock cfiCond18
          CFI EndBlock cfiCond19
          CFI EndBlock cfiPicker20

        RSEG BANKED_CODE:HUGECODE:NOROOT(0)
?Subroutine8:
          CFI Block cfiCond21 Using cfiCommon0
          CFI Function bdb_TCjoiningDeviceComplete
          CFI Conditional ??CrossCallReturnLabel_36
          CFI R6 load(1, XDATA, add(CFA_XSP16, literal(-19)))
          CFI VB load(1, XDATA, add(CFA_XSP16, literal(-18)))
          CFI V0 load(1, XDATA, add(CFA_XSP16, literal(-17)))
          CFI V1 load(1, XDATA, add(CFA_XSP16, literal(-16)))
          CFI V2 load(1, XDATA, add(CFA_XSP16, literal(-15)))
          CFI V3 load(1, XDATA, add(CFA_XSP16, literal(-14)))
          CFI V4 load(1, XDATA, add(CFA_XSP16, literal(-13)))
          CFI V5 load(1, XDATA, add(CFA_XSP16, literal(-12)))
          CFI V6 load(1, XDATA, add(CFA_XSP16, literal(-11)))
          CFI V7 load(1, XDATA, add(CFA_XSP16, literal(-10)))
          CFI V8 load(1, XDATA, add(CFA_XSP16, literal(-9)))
          CFI V9 load(1, XDATA, add(CFA_XSP16, literal(-8)))
          CFI V10 load(1, XDATA, add(CFA_XSP16, literal(-7)))
          CFI R7 load(1, XDATA, add(CFA_XSP16, literal(-6)))
          CFI ?RET_LOW load(1, XDATA, add(CFA_XSP16, literal(-5)))
          CFI ?RET_HIGH load(1, XDATA, add(CFA_XSP16, literal(-4)))
          CFI ?BRET_EXT load(1, XDATA, add(CFA_XSP16, literal(-3)))
          CFI DPL0 load(1, XDATA, add(CFA_XSP16, literal(-2)))
          CFI DPH0 load(1, XDATA, add(CFA_XSP16, literal(-1)))
          CFI CFA_SP SP+-2
          CFI CFA_XSP16 add(XSP16, 28)
          CFI Block cfiCond22 Using cfiCommon0
          CFI (cfiCond22) Function bdb_NotifyCommissioningModeStart
          CFI (cfiCond22) Conditional ??CrossCallReturnLabel_37
          CFI (cfiCond22) R6 load(1, XDATA, add(CFA_XSP16, literal(-10)))
          CFI (cfiCond22) VB load(1, XDATA, add(CFA_XSP16, literal(-9)))
          CFI (cfiCond22) V0 load(1, XDATA, add(CFA_XSP16, literal(-8)))
          CFI (cfiCond22) V1 load(1, XDATA, add(CFA_XSP16, literal(-7)))
          CFI (cfiCond22) R7 load(1, XDATA, add(CFA_XSP16, literal(-6)))
          CFI (cfiCond22) ?RET_LOW load(1, XDATA, add(CFA_XSP16, literal(-5)))
          CFI (cfiCond22) ?RET_HIGH load(1, XDATA, add(CFA_XSP16, literal(-4)))
          CFI (cfiCond22) ?BRET_EXT load(1, XDATA, add(CFA_XSP16, literal(-3)))
          CFI (cfiCond22) DPL0 load(1, XDATA, add(CFA_XSP16, literal(-2)))
          CFI (cfiCond22) DPH0 load(1, XDATA, add(CFA_XSP16, literal(-1)))
          CFI (cfiCond22) CFA_SP SP+-2
          CFI (cfiCond22) CFA_XSP16 add(XSP16, 13)
          CFI Block cfiPicker23 Using cfiCommon1
          CFI (cfiPicker23) NoFunction
          CFI (cfiPicker23) Picker
        MOV       DPL,?XSP + 0
        MOV       DPH,?XSP + 1
        MOV       A,#0x1
          CFI EndBlock cfiCond21
          CFI EndBlock cfiCond22
          CFI EndBlock cfiPicker23
        REQUIRE ??Subroutine31_0
        ; // Fall through to label ??Subroutine31_0

        RSEG BANKED_CODE:HUGECODE:NOROOT(0)
??Subroutine31_0:
          CFI Block cfiCond24 Using cfiCommon0
          CFI Function bdb_reportCommissioningState
          CFI Conditional ??CrossCallReturnLabel_38
          CFI R6 load(1, XDATA, add(CFA_XSP16, literal(-10)))
          CFI VB load(1, XDATA, add(CFA_XSP16, literal(-9)))
          CFI V0 load(1, XDATA, add(CFA_XSP16, literal(-8)))
          CFI V1 load(1, XDATA, add(CFA_XSP16, literal(-7)))
          CFI R7 load(1, XDATA, add(CFA_XSP16, literal(-6)))
          CFI ?RET_LOW load(1, XDATA, add(CFA_XSP16, literal(-5)))
          CFI ?RET_HIGH load(1, XDATA, add(CFA_XSP16, literal(-4)))
          CFI ?BRET_EXT load(1, XDATA, add(CFA_XSP16, literal(-3)))
          CFI DPL0 load(1, XDATA, add(CFA_XSP16, literal(-2)))
          CFI DPH0 load(1, XDATA, add(CFA_XSP16, literal(-1)))
          CFI CFA_SP SP+-2
          CFI CFA_XSP16 add(XSP16, 14)
          CFI Block cfiCond25 Using cfiCommon0
          CFI (cfiCond25) Function bdb_startResumeCommissioningProcess
          CFI (cfiCond25) Conditional ??CrossCallReturnLabel_39
          CFI (cfiCond25) R6 load(1, XDATA, add(CFA_XSP16, literal(-10)))
          CFI (cfiCond25) VB load(1, XDATA, add(CFA_XSP16, literal(-9)))
          CFI (cfiCond25) V0 load(1, XDATA, add(CFA_XSP16, literal(-8)))
          CFI (cfiCond25) V1 load(1, XDATA, add(CFA_XSP16, literal(-7)))
          CFI (cfiCond25) R7 load(1, XDATA, add(CFA_XSP16, literal(-6)))
          CFI (cfiCond25) ?RET_LOW load(1, XDATA, add(CFA_XSP16, literal(-5)))
          CFI (cfiCond25) ?RET_HIGH load(1, XDATA, add(CFA_XSP16, literal(-4)))
          CFI (cfiCond25) ?BRET_EXT load(1, XDATA, add(CFA_XSP16, literal(-3)))
          CFI (cfiCond25) DPL0 load(1, XDATA, add(CFA_XSP16, literal(-2)))
          CFI (cfiCond25) DPH0 load(1, XDATA, add(CFA_XSP16, literal(-1)))
          CFI (cfiCond25) CFA_SP SP+-2
          CFI (cfiCond25) CFA_XSP16 add(XSP16, 21)
          CFI Block cfiCond26 Using cfiCommon0
          CFI (cfiCond26) Function bdb_startResumeCommissioningProcess
          CFI (cfiCond26) Conditional ??CrossCallReturnLabel_40
          CFI (cfiCond26) R6 load(1, XDATA, add(CFA_XSP16, literal(-10)))
          CFI (cfiCond26) VB load(1, XDATA, add(CFA_XSP16, literal(-9)))
          CFI (cfiCond26) V0 load(1, XDATA, add(CFA_XSP16, literal(-8)))
          CFI (cfiCond26) V1 load(1, XDATA, add(CFA_XSP16, literal(-7)))
          CFI (cfiCond26) R7 load(1, XDATA, add(CFA_XSP16, literal(-6)))
          CFI (cfiCond26) ?RET_LOW load(1, XDATA, add(CFA_XSP16, literal(-5)))
          CFI (cfiCond26) ?RET_HIGH load(1, XDATA, add(CFA_XSP16, literal(-4)))
          CFI (cfiCond26) ?BRET_EXT load(1, XDATA, add(CFA_XSP16, literal(-3)))
          CFI (cfiCond26) DPL0 load(1, XDATA, add(CFA_XSP16, literal(-2)))
          CFI (cfiCond26) DPH0 load(1, XDATA, add(CFA_XSP16, literal(-1)))
          CFI (cfiCond26) CFA_SP SP+-2
          CFI (cfiCond26) CFA_XSP16 add(XSP16, 21)
          CFI Block cfiCond27 Using cfiCommon0
          CFI (cfiCond27) Function bdb_TCjoiningDeviceComplete
          CFI (cfiCond27) Conditional ??CrossCallReturnLabel_36
          CFI (cfiCond27) R6 load(1, XDATA, add(CFA_XSP16, literal(-19)))
          CFI (cfiCond27) VB load(1, XDATA, add(CFA_XSP16, literal(-18)))
          CFI (cfiCond27) V0 load(1, XDATA, add(CFA_XSP16, literal(-17)))
          CFI (cfiCond27) V1 load(1, XDATA, add(CFA_XSP16, literal(-16)))
          CFI (cfiCond27) V2 load(1, XDATA, add(CFA_XSP16, literal(-15)))
          CFI (cfiCond27) V3 load(1, XDATA, add(CFA_XSP16, literal(-14)))
          CFI (cfiCond27) V4 load(1, XDATA, add(CFA_XSP16, literal(-13)))
          CFI (cfiCond27) V5 load(1, XDATA, add(CFA_XSP16, literal(-12)))
          CFI (cfiCond27) V6 load(1, XDATA, add(CFA_XSP16, literal(-11)))
          CFI (cfiCond27) V7 load(1, XDATA, add(CFA_XSP16, literal(-10)))
          CFI (cfiCond27) V8 load(1, XDATA, add(CFA_XSP16, literal(-9)))
          CFI (cfiCond27) V9 load(1, XDATA, add(CFA_XSP16, literal(-8)))
          CFI (cfiCond27) V10 load(1, XDATA, add(CFA_XSP16, literal(-7)))
          CFI (cfiCond27) R7 load(1, XDATA, add(CFA_XSP16, literal(-6)))
          CFI (cfiCond27) ?RET_LOW load(1, XDATA, add(CFA_XSP16, literal(-5)))
          CFI (cfiCond27) ?RET_HIGH load(1, XDATA, add(CFA_XSP16, literal(-4)))
          CFI (cfiCond27) ?BRET_EXT load(1, XDATA, add(CFA_XSP16, literal(-3)))
          CFI (cfiCond27) DPL0 load(1, XDATA, add(CFA_XSP16, literal(-2)))
          CFI (cfiCond27) DPH0 load(1, XDATA, add(CFA_XSP16, literal(-1)))
          CFI (cfiCond27) CFA_SP SP+-2
          CFI (cfiCond27) CFA_XSP16 add(XSP16, 28)
          CFI Block cfiCond28 Using cfiCommon0
          CFI (cfiCond28) Function bdb_NotifyCommissioningModeStart
          CFI (cfiCond28) Conditional ??CrossCallReturnLabel_37
          CFI (cfiCond28) R6 load(1, XDATA, add(CFA_XSP16, literal(-10)))
          CFI (cfiCond28) VB load(1, XDATA, add(CFA_XSP16, literal(-9)))
          CFI (cfiCond28) V0 load(1, XDATA, add(CFA_XSP16, literal(-8)))
          CFI (cfiCond28) V1 load(1, XDATA, add(CFA_XSP16, literal(-7)))
          CFI (cfiCond28) R7 load(1, XDATA, add(CFA_XSP16, literal(-6)))
          CFI (cfiCond28) ?RET_LOW load(1, XDATA, add(CFA_XSP16, literal(-5)))
          CFI (cfiCond28) ?RET_HIGH load(1, XDATA, add(CFA_XSP16, literal(-4)))
          CFI (cfiCond28) ?BRET_EXT load(1, XDATA, add(CFA_XSP16, literal(-3)))
          CFI (cfiCond28) DPL0 load(1, XDATA, add(CFA_XSP16, literal(-2)))
          CFI (cfiCond28) DPH0 load(1, XDATA, add(CFA_XSP16, literal(-1)))
          CFI (cfiCond28) CFA_SP SP+-2
          CFI (cfiCond28) CFA_XSP16 add(XSP16, 13)
          CFI Block cfiPicker29 Using cfiCommon1
          CFI (cfiPicker29) NoFunction
          CFI (cfiPicker29) Picker
        MOVX      @DPTR,A
        ; Setup parameters for call to function bdb_SendMsg
        ; Setup parameters for call to function bdb_SendMsg
        ; Setup parameters for call to function bdb_SendMsg
        ; Setup parameters for call to function bdb_SendMsg
        ; Setup parameters for call to function bdb_SendMsg
        MOV       R0,?XSP + 0
        MOV       R1,?XSP + 1
        MOV       ?V0,R0
        MOV       ?V1,R1
        MOV       R0,#?V0
        RET
          CFI EndBlock cfiCond24
          CFI EndBlock cfiCond25
          CFI EndBlock cfiCond26
          CFI EndBlock cfiCond27
          CFI EndBlock cfiCond28
          CFI EndBlock cfiPicker29
//  730 
//  731 
//  732 
//  733 /****************************************************************************
//  734  * @fn          bdb_TCJoiningDeviceFree
//  735  *
//  736  * @brief       This function frees a joining device from the list.
//  737  *
//  738  * @param       ZSuccess - If the device was found and erased
//  739  * @param       ZInvalidParameter - Not found
//  740  *
//  741  * @return      none
//  742  */

        RSEG BANKED_CODE:HUGECODE:NOROOT(0)
//  743 ZStatus_t bdb_TCJoiningDeviceFree(bdb_joiningDeviceList_t* JoiningDeviceToRemove)
bdb_TCJoiningDeviceFree:
          CFI Block cfiBlock30 Using cfiCommon0
          CFI Function bdb_TCJoiningDeviceFree
        CODE
//  744 {
        FUNCALL bdb_TCJoiningDeviceFree, osal_memcmp
        LOCFRAME ISTACK, 0, STACK
        LOCFRAME PSTACK, 0, STACK
        LOCFRAME XSTACK, 18, STACK
        LOCFRAME IOVERLAY, 0, STATIC
        LOCFRAME DOVERLAY, 0, STATIC
        ARGFRAME ISTACK, 0, STACK
        ARGFRAME PSTACK, 0, STACK
        ARGFRAME XSTACK, 18, STACK
        ARGFRAME IOVERLAY, 0, STATIC
        ARGFRAME DOVERLAY, 0, STATIC
        FUNCALL bdb_TCJoiningDeviceFree, osal_mem_free
        LOCFRAME ISTACK, 0, STACK
        LOCFRAME PSTACK, 0, STACK
        LOCFRAME XSTACK, 15, STACK
        LOCFRAME IOVERLAY, 0, STATIC
        LOCFRAME DOVERLAY, 0, STATIC
        ARGFRAME ISTACK, 0, STACK
        ARGFRAME PSTACK, 0, STACK
        ARGFRAME XSTACK, 15, STACK
        ARGFRAME IOVERLAY, 0, STATIC
        ARGFRAME DOVERLAY, 0, STATIC
        FUNCALL bdb_TCJoiningDeviceFree, osal_memcmp
        LOCFRAME ISTACK, 0, STACK
        LOCFRAME PSTACK, 0, STACK
        LOCFRAME XSTACK, 18, STACK
        LOCFRAME IOVERLAY, 0, STATIC
        LOCFRAME DOVERLAY, 0, STATIC
        ARGFRAME ISTACK, 0, STACK
        ARGFRAME PSTACK, 0, STACK
        ARGFRAME XSTACK, 18, STACK
        ARGFRAME IOVERLAY, 0, STATIC
        ARGFRAME DOVERLAY, 0, STATIC
        FUNCALL bdb_TCJoiningDeviceFree, osal_mem_free
        LOCFRAME ISTACK, 0, STACK
        LOCFRAME PSTACK, 0, STACK
        LOCFRAME XSTACK, 15, STACK
        LOCFRAME IOVERLAY, 0, STATIC
        LOCFRAME DOVERLAY, 0, STATIC
        ARGFRAME ISTACK, 0, STACK
        ARGFRAME PSTACK, 0, STACK
        ARGFRAME XSTACK, 15, STACK
        ARGFRAME IOVERLAY, 0, STATIC
        ARGFRAME DOVERLAY, 0, STATIC
        REQUIRE ?V0
        REQUIRE ?V1
        REQUIRE ?V4
        REQUIRE ?V5
        REQUIRE ?V6
        MOV       A,#-0xf
        LCALL     ?BANKED_ENTER_XDATA
          CFI DPH0 load(1, XDATA, add(CFA_XSP16, literal(-1)))
          CFI DPL0 load(1, XDATA, add(CFA_XSP16, literal(-2)))
          CFI ?BRET_EXT load(1, XDATA, add(CFA_XSP16, literal(-3)))
          CFI ?RET_HIGH load(1, XDATA, add(CFA_XSP16, literal(-4)))
          CFI ?RET_LOW load(1, XDATA, add(CFA_XSP16, literal(-5)))
          CFI R7 load(1, XDATA, add(CFA_XSP16, literal(-6)))
          CFI V6 load(1, XDATA, add(CFA_XSP16, literal(-7)))
          CFI V5 load(1, XDATA, add(CFA_XSP16, literal(-8)))
          CFI V4 load(1, XDATA, add(CFA_XSP16, literal(-9)))
          CFI V3 load(1, XDATA, add(CFA_XSP16, literal(-10)))
          CFI V2 load(1, XDATA, add(CFA_XSP16, literal(-11)))
          CFI V1 load(1, XDATA, add(CFA_XSP16, literal(-12)))
          CFI V0 load(1, XDATA, add(CFA_XSP16, literal(-13)))
          CFI VB load(1, XDATA, add(CFA_XSP16, literal(-14)))
          CFI R6 load(1, XDATA, add(CFA_XSP16, literal(-15)))
          CFI CFA_SP SP+0
          CFI CFA_XSP16 add(XSP16, 15)
        ; Saved register size: 15
        ; Auto size: 0
        MOV       ?V0,R2
        MOV       ?V1,R3
        MOV       DPL,R2
        MOV       DPH,R3
        INC       DPTR
        INC       DPTR
        MOV       R1,DPL
        MOV       R2,DPH
        MOV       ?V4,R1
        MOV       ?V5,R2
        MOV       ?V6,#0x0
        ; Setup parameters for call to function osal_memcmp
        MOV       R0,#?V4
        LCALL     ?PUSH_XSTACK_I_THREE
          CFI CFA_XSP16 add(XSP16, 18)
        MOV       R4,#0x8
        MOV       R5,#0x0
        MOV       DPTR,#bdb_joiningDeviceList
        LCALL     ?Subroutine18 & 0xFFFF
//  745   bdb_joiningDeviceList_t* descCurrent;
//  746   bdb_joiningDeviceList_t* descPrev;
//  747   
//  748   //validate empty list?
//  749   
//  750   //Is it the first?
//  751   if(osal_memcmp(bdb_joiningDeviceList->bdbJoiningNodeEui64, JoiningDeviceToRemove->bdbJoiningNodeEui64, Z_EXTADDR_LEN))
??CrossCallReturnLabel_17:
        LCALL     `??osal_memcmp::?relay`; Banked call to: osal_memcmp
        MOV       A,#0x3
        LCALL     ?DEALLOC_XSTACK8
          CFI CFA_XSP16 add(XSP16, 15)
        MOV       A,R1
        MOV       DPTR,#bdb_joiningDeviceList
        JZ        ??bdb_TCJoiningDeviceFree_0
//  752   {
//  753     descCurrent = bdb_joiningDeviceList;
        LCALL     ??Subroutine45_0 & 0xFFFF
//  754     bdb_joiningDeviceList = bdb_joiningDeviceList->nextDev;
??CrossCallReturnLabel_83:
        MOV       DPTR,#bdb_joiningDeviceList
        LCALL     ?Subroutine16 & 0xFFFF
??CrossCallReturnLabel_13:
        MOV       DPTR,#bdb_joiningDeviceList
        MOV       A,R0
        MOVX      @DPTR,A
        INC       DPTR
        MOV       A,R1
        MOVX      @DPTR,A
//  755     osal_mem_free( descCurrent );
        ; Setup parameters for call to function osal_mem_free
        SJMP      ??bdb_TCJoiningDeviceFree_1
//  756     return ZSuccess;
//  757   }
//  758   
//  759   descPrev = NULL;
//  760   descCurrent = bdb_joiningDeviceList;
//  761   
//  762   while(descCurrent != NULL)
//  763   {
//  764     if(osal_memcmp(descCurrent->nextDev->bdbJoiningNodeEui64, JoiningDeviceToRemove->bdbJoiningNodeEui64, Z_EXTADDR_LEN))
//  765     {
//  766       descPrev = descCurrent;
//  767       break;
//  768     }
//  769     descCurrent = descCurrent->nextDev;
??bdb_TCJoiningDeviceFree_0:
        LCALL     ?Subroutine14 & 0xFFFF
??CrossCallReturnLabel_4:
        JZ        ??bdb_TCJoiningDeviceFree_2
        MOV       A,R2
        ADD       A,#0xb
        MOV       R6,A
        CLR       A
        ADDC      A,R3
        MOV       R7,A
        ; Setup parameters for call to function osal_memcmp
        MOV       R0,#?V4
        LCALL     ?PUSH_XSTACK_I_THREE
          CFI CFA_XSP16 add(XSP16, 18)
        MOV       R4,#0x8
        MOV       R5,#0x0
        MOV       DPL,R6
        MOV       DPH,R7
        LCALL     ?Subroutine18 & 0xFFFF
??CrossCallReturnLabel_18:
        LCALL     `??osal_memcmp::?relay`; Banked call to: osal_memcmp
        MOV       A,#0x3
        LCALL     ?DEALLOC_XSTACK8
          CFI CFA_XSP16 add(XSP16, 15)
        MOV       A,R1
        MOV       DPL,R6
        MOV       DPH,R7
        JZ        ??bdb_TCJoiningDeviceFree_0
//  770   }
//  771   if(descPrev == NULL)
//  772   {
//  773     //Not found
//  774     return ZInvalidParameter;
//  775   }
//  776   
//  777   descPrev->nextDev = descPrev->nextDev->nextDev;
        LCALL     ?Subroutine16 & 0xFFFF
??CrossCallReturnLabel_14:
        MOV       DPL,R6
        MOV       DPH,R7
        MOV       A,R0
        MOVX      @DPTR,A
        INC       DPTR
        MOV       A,R1
        MOVX      @DPTR,A
//  778     
//  779   osal_mem_free( JoiningDeviceToRemove );
        ; Setup parameters for call to function osal_mem_free
        MOV       R2,?V0
        MOV       R3,?V1
??bdb_TCJoiningDeviceFree_1:
        LCALL     `??osal_mem_free::?relay`; Banked call to: osal_mem_free
//  780   return ZSuccess;
        MOV       R1,#0x0
        SJMP      ??bdb_TCJoiningDeviceFree_3
??bdb_TCJoiningDeviceFree_2:
        MOV       R1,#0x2
??bdb_TCJoiningDeviceFree_3:
        LJMP      ?Subroutine5 & 0xFFFF
//  781 
//  782 }
          CFI EndBlock cfiBlock30

        RSEG BANKED_CODE:HUGECODE:NOROOT(0)
?Subroutine18:
          CFI Block cfiCond31 Using cfiCommon0
          CFI Function bdb_TCJoiningDeviceFree
          CFI Conditional ??CrossCallReturnLabel_17
          CFI R6 load(1, XDATA, add(CFA_XSP16, literal(-15)))
          CFI VB load(1, XDATA, add(CFA_XSP16, literal(-14)))
          CFI V0 load(1, XDATA, add(CFA_XSP16, literal(-13)))
          CFI V1 load(1, XDATA, add(CFA_XSP16, literal(-12)))
          CFI V2 load(1, XDATA, add(CFA_XSP16, literal(-11)))
          CFI V3 load(1, XDATA, add(CFA_XSP16, literal(-10)))
          CFI V4 load(1, XDATA, add(CFA_XSP16, literal(-9)))
          CFI V5 load(1, XDATA, add(CFA_XSP16, literal(-8)))
          CFI V6 load(1, XDATA, add(CFA_XSP16, literal(-7)))
          CFI R7 load(1, XDATA, add(CFA_XSP16, literal(-6)))
          CFI ?RET_LOW load(1, XDATA, add(CFA_XSP16, literal(-5)))
          CFI ?RET_HIGH load(1, XDATA, add(CFA_XSP16, literal(-4)))
          CFI ?BRET_EXT load(1, XDATA, add(CFA_XSP16, literal(-3)))
          CFI DPL0 load(1, XDATA, add(CFA_XSP16, literal(-2)))
          CFI DPH0 load(1, XDATA, add(CFA_XSP16, literal(-1)))
          CFI CFA_SP SP+-2
          CFI CFA_XSP16 add(XSP16, 18)
          CFI Block cfiCond32 Using cfiCommon0
          CFI (cfiCond32) Function bdb_TCJoiningDeviceFree
          CFI (cfiCond32) Conditional ??CrossCallReturnLabel_18
          CFI (cfiCond32) R6 load(1, XDATA, add(CFA_XSP16, literal(-15)))
          CFI (cfiCond32) VB load(1, XDATA, add(CFA_XSP16, literal(-14)))
          CFI (cfiCond32) V0 load(1, XDATA, add(CFA_XSP16, literal(-13)))
          CFI (cfiCond32) V1 load(1, XDATA, add(CFA_XSP16, literal(-12)))
          CFI (cfiCond32) V2 load(1, XDATA, add(CFA_XSP16, literal(-11)))
          CFI (cfiCond32) V3 load(1, XDATA, add(CFA_XSP16, literal(-10)))
          CFI (cfiCond32) V4 load(1, XDATA, add(CFA_XSP16, literal(-9)))
          CFI (cfiCond32) V5 load(1, XDATA, add(CFA_XSP16, literal(-8)))
          CFI (cfiCond32) V6 load(1, XDATA, add(CFA_XSP16, literal(-7)))
          CFI (cfiCond32) R7 load(1, XDATA, add(CFA_XSP16, literal(-6)))
          CFI (cfiCond32) ?RET_LOW load(1, XDATA, add(CFA_XSP16, literal(-5)))
          CFI (cfiCond32) ?RET_HIGH load(1, XDATA, add(CFA_XSP16, literal(-4)))
          CFI (cfiCond32) ?BRET_EXT load(1, XDATA, add(CFA_XSP16, literal(-3)))
          CFI (cfiCond32) DPL0 load(1, XDATA, add(CFA_XSP16, literal(-2)))
          CFI (cfiCond32) DPH0 load(1, XDATA, add(CFA_XSP16, literal(-1)))
          CFI (cfiCond32) CFA_SP SP+-2
          CFI (cfiCond32) CFA_XSP16 add(XSP16, 18)
          CFI Block cfiPicker33 Using cfiCommon1
          CFI (cfiPicker33) NoFunction
          CFI (cfiPicker33) Picker
        LCALL     ?Subroutine30 & 0xFFFF
??CrossCallReturnLabel_34:
        MOV       R1,DPL
        MOV       R2,DPH
        MOV       R3,#0x0
        RET
          CFI EndBlock cfiCond31
          CFI EndBlock cfiCond32
          CFI EndBlock cfiPicker33

        RSEG BANKED_CODE:HUGECODE:NOROOT(0)
?Subroutine16:
          CFI Block cfiCond34 Using cfiCommon0
          CFI Function bdb_TCJoiningDeviceFree
          CFI Conditional ??CrossCallReturnLabel_13
          CFI R6 load(1, XDATA, add(CFA_XSP16, literal(-15)))
          CFI VB load(1, XDATA, add(CFA_XSP16, literal(-14)))
          CFI V0 load(1, XDATA, add(CFA_XSP16, literal(-13)))
          CFI V1 load(1, XDATA, add(CFA_XSP16, literal(-12)))
          CFI V2 load(1, XDATA, add(CFA_XSP16, literal(-11)))
          CFI V3 load(1, XDATA, add(CFA_XSP16, literal(-10)))
          CFI V4 load(1, XDATA, add(CFA_XSP16, literal(-9)))
          CFI V5 load(1, XDATA, add(CFA_XSP16, literal(-8)))
          CFI V6 load(1, XDATA, add(CFA_XSP16, literal(-7)))
          CFI R7 load(1, XDATA, add(CFA_XSP16, literal(-6)))
          CFI ?RET_LOW load(1, XDATA, add(CFA_XSP16, literal(-5)))
          CFI ?RET_HIGH load(1, XDATA, add(CFA_XSP16, literal(-4)))
          CFI ?BRET_EXT load(1, XDATA, add(CFA_XSP16, literal(-3)))
          CFI DPL0 load(1, XDATA, add(CFA_XSP16, literal(-2)))
          CFI DPH0 load(1, XDATA, add(CFA_XSP16, literal(-1)))
          CFI CFA_SP SP+-2
          CFI CFA_XSP16 add(XSP16, 15)
          CFI Block cfiCond35 Using cfiCommon0
          CFI (cfiCond35) Function bdb_TCJoiningDeviceFree
          CFI (cfiCond35) Conditional ??CrossCallReturnLabel_14
          CFI (cfiCond35) R6 load(1, XDATA, add(CFA_XSP16, literal(-15)))
          CFI (cfiCond35) VB load(1, XDATA, add(CFA_XSP16, literal(-14)))
          CFI (cfiCond35) V0 load(1, XDATA, add(CFA_XSP16, literal(-13)))
          CFI (cfiCond35) V1 load(1, XDATA, add(CFA_XSP16, literal(-12)))
          CFI (cfiCond35) V2 load(1, XDATA, add(CFA_XSP16, literal(-11)))
          CFI (cfiCond35) V3 load(1, XDATA, add(CFA_XSP16, literal(-10)))
          CFI (cfiCond35) V4 load(1, XDATA, add(CFA_XSP16, literal(-9)))
          CFI (cfiCond35) V5 load(1, XDATA, add(CFA_XSP16, literal(-8)))
          CFI (cfiCond35) V6 load(1, XDATA, add(CFA_XSP16, literal(-7)))
          CFI (cfiCond35) R7 load(1, XDATA, add(CFA_XSP16, literal(-6)))
          CFI (cfiCond35) ?RET_LOW load(1, XDATA, add(CFA_XSP16, literal(-5)))
          CFI (cfiCond35) ?RET_HIGH load(1, XDATA, add(CFA_XSP16, literal(-4)))
          CFI (cfiCond35) ?BRET_EXT load(1, XDATA, add(CFA_XSP16, literal(-3)))
          CFI (cfiCond35) DPL0 load(1, XDATA, add(CFA_XSP16, literal(-2)))
          CFI (cfiCond35) DPH0 load(1, XDATA, add(CFA_XSP16, literal(-1)))
          CFI (cfiCond35) CFA_SP SP+-2
          CFI (cfiCond35) CFA_XSP16 add(XSP16, 15)
          CFI Block cfiPicker36 Using cfiCommon1
          CFI (cfiPicker36) NoFunction
          CFI (cfiPicker36) Picker
        MOVX      A,@DPTR
        MOV       R0,A
        INC       DPTR
        MOVX      A,@DPTR
        XCH       A,R0
        ADD       A,#0xb
        MOV       DPL,A
        CLR       A
        ADDC      A,R0
        MOV       DPH,A
        LCALL     ?Subroutine28 & 0xFFFF
??CrossCallReturnLabel_73:
        RET
          CFI EndBlock cfiCond34
          CFI EndBlock cfiCond35
          CFI EndBlock cfiPicker36

        RSEG BANKED_CODE:HUGECODE:NOROOT(0)
?Subroutine28:
          CFI Block cfiCond37 Using cfiCommon0
          CFI Function bdb_TCJoiningDeviceFree
          CFI Conditional ??CrossCallReturnLabel_73, ??CrossCallReturnLabel_13
          CFI R6 load(1, XDATA, add(CFA_XSP16, literal(-15)))
          CFI VB load(1, XDATA, add(CFA_XSP16, literal(-14)))
          CFI V0 load(1, XDATA, add(CFA_XSP16, literal(-13)))
          CFI V1 load(1, XDATA, add(CFA_XSP16, literal(-12)))
          CFI V2 load(1, XDATA, add(CFA_XSP16, literal(-11)))
          CFI V3 load(1, XDATA, add(CFA_XSP16, literal(-10)))
          CFI V4 load(1, XDATA, add(CFA_XSP16, literal(-9)))
          CFI V5 load(1, XDATA, add(CFA_XSP16, literal(-8)))
          CFI V6 load(1, XDATA, add(CFA_XSP16, literal(-7)))
          CFI R7 load(1, XDATA, add(CFA_XSP16, literal(-6)))
          CFI ?RET_LOW load(1, XDATA, add(CFA_XSP16, literal(-5)))
          CFI ?RET_HIGH load(1, XDATA, add(CFA_XSP16, literal(-4)))
          CFI ?BRET_EXT load(1, XDATA, add(CFA_XSP16, literal(-3)))
          CFI DPL0 load(1, XDATA, add(CFA_XSP16, literal(-2)))
          CFI DPH0 load(1, XDATA, add(CFA_XSP16, literal(-1)))
          CFI CFA_SP SP+-4
          CFI CFA_XSP16 add(XSP16, 15)
          CFI Block cfiCond38 Using cfiCommon0
          CFI (cfiCond38) Function bdb_TCJoiningDeviceFree
          CFI (cfiCond38) Conditional ??CrossCallReturnLabel_73, ??CrossCallReturnLabel_14
          CFI (cfiCond38) R6 load(1, XDATA, add(CFA_XSP16, literal(-15)))
          CFI (cfiCond38) VB load(1, XDATA, add(CFA_XSP16, literal(-14)))
          CFI (cfiCond38) V0 load(1, XDATA, add(CFA_XSP16, literal(-13)))
          CFI (cfiCond38) V1 load(1, XDATA, add(CFA_XSP16, literal(-12)))
          CFI (cfiCond38) V2 load(1, XDATA, add(CFA_XSP16, literal(-11)))
          CFI (cfiCond38) V3 load(1, XDATA, add(CFA_XSP16, literal(-10)))
          CFI (cfiCond38) V4 load(1, XDATA, add(CFA_XSP16, literal(-9)))
          CFI (cfiCond38) V5 load(1, XDATA, add(CFA_XSP16, literal(-8)))
          CFI (cfiCond38) V6 load(1, XDATA, add(CFA_XSP16, literal(-7)))
          CFI (cfiCond38) R7 load(1, XDATA, add(CFA_XSP16, literal(-6)))
          CFI (cfiCond38) ?RET_LOW load(1, XDATA, add(CFA_XSP16, literal(-5)))
          CFI (cfiCond38) ?RET_HIGH load(1, XDATA, add(CFA_XSP16, literal(-4)))
          CFI (cfiCond38) ?BRET_EXT load(1, XDATA, add(CFA_XSP16, literal(-3)))
          CFI (cfiCond38) DPL0 load(1, XDATA, add(CFA_XSP16, literal(-2)))
          CFI (cfiCond38) DPH0 load(1, XDATA, add(CFA_XSP16, literal(-1)))
          CFI (cfiCond38) CFA_SP SP+-4
          CFI (cfiCond38) CFA_XSP16 add(XSP16, 15)
          CFI Block cfiCond39 Using cfiCommon0
          CFI (cfiCond39) Function bdb_ZclIdentifyCmdInd
          CFI (cfiCond39) Conditional ??CrossCallReturnLabel_72, ??CrossCallReturnLabel_9
          CFI (cfiCond39) R6 load(1, XDATA, add(CFA_XSP16, literal(-12)))
          CFI (cfiCond39) VB load(1, XDATA, add(CFA_XSP16, literal(-11)))
          CFI (cfiCond39) V0 load(1, XDATA, add(CFA_XSP16, literal(-10)))
          CFI (cfiCond39) V1 load(1, XDATA, add(CFA_XSP16, literal(-9)))
          CFI (cfiCond39) V2 load(1, XDATA, add(CFA_XSP16, literal(-8)))
          CFI (cfiCond39) V3 load(1, XDATA, add(CFA_XSP16, literal(-7)))
          CFI (cfiCond39) R7 load(1, XDATA, add(CFA_XSP16, literal(-6)))
          CFI (cfiCond39) ?RET_LOW load(1, XDATA, add(CFA_XSP16, literal(-5)))
          CFI (cfiCond39) ?RET_HIGH load(1, XDATA, add(CFA_XSP16, literal(-4)))
          CFI (cfiCond39) ?BRET_EXT load(1, XDATA, add(CFA_XSP16, literal(-3)))
          CFI (cfiCond39) DPL0 load(1, XDATA, add(CFA_XSP16, literal(-2)))
          CFI (cfiCond39) DPH0 load(1, XDATA, add(CFA_XSP16, literal(-1)))
          CFI (cfiCond39) CFA_SP SP+-4
          CFI (cfiCond39) CFA_XSP16 add(XSP16, 20)
          CFI Block cfiCond40 Using cfiCommon0
          CFI (cfiCond40) Function bdb_startResumeCommissioningProcess
          CFI (cfiCond40) Conditional ??CrossCallReturnLabel_72, ??CrossCallReturnLabel_10
          CFI (cfiCond40) R6 load(1, XDATA, add(CFA_XSP16, literal(-10)))
          CFI (cfiCond40) VB load(1, XDATA, add(CFA_XSP16, literal(-9)))
          CFI (cfiCond40) V0 load(1, XDATA, add(CFA_XSP16, literal(-8)))
          CFI (cfiCond40) V1 load(1, XDATA, add(CFA_XSP16, literal(-7)))
          CFI (cfiCond40) R7 load(1, XDATA, add(CFA_XSP16, literal(-6)))
          CFI (cfiCond40) ?RET_LOW load(1, XDATA, add(CFA_XSP16, literal(-5)))
          CFI (cfiCond40) ?RET_HIGH load(1, XDATA, add(CFA_XSP16, literal(-4)))
          CFI (cfiCond40) ?BRET_EXT load(1, XDATA, add(CFA_XSP16, literal(-3)))
          CFI (cfiCond40) DPL0 load(1, XDATA, add(CFA_XSP16, literal(-2)))
          CFI (cfiCond40) DPH0 load(1, XDATA, add(CFA_XSP16, literal(-1)))
          CFI (cfiCond40) CFA_SP SP+-4
          CFI (cfiCond40) CFA_XSP16 add(XSP16, 21)
          CFI Block cfiCond41 Using cfiCommon0
          CFI (cfiCond41) Function bdb_event_loop
          CFI (cfiCond41) Conditional ??CrossCallReturnLabel_72, ??CrossCallReturnLabel_11
          CFI (cfiCond41) R6 load(1, XDATA, add(CFA_XSP16, literal(-16)))
          CFI (cfiCond41) VB load(1, XDATA, add(CFA_XSP16, literal(-15)))
          CFI (cfiCond41) V0 load(1, XDATA, add(CFA_XSP16, literal(-14)))
          CFI (cfiCond41) V1 load(1, XDATA, add(CFA_XSP16, literal(-13)))
          CFI (cfiCond41) V2 load(1, XDATA, add(CFA_XSP16, literal(-12)))
          CFI (cfiCond41) V3 load(1, XDATA, add(CFA_XSP16, literal(-11)))
          CFI (cfiCond41) V4 load(1, XDATA, add(CFA_XSP16, literal(-10)))
          CFI (cfiCond41) V5 load(1, XDATA, add(CFA_XSP16, literal(-9)))
          CFI (cfiCond41) V6 load(1, XDATA, add(CFA_XSP16, literal(-8)))
          CFI (cfiCond41) V7 load(1, XDATA, add(CFA_XSP16, literal(-7)))
          CFI (cfiCond41) R7 load(1, XDATA, add(CFA_XSP16, literal(-6)))
          CFI (cfiCond41) ?RET_LOW load(1, XDATA, add(CFA_XSP16, literal(-5)))
          CFI (cfiCond41) ?RET_HIGH load(1, XDATA, add(CFA_XSP16, literal(-4)))
          CFI (cfiCond41) ?BRET_EXT load(1, XDATA, add(CFA_XSP16, literal(-3)))
          CFI (cfiCond41) DPL0 load(1, XDATA, add(CFA_XSP16, literal(-2)))
          CFI (cfiCond41) DPH0 load(1, XDATA, add(CFA_XSP16, literal(-1)))
          CFI (cfiCond41) CFA_SP SP+-4
          CFI (cfiCond41) CFA_XSP16 add(XSP16, 24)
          CFI Block cfiCond42 Using cfiCommon0
          CFI (cfiCond42) Function bdb_event_loop
          CFI (cfiCond42) Conditional ??CrossCallReturnLabel_72, ??CrossCallReturnLabel_12
          CFI (cfiCond42) R6 load(1, XDATA, add(CFA_XSP16, literal(-16)))
          CFI (cfiCond42) VB load(1, XDATA, add(CFA_XSP16, literal(-15)))
          CFI (cfiCond42) V0 load(1, XDATA, add(CFA_XSP16, literal(-14)))
          CFI (cfiCond42) V1 load(1, XDATA, add(CFA_XSP16, literal(-13)))
          CFI (cfiCond42) V2 load(1, XDATA, add(CFA_XSP16, literal(-12)))
          CFI (cfiCond42) V3 load(1, XDATA, add(CFA_XSP16, literal(-11)))
          CFI (cfiCond42) V4 load(1, XDATA, add(CFA_XSP16, literal(-10)))
          CFI (cfiCond42) V5 load(1, XDATA, add(CFA_XSP16, literal(-9)))
          CFI (cfiCond42) V6 load(1, XDATA, add(CFA_XSP16, literal(-8)))
          CFI (cfiCond42) V7 load(1, XDATA, add(CFA_XSP16, literal(-7)))
          CFI (cfiCond42) R7 load(1, XDATA, add(CFA_XSP16, literal(-6)))
          CFI (cfiCond42) ?RET_LOW load(1, XDATA, add(CFA_XSP16, literal(-5)))
          CFI (cfiCond42) ?RET_HIGH load(1, XDATA, add(CFA_XSP16, literal(-4)))
          CFI (cfiCond42) ?BRET_EXT load(1, XDATA, add(CFA_XSP16, literal(-3)))
          CFI (cfiCond42) DPL0 load(1, XDATA, add(CFA_XSP16, literal(-2)))
          CFI (cfiCond42) DPH0 load(1, XDATA, add(CFA_XSP16, literal(-1)))
          CFI (cfiCond42) CFA_SP SP+-4
          CFI (cfiCond42) CFA_XSP16 add(XSP16, 24)
          CFI Block cfiCond43 Using cfiCommon0
          CFI (cfiCond43) Function bdb_CreateRespondentList
          CFI (cfiCond43) Conditional ??CrossCallReturnLabel_74, ??CrossCallReturnLabel_50
          CFI (cfiCond43) R6 load(1, XDATA, add(CFA_XSP16, literal(-10)))
          CFI (cfiCond43) VB load(1, XDATA, add(CFA_XSP16, literal(-9)))
          CFI (cfiCond43) V0 load(1, XDATA, add(CFA_XSP16, literal(-8)))
          CFI (cfiCond43) V1 load(1, XDATA, add(CFA_XSP16, literal(-7)))
          CFI (cfiCond43) R7 load(1, XDATA, add(CFA_XSP16, literal(-6)))
          CFI (cfiCond43) ?RET_LOW load(1, XDATA, add(CFA_XSP16, literal(-5)))
          CFI (cfiCond43) ?RET_HIGH load(1, XDATA, add(CFA_XSP16, literal(-4)))
          CFI (cfiCond43) ?BRET_EXT load(1, XDATA, add(CFA_XSP16, literal(-3)))
          CFI (cfiCond43) DPL0 load(1, XDATA, add(CFA_XSP16, literal(-2)))
          CFI (cfiCond43) DPH0 load(1, XDATA, add(CFA_XSP16, literal(-1)))
          CFI (cfiCond43) CFA_SP SP+-4
          CFI (cfiCond43) CFA_XSP16 add(XSP16, 10)
          CFI Block cfiCond44 Using cfiCommon0
          CFI (cfiCond44) Function bdb_AddRespondentNode
          CFI (cfiCond44) Conditional ??CrossCallReturnLabel_74, ??CrossCallReturnLabel_51
          CFI (cfiCond44) R6 load(1, XDATA, add(CFA_XSP16, literal(-10)))
          CFI (cfiCond44) VB load(1, XDATA, add(CFA_XSP16, literal(-9)))
          CFI (cfiCond44) V0 load(1, XDATA, add(CFA_XSP16, literal(-8)))
          CFI (cfiCond44) V1 load(1, XDATA, add(CFA_XSP16, literal(-7)))
          CFI (cfiCond44) R7 load(1, XDATA, add(CFA_XSP16, literal(-6)))
          CFI (cfiCond44) ?RET_LOW load(1, XDATA, add(CFA_XSP16, literal(-5)))
          CFI (cfiCond44) ?RET_HIGH load(1, XDATA, add(CFA_XSP16, literal(-4)))
          CFI (cfiCond44) ?BRET_EXT load(1, XDATA, add(CFA_XSP16, literal(-3)))
          CFI (cfiCond44) DPL0 load(1, XDATA, add(CFA_XSP16, literal(-2)))
          CFI (cfiCond44) DPH0 load(1, XDATA, add(CFA_XSP16, literal(-1)))
          CFI (cfiCond44) CFA_SP SP+-4
          CFI (cfiCond44) CFA_XSP16 add(XSP16, 10)
          CFI Block cfiCond45 Using cfiCommon0
          CFI (cfiCond45) Function bdb_zclRespondentListClean
          CFI (cfiCond45) Conditional ??CrossCallReturnLabel_74, ??CrossCallReturnLabel_52
          CFI (cfiCond45) R6 load(1, XDATA, add(CFA_XSP16, literal(-12)))
          CFI (cfiCond45) VB load(1, XDATA, add(CFA_XSP16, literal(-11)))
          CFI (cfiCond45) V0 load(1, XDATA, add(CFA_XSP16, literal(-10)))
          CFI (cfiCond45) V1 load(1, XDATA, add(CFA_XSP16, literal(-9)))
          CFI (cfiCond45) V2 load(1, XDATA, add(CFA_XSP16, literal(-8)))
          CFI (cfiCond45) V3 load(1, XDATA, add(CFA_XSP16, literal(-7)))
          CFI (cfiCond45) R7 load(1, XDATA, add(CFA_XSP16, literal(-6)))
          CFI (cfiCond45) ?RET_LOW load(1, XDATA, add(CFA_XSP16, literal(-5)))
          CFI (cfiCond45) ?RET_HIGH load(1, XDATA, add(CFA_XSP16, literal(-4)))
          CFI (cfiCond45) ?BRET_EXT load(1, XDATA, add(CFA_XSP16, literal(-3)))
          CFI (cfiCond45) DPL0 load(1, XDATA, add(CFA_XSP16, literal(-2)))
          CFI (cfiCond45) DPH0 load(1, XDATA, add(CFA_XSP16, literal(-1)))
          CFI (cfiCond45) CFA_SP SP+-4
          CFI (cfiCond45) CFA_XSP16 add(XSP16, 12)
          CFI Block cfiCond46 Using cfiCommon0
          CFI (cfiCond46) Function bdb_AddRespondentNode
          CFI (cfiCond46) Conditional ??CrossCallReturnLabel_74, ??CrossCallReturnLabel_53
          CFI (cfiCond46) R6 load(1, XDATA, add(CFA_XSP16, literal(-10)))
          CFI (cfiCond46) VB load(1, XDATA, add(CFA_XSP16, literal(-9)))
          CFI (cfiCond46) V0 load(1, XDATA, add(CFA_XSP16, literal(-8)))
          CFI (cfiCond46) V1 load(1, XDATA, add(CFA_XSP16, literal(-7)))
          CFI (cfiCond46) R7 load(1, XDATA, add(CFA_XSP16, literal(-6)))
          CFI (cfiCond46) ?RET_LOW load(1, XDATA, add(CFA_XSP16, literal(-5)))
          CFI (cfiCond46) ?RET_HIGH load(1, XDATA, add(CFA_XSP16, literal(-4)))
          CFI (cfiCond46) ?BRET_EXT load(1, XDATA, add(CFA_XSP16, literal(-3)))
          CFI (cfiCond46) DPL0 load(1, XDATA, add(CFA_XSP16, literal(-2)))
          CFI (cfiCond46) DPH0 load(1, XDATA, add(CFA_XSP16, literal(-1)))
          CFI (cfiCond46) CFA_SP SP+-4
          CFI (cfiCond46) CFA_XSP16 add(XSP16, 10)
          CFI Block cfiCond47 Using cfiCommon0
          CFI (cfiCond47) Function bdb_TCAddJoiningDevice
          CFI (cfiCond47) Conditional ??CrossCallReturnLabel_74, ??CrossCallReturnLabel_69
          CFI (cfiCond47) R6 load(1, XDATA, add(CFA_XSP16, literal(-19)))
          CFI (cfiCond47) VB load(1, XDATA, add(CFA_XSP16, literal(-18)))
          CFI (cfiCond47) V0 load(1, XDATA, add(CFA_XSP16, literal(-17)))
          CFI (cfiCond47) V1 load(1, XDATA, add(CFA_XSP16, literal(-16)))
          CFI (cfiCond47) V2 load(1, XDATA, add(CFA_XSP16, literal(-15)))
          CFI (cfiCond47) V3 load(1, XDATA, add(CFA_XSP16, literal(-14)))
          CFI (cfiCond47) V4 load(1, XDATA, add(CFA_XSP16, literal(-13)))
          CFI (cfiCond47) V5 load(1, XDATA, add(CFA_XSP16, literal(-12)))
          CFI (cfiCond47) V6 load(1, XDATA, add(CFA_XSP16, literal(-11)))
          CFI (cfiCond47) V7 load(1, XDATA, add(CFA_XSP16, literal(-10)))
          CFI (cfiCond47) V8 load(1, XDATA, add(CFA_XSP16, literal(-9)))
          CFI (cfiCond47) V9 load(1, XDATA, add(CFA_XSP16, literal(-8)))
          CFI (cfiCond47) V10 load(1, XDATA, add(CFA_XSP16, literal(-7)))
          CFI (cfiCond47) R7 load(1, XDATA, add(CFA_XSP16, literal(-6)))
          CFI (cfiCond47) ?RET_LOW load(1, XDATA, add(CFA_XSP16, literal(-5)))
          CFI (cfiCond47) ?RET_HIGH load(1, XDATA, add(CFA_XSP16, literal(-4)))
          CFI (cfiCond47) ?BRET_EXT load(1, XDATA, add(CFA_XSP16, literal(-3)))
          CFI (cfiCond47) DPL0 load(1, XDATA, add(CFA_XSP16, literal(-2)))
          CFI (cfiCond47) DPH0 load(1, XDATA, add(CFA_XSP16, literal(-1)))
          CFI (cfiCond47) CFA_SP SP+-4
          CFI (cfiCond47) CFA_XSP16 add(XSP16, 28)
          CFI Block cfiCond48 Using cfiCommon0
          CFI (cfiCond48) Function bdb_ZclIdentifyCmdInd
          CFI (cfiCond48) Conditional ??CrossCallReturnLabel_74, ??CrossCallReturnLabel_54
          CFI (cfiCond48) R6 load(1, XDATA, add(CFA_XSP16, literal(-12)))
          CFI (cfiCond48) VB load(1, XDATA, add(CFA_XSP16, literal(-11)))
          CFI (cfiCond48) V0 load(1, XDATA, add(CFA_XSP16, literal(-10)))
          CFI (cfiCond48) V1 load(1, XDATA, add(CFA_XSP16, literal(-9)))
          CFI (cfiCond48) V2 load(1, XDATA, add(CFA_XSP16, literal(-8)))
          CFI (cfiCond48) V3 load(1, XDATA, add(CFA_XSP16, literal(-7)))
          CFI (cfiCond48) R7 load(1, XDATA, add(CFA_XSP16, literal(-6)))
          CFI (cfiCond48) ?RET_LOW load(1, XDATA, add(CFA_XSP16, literal(-5)))
          CFI (cfiCond48) ?RET_HIGH load(1, XDATA, add(CFA_XSP16, literal(-4)))
          CFI (cfiCond48) ?BRET_EXT load(1, XDATA, add(CFA_XSP16, literal(-3)))
          CFI (cfiCond48) DPL0 load(1, XDATA, add(CFA_XSP16, literal(-2)))
          CFI (cfiCond48) DPH0 load(1, XDATA, add(CFA_XSP16, literal(-1)))
          CFI (cfiCond48) CFA_SP SP+-4
          CFI (cfiCond48) CFA_XSP16 add(XSP16, 20)
          CFI Block cfiCond49 Using cfiCommon0
          CFI (cfiCond49) Function bdb_TCAddJoiningDevice
          CFI (cfiCond49) Conditional ??CrossCallReturnLabel_74, ??CrossCallReturnLabel_55
          CFI (cfiCond49) R6 load(1, XDATA, add(CFA_XSP16, literal(-19)))
          CFI (cfiCond49) VB load(1, XDATA, add(CFA_XSP16, literal(-18)))
          CFI (cfiCond49) V0 load(1, XDATA, add(CFA_XSP16, literal(-17)))
          CFI (cfiCond49) V1 load(1, XDATA, add(CFA_XSP16, literal(-16)))
          CFI (cfiCond49) V2 load(1, XDATA, add(CFA_XSP16, literal(-15)))
          CFI (cfiCond49) V3 load(1, XDATA, add(CFA_XSP16, literal(-14)))
          CFI (cfiCond49) V4 load(1, XDATA, add(CFA_XSP16, literal(-13)))
          CFI (cfiCond49) V5 load(1, XDATA, add(CFA_XSP16, literal(-12)))
          CFI (cfiCond49) V6 load(1, XDATA, add(CFA_XSP16, literal(-11)))
          CFI (cfiCond49) V7 load(1, XDATA, add(CFA_XSP16, literal(-10)))
          CFI (cfiCond49) V8 load(1, XDATA, add(CFA_XSP16, literal(-9)))
          CFI (cfiCond49) V9 load(1, XDATA, add(CFA_XSP16, literal(-8)))
          CFI (cfiCond49) V10 load(1, XDATA, add(CFA_XSP16, literal(-7)))
          CFI (cfiCond49) R7 load(1, XDATA, add(CFA_XSP16, literal(-6)))
          CFI (cfiCond49) ?RET_LOW load(1, XDATA, add(CFA_XSP16, literal(-5)))
          CFI (cfiCond49) ?RET_HIGH load(1, XDATA, add(CFA_XSP16, literal(-4)))
          CFI (cfiCond49) ?BRET_EXT load(1, XDATA, add(CFA_XSP16, literal(-3)))
          CFI (cfiCond49) DPL0 load(1, XDATA, add(CFA_XSP16, literal(-2)))
          CFI (cfiCond49) DPH0 load(1, XDATA, add(CFA_XSP16, literal(-1)))
          CFI (cfiCond49) CFA_SP SP+-4
          CFI (cfiCond49) CFA_XSP16 add(XSP16, 28)
          CFI Block cfiCond50 Using cfiCommon0
          CFI (cfiCond50) Function bdb_TCAddJoiningDevice
          CFI (cfiCond50) Conditional ??CrossCallReturnLabel_74, ??CrossCallReturnLabel_56
          CFI (cfiCond50) R6 load(1, XDATA, add(CFA_XSP16, literal(-19)))
          CFI (cfiCond50) VB load(1, XDATA, add(CFA_XSP16, literal(-18)))
          CFI (cfiCond50) V0 load(1, XDATA, add(CFA_XSP16, literal(-17)))
          CFI (cfiCond50) V1 load(1, XDATA, add(CFA_XSP16, literal(-16)))
          CFI (cfiCond50) V2 load(1, XDATA, add(CFA_XSP16, literal(-15)))
          CFI (cfiCond50) V3 load(1, XDATA, add(CFA_XSP16, literal(-14)))
          CFI (cfiCond50) V4 load(1, XDATA, add(CFA_XSP16, literal(-13)))
          CFI (cfiCond50) V5 load(1, XDATA, add(CFA_XSP16, literal(-12)))
          CFI (cfiCond50) V6 load(1, XDATA, add(CFA_XSP16, literal(-11)))
          CFI (cfiCond50) V7 load(1, XDATA, add(CFA_XSP16, literal(-10)))
          CFI (cfiCond50) V8 load(1, XDATA, add(CFA_XSP16, literal(-9)))
          CFI (cfiCond50) V9 load(1, XDATA, add(CFA_XSP16, literal(-8)))
          CFI (cfiCond50) V10 load(1, XDATA, add(CFA_XSP16, literal(-7)))
          CFI (cfiCond50) R7 load(1, XDATA, add(CFA_XSP16, literal(-6)))
          CFI (cfiCond50) ?RET_LOW load(1, XDATA, add(CFA_XSP16, literal(-5)))
          CFI (cfiCond50) ?RET_HIGH load(1, XDATA, add(CFA_XSP16, literal(-4)))
          CFI (cfiCond50) ?BRET_EXT load(1, XDATA, add(CFA_XSP16, literal(-3)))
          CFI (cfiCond50) DPL0 load(1, XDATA, add(CFA_XSP16, literal(-2)))
          CFI (cfiCond50) DPH0 load(1, XDATA, add(CFA_XSP16, literal(-1)))
          CFI (cfiCond50) CFA_SP SP+-4
          CFI (cfiCond50) CFA_XSP16 add(XSP16, 28)
          CFI Block cfiCond51 Using cfiCommon0
          CFI (cfiCond51) Function bdb_TCAddJoiningDevice
          CFI (cfiCond51) Conditional ??CrossCallReturnLabel_74, ??CrossCallReturnLabel_57
          CFI (cfiCond51) R6 load(1, XDATA, add(CFA_XSP16, literal(-19)))
          CFI (cfiCond51) VB load(1, XDATA, add(CFA_XSP16, literal(-18)))
          CFI (cfiCond51) V0 load(1, XDATA, add(CFA_XSP16, literal(-17)))
          CFI (cfiCond51) V1 load(1, XDATA, add(CFA_XSP16, literal(-16)))
          CFI (cfiCond51) V2 load(1, XDATA, add(CFA_XSP16, literal(-15)))
          CFI (cfiCond51) V3 load(1, XDATA, add(CFA_XSP16, literal(-14)))
          CFI (cfiCond51) V4 load(1, XDATA, add(CFA_XSP16, literal(-13)))
          CFI (cfiCond51) V5 load(1, XDATA, add(CFA_XSP16, literal(-12)))
          CFI (cfiCond51) V6 load(1, XDATA, add(CFA_XSP16, literal(-11)))
          CFI (cfiCond51) V7 load(1, XDATA, add(CFA_XSP16, literal(-10)))
          CFI (cfiCond51) V8 load(1, XDATA, add(CFA_XSP16, literal(-9)))
          CFI (cfiCond51) V9 load(1, XDATA, add(CFA_XSP16, literal(-8)))
          CFI (cfiCond51) V10 load(1, XDATA, add(CFA_XSP16, literal(-7)))
          CFI (cfiCond51) R7 load(1, XDATA, add(CFA_XSP16, literal(-6)))
          CFI (cfiCond51) ?RET_LOW load(1, XDATA, add(CFA_XSP16, literal(-5)))
          CFI (cfiCond51) ?RET_HIGH load(1, XDATA, add(CFA_XSP16, literal(-4)))
          CFI (cfiCond51) ?BRET_EXT load(1, XDATA, add(CFA_XSP16, literal(-3)))
          CFI (cfiCond51) DPL0 load(1, XDATA, add(CFA_XSP16, literal(-2)))
          CFI (cfiCond51) DPH0 load(1, XDATA, add(CFA_XSP16, literal(-1)))
          CFI (cfiCond51) CFA_SP SP+-4
          CFI (cfiCond51) CFA_XSP16 add(XSP16, 28)
          CFI Block cfiCond52 Using cfiCommon0
          CFI (cfiCond52) Function bdb_TCProcessJoiningList
          CFI (cfiCond52) Conditional ??CrossCallReturnLabel_74, ??CrossCallReturnLabel_58
          CFI (cfiCond52) R6 load(1, XDATA, add(CFA_XSP16, literal(-15)))
          CFI (cfiCond52) VB load(1, XDATA, add(CFA_XSP16, literal(-14)))
          CFI (cfiCond52) V0 load(1, XDATA, add(CFA_XSP16, literal(-13)))
          CFI (cfiCond52) V1 load(1, XDATA, add(CFA_XSP16, literal(-12)))
          CFI (cfiCond52) V2 load(1, XDATA, add(CFA_XSP16, literal(-11)))
          CFI (cfiCond52) V3 load(1, XDATA, add(CFA_XSP16, literal(-10)))
          CFI (cfiCond52) V4 load(1, XDATA, add(CFA_XSP16, literal(-9)))
          CFI (cfiCond52) V5 load(1, XDATA, add(CFA_XSP16, literal(-8)))
          CFI (cfiCond52) V6 load(1, XDATA, add(CFA_XSP16, literal(-7)))
          CFI (cfiCond52) R7 load(1, XDATA, add(CFA_XSP16, literal(-6)))
          CFI (cfiCond52) ?RET_LOW load(1, XDATA, add(CFA_XSP16, literal(-5)))
          CFI (cfiCond52) ?RET_HIGH load(1, XDATA, add(CFA_XSP16, literal(-4)))
          CFI (cfiCond52) ?BRET_EXT load(1, XDATA, add(CFA_XSP16, literal(-3)))
          CFI (cfiCond52) DPL0 load(1, XDATA, add(CFA_XSP16, literal(-2)))
          CFI (cfiCond52) DPH0 load(1, XDATA, add(CFA_XSP16, literal(-1)))
          CFI (cfiCond52) CFA_SP SP+-4
          CFI (cfiCond52) CFA_XSP16 add(XSP16, 57)
          CFI Block cfiCond53 Using cfiCommon0
          CFI (cfiCond53) Function bdb_TCProcessJoiningList
          CFI (cfiCond53) Conditional ??CrossCallReturnLabel_74, ??CrossCallReturnLabel_59
          CFI (cfiCond53) R6 load(1, XDATA, add(CFA_XSP16, literal(-15)))
          CFI (cfiCond53) VB load(1, XDATA, add(CFA_XSP16, literal(-14)))
          CFI (cfiCond53) V0 load(1, XDATA, add(CFA_XSP16, literal(-13)))
          CFI (cfiCond53) V1 load(1, XDATA, add(CFA_XSP16, literal(-12)))
          CFI (cfiCond53) V2 load(1, XDATA, add(CFA_XSP16, literal(-11)))
          CFI (cfiCond53) V3 load(1, XDATA, add(CFA_XSP16, literal(-10)))
          CFI (cfiCond53) V4 load(1, XDATA, add(CFA_XSP16, literal(-9)))
          CFI (cfiCond53) V5 load(1, XDATA, add(CFA_XSP16, literal(-8)))
          CFI (cfiCond53) V6 load(1, XDATA, add(CFA_XSP16, literal(-7)))
          CFI (cfiCond53) R7 load(1, XDATA, add(CFA_XSP16, literal(-6)))
          CFI (cfiCond53) ?RET_LOW load(1, XDATA, add(CFA_XSP16, literal(-5)))
          CFI (cfiCond53) ?RET_HIGH load(1, XDATA, add(CFA_XSP16, literal(-4)))
          CFI (cfiCond53) ?BRET_EXT load(1, XDATA, add(CFA_XSP16, literal(-3)))
          CFI (cfiCond53) DPL0 load(1, XDATA, add(CFA_XSP16, literal(-2)))
          CFI (cfiCond53) DPH0 load(1, XDATA, add(CFA_XSP16, literal(-1)))
          CFI (cfiCond53) CFA_SP SP+-4
          CFI (cfiCond53) CFA_XSP16 add(XSP16, 57)
          CFI Block cfiCond54 Using cfiCommon0
          CFI (cfiCond54) Function bdb_TCProcessJoiningList
          CFI (cfiCond54) Conditional ??CrossCallReturnLabel_74, ??CrossCallReturnLabel_60
          CFI (cfiCond54) R6 load(1, XDATA, add(CFA_XSP16, literal(-15)))
          CFI (cfiCond54) VB load(1, XDATA, add(CFA_XSP16, literal(-14)))
          CFI (cfiCond54) V0 load(1, XDATA, add(CFA_XSP16, literal(-13)))
          CFI (cfiCond54) V1 load(1, XDATA, add(CFA_XSP16, literal(-12)))
          CFI (cfiCond54) V2 load(1, XDATA, add(CFA_XSP16, literal(-11)))
          CFI (cfiCond54) V3 load(1, XDATA, add(CFA_XSP16, literal(-10)))
          CFI (cfiCond54) V4 load(1, XDATA, add(CFA_XSP16, literal(-9)))
          CFI (cfiCond54) V5 load(1, XDATA, add(CFA_XSP16, literal(-8)))
          CFI (cfiCond54) V6 load(1, XDATA, add(CFA_XSP16, literal(-7)))
          CFI (cfiCond54) R7 load(1, XDATA, add(CFA_XSP16, literal(-6)))
          CFI (cfiCond54) ?RET_LOW load(1, XDATA, add(CFA_XSP16, literal(-5)))
          CFI (cfiCond54) ?RET_HIGH load(1, XDATA, add(CFA_XSP16, literal(-4)))
          CFI (cfiCond54) ?BRET_EXT load(1, XDATA, add(CFA_XSP16, literal(-3)))
          CFI (cfiCond54) DPL0 load(1, XDATA, add(CFA_XSP16, literal(-2)))
          CFI (cfiCond54) DPH0 load(1, XDATA, add(CFA_XSP16, literal(-1)))
          CFI (cfiCond54) CFA_SP SP+-4
          CFI (cfiCond54) CFA_XSP16 add(XSP16, 57)
          CFI Block cfiCond55 Using cfiCommon0
          CFI (cfiCond55) Function bdb_TCjoiningDeviceComplete
          CFI (cfiCond55) Conditional ??CrossCallReturnLabel_74, ??CrossCallReturnLabel_61
          CFI (cfiCond55) R6 load(1, XDATA, add(CFA_XSP16, literal(-19)))
          CFI (cfiCond55) VB load(1, XDATA, add(CFA_XSP16, literal(-18)))
          CFI (cfiCond55) V0 load(1, XDATA, add(CFA_XSP16, literal(-17)))
          CFI (cfiCond55) V1 load(1, XDATA, add(CFA_XSP16, literal(-16)))
          CFI (cfiCond55) V2 load(1, XDATA, add(CFA_XSP16, literal(-15)))
          CFI (cfiCond55) V3 load(1, XDATA, add(CFA_XSP16, literal(-14)))
          CFI (cfiCond55) V4 load(1, XDATA, add(CFA_XSP16, literal(-13)))
          CFI (cfiCond55) V5 load(1, XDATA, add(CFA_XSP16, literal(-12)))
          CFI (cfiCond55) V6 load(1, XDATA, add(CFA_XSP16, literal(-11)))
          CFI (cfiCond55) V7 load(1, XDATA, add(CFA_XSP16, literal(-10)))
          CFI (cfiCond55) V8 load(1, XDATA, add(CFA_XSP16, literal(-9)))
          CFI (cfiCond55) V9 load(1, XDATA, add(CFA_XSP16, literal(-8)))
          CFI (cfiCond55) V10 load(1, XDATA, add(CFA_XSP16, literal(-7)))
          CFI (cfiCond55) R7 load(1, XDATA, add(CFA_XSP16, literal(-6)))
          CFI (cfiCond55) ?RET_LOW load(1, XDATA, add(CFA_XSP16, literal(-5)))
          CFI (cfiCond55) ?RET_HIGH load(1, XDATA, add(CFA_XSP16, literal(-4)))
          CFI (cfiCond55) ?BRET_EXT load(1, XDATA, add(CFA_XSP16, literal(-3)))
          CFI (cfiCond55) DPL0 load(1, XDATA, add(CFA_XSP16, literal(-2)))
          CFI (cfiCond55) DPH0 load(1, XDATA, add(CFA_XSP16, literal(-1)))
          CFI (cfiCond55) CFA_SP SP+-4
          CFI (cfiCond55) CFA_XSP16 add(XSP16, 28)
          CFI Block cfiCond56 Using cfiCommon0
          CFI (cfiCond56) Function bdb_TCjoiningDeviceComplete
          CFI (cfiCond56) Conditional ??CrossCallReturnLabel_74, ??CrossCallReturnLabel_62
          CFI (cfiCond56) R6 load(1, XDATA, add(CFA_XSP16, literal(-19)))
          CFI (cfiCond56) VB load(1, XDATA, add(CFA_XSP16, literal(-18)))
          CFI (cfiCond56) V0 load(1, XDATA, add(CFA_XSP16, literal(-17)))
          CFI (cfiCond56) V1 load(1, XDATA, add(CFA_XSP16, literal(-16)))
          CFI (cfiCond56) V2 load(1, XDATA, add(CFA_XSP16, literal(-15)))
          CFI (cfiCond56) V3 load(1, XDATA, add(CFA_XSP16, literal(-14)))
          CFI (cfiCond56) V4 load(1, XDATA, add(CFA_XSP16, literal(-13)))
          CFI (cfiCond56) V5 load(1, XDATA, add(CFA_XSP16, literal(-12)))
          CFI (cfiCond56) V6 load(1, XDATA, add(CFA_XSP16, literal(-11)))
          CFI (cfiCond56) V7 load(1, XDATA, add(CFA_XSP16, literal(-10)))
          CFI (cfiCond56) V8 load(1, XDATA, add(CFA_XSP16, literal(-9)))
          CFI (cfiCond56) V9 load(1, XDATA, add(CFA_XSP16, literal(-8)))
          CFI (cfiCond56) V10 load(1, XDATA, add(CFA_XSP16, literal(-7)))
          CFI (cfiCond56) R7 load(1, XDATA, add(CFA_XSP16, literal(-6)))
          CFI (cfiCond56) ?RET_LOW load(1, XDATA, add(CFA_XSP16, literal(-5)))
          CFI (cfiCond56) ?RET_HIGH load(1, XDATA, add(CFA_XSP16, literal(-4)))
          CFI (cfiCond56) ?BRET_EXT load(1, XDATA, add(CFA_XSP16, literal(-3)))
          CFI (cfiCond56) DPL0 load(1, XDATA, add(CFA_XSP16, literal(-2)))
          CFI (cfiCond56) DPH0 load(1, XDATA, add(CFA_XSP16, literal(-1)))
          CFI (cfiCond56) CFA_SP SP+-4
          CFI (cfiCond56) CFA_XSP16 add(XSP16, 28)
          CFI Block cfiCond57 Using cfiCommon0
          CFI (cfiCond57) Function bdb_TCjoiningDeviceComplete
          CFI (cfiCond57) Conditional ??CrossCallReturnLabel_74, ??CrossCallReturnLabel_63
          CFI (cfiCond57) R6 load(1, XDATA, add(CFA_XSP16, literal(-19)))
          CFI (cfiCond57) VB load(1, XDATA, add(CFA_XSP16, literal(-18)))
          CFI (cfiCond57) V0 load(1, XDATA, add(CFA_XSP16, literal(-17)))
          CFI (cfiCond57) V1 load(1, XDATA, add(CFA_XSP16, literal(-16)))
          CFI (cfiCond57) V2 load(1, XDATA, add(CFA_XSP16, literal(-15)))
          CFI (cfiCond57) V3 load(1, XDATA, add(CFA_XSP16, literal(-14)))
          CFI (cfiCond57) V4 load(1, XDATA, add(CFA_XSP16, literal(-13)))
          CFI (cfiCond57) V5 load(1, XDATA, add(CFA_XSP16, literal(-12)))
          CFI (cfiCond57) V6 load(1, XDATA, add(CFA_XSP16, literal(-11)))
          CFI (cfiCond57) V7 load(1, XDATA, add(CFA_XSP16, literal(-10)))
          CFI (cfiCond57) V8 load(1, XDATA, add(CFA_XSP16, literal(-9)))
          CFI (cfiCond57) V9 load(1, XDATA, add(CFA_XSP16, literal(-8)))
          CFI (cfiCond57) V10 load(1, XDATA, add(CFA_XSP16, literal(-7)))
          CFI (cfiCond57) R7 load(1, XDATA, add(CFA_XSP16, literal(-6)))
          CFI (cfiCond57) ?RET_LOW load(1, XDATA, add(CFA_XSP16, literal(-5)))
          CFI (cfiCond57) ?RET_HIGH load(1, XDATA, add(CFA_XSP16, literal(-4)))
          CFI (cfiCond57) ?BRET_EXT load(1, XDATA, add(CFA_XSP16, literal(-3)))
          CFI (cfiCond57) DPL0 load(1, XDATA, add(CFA_XSP16, literal(-2)))
          CFI (cfiCond57) DPH0 load(1, XDATA, add(CFA_XSP16, literal(-1)))
          CFI (cfiCond57) CFA_SP SP+-4
          CFI (cfiCond57) CFA_XSP16 add(XSP16, 28)
          CFI Block cfiCond58 Using cfiCommon0
          CFI (cfiCond58) Function bdb_reportCommissioningState
          CFI (cfiCond58) Conditional ??CrossCallReturnLabel_74, ??CrossCallReturnLabel_64
          CFI (cfiCond58) R6 load(1, XDATA, add(CFA_XSP16, literal(-10)))
          CFI (cfiCond58) VB load(1, XDATA, add(CFA_XSP16, literal(-9)))
          CFI (cfiCond58) V0 load(1, XDATA, add(CFA_XSP16, literal(-8)))
          CFI (cfiCond58) V1 load(1, XDATA, add(CFA_XSP16, literal(-7)))
          CFI (cfiCond58) R7 load(1, XDATA, add(CFA_XSP16, literal(-6)))
          CFI (cfiCond58) ?RET_LOW load(1, XDATA, add(CFA_XSP16, literal(-5)))
          CFI (cfiCond58) ?RET_HIGH load(1, XDATA, add(CFA_XSP16, literal(-4)))
          CFI (cfiCond58) ?BRET_EXT load(1, XDATA, add(CFA_XSP16, literal(-3)))
          CFI (cfiCond58) DPL0 load(1, XDATA, add(CFA_XSP16, literal(-2)))
          CFI (cfiCond58) DPH0 load(1, XDATA, add(CFA_XSP16, literal(-1)))
          CFI (cfiCond58) CFA_SP SP+-4
          CFI (cfiCond58) CFA_XSP16 add(XSP16, 14)
          CFI Block cfiCond59 Using cfiCommon0
          CFI (cfiCond59) Function bdb_startResumeCommissioningProcess
          CFI (cfiCond59) Conditional ??CrossCallReturnLabel_74, ??CrossCallReturnLabel_65
          CFI (cfiCond59) R6 load(1, XDATA, add(CFA_XSP16, literal(-10)))
          CFI (cfiCond59) VB load(1, XDATA, add(CFA_XSP16, literal(-9)))
          CFI (cfiCond59) V0 load(1, XDATA, add(CFA_XSP16, literal(-8)))
          CFI (cfiCond59) V1 load(1, XDATA, add(CFA_XSP16, literal(-7)))
          CFI (cfiCond59) R7 load(1, XDATA, add(CFA_XSP16, literal(-6)))
          CFI (cfiCond59) ?RET_LOW load(1, XDATA, add(CFA_XSP16, literal(-5)))
          CFI (cfiCond59) ?RET_HIGH load(1, XDATA, add(CFA_XSP16, literal(-4)))
          CFI (cfiCond59) ?BRET_EXT load(1, XDATA, add(CFA_XSP16, literal(-3)))
          CFI (cfiCond59) DPL0 load(1, XDATA, add(CFA_XSP16, literal(-2)))
          CFI (cfiCond59) DPH0 load(1, XDATA, add(CFA_XSP16, literal(-1)))
          CFI (cfiCond59) CFA_SP SP+-4
          CFI (cfiCond59) CFA_XSP16 add(XSP16, 21)
          CFI Block cfiCond60 Using cfiCommon0
          CFI (cfiCond60) Function bdb_event_loop
          CFI (cfiCond60) Conditional ??CrossCallReturnLabel_74, ??CrossCallReturnLabel_66
          CFI (cfiCond60) R6 load(1, XDATA, add(CFA_XSP16, literal(-16)))
          CFI (cfiCond60) VB load(1, XDATA, add(CFA_XSP16, literal(-15)))
          CFI (cfiCond60) V0 load(1, XDATA, add(CFA_XSP16, literal(-14)))
          CFI (cfiCond60) V1 load(1, XDATA, add(CFA_XSP16, literal(-13)))
          CFI (cfiCond60) V2 load(1, XDATA, add(CFA_XSP16, literal(-12)))
          CFI (cfiCond60) V3 load(1, XDATA, add(CFA_XSP16, literal(-11)))
          CFI (cfiCond60) V4 load(1, XDATA, add(CFA_XSP16, literal(-10)))
          CFI (cfiCond60) V5 load(1, XDATA, add(CFA_XSP16, literal(-9)))
          CFI (cfiCond60) V6 load(1, XDATA, add(CFA_XSP16, literal(-8)))
          CFI (cfiCond60) V7 load(1, XDATA, add(CFA_XSP16, literal(-7)))
          CFI (cfiCond60) R7 load(1, XDATA, add(CFA_XSP16, literal(-6)))
          CFI (cfiCond60) ?RET_LOW load(1, XDATA, add(CFA_XSP16, literal(-5)))
          CFI (cfiCond60) ?RET_HIGH load(1, XDATA, add(CFA_XSP16, literal(-4)))
          CFI (cfiCond60) ?BRET_EXT load(1, XDATA, add(CFA_XSP16, literal(-3)))
          CFI (cfiCond60) DPL0 load(1, XDATA, add(CFA_XSP16, literal(-2)))
          CFI (cfiCond60) DPH0 load(1, XDATA, add(CFA_XSP16, literal(-1)))
          CFI (cfiCond60) CFA_SP SP+-4
          CFI (cfiCond60) CFA_XSP16 add(XSP16, 24)
          CFI Block cfiCond61 Using cfiCommon0
          CFI (cfiCond61) Function bdb_event_loop
          CFI (cfiCond61) Conditional ??CrossCallReturnLabel_74, ??CrossCallReturnLabel_67
          CFI (cfiCond61) R6 load(1, XDATA, add(CFA_XSP16, literal(-16)))
          CFI (cfiCond61) VB load(1, XDATA, add(CFA_XSP16, literal(-15)))
          CFI (cfiCond61) V0 load(1, XDATA, add(CFA_XSP16, literal(-14)))
          CFI (cfiCond61) V1 load(1, XDATA, add(CFA_XSP16, literal(-13)))
          CFI (cfiCond61) V2 load(1, XDATA, add(CFA_XSP16, literal(-12)))
          CFI (cfiCond61) V3 load(1, XDATA, add(CFA_XSP16, literal(-11)))
          CFI (cfiCond61) V4 load(1, XDATA, add(CFA_XSP16, literal(-10)))
          CFI (cfiCond61) V5 load(1, XDATA, add(CFA_XSP16, literal(-9)))
          CFI (cfiCond61) V6 load(1, XDATA, add(CFA_XSP16, literal(-8)))
          CFI (cfiCond61) V7 load(1, XDATA, add(CFA_XSP16, literal(-7)))
          CFI (cfiCond61) R7 load(1, XDATA, add(CFA_XSP16, literal(-6)))
          CFI (cfiCond61) ?RET_LOW load(1, XDATA, add(CFA_XSP16, literal(-5)))
          CFI (cfiCond61) ?RET_HIGH load(1, XDATA, add(CFA_XSP16, literal(-4)))
          CFI (cfiCond61) ?BRET_EXT load(1, XDATA, add(CFA_XSP16, literal(-3)))
          CFI (cfiCond61) DPL0 load(1, XDATA, add(CFA_XSP16, literal(-2)))
          CFI (cfiCond61) DPH0 load(1, XDATA, add(CFA_XSP16, literal(-1)))
          CFI (cfiCond61) CFA_SP SP+-4
          CFI (cfiCond61) CFA_XSP16 add(XSP16, 24)
          CFI Block cfiCond62 Using cfiCommon0
          CFI (cfiCond62) Function bdb_ProcessNodeDescRsp
          CFI (cfiCond62) Conditional ??CrossCallReturnLabel_74, ??CrossCallReturnLabel_68
          CFI (cfiCond62) R6 load(1, XDATA, add(CFA_XSP16, literal(-10)))
          CFI (cfiCond62) VB load(1, XDATA, add(CFA_XSP16, literal(-9)))
          CFI (cfiCond62) V0 load(1, XDATA, add(CFA_XSP16, literal(-8)))
          CFI (cfiCond62) V1 load(1, XDATA, add(CFA_XSP16, literal(-7)))
          CFI (cfiCond62) R7 load(1, XDATA, add(CFA_XSP16, literal(-6)))
          CFI (cfiCond62) ?RET_LOW load(1, XDATA, add(CFA_XSP16, literal(-5)))
          CFI (cfiCond62) ?RET_HIGH load(1, XDATA, add(CFA_XSP16, literal(-4)))
          CFI (cfiCond62) ?BRET_EXT load(1, XDATA, add(CFA_XSP16, literal(-3)))
          CFI (cfiCond62) DPL0 load(1, XDATA, add(CFA_XSP16, literal(-2)))
          CFI (cfiCond62) DPH0 load(1, XDATA, add(CFA_XSP16, literal(-1)))
          CFI (cfiCond62) CFA_SP SP+-4
          CFI (cfiCond62) CFA_XSP16 add(XSP16, 45)
          CFI Block cfiCond63 Using cfiCommon0
          CFI (cfiCond63) Function bdb_event_loop
          CFI (cfiCond63) Conditional ??CrossCallReturnLabel_70
          CFI (cfiCond63) R6 load(1, XDATA, add(CFA_XSP16, literal(-16)))
          CFI (cfiCond63) VB load(1, XDATA, add(CFA_XSP16, literal(-15)))
          CFI (cfiCond63) V0 load(1, XDATA, add(CFA_XSP16, literal(-14)))
          CFI (cfiCond63) V1 load(1, XDATA, add(CFA_XSP16, literal(-13)))
          CFI (cfiCond63) V2 load(1, XDATA, add(CFA_XSP16, literal(-12)))
          CFI (cfiCond63) V3 load(1, XDATA, add(CFA_XSP16, literal(-11)))
          CFI (cfiCond63) V4 load(1, XDATA, add(CFA_XSP16, literal(-10)))
          CFI (cfiCond63) V5 load(1, XDATA, add(CFA_XSP16, literal(-9)))
          CFI (cfiCond63) V6 load(1, XDATA, add(CFA_XSP16, literal(-8)))
          CFI (cfiCond63) V7 load(1, XDATA, add(CFA_XSP16, literal(-7)))
          CFI (cfiCond63) R7 load(1, XDATA, add(CFA_XSP16, literal(-6)))
          CFI (cfiCond63) ?RET_LOW load(1, XDATA, add(CFA_XSP16, literal(-5)))
          CFI (cfiCond63) ?RET_HIGH load(1, XDATA, add(CFA_XSP16, literal(-4)))
          CFI (cfiCond63) ?BRET_EXT load(1, XDATA, add(CFA_XSP16, literal(-3)))
          CFI (cfiCond63) DPL0 load(1, XDATA, add(CFA_XSP16, literal(-2)))
          CFI (cfiCond63) DPH0 load(1, XDATA, add(CFA_XSP16, literal(-1)))
          CFI (cfiCond63) CFA_SP SP+-2
          CFI (cfiCond63) CFA_XSP16 add(XSP16, 24)
          CFI Block cfiCond64 Using cfiCommon0
          CFI (cfiCond64) Function bdb_crcInit
          CFI (cfiCond64) Conditional ??CrossCallReturnLabel_71
          CFI (cfiCond64) R6 load(1, XDATA, add(CFA_XSP16, literal(-9)))
          CFI (cfiCond64) VB load(1, XDATA, add(CFA_XSP16, literal(-8)))
          CFI (cfiCond64) V0 load(1, XDATA, add(CFA_XSP16, literal(-7)))
          CFI (cfiCond64) R7 load(1, XDATA, add(CFA_XSP16, literal(-6)))
          CFI (cfiCond64) ?RET_LOW load(1, XDATA, add(CFA_XSP16, literal(-5)))
          CFI (cfiCond64) ?RET_HIGH load(1, XDATA, add(CFA_XSP16, literal(-4)))
          CFI (cfiCond64) ?BRET_EXT load(1, XDATA, add(CFA_XSP16, literal(-3)))
          CFI (cfiCond64) DPL0 load(1, XDATA, add(CFA_XSP16, literal(-2)))
          CFI (cfiCond64) DPH0 load(1, XDATA, add(CFA_XSP16, literal(-1)))
          CFI (cfiCond64) CFA_SP SP+-2
          CFI (cfiCond64) CFA_XSP16 add(XSP16, 9)
          CFI Block cfiPicker65 Using cfiCommon1
          CFI (cfiPicker65) NoFunction
          CFI (cfiPicker65) Picker
        MOVX      A,@DPTR
        MOV       R0,A
        INC       DPTR
        MOVX      A,@DPTR
        MOV       R1,A
        RET
          CFI EndBlock cfiCond37
          CFI EndBlock cfiCond38
          CFI EndBlock cfiCond39
          CFI EndBlock cfiCond40
          CFI EndBlock cfiCond41
          CFI EndBlock cfiCond42
          CFI EndBlock cfiCond43
          CFI EndBlock cfiCond44
          CFI EndBlock cfiCond45
          CFI EndBlock cfiCond46
          CFI EndBlock cfiCond47
          CFI EndBlock cfiCond48
          CFI EndBlock cfiCond49
          CFI EndBlock cfiCond50
          CFI EndBlock cfiCond51
          CFI EndBlock cfiCond52
          CFI EndBlock cfiCond53
          CFI EndBlock cfiCond54
          CFI EndBlock cfiCond55
          CFI EndBlock cfiCond56
          CFI EndBlock cfiCond57
          CFI EndBlock cfiCond58
          CFI EndBlock cfiCond59
          CFI EndBlock cfiCond60
          CFI EndBlock cfiCond61
          CFI EndBlock cfiCond62
          CFI EndBlock cfiCond63
          CFI EndBlock cfiCond64
          CFI EndBlock cfiPicker65
//  783 
//  784  /*********************************************************************
//  785  * @fn          bdb_setJoinUsesInstallCodeKey
//  786  *
//  787  * @brief       Set BDB attribute bdbJoinUsesInstallCodeKey.
//  788  *
//  789  * @param       set - If TRUE only devices with IC register in TC can join the 
//  790  *              nwk, otherwise devices may or not have a IC register
//  791  *
//  792  * @return      none
//  793  */

        RSEG BANKED_CODE:HUGECODE:NOROOT(0)
//  794 void bdb_setJoinUsesInstallCodeKey(bool set)
bdb_setJoinUsesInstallCodeKey:
          CFI Block cfiBlock66 Using cfiCommon0
          CFI Function bdb_setJoinUsesInstallCodeKey
        CODE
//  795 {
        PUSH      DPL
          CFI DPL0 Frame(CFA_SP, 4)
          CFI CFA_SP SP+-4
        PUSH      DPH
          CFI DPH0 Frame(CFA_SP, 5)
          CFI CFA_SP SP+-5
        ; Saved register size: 2
        ; Auto size: 0
//  796   bdbAttributes.bdbJoinUsesInstallCodeKey = set;
        MOV       A,R1
        MOV       DPTR,#bdbAttributes + 15
        MOVX      @DPTR,A
//  797   if(set)
        MOV       DPTR,#zgAllowInstallCodes
        JZ        ??bdb_setJoinUsesInstallCodeKey_0
//  798   {
//  799     zgAllowInstallCodes = ZG_IC_MUST_USED;
        MOV       A,#0x2
        SJMP      ??bdb_setJoinUsesInstallCodeKey_1
//  800   }
//  801   else
//  802   {
//  803     zgAllowInstallCodes = ZG_IC_SUPPORTED_NOT_REQUIRED;
??bdb_setJoinUsesInstallCodeKey_0:
        MOV       A,#0x1
//  804   }
??bdb_setJoinUsesInstallCodeKey_1:
        LJMP      ??Subroutine33_0 & 0xFFFF
//  805 }
          CFI EndBlock cfiBlock66
//  806 #endif
//  807 
//  808  /*********************************************************************
//  809  * @fn          bdb_StartCommissioning
//  810  *
//  811  * @brief       Start the commissioning process setting the commissioning mode given.
//  812  *
//  813  * @param       mode - refer to bdbCommissioningMode
//  814  *
//  815  * @return      none
//  816  */

        RSEG BANKED_CODE:HUGECODE:NOROOT(0)
//  817 void bdb_StartCommissioning(uint8 mode)
bdb_StartCommissioning:
          CFI Block cfiBlock67 Using cfiCommon0
          CFI Function bdb_StartCommissioning
        CODE
//  818 {
        FUNCALL bdb_StartCommissioning, osal_get_timeoutEx
        LOCFRAME ISTACK, 0, STACK
        LOCFRAME PSTACK, 0, STACK
        LOCFRAME XSTACK, 97, STACK
        LOCFRAME IOVERLAY, 0, STATIC
        LOCFRAME DOVERLAY, 0, STATIC
        ARGFRAME ISTACK, 0, STACK
        ARGFRAME PSTACK, 0, STACK
        ARGFRAME XSTACK, 97, STACK
        ARGFRAME IOVERLAY, 0, STATIC
        ARGFRAME DOVERLAY, 0, STATIC
        FUNCALL bdb_StartCommissioning, bdb_nwkSteeringDeviceOnNwk
        LOCFRAME ISTACK, 0, STACK
        LOCFRAME PSTACK, 0, STACK
        LOCFRAME XSTACK, 97, STACK
        LOCFRAME IOVERLAY, 0, STATIC
        LOCFRAME DOVERLAY, 0, STATIC
        ARGFRAME ISTACK, 0, STACK
        ARGFRAME PSTACK, 0, STACK
        ARGFRAME XSTACK, 97, STACK
        ARGFRAME IOVERLAY, 0, STATIC
        ARGFRAME DOVERLAY, 0, STATIC
        FUNCALL bdb_StartCommissioning, bdb_reportCommissioningState
        LOCFRAME ISTACK, 0, STACK
        LOCFRAME PSTACK, 0, STACK
        LOCFRAME XSTACK, 97, STACK
        LOCFRAME IOVERLAY, 0, STATIC
        LOCFRAME DOVERLAY, 0, STATIC
        ARGFRAME ISTACK, 0, STACK
        ARGFRAME PSTACK, 0, STACK
        ARGFRAME XSTACK, 97, STACK
        ARGFRAME IOVERLAY, 0, STATIC
        ARGFRAME DOVERLAY, 0, STATIC
        FUNCALL bdb_StartCommissioning, ZDApp_ReadNetworkRestoreState
        LOCFRAME ISTACK, 0, STACK
        LOCFRAME PSTACK, 0, STACK
        LOCFRAME XSTACK, 97, STACK
        LOCFRAME IOVERLAY, 0, STATIC
        LOCFRAME DOVERLAY, 0, STATIC
        ARGFRAME ISTACK, 0, STACK
        ARGFRAME PSTACK, 0, STACK
        ARGFRAME XSTACK, 97, STACK
        ARGFRAME IOVERLAY, 0, STATIC
        ARGFRAME DOVERLAY, 0, STATIC
        FUNCALL bdb_StartCommissioning, osal_nv_item_len
        LOCFRAME ISTACK, 0, STACK
        LOCFRAME PSTACK, 0, STACK
        LOCFRAME XSTACK, 97, STACK
        LOCFRAME IOVERLAY, 0, STATIC
        LOCFRAME DOVERLAY, 0, STATIC
        ARGFRAME ISTACK, 0, STACK
        ARGFRAME PSTACK, 0, STACK
        ARGFRAME XSTACK, 97, STACK
        ARGFRAME IOVERLAY, 0, STATIC
        ARGFRAME DOVERLAY, 0, STATIC
        FUNCALL bdb_StartCommissioning, osal_nv_delete
        LOCFRAME ISTACK, 0, STACK
        LOCFRAME PSTACK, 0, STACK
        LOCFRAME XSTACK, 97, STACK
        LOCFRAME IOVERLAY, 0, STATIC
        LOCFRAME DOVERLAY, 0, STATIC
        ARGFRAME ISTACK, 0, STACK
        ARGFRAME PSTACK, 0, STACK
        ARGFRAME XSTACK, 97, STACK
        ARGFRAME IOVERLAY, 0, STATIC
        ARGFRAME DOVERLAY, 0, STATIC
        FUNCALL bdb_StartCommissioning, bdb_RepConstructReportingData
        LOCFRAME ISTACK, 0, STACK
        LOCFRAME PSTACK, 0, STACK
        LOCFRAME XSTACK, 97, STACK
        LOCFRAME IOVERLAY, 0, STATIC
        LOCFRAME DOVERLAY, 0, STATIC
        ARGFRAME ISTACK, 0, STACK
        ARGFRAME PSTACK, 0, STACK
        ARGFRAME XSTACK, 97, STACK
        ARGFRAME IOVERLAY, 0, STATIC
        ARGFRAME DOVERLAY, 0, STATIC
        FUNCALL bdb_StartCommissioning, osal_nv_read
        LOCFRAME ISTACK, 0, STACK
        LOCFRAME PSTACK, 0, STACK
        LOCFRAME XSTACK, 101, STACK
        LOCFRAME IOVERLAY, 0, STATIC
        LOCFRAME DOVERLAY, 0, STATIC
        ARGFRAME ISTACK, 0, STACK
        ARGFRAME PSTACK, 0, STACK
        ARGFRAME XSTACK, 101, STACK
        ARGFRAME IOVERLAY, 0, STATIC
        ARGFRAME DOVERLAY, 0, STATIC
        FUNCALL bdb_StartCommissioning, HalUARTWrite
        LOCFRAME ISTACK, 0, STACK
        LOCFRAME PSTACK, 0, STACK
        LOCFRAME XSTACK, 97, STACK
        LOCFRAME IOVERLAY, 0, STATIC
        LOCFRAME DOVERLAY, 0, STATIC
        ARGFRAME ISTACK, 0, STACK
        ARGFRAME PSTACK, 0, STACK
        ARGFRAME XSTACK, 97, STACK
        ARGFRAME IOVERLAY, 0, STATIC
        ARGFRAME DOVERLAY, 0, STATIC
        FUNCALL bdb_StartCommissioning, HalUARTWrite
        LOCFRAME ISTACK, 0, STACK
        LOCFRAME PSTACK, 0, STACK
        LOCFRAME XSTACK, 97, STACK
        LOCFRAME IOVERLAY, 0, STATIC
        LOCFRAME DOVERLAY, 0, STATIC
        ARGFRAME ISTACK, 0, STACK
        ARGFRAME PSTACK, 0, STACK
        ARGFRAME XSTACK, 97, STACK
        ARGFRAME IOVERLAY, 0, STATIC
        ARGFRAME DOVERLAY, 0, STATIC
        FUNCALL bdb_StartCommissioning, osal_isbufset
        LOCFRAME ISTACK, 0, STACK
        LOCFRAME PSTACK, 0, STACK
        LOCFRAME XSTACK, 97, STACK
        LOCFRAME IOVERLAY, 0, STATIC
        LOCFRAME DOVERLAY, 0, STATIC
        ARGFRAME ISTACK, 0, STACK
        ARGFRAME PSTACK, 0, STACK
        ARGFRAME XSTACK, 97, STACK
        ARGFRAME IOVERLAY, 0, STATIC
        ARGFRAME DOVERLAY, 0, STATIC
        FUNCALL bdb_StartCommissioning, APSME_IsDistributedSecurity
        LOCFRAME ISTACK, 0, STACK
        LOCFRAME PSTACK, 0, STACK
        LOCFRAME XSTACK, 97, STACK
        LOCFRAME IOVERLAY, 0, STATIC
        LOCFRAME DOVERLAY, 0, STATIC
        ARGFRAME ISTACK, 0, STACK
        ARGFRAME PSTACK, 0, STACK
        ARGFRAME XSTACK, 97, STACK
        ARGFRAME IOVERLAY, 0, STATIC
        ARGFRAME DOVERLAY, 0, STATIC
        FUNCALL bdb_StartCommissioning, osal_nv_read
        LOCFRAME ISTACK, 0, STACK
        LOCFRAME PSTACK, 0, STACK
        LOCFRAME XSTACK, 101, STACK
        LOCFRAME IOVERLAY, 0, STATIC
        LOCFRAME DOVERLAY, 0, STATIC
        ARGFRAME ISTACK, 0, STACK
        ARGFRAME PSTACK, 0, STACK
        ARGFRAME XSTACK, 101, STACK
        ARGFRAME IOVERLAY, 0, STATIC
        ARGFRAME DOVERLAY, 0, STATIC
        FUNCALL bdb_StartCommissioning, osal_memset
        LOCFRAME ISTACK, 0, STACK
        LOCFRAME PSTACK, 0, STACK
        LOCFRAME XSTACK, 97, STACK
        LOCFRAME IOVERLAY, 0, STATIC
        LOCFRAME DOVERLAY, 0, STATIC
        ARGFRAME ISTACK, 0, STACK
        ARGFRAME PSTACK, 0, STACK
        ARGFRAME XSTACK, 97, STACK
        ARGFRAME IOVERLAY, 0, STATIC
        ARGFRAME DOVERLAY, 0, STATIC
        FUNCALL bdb_StartCommissioning, osal_nv_write
        LOCFRAME ISTACK, 0, STACK
        LOCFRAME PSTACK, 0, STACK
        LOCFRAME XSTACK, 101, STACK
        LOCFRAME IOVERLAY, 0, STATIC
        LOCFRAME DOVERLAY, 0, STATIC
        ARGFRAME ISTACK, 0, STACK
        ARGFRAME PSTACK, 0, STACK
        ARGFRAME XSTACK, 101, STACK
        ARGFRAME IOVERLAY, 0, STATIC
        ARGFRAME DOVERLAY, 0, STATIC
        FUNCALL bdb_StartCommissioning, osal_nv_write
        LOCFRAME ISTACK, 0, STACK
        LOCFRAME PSTACK, 0, STACK
        LOCFRAME XSTACK, 101, STACK
        LOCFRAME IOVERLAY, 0, STATIC
        LOCFRAME DOVERLAY, 0, STATIC
        ARGFRAME ISTACK, 0, STACK
        ARGFRAME PSTACK, 0, STACK
        ARGFRAME XSTACK, 101, STACK
        ARGFRAME IOVERLAY, 0, STATIC
        ARGFRAME DOVERLAY, 0, STATIC
        FUNCALL bdb_StartCommissioning, zgWriteStartupOptions
        LOCFRAME ISTACK, 0, STACK
        LOCFRAME PSTACK, 0, STACK
        LOCFRAME XSTACK, 97, STACK
        LOCFRAME IOVERLAY, 0, STATIC
        LOCFRAME DOVERLAY, 0, STATIC
        ARGFRAME ISTACK, 0, STACK
        ARGFRAME PSTACK, 0, STACK
        ARGFRAME XSTACK, 97, STACK
        ARGFRAME IOVERLAY, 0, STATIC
        ARGFRAME DOVERLAY, 0, STATIC
        FUNCALL bdb_StartCommissioning, osal_set_event
        LOCFRAME ISTACK, 0, STACK
        LOCFRAME PSTACK, 0, STACK
        LOCFRAME XSTACK, 97, STACK
        LOCFRAME IOVERLAY, 0, STATIC
        LOCFRAME DOVERLAY, 0, STATIC
        ARGFRAME ISTACK, 0, STACK
        ARGFRAME PSTACK, 0, STACK
        ARGFRAME XSTACK, 97, STACK
        ARGFRAME IOVERLAY, 0, STATIC
        ARGFRAME DOVERLAY, 0, STATIC
        FUNCALL bdb_StartCommissioning, ZDOInitDeviceEx
        LOCFRAME ISTACK, 0, STACK
        LOCFRAME PSTACK, 0, STACK
        LOCFRAME XSTACK, 97, STACK
        LOCFRAME IOVERLAY, 0, STATIC
        LOCFRAME DOVERLAY, 0, STATIC
        ARGFRAME ISTACK, 0, STACK
        ARGFRAME PSTACK, 0, STACK
        ARGFRAME XSTACK, 97, STACK
        ARGFRAME IOVERLAY, 0, STATIC
        ARGFRAME DOVERLAY, 0, STATIC
        FUNCALL bdb_StartCommissioning, bdb_RepUpdateMarkBindings
        LOCFRAME ISTACK, 0, STACK
        LOCFRAME PSTACK, 0, STACK
        LOCFRAME XSTACK, 97, STACK
        LOCFRAME IOVERLAY, 0, STATIC
        LOCFRAME DOVERLAY, 0, STATIC
        ARGFRAME ISTACK, 0, STACK
        ARGFRAME PSTACK, 0, STACK
        ARGFRAME XSTACK, 97, STACK
        ARGFRAME IOVERLAY, 0, STATIC
        ARGFRAME DOVERLAY, 0, STATIC
        FUNCALL bdb_StartCommissioning, bdb_setNodeIsOnANetwork
        LOCFRAME ISTACK, 0, STACK
        LOCFRAME PSTACK, 0, STACK
        LOCFRAME XSTACK, 97, STACK
        LOCFRAME IOVERLAY, 0, STATIC
        LOCFRAME DOVERLAY, 0, STATIC
        ARGFRAME ISTACK, 0, STACK
        ARGFRAME PSTACK, 0, STACK
        ARGFRAME XSTACK, 97, STACK
        ARGFRAME IOVERLAY, 0, STATIC
        ARGFRAME DOVERLAY, 0, STATIC
        FUNCALL bdb_StartCommissioning, bdb_reportCommissioningState
        LOCFRAME ISTACK, 0, STACK
        LOCFRAME PSTACK, 0, STACK
        LOCFRAME XSTACK, 97, STACK
        LOCFRAME IOVERLAY, 0, STATIC
        LOCFRAME DOVERLAY, 0, STATIC
        ARGFRAME ISTACK, 0, STACK
        ARGFRAME PSTACK, 0, STACK
        ARGFRAME XSTACK, 97, STACK
        ARGFRAME IOVERLAY, 0, STATIC
        ARGFRAME DOVERLAY, 0, STATIC
        FUNCALL bdb_StartCommissioning, HalUARTWrite
        LOCFRAME ISTACK, 0, STACK
        LOCFRAME PSTACK, 0, STACK
        LOCFRAME XSTACK, 97, STACK
        LOCFRAME IOVERLAY, 0, STATIC
        LOCFRAME DOVERLAY, 0, STATIC
        ARGFRAME ISTACK, 0, STACK
        ARGFRAME PSTACK, 0, STACK
        ARGFRAME XSTACK, 97, STACK
        ARGFRAME IOVERLAY, 0, STATIC
        ARGFRAME DOVERLAY, 0, STATIC
        FUNCALL bdb_StartCommissioning, bdb_reportCommissioningState
        LOCFRAME ISTACK, 0, STACK
        LOCFRAME PSTACK, 0, STACK
        LOCFRAME XSTACK, 97, STACK
        LOCFRAME IOVERLAY, 0, STATIC
        LOCFRAME DOVERLAY, 0, STATIC
        ARGFRAME ISTACK, 0, STACK
        ARGFRAME PSTACK, 0, STACK
        ARGFRAME XSTACK, 97, STACK
        ARGFRAME IOVERLAY, 0, STATIC
        ARGFRAME DOVERLAY, 0, STATIC
        FUNCALL bdb_StartCommissioning, osal_set_event
        LOCFRAME ISTACK, 0, STACK
        LOCFRAME PSTACK, 0, STACK
        LOCFRAME XSTACK, 97, STACK
        LOCFRAME IOVERLAY, 0, STATIC
        LOCFRAME DOVERLAY, 0, STATIC
        ARGFRAME ISTACK, 0, STACK
        ARGFRAME PSTACK, 0, STACK
        ARGFRAME XSTACK, 97, STACK
        ARGFRAME IOVERLAY, 0, STATIC
        ARGFRAME DOVERLAY, 0, STATIC
        REQUIRE ?V0
        REQUIRE ?V2
        REQUIRE ?V3
        MOV       A,#-0xc
        LCALL     ?BANKED_ENTER_XDATA
          CFI DPH0 load(1, XDATA, add(CFA_XSP16, literal(-1)))
          CFI DPL0 load(1, XDATA, add(CFA_XSP16, literal(-2)))
          CFI ?BRET_EXT load(1, XDATA, add(CFA_XSP16, literal(-3)))
          CFI ?RET_HIGH load(1, XDATA, add(CFA_XSP16, literal(-4)))
          CFI ?RET_LOW load(1, XDATA, add(CFA_XSP16, literal(-5)))
          CFI R7 load(1, XDATA, add(CFA_XSP16, literal(-6)))
          CFI V3 load(1, XDATA, add(CFA_XSP16, literal(-7)))
          CFI V2 load(1, XDATA, add(CFA_XSP16, literal(-8)))
          CFI V1 load(1, XDATA, add(CFA_XSP16, literal(-9)))
          CFI V0 load(1, XDATA, add(CFA_XSP16, literal(-10)))
          CFI VB load(1, XDATA, add(CFA_XSP16, literal(-11)))
          CFI R6 load(1, XDATA, add(CFA_XSP16, literal(-12)))
          CFI CFA_SP SP+0
          CFI CFA_XSP16 add(XSP16, 12)
        ; Saved register size: 12
        ; Auto size: 85
        MOV       A,#-0x55
        LCALL     ?ALLOC_XSTACK8
          CFI CFA_XSP16 add(XSP16, 97)
        MOV       ?V0,R1
//  819   //Application cannot request to set the device in initialization mode or parent lost
//  820   mode &= ~(BDB_COMMISSIONING_MODE_INITIALIZATION | BDB_COMMISSIONING_MODE_PARENT_LOST);
//  821     
//  822 #ifdef BDB_TL_INITIATOR
//  823   if ( touchlinkFNReset == TRUE )
//  824   {
//  825     return;
//  826   }
//  827 #else
//  828   //Commissioning mode used only for initiator
//  829   mode &= ~BDB_COMMISSIONING_MODE_INITIATOR_TL;
        ANL       ?V0,#0xce
//  830 #endif
//  831   
//  832 #if (BDB_FINDING_BINDING_CAPABILITY_ENABLED==0)    
//  833   //Commissioning mode used only for devices with F&B
//  834   mode &= ~BDB_COMMISSIONING_MODE_FINDING_BINDING;
//  835 #endif
//  836  
//  837   //If we have running process or the machine state is triggered, then just append and it will be excecuted
//  838   if((bdbAttributes.bdbCommissioningMode) || (osal_get_timeoutEx(bdb_TaskID,BDB_CHANGE_COMMISSIONING_STATE)))
        MOV       DPTR,#bdbAttributes + 11
        MOVX      A,@DPTR
        JNZ       ??bdb_StartCommissioning_0
        ; Setup parameters for call to function osal_get_timeoutEx
        MOV       R2,#0x4
        MOV       R3,#0x0
        MOV       DPTR,#bdb_TaskID
        MOVX      A,@DPTR
        MOV       R1,A
        LCALL     `??osal_get_timeoutEx::?relay`; Banked call to: osal_get_timeoutEx
        MOV       A,R2
        ORL       A,R3
        ORL       A,R4
        ORL       A,R5
        JZ        ??bdb_StartCommissioning_1
//  839   {
//  840 #if ZG_BUILD_ENDDEVICE_TYPE
//  841     if(ZG_DEVICE_ENDDEVICE_TYPE)
//  842     {
//  843       //Devices with parent lost are not allowed to perform actions
//  844       if(bdbAttributes.bdbCommissioningMode & BDB_COMMISSIONING_MODE_PARENT_LOST)
//  845       {
//  846         return;
//  847       }
//  848     }
//  849 #endif
//  850     
//  851     //If we are on the network and got requested to do nwk steering, we do not need to wait other process, 
//  852     // just send permit joining and report the application
//  853     if((bdbAttributes.bdbNodeIsOnANetwork) && (mode & BDB_COMMISSIONING_MODE_NWK_STEERING))
??bdb_StartCommissioning_0:
        MOV       DPTR,#bdbAttributes + 14
        MOVX      A,@DPTR
        JZ        ??bdb_StartCommissioning_2
        MOV       A,?V0
        MOV       C,0xE0 /* A   */.1
        JNC       ??bdb_StartCommissioning_2
//  854     {
//  855       bdb_nwkSteeringDeviceOnNwk();
        ; Setup parameters for call to function bdb_nwkSteeringDeviceOnNwk
        LCALL     `??bdb_nwkSteeringDeviceOnNwk::?relay`; Banked call to: bdb_nwkSteeringDeviceOnNwk
//  856       bdb_reportCommissioningState(BDB_COMMISSIONING_STATE_STEERING_ON_NWK, TRUE);
        ; Setup parameters for call to function bdb_reportCommissioningState
        MOV       R2,#0x1
        MOV       R1,#0x4
        LCALL     `??bdb_reportCommissioningState::?relay`; Banked call to: bdb_reportCommissioningState
//  857       
//  858       //Clean nwk steering
//  859       mode ^= BDB_COMMISSIONING_MODE_NWK_STEERING; 
        XRL       ?V0,#0x2
//  860     }
//  861     
//  862     //add the remaining valid commissioning modes requested, those will be process when bdb finish its current process
//  863     bdbAttributes.bdbCommissioningMode |= mode & BDB_COMMISSIONING_MODES;
??bdb_StartCommissioning_2:
        MOV       A,#0x3f
        ANL       A,?V0
        MOV       R0,A
        MOV       DPTR,#bdbAttributes + 11
        MOVX      A,@DPTR
        ORL       A,R0
        MOVX      @DPTR,A
//  864     return;      
        LJMP      ??bdb_StartCommissioning_3 & 0xFFFF
//  865   }
//  866 
//  867   //Save the commissioning modes valid requested
//  868   bdbAttributes.bdbCommissioningMode |= mode & BDB_COMMISSIONING_MODES;
??bdb_StartCommissioning_1:
        MOV       A,#0x3f
        ANL       A,?V0
        MOV       R6,A
        MOV       DPTR,#bdbAttributes + 11
        MOVX      A,@DPTR
        ORL       A,R6
        MOVX      @DPTR,A
//  869   
//  870   
//  871   //Start processing the initialization, once per power cycle.
//  872   if(!bdb_initialization)
        MOV       DPTR,#bdb_initialization
        MOVX      A,@DPTR
        JZ        $+5
        LJMP      ??bdb_StartCommissioning_4 & 0xFFFF
//  873   {
//  874     bdb_initialization = TRUE;
        MOV       A,#0x1
        MOVX      @DPTR,A
//  875     
//  876 #ifdef BDB_REPORTING
//  877     //Delete NV data if startup was with factory reset
//  878     if(ZDO_INITDEV_NEW_NETWORK_STATE == ZDApp_ReadNetworkRestoreState())
        ; Setup parameters for call to function ZDApp_ReadNetworkRestoreState
        LCALL     `??ZDApp_ReadNetworkRestoreState::?relay`; Banked call to: ZDApp_ReadNetworkRestoreState
        MOV       A,R1
        XRL       A,#0x1
        JNZ       ??bdb_StartCommissioning_5
//  879     {
//  880       //Factory reset bdb reporting NV data
//  881       uint16 attrRepNvLen = osal_nv_item_len( ZCD_NV_BDBREPORTINGCONFIG );
        ; Setup parameters for call to function osal_nv_item_len
        MOV       R2,#0x56
        MOV       R3,#0x0
        LCALL     `??osal_nv_item_len::?relay`; Banked call to: osal_nv_item_len
        MOV       ?V2,R2
        MOV       ?V3,R3
        MOV       R4,?V2
        MOV       R5,?V3
//  882       if ( attrRepNvLen > 0 )
        MOV       A,R4
        ORL       A,R5
        JZ        ??bdb_StartCommissioning_5
//  883       {
//  884         osal_nv_delete( ZCD_NV_BDBREPORTINGCONFIG, attrRepNvLen );
        ; Setup parameters for call to function osal_nv_delete
        MOV       R2,#0x56
        MOV       R3,#0x0
        LCALL     `??osal_nv_delete::?relay`; Banked call to: osal_nv_delete
//  885       }
//  886     }
//  887 
//  888     //Construct the Endpoint-cluster array
//  889     bdb_RepConstructReportingData();
??bdb_StartCommissioning_5:
        ; Setup parameters for call to function bdb_RepConstructReportingData
        LCALL     `??bdb_RepConstructReportingData::?relay`; Banked call to: bdb_RepConstructReportingData
//  890 #endif //BDB_REPORTING
//  891     
//  892     osal_nv_read(ZCD_NV_BDBNODEISONANETWORK,0,sizeof(bdbAttributes.bdbNodeIsOnANetwork),&bdbAttributes.bdbNodeIsOnANetwork);
        ; Setup parameters for call to function osal_nv_read
        MOV       ?V2,#(bdbAttributes + 14) & 0xff
        MOV       ?V3,#((bdbAttributes + 14) >> 8) & 0xff
        MOV       R0,#?V2
        LCALL     ?PUSH_XSTACK_I_TWO
          CFI CFA_XSP16 add(XSP16, 99)
        MOV       ?V2,#0x1
        MOV       ?V3,#0x0
        MOV       R0,#?V2
        LCALL     ?PUSH_XSTACK_I_TWO
          CFI CFA_XSP16 add(XSP16, 101)
        MOV       R4,#0x0
        MOV       R5,#0x0
        MOV       R2,#0x55
        MOV       R3,#0x0
        LCALL     `??osal_nv_read::?relay`; Banked call to: osal_nv_read
        MOV       A,#0x4
        LCALL     ?DEALLOC_XSTACK8
          CFI CFA_XSP16 add(XSP16, 97)
//  893     
//  894     // NV
//  895     extern void HalUARTWrite(uint8 port, uint8 *buf, uint16 len);
//  896     uint8 nvMsg[] = "NV read: ";
        MOV       DPTR,#`?<Constant "NV read: ">`
        MOV       A,#0x18
        LCALL     ?XSTACK_DISP102_8
        MOV       A,#0xa
        LCALL     ?MOVE_LONG8_XDATA_XDATA
//  897     HalUARTWrite(0, nvMsg, sizeof(nvMsg)-1);
        ; Setup parameters for call to function HalUARTWrite
        MOV       R4,#0x9
        MOV       R5,A
        MOV       A,#0x18
        LCALL     ?XSTACK_DISP101_8
        MOV       R1,#0x0
        LCALL     `??HalUARTWrite::?relay`; Banked call to: HalUARTWrite
//  898     uint8 statusMsg[4];
//  899     statusMsg[0] = '0' + bdbAttributes.bdbNodeIsOnANetwork;
        MOV       DPTR,#bdbAttributes + 14
        MOVX      A,@DPTR
        ADD       A,#0x30
        PUSH      A
          CFI CFA_SP SP+-1
        MOV       A,#0x1
        LCALL     ?XSTACK_DISP0_8
        POP       A
          CFI CFA_SP SP+0
        MOVX      @DPTR,A
//  900     statusMsg[1] = '\r';
        MOV       A,#0x2
        LCALL     ?XSTACK_DISP0_8
        MOV       A,#0xd
        MOVX      @DPTR,A
//  901     statusMsg[2] = '\n';
        MOV       A,#0x3
        LCALL     ?XSTACK_DISP0_8
        MOV       A,#0xa
        MOVX      @DPTR,A
//  902     HalUARTWrite(0, statusMsg, 3);
        ; Setup parameters for call to function HalUARTWrite
        MOV       R4,#0x3
        MOV       R5,#0x0
        MOV       A,#0x1
        LCALL     ?XSTACK_DISP101_8
        MOV       R1,#0x0
        LCALL     `??HalUARTWrite::?relay`; Banked call to: HalUARTWrite
//  903     
//  904     //Are we on a network
//  905     if(bdbAttributes.bdbNodeIsOnANetwork == TRUE)
        MOV       DPTR,#bdbAttributes + 14
        MOVX      A,@DPTR
        XRL       A,#0x1
        JZ        $+5
        LJMP      ??bdb_StartCommissioning_4 & 0xFFFF
//  906     {
//  907 #ifdef ZG_BUILD_JOINING_TYPE
//  908       //Only for joining devices validate the joining procedure
//  909       if(ZG_DEVICE_JOINING_TYPE)
        MOV       DPTR,#zgDeviceLogicalType
        MOVX      A,@DPTR
        XRL       A,#0x1
        JZ        ??bdb_StartCommissioning_6
        MOVX      A,@DPTR
        XRL       A,#0x2
        JZ        $+5
        LJMP      ??bdb_StartCommissioning_7 & 0xFFFF
//  910       {
//  911         //If we got into a network
//  912         if(!osal_isbufset( AIB_apsTrustCenterAddress, 0x00, Z_EXTADDR_LEN ))
??bdb_StartCommissioning_6:
        ; Setup parameters for call to function osal_isbufset
        MOV       R4,#0x8
        MOV       R1,#0x0
        MOV       DPTR,#AIB_apsTrustCenterAddress
        LCALL     ??Subroutine45_0 & 0xFFFF
??CrossCallReturnLabel_84:
        LCALL     `??osal_isbufset::?relay`; Banked call to: osal_isbufset
        MOV       A,R1
        JZ        $+5
        LJMP      ??bdb_StartCommissioning_7 & 0xFFFF
//  913         {
//  914           //Which is not distributed
//  915           if(!APSME_IsDistributedSecurity())
        ; Setup parameters for call to function APSME_IsDistributedSecurity
        LCALL     `??APSME_IsDistributedSecurity::?relay`; Banked call to: APSME_IsDistributedSecurity
        MOV       A,R1
        JZ        $+5
        LJMP      ??bdb_StartCommissioning_7 & 0xFFFF
//  916           {
//  917             uint8 keyAttributes;
//  918             osal_nv_read(ZCD_NV_TCLK_TABLE_START, osal_offsetof(APSME_TCLKDevEntry_t,keyAttributes), sizeof(uint8), &keyAttributes);
        ; Setup parameters for call to function osal_nv_read
        MOV       R0,?XSP + 0
        MOV       R1,?XSP + 1
        MOV       ?V2,R0
        MOV       ?V3,R1
        MOV       R0,#?V2
        LCALL     ?PUSH_XSTACK_I_TWO
          CFI CFA_XSP16 add(XSP16, 99)
        MOV       ?V2,#0x1
        MOV       ?V3,#0x0
        MOV       R0,#?V2
        LCALL     ?PUSH_XSTACK_I_TWO
          CFI CFA_XSP16 add(XSP16, 101)
        MOV       R4,#0x10
        MOV       R5,#0x0
        MOV       R2,#0x11
        MOV       R3,#0x1
        LCALL     `??osal_nv_read::?relay`; Banked call to: osal_nv_read
        MOV       A,#0x4
        LCALL     ?DEALLOC_XSTACK8
          CFI CFA_XSP16 add(XSP16, 97)
//  919             //If we must perform the TCLK exchange and we didn't complete it, then reset to FN
//  920             if(requestNewTrustCenterLinkKey && (keyAttributes != ZG_NON_R21_NWK_JOINED) && (keyAttributes != ZG_VERIFIED_KEY))
        MOV       DPTR,#requestNewTrustCenterLinkKey
        MOVX      A,@DPTR
        JNZ       $+5
        LJMP      ??bdb_StartCommissioning_7 & 0xFFFF
        MOV       DPL,?XSP + 0
        MOV       DPH,?XSP + 1
        MOVX      A,@DPTR
        XRL       A,#0xfd
        JNZ       $+5
        LJMP      ??bdb_StartCommissioning_7 & 0xFFFF
        MOVX      A,@DPTR
        XRL       A,#0x2
        JZ        ??bdb_StartCommissioning_7
//  921             {
//  922               //Force to initialize the entry
//  923               APSME_TCLKDevEntry_t APSME_TCLKDevEntry;
//  924               
//  925               osal_memset(&APSME_TCLKDevEntry,0,sizeof(APSME_TCLKDevEntry_t));
        ; Setup parameters for call to function osal_memset
        MOV       R4,#0x13
        MOV       R5,#0x0
        MOV       R1,#0x0
        MOV       A,#0x5
        LCALL     ?XSTACK_DISP101_8
        LCALL     `??osal_memset::?relay`; Banked call to: osal_memset
//  926               APSME_TCLKDevEntry.keyAttributes = ZG_DEFAULT_KEY;
        MOV       A,#0x15
        LCALL     ?XSTACK_DISP0_8
        MOV       A,#-0x1
        MOVX      @DPTR,A
//  927               osal_nv_write(ZCD_NV_TCLK_TABLE_START, 0, sizeof(APSME_TCLKDevEntry_t), &APSME_TCLKDevEntry);
        ; Setup parameters for call to function osal_nv_write
        MOV       A,#0x5
        LCALL     ?XSTACK_DISP100_8
        MOV       ?V2,R0
        MOV       ?V3,R1
        MOV       R0,#?V2
        LCALL     ?PUSH_XSTACK_I_TWO
          CFI CFA_XSP16 add(XSP16, 99)
        MOV       ?V2,#0x13
        MOV       ?V3,#0x0
        MOV       R0,#?V2
        LCALL     ?PUSH_XSTACK_I_TWO
          CFI CFA_XSP16 add(XSP16, 101)
        MOV       R4,#0x0
        MOV       R5,#0x0
        MOV       R2,#0x11
        MOV       R3,#0x1
        LCALL     `??osal_nv_write::?relay`; Banked call to: osal_nv_write
        MOV       A,#0x4
        LCALL     ?DEALLOC_XSTACK8
          CFI CFA_XSP16 add(XSP16, 97)
//  928               TCLinkKeyFrmCntr[0].txFrmCntr = 0;
        MOV       DPTR,#TCLinkKeyFrmCntr
        LCALL     ?Subroutine9 & 0xFFFF
//  929               TCLinkKeyFrmCntr[0].rxFrmCntr = 0;
??CrossCallReturnLabel_44:
        INC       DPTR
        LCALL     ??Subroutine32_0 & 0xFFFF
//  930               
//  931               
//  932               //reset the device parameters to FN
//  933               bdbAttributes.bdbNodeIsOnANetwork = FALSE;
??CrossCallReturnLabel_42:
        MOV       DPTR,#bdbAttributes + 14
        MOVX      @DPTR,A
//  934               osal_nv_write(ZCD_NV_BDBNODEISONANETWORK,0,sizeof(bdbAttributes.bdbNodeIsOnANetwork),&bdbAttributes.bdbNodeIsOnANetwork);
        ; Setup parameters for call to function osal_nv_write
        MOV       ?V2,#(bdbAttributes + 14) & 0xff
        MOV       ?V3,#((bdbAttributes + 14) >> 8) & 0xff
        MOV       R0,#?V2
        LCALL     ?PUSH_XSTACK_I_TWO
          CFI CFA_XSP16 add(XSP16, 99)
        MOV       ?V2,#0x1
        MOV       ?V3,#0x0
        MOV       R0,#?V2
        LCALL     ?PUSH_XSTACK_I_TWO
          CFI CFA_XSP16 add(XSP16, 101)
        MOV       R4,#0x0
        MOV       R5,#0x0
        MOV       R2,#0x55
        MOV       R3,#0x0
        LCALL     `??osal_nv_write::?relay`; Banked call to: osal_nv_write
        MOV       A,#0x4
        LCALL     ?DEALLOC_XSTACK8
          CFI CFA_XSP16 add(XSP16, 97)
//  935               zgWriteStartupOptions(ZG_STARTUP_SET, ZCD_STARTOPT_DEFAULT_CONFIG_STATE | ZCD_STARTOPT_DEFAULT_NETWORK_STATE);
        ; Setup parameters for call to function zgWriteStartupOptions
        MOV       R2,#0x3
        MOV       R1,#-0x1
        LCALL     `??zgWriteStartupOptions::?relay`; Banked call to: zgWriteStartupOptions
//  936               
//  937               //Then start the commissioning process requested
//  938               bdbCommissioningProcedureState.bdbCommissioningState = BDB_COMMISSIONING_STATE_START_RESUME;
        SJMP      ??bdb_StartCommissioning_8
//  939               osal_set_event( bdb_TaskID, BDB_CHANGE_COMMISSIONING_STATE );
//  940               return;
//  941             }
//  942           }
//  943         }
//  944       }
//  945 #endif //ZG_BUILD_JOINING_TYPE
//  946       
//  947       //Set the initialization
//  948       bdbAttributes.bdbCommissioningMode |= BDB_COMMISSIONING_MODE_INITIALIZATION;
//  949       bdbCommissioningProcedureState.bdbCommissioningState = BDB_INITIALIZATION;
??bdb_StartCommissioning_7:
        MOV       DPTR,#bdbCommissioningProcedureState
        MOV       A,#0x7
        MOVX      @DPTR,A
//  950       bdbAttributes.bdbCommissioningMode |= mode & BDB_COMMISSIONING_MODES;
        MOV       A,#0x10
        ORL       A,R6
        MOV       R0,A
        MOV       DPTR,#bdbAttributes + 11
        MOVX      A,@DPTR
        ORL       A,R0
        MOVX      @DPTR,A
//  951       
//  952       if(ZDOInitDevice(0) == ZDO_INITDEV_RESTORED_NETWORK_STATE)
        ; Setup parameters for call to function ZDOInitDeviceEx
        MOV       R1,#0x0
        MOV       R2,#0x0
        MOV       R3,#0x0
        LCALL     `??ZDOInitDeviceEx::?relay`; Banked call to: ZDOInitDeviceEx
        MOV       A,R1
        JNZ       ??bdb_StartCommissioning_9
//  953       {
//  954 #ifdef BDB_REPORTING
//  955         //Mark the clusterEndpoint entries that have binding, starts reporting if at least one entry was marked
//  956         bdb_RepUpdateMarkBindings();
        ; Setup parameters for call to function bdb_RepUpdateMarkBindings
        LCALL     `??bdb_RepUpdateMarkBindings::?relay`; Banked call to: bdb_RepUpdateMarkBindings
//  957 #endif
//  958         return;
        SJMP      ??bdb_StartCommissioning_3
//  959       }
//  960       bdb_setNodeIsOnANetwork(FALSE);  
??bdb_StartCommissioning_9:
        ; Setup parameters for call to function bdb_setNodeIsOnANetwork
        MOV       R1,#0x0
        LCALL     `??bdb_setNodeIsOnANetwork::?relay`; Banked call to: bdb_setNodeIsOnANetwork
//  961       //Not in the network
//  962       bdb_reportCommissioningState(BDB_INITIALIZATION,FALSE);
        ; Setup parameters for call to function bdb_reportCommissioningState
        MOV       R2,#0x0
        MOV       R1,#0x7
        SJMP      ??bdb_StartCommissioning_10
//  963       return;
//  964     }
//  965   }
//  966 
//  967   //Got requested only to initialize, if so, report that it failed
//  968   if(bdbAttributes.bdbCommissioningMode == 0)
??bdb_StartCommissioning_4:
        MOV       DPTR,#bdbAttributes + 11
        MOVX      A,@DPTR
        JNZ       ??bdb_StartCommissioning_8
//  969   {
//  970     // bdbCommissioningMode
//  971     uint8 debugMsg[] = "bdbCommissioningMode == 0, \r\n";
        MOV       DPTR,#`?<Constant "bdbCommissioningMode ...">`
        MOV       A,#0x22
        LCALL     ?XSTACK_DISP102_8
        MOV       A,#0x33
        LCALL     ?MOVE_LONG8_XDATA_XDATA
//  972     HalUARTWrite(0, debugMsg, sizeof(debugMsg)-1);
        ; Setup parameters for call to function HalUARTWrite
        MOV       R4,#0x32
        MOV       R5,A
        MOV       A,#0x22
        LCALL     ?XSTACK_DISP101_8
        MOV       R1,#0x0
        LCALL     `??HalUARTWrite::?relay`; Banked call to: HalUARTWrite
//  973     
//  974     //Set the initialization state and report it to fail
//  975     bdbCommissioningProcedureState.bdbCommissioningState = BDB_INITIALIZATION;
        MOV       DPTR,#bdbCommissioningProcedureState
        MOV       A,#0x7
        MOVX      @DPTR,A
//  976     bdb_reportCommissioningState(BDB_INITIALIZATION,FALSE);
        ; Setup parameters for call to function bdb_reportCommissioningState
        MOV       R2,#0x0
        MOV       R1,A
??bdb_StartCommissioning_10:
        LCALL     `??bdb_reportCommissioningState::?relay`; Banked call to: bdb_reportCommissioningState
//  977     return;
        SJMP      ??bdb_StartCommissioning_3
//  978   }
//  979 
//  980   
//  981   //Start the commissioning process
//  982   bdbCommissioningProcedureState.bdbCommissioningState = BDB_COMMISSIONING_STATE_START_RESUME;
??bdb_StartCommissioning_8:
        MOV       DPTR,#bdbCommissioningProcedureState
        CLR       A
        MOVX      @DPTR,A
//  983   osal_set_event( bdb_TaskID, BDB_CHANGE_COMMISSIONING_STATE );
        ; Setup parameters for call to function osal_set_event
        MOV       R2,#0x4
        MOV       R3,A
        MOV       DPTR,#bdb_TaskID
        MOVX      A,@DPTR
        MOV       R1,A
        LCALL     `??osal_set_event::?relay`; Banked call to: osal_set_event
//  984 }
??bdb_StartCommissioning_3:
        MOV       A,#0x55
        LJMP      ??Subroutine36_0 & 0xFFFF
          CFI EndBlock cfiBlock67

        RSEG BANKED_CODE:HUGECODE:NOROOT(0)
?Subroutine9:
          CFI Block cfiCond68 Using cfiCommon0
          CFI Function bdb_TCProcessJoiningList
          CFI Conditional ??CrossCallReturnLabel_43
          CFI R6 load(1, XDATA, add(CFA_XSP16, literal(-15)))
          CFI VB load(1, XDATA, add(CFA_XSP16, literal(-14)))
          CFI V0 load(1, XDATA, add(CFA_XSP16, literal(-13)))
          CFI V1 load(1, XDATA, add(CFA_XSP16, literal(-12)))
          CFI V2 load(1, XDATA, add(CFA_XSP16, literal(-11)))
          CFI V3 load(1, XDATA, add(CFA_XSP16, literal(-10)))
          CFI V4 load(1, XDATA, add(CFA_XSP16, literal(-9)))
          CFI V5 load(1, XDATA, add(CFA_XSP16, literal(-8)))
          CFI V6 load(1, XDATA, add(CFA_XSP16, literal(-7)))
          CFI R7 load(1, XDATA, add(CFA_XSP16, literal(-6)))
          CFI ?RET_LOW load(1, XDATA, add(CFA_XSP16, literal(-5)))
          CFI ?RET_HIGH load(1, XDATA, add(CFA_XSP16, literal(-4)))
          CFI ?BRET_EXT load(1, XDATA, add(CFA_XSP16, literal(-3)))
          CFI DPL0 load(1, XDATA, add(CFA_XSP16, literal(-2)))
          CFI DPH0 load(1, XDATA, add(CFA_XSP16, literal(-1)))
          CFI CFA_SP SP+-2
          CFI CFA_XSP16 add(XSP16, 57)
          CFI Block cfiCond69 Using cfiCommon0
          CFI (cfiCond69) Function bdb_StartCommissioning
          CFI (cfiCond69) Conditional ??CrossCallReturnLabel_44
          CFI (cfiCond69) R6 load(1, XDATA, add(CFA_XSP16, literal(-12)))
          CFI (cfiCond69) VB load(1, XDATA, add(CFA_XSP16, literal(-11)))
          CFI (cfiCond69) V0 load(1, XDATA, add(CFA_XSP16, literal(-10)))
          CFI (cfiCond69) V1 load(1, XDATA, add(CFA_XSP16, literal(-9)))
          CFI (cfiCond69) V2 load(1, XDATA, add(CFA_XSP16, literal(-8)))
          CFI (cfiCond69) V3 load(1, XDATA, add(CFA_XSP16, literal(-7)))
          CFI (cfiCond69) R7 load(1, XDATA, add(CFA_XSP16, literal(-6)))
          CFI (cfiCond69) ?RET_LOW load(1, XDATA, add(CFA_XSP16, literal(-5)))
          CFI (cfiCond69) ?RET_HIGH load(1, XDATA, add(CFA_XSP16, literal(-4)))
          CFI (cfiCond69) ?BRET_EXT load(1, XDATA, add(CFA_XSP16, literal(-3)))
          CFI (cfiCond69) DPL0 load(1, XDATA, add(CFA_XSP16, literal(-2)))
          CFI (cfiCond69) DPH0 load(1, XDATA, add(CFA_XSP16, literal(-1)))
          CFI (cfiCond69) CFA_SP SP+-2
          CFI (cfiCond69) CFA_XSP16 add(XSP16, 97)
          CFI Block cfiPicker70 Using cfiCommon1
          CFI (cfiPicker70) NoFunction
          CFI (cfiPicker70) Picker
        CLR       A
          CFI EndBlock cfiCond68
          CFI EndBlock cfiCond69
          CFI EndBlock cfiPicker70
        REQUIRE ??Subroutine32_0
        ; // Fall through to label ??Subroutine32_0

        RSEG BANKED_CODE:HUGECODE:NOROOT(0)
??Subroutine32_0:
          CFI Block cfiCond71 Using cfiCommon0
          CFI Function bdb_TCProcessJoiningList
          CFI Conditional ??CrossCallReturnLabel_41
          CFI R6 load(1, XDATA, add(CFA_XSP16, literal(-15)))
          CFI VB load(1, XDATA, add(CFA_XSP16, literal(-14)))
          CFI V0 load(1, XDATA, add(CFA_XSP16, literal(-13)))
          CFI V1 load(1, XDATA, add(CFA_XSP16, literal(-12)))
          CFI V2 load(1, XDATA, add(CFA_XSP16, literal(-11)))
          CFI V3 load(1, XDATA, add(CFA_XSP16, literal(-10)))
          CFI V4 load(1, XDATA, add(CFA_XSP16, literal(-9)))
          CFI V5 load(1, XDATA, add(CFA_XSP16, literal(-8)))
          CFI V6 load(1, XDATA, add(CFA_XSP16, literal(-7)))
          CFI R7 load(1, XDATA, add(CFA_XSP16, literal(-6)))
          CFI ?RET_LOW load(1, XDATA, add(CFA_XSP16, literal(-5)))
          CFI ?RET_HIGH load(1, XDATA, add(CFA_XSP16, literal(-4)))
          CFI ?BRET_EXT load(1, XDATA, add(CFA_XSP16, literal(-3)))
          CFI DPL0 load(1, XDATA, add(CFA_XSP16, literal(-2)))
          CFI DPH0 load(1, XDATA, add(CFA_XSP16, literal(-1)))
          CFI CFA_SP SP+-2
          CFI CFA_XSP16 add(XSP16, 57)
          CFI Block cfiCond72 Using cfiCommon0
          CFI (cfiCond72) Function bdb_StartCommissioning
          CFI (cfiCond72) Conditional ??CrossCallReturnLabel_42
          CFI (cfiCond72) R6 load(1, XDATA, add(CFA_XSP16, literal(-12)))
          CFI (cfiCond72) VB load(1, XDATA, add(CFA_XSP16, literal(-11)))
          CFI (cfiCond72) V0 load(1, XDATA, add(CFA_XSP16, literal(-10)))
          CFI (cfiCond72) V1 load(1, XDATA, add(CFA_XSP16, literal(-9)))
          CFI (cfiCond72) V2 load(1, XDATA, add(CFA_XSP16, literal(-8)))
          CFI (cfiCond72) V3 load(1, XDATA, add(CFA_XSP16, literal(-7)))
          CFI (cfiCond72) R7 load(1, XDATA, add(CFA_XSP16, literal(-6)))
          CFI (cfiCond72) ?RET_LOW load(1, XDATA, add(CFA_XSP16, literal(-5)))
          CFI (cfiCond72) ?RET_HIGH load(1, XDATA, add(CFA_XSP16, literal(-4)))
          CFI (cfiCond72) ?BRET_EXT load(1, XDATA, add(CFA_XSP16, literal(-3)))
          CFI (cfiCond72) DPL0 load(1, XDATA, add(CFA_XSP16, literal(-2)))
          CFI (cfiCond72) DPH0 load(1, XDATA, add(CFA_XSP16, literal(-1)))
          CFI (cfiCond72) CFA_SP SP+-2
          CFI (cfiCond72) CFA_XSP16 add(XSP16, 97)
          CFI Block cfiCond73 Using cfiCommon0
          CFI (cfiCond73) Function bdb_TCProcessJoiningList
          CFI (cfiCond73) Conditional ??CrossCallReturnLabel_43
          CFI (cfiCond73) R6 load(1, XDATA, add(CFA_XSP16, literal(-15)))
          CFI (cfiCond73) VB load(1, XDATA, add(CFA_XSP16, literal(-14)))
          CFI (cfiCond73) V0 load(1, XDATA, add(CFA_XSP16, literal(-13)))
          CFI (cfiCond73) V1 load(1, XDATA, add(CFA_XSP16, literal(-12)))
          CFI (cfiCond73) V2 load(1, XDATA, add(CFA_XSP16, literal(-11)))
          CFI (cfiCond73) V3 load(1, XDATA, add(CFA_XSP16, literal(-10)))
          CFI (cfiCond73) V4 load(1, XDATA, add(CFA_XSP16, literal(-9)))
          CFI (cfiCond73) V5 load(1, XDATA, add(CFA_XSP16, literal(-8)))
          CFI (cfiCond73) V6 load(1, XDATA, add(CFA_XSP16, literal(-7)))
          CFI (cfiCond73) R7 load(1, XDATA, add(CFA_XSP16, literal(-6)))
          CFI (cfiCond73) ?RET_LOW load(1, XDATA, add(CFA_XSP16, literal(-5)))
          CFI (cfiCond73) ?RET_HIGH load(1, XDATA, add(CFA_XSP16, literal(-4)))
          CFI (cfiCond73) ?BRET_EXT load(1, XDATA, add(CFA_XSP16, literal(-3)))
          CFI (cfiCond73) DPL0 load(1, XDATA, add(CFA_XSP16, literal(-2)))
          CFI (cfiCond73) DPH0 load(1, XDATA, add(CFA_XSP16, literal(-1)))
          CFI (cfiCond73) CFA_SP SP+-2
          CFI (cfiCond73) CFA_XSP16 add(XSP16, 57)
          CFI Block cfiCond74 Using cfiCommon0
          CFI (cfiCond74) Function bdb_StartCommissioning
          CFI (cfiCond74) Conditional ??CrossCallReturnLabel_44
          CFI (cfiCond74) R6 load(1, XDATA, add(CFA_XSP16, literal(-12)))
          CFI (cfiCond74) VB load(1, XDATA, add(CFA_XSP16, literal(-11)))
          CFI (cfiCond74) V0 load(1, XDATA, add(CFA_XSP16, literal(-10)))
          CFI (cfiCond74) V1 load(1, XDATA, add(CFA_XSP16, literal(-9)))
          CFI (cfiCond74) V2 load(1, XDATA, add(CFA_XSP16, literal(-8)))
          CFI (cfiCond74) V3 load(1, XDATA, add(CFA_XSP16, literal(-7)))
          CFI (cfiCond74) R7 load(1, XDATA, add(CFA_XSP16, literal(-6)))
          CFI (cfiCond74) ?RET_LOW load(1, XDATA, add(CFA_XSP16, literal(-5)))
          CFI (cfiCond74) ?RET_HIGH load(1, XDATA, add(CFA_XSP16, literal(-4)))
          CFI (cfiCond74) ?BRET_EXT load(1, XDATA, add(CFA_XSP16, literal(-3)))
          CFI (cfiCond74) DPL0 load(1, XDATA, add(CFA_XSP16, literal(-2)))
          CFI (cfiCond74) DPH0 load(1, XDATA, add(CFA_XSP16, literal(-1)))
          CFI (cfiCond74) CFA_SP SP+-2
          CFI (cfiCond74) CFA_XSP16 add(XSP16, 97)
          CFI Block cfiPicker75 Using cfiCommon1
          CFI (cfiPicker75) NoFunction
          CFI (cfiPicker75) Picker
        MOVX      @DPTR,A
        INC       DPTR
        MOVX      @DPTR,A
        INC       DPTR
        MOVX      @DPTR,A
        INC       DPTR
        MOVX      @DPTR,A
        RET
          CFI EndBlock cfiCond71
          CFI EndBlock cfiCond72
          CFI EndBlock cfiCond73
          CFI EndBlock cfiCond74
          CFI EndBlock cfiPicker75
//  985 
//  986 
//  987  /*********************************************************************
//  988  * @fn          bdb_NotifyCommissioningModeStart
//  989  *
//  990  * @brief       Notify the user about a commissioning method just started
//  991  *
//  992  * @param       commissioningMode
//  993  *
//  994  * @return      none
//  995  */

        RSEG BANKED_CODE:HUGECODE:NOROOT(0)
//  996 void bdb_NotifyCommissioningModeStart(uint8 commissioningMode)
bdb_NotifyCommissioningModeStart:
          CFI Block cfiBlock76 Using cfiCommon0
          CFI Function bdb_NotifyCommissioningModeStart
        CODE
//  997 {
        FUNCALL bdb_NotifyCommissioningModeStart, bdb_SendMsg
        LOCFRAME ISTACK, 0, STACK
        LOCFRAME PSTACK, 0, STACK
        LOCFRAME XSTACK, 15, STACK
        LOCFRAME IOVERLAY, 0, STATIC
        LOCFRAME DOVERLAY, 0, STATIC
        ARGFRAME ISTACK, 0, STACK
        ARGFRAME PSTACK, 0, STACK
        ARGFRAME XSTACK, 15, STACK
        ARGFRAME IOVERLAY, 0, STATIC
        ARGFRAME DOVERLAY, 0, STATIC
        REQUIRE ?V0
        REQUIRE ?V1
        MOV       A,#-0xa
        LCALL     ?BANKED_ENTER_XDATA
          CFI DPH0 load(1, XDATA, add(CFA_XSP16, literal(-1)))
          CFI DPL0 load(1, XDATA, add(CFA_XSP16, literal(-2)))
          CFI ?BRET_EXT load(1, XDATA, add(CFA_XSP16, literal(-3)))
          CFI ?RET_HIGH load(1, XDATA, add(CFA_XSP16, literal(-4)))
          CFI ?RET_LOW load(1, XDATA, add(CFA_XSP16, literal(-5)))
          CFI R7 load(1, XDATA, add(CFA_XSP16, literal(-6)))
          CFI V1 load(1, XDATA, add(CFA_XSP16, literal(-7)))
          CFI V0 load(1, XDATA, add(CFA_XSP16, literal(-8)))
          CFI VB load(1, XDATA, add(CFA_XSP16, literal(-9)))
          CFI R6 load(1, XDATA, add(CFA_XSP16, literal(-10)))
          CFI CFA_SP SP+0
          CFI CFA_XSP16 add(XSP16, 10)
        ; Saved register size: 10
        ; Auto size: 3
        MOV       A,#-0x3
        LCALL     ?ALLOC_XSTACK8
          CFI CFA_XSP16 add(XSP16, 13)
//  998   bdbCommissioningModeMsg_t bdbCommissioningModeMsg;
//  999 
// 1000   bdbCommissioningModeMsg.bdbCommissioningMode = commissioningMode;
        MOV       A,#0x1
        LCALL     ?XSTACK_DISP0_8
        MOV       A,R1
        MOVX      @DPTR,A
// 1001   bdbCommissioningModeMsg.bdbCommissioningStatus = BDB_COMMISSIONING_IN_PROGRESS;
        LCALL     ?Subroutine8 & 0xFFFF
// 1002   //Remaining commissioning modes are set just before the call to the application to avoid race conditions
// 1003 
// 1004   bdb_NotifyApp((uint8*)&bdbCommissioningModeMsg);
??CrossCallReturnLabel_37:
        LCALL     ?PUSH_XSTACK_I_TWO
          CFI CFA_XSP16 add(XSP16, 15)
        MOV       R4,#0x3
        MOV       R3,#0x0
        MOV       R2,#0xa
        MOV       DPTR,#bdb_TaskID
        MOVX      A,@DPTR
        MOV       R1,A
        LCALL     `??bdb_SendMsg::?relay`; Banked call to: bdb_SendMsg
        MOV       A,#0x2
        LCALL     ?DEALLOC_XSTACK8
          CFI CFA_XSP16 add(XSP16, 13)
// 1005 }
        MOV       A,#0x3
        LJMP      ?Subroutine1 & 0xFFFF
          CFI EndBlock cfiBlock76
// 1006 
// 1007 
// 1008 
// 1009 #if (ZG_BUILD_JOINING_TYPE)
// 1010  /*********************************************************************
// 1011  * @fn          bdb_setNodeJoinLinkKeyType
// 1012  *
// 1013  * @brief       Set the key type in use in the network joined. Global centralized key is used by default
// 1014  *
// 1015  * @param       none
// 1016  *
// 1017  * @return      none
// 1018  */
// 1019 void bdb_setNodeJoinLinkKeyType(uint8 KeyType)
// 1020 {
// 1021   bdbAttributes.bdbNodeJoinLinkKeyType = KeyType;
// 1022 }
// 1023 #endif
// 1024 
// 1025  /*********************************************************************
// 1026  * @fn          bdb_setFN
// 1027  *
// 1028  * @brief       Set configuration for FN. This FN configuration will be perfome 
// 1029  *              upon call to ZDOInitDevice
// 1030  *
// 1031  * @param       none
// 1032  *
// 1033  * @return      none
// 1034  */

        RSEG BANKED_CODE:HUGECODE:NOROOT(0)
// 1035 void bdb_setFN(void)
bdb_setFN:
          CFI Block cfiBlock77 Using cfiCommon0
          CFI Function bdb_setFN
        CODE
// 1036 {
        FUNCALL bdb_setFN, bdb_setNodeIsOnANetwork
        LOCFRAME ISTACK, 2, STACK
        LOCFRAME PSTACK, 0, STACK
        LOCFRAME XSTACK, 0, STACK
        LOCFRAME IOVERLAY, 0, STATIC
        LOCFRAME DOVERLAY, 0, STATIC
        ARGFRAME ISTACK, 2, STACK
        ARGFRAME PSTACK, 0, STACK
        ARGFRAME XSTACK, 0, STACK
        ARGFRAME IOVERLAY, 0, STATIC
        ARGFRAME DOVERLAY, 0, STATIC
        FUNCALL bdb_setFN, zgWriteStartupOptions
        LOCFRAME ISTACK, 2, STACK
        LOCFRAME PSTACK, 0, STACK
        LOCFRAME XSTACK, 0, STACK
        LOCFRAME IOVERLAY, 0, STATIC
        LOCFRAME DOVERLAY, 0, STATIC
        ARGFRAME ISTACK, 2, STACK
        ARGFRAME PSTACK, 0, STACK
        ARGFRAME XSTACK, 0, STACK
        ARGFRAME IOVERLAY, 0, STATIC
        ARGFRAME DOVERLAY, 0, STATIC
        PUSH      DPL
          CFI DPL0 Frame(CFA_SP, 4)
          CFI CFA_SP SP+-4
        PUSH      DPH
          CFI DPH0 Frame(CFA_SP, 5)
          CFI CFA_SP SP+-5
        ; Saved register size: 2
        ; Auto size: 0
// 1037   bdb_setNodeIsOnANetwork(FALSE);
        ; Setup parameters for call to function bdb_setNodeIsOnANetwork
        MOV       R1,#0x0
        LCALL     `??bdb_setNodeIsOnANetwork::?relay`; Banked call to: bdb_setNodeIsOnANetwork
// 1038 
// 1039 #if defined ( INTER_PAN ) && defined ( BDB_TL_INITIATOR )
// 1040     touchLink_InitFreeRanges( TRUE );
// 1041     touchLink_UpdateNV( TOUCHLINK_UPDATE_NV_RANGES );
// 1042 #endif
// 1043 #if defined ( INTER_PAN ) && defined ( BDB_TL_TARGET ) 
// 1044     touchLink_InitFreeRanges( FALSE );
// 1045     touchLink_UpdateNV( TOUCHLINK_UPDATE_NV_RANGES );
// 1046 #endif
// 1047 
// 1048   //Set the device as factory new
// 1049   zgWriteStartupOptions(ZG_STARTUP_SET, ZCD_STARTOPT_DEFAULT_CONFIG_STATE | ZCD_STARTOPT_DEFAULT_NETWORK_STATE);
        ; Setup parameters for call to function zgWriteStartupOptions
        MOV       R2,#0x3
        MOV       R1,#-0x1
        LCALL     `??zgWriteStartupOptions::?relay`; Banked call to: zgWriteStartupOptions
// 1050 }
        SJMP      ??Subroutine34_0
          CFI EndBlock cfiBlock77
// 1051 
// 1052  /*********************************************************************
// 1053  * @fn          bdb_resetLocalAction
// 1054  *
// 1055  * @brief       Application interface to perform BDB Reset to FN.
// 1056  *
// 1057  * @param       none
// 1058  *
// 1059  * @return      none
// 1060  */

        RSEG BANKED_CODE:HUGECODE:NOROOT(0)
// 1061 void bdb_resetLocalAction(void)
bdb_resetLocalAction:
          CFI Block cfiBlock78 Using cfiCommon0
          CFI Function bdb_resetLocalAction
        CODE
// 1062 {
        FUNCALL bdb_resetLocalAction, bdb_setFN
        LOCFRAME ISTACK, 2, STACK
        LOCFRAME PSTACK, 0, STACK
        LOCFRAME XSTACK, 0, STACK
        LOCFRAME IOVERLAY, 0, STATIC
        LOCFRAME DOVERLAY, 0, STATIC
        ARGFRAME ISTACK, 2, STACK
        ARGFRAME PSTACK, 0, STACK
        ARGFRAME XSTACK, 0, STACK
        ARGFRAME IOVERLAY, 0, STATIC
        ARGFRAME DOVERLAY, 0, STATIC
        FUNCALL bdb_resetLocalAction, ZDApp_ResetTimerStart
        LOCFRAME ISTACK, 2, STACK
        LOCFRAME PSTACK, 0, STACK
        LOCFRAME XSTACK, 0, STACK
        LOCFRAME IOVERLAY, 0, STATIC
        LOCFRAME DOVERLAY, 0, STATIC
        ARGFRAME ISTACK, 2, STACK
        ARGFRAME PSTACK, 0, STACK
        ARGFRAME XSTACK, 0, STACK
        ARGFRAME IOVERLAY, 0, STATIC
        ARGFRAME DOVERLAY, 0, STATIC
        PUSH      DPL
          CFI DPL0 Frame(CFA_SP, 4)
          CFI CFA_SP SP+-4
        PUSH      DPH
          CFI DPH0 Frame(CFA_SP, 5)
          CFI CFA_SP SP+-5
        ; Saved register size: 2
        ; Auto size: 0
// 1063   //Process reset as nwk leave if the device is on the network and is able to process it
// 1064   if((ZG_BUILD_JOINING_TYPE) && (bdbAttributes.bdbNodeIsOnANetwork) && (!(bdbAttributes.bdbCommissioningMode & BDB_COMMISSIONING_MODE_PARENT_LOST)))
// 1065   {
// 1066     NLME_LeaveReq_t leaveReq;
// 1067     // Set every field to 0
// 1068     osal_memset( &leaveReq, 0, sizeof( NLME_LeaveReq_t ) );
// 1069     
// 1070     bdb_setFN();
// 1071       
// 1072     NLME_LeaveReq( &leaveReq );
// 1073     
// 1074     return;
// 1075   }
// 1076   else
// 1077   {
// 1078     bdb_setFN();
        ; Setup parameters for call to function bdb_setFN
        LCALL     `??bdb_setFN::?relay`; Banked call to: bdb_setFN
// 1079     
// 1080     ZDApp_ResetTimerStart( 500 );
        ; Setup parameters for call to function ZDApp_ResetTimerStart
        MOV       R2,#-0xc
        MOV       R3,#0x1
        LCALL     `??ZDApp_ResetTimerStart::?relay`; Banked call to: ZDApp_ResetTimerStart
// 1081   }
// 1082 }
        SJMP      ??Subroutine34_0
          CFI EndBlock cfiBlock78

        RSEG BANKED_CODE:HUGECODE:NOROOT(0)
?Subroutine3:
          CFI Block cfiBlock79 Using cfiCommon0
          CFI NoFunction
          CFI CFA_SP SP+-5
          CFI DPL0 Frame(CFA_SP, 4)
          CFI DPH0 Frame(CFA_SP, 5)
        MOV       A,R2
        MOVX      @DPTR,A
        INC       DPTR
        MOV       A,R3
          CFI EndBlock cfiBlock79
        REQUIRE ??Subroutine33_0
        ; // Fall through to label ??Subroutine33_0

        RSEG BANKED_CODE:HUGECODE:NOROOT(0)
??Subroutine33_0:
          CFI Block cfiBlock80 Using cfiCommon0
          CFI NoFunction
          CFI CFA_SP SP+-5
          CFI DPL0 Frame(CFA_SP, 4)
          CFI DPH0 Frame(CFA_SP, 5)
        MOVX      @DPTR,A
          CFI EndBlock cfiBlock80
        REQUIRE ??Subroutine34_0
        ; // Fall through to label ??Subroutine34_0

        RSEG BANKED_CODE:HUGECODE:NOROOT(0)
??Subroutine34_0:
          CFI Block cfiBlock81 Using cfiCommon0
          CFI NoFunction
          CFI CFA_SP SP+-5
          CFI DPL0 Frame(CFA_SP, 4)
          CFI DPH0 Frame(CFA_SP, 5)
        POP       DPH
          CFI CFA_SP SP+-4
          CFI DPH0 SameValue
        POP       DPL
          CFI CFA_SP SP+-3
          CFI DPL0 SameValue
        LJMP      ?BRET
          CFI EndBlock cfiBlock81
// 1083 
// 1084 
// 1085  /*********************************************************************
// 1086  * @fn          bdb_parentLost
// 1087  *
// 1088  * @brief       Notify bdb that connection with parent is lost
// 1089  *
// 1090  * @return      none
// 1091  */

        RSEG BANKED_CODE:HUGECODE:NOROOT(0)
// 1092 void bdb_parentLost(void)
bdb_parentLost:
          CFI Block cfiBlock82 Using cfiCommon0
          CFI Function bdb_parentLost
        CODE
// 1093 {
        ; Saved register size: 0
        ; Auto size: 0
// 1094 #if ZG_BUILD_ENDDEVICE_TYPE
// 1095   if(ZG_DEVICE_ENDDEVICE_TYPE)
// 1096   {
// 1097     while(pBDBListNwk)
// 1098     {
// 1099       bdb_nwkDescFree(pBDBListNwk);
// 1100     }
// 1101     
// 1102     nwk_desc_list_free();  
// 1103     if(bdbCommissioningProcedureState.bdbCommissioningState != BDB_PARENT_LOST)
// 1104     {
// 1105       //If parent lost during TCLK exchange, then report TCLK exchange fail
// 1106       if(bdbCommissioningProcedureState.bdbCommissioningState == BDB_COMMISSIONING_STATE_TC_LINK_KEY_EXCHANGE)
// 1107       {
// 1108         bdb_reportCommissioningState(BDB_COMMISSIONING_STATE_TC_LINK_KEY_EXCHANGE, FALSE);
// 1109         return;
// 1110       }
// 1111       bdbCommissioningProcedureState.bdb_ParentLostSavedState = bdbCommissioningProcedureState.bdbCommissioningState;
// 1112       
// 1113     }
// 1114     bdbCommissioningProcedureState.bdbCommissioningState = BDB_PARENT_LOST;
// 1115     NLME_OrphanStateSet();
// 1116     ZDApp_ChangeState( DEV_NWK_ORPHAN );
// 1117     
// 1118     // turn receiver off while in orphan state
// 1119     byte temp = FALSE;
// 1120     ZMacSetReq(ZMacRxOnIdle, &temp);
// 1121     
// 1122     bdb_reportCommissioningState(BDB_PARENT_LOST,FALSE);
// 1123   }
// 1124 #endif
// 1125 }
        LJMP      ?BRET
          CFI EndBlock cfiBlock82
// 1126 
// 1127 
// 1128 
// 1129 
// 1130 
// 1131  /*********************************************************************
// 1132  * @fn          bdb_NetworkRestoredResumeState
// 1133  *
// 1134  * @brief       Restore the state of child device after parent lost
// 1135  *
// 1136  * @return      none
// 1137  */

        RSEG BANKED_CODE:HUGECODE:NOROOT(0)
// 1138 void bdb_NetworkRestoredResumeState(void)
bdb_NetworkRestoredResumeState:
          CFI Block cfiBlock83 Using cfiCommon0
          CFI Function bdb_NetworkRestoredResumeState
        CODE
// 1139 {
        ; Saved register size: 0
        ; Auto size: 0
// 1140 #if (BDB_FINDING_BINDING_CAPABILITY_ENABLED==1)   
// 1141 #if ZG_BUILD_ENDDEVICE_TYPE
// 1142   if(ZG_DEVICE_ENDDEVICE_TYPE)
// 1143   {
// 1144     uint8 restoreSimpleDesc = FALSE;
// 1145     //If restored when F&B still enabled, then restore the simple descriptors attempts
// 1146     if(bdbCommissioningProcedureState.bdbCommissioningState == BDB_COMMISSIONING_STATE_FINDING_BINDING)
// 1147     {
// 1148       bdbFindingBindingRespondent_t  *pRespondentTemp = NULL;
// 1149       
// 1150       pRespondentTemp = pRespondentHead;
// 1151       
// 1152       while(pRespondentTemp != NULL)
// 1153       {
// 1154         if(pRespondentTemp->attempts & FINDING_AND_BINDING_PARENT_LOST)
// 1155         {
// 1156           pRespondentTemp->attempts &= ~FINDING_AND_BINDING_PARENT_LOST;
// 1157           restoreSimpleDesc = TRUE;
// 1158         }
// 1159         pRespondentTemp = pRespondentTemp->pNext;
// 1160       }
// 1161     }
// 1162     if(restoreSimpleDesc)
// 1163     {
// 1164       //Restore the simple Descriptor sending after 1 second of restoring the network
// 1165       osal_start_timerEx(bdb_TaskID,BDB_RESPONDENT_PROCESS_TIMEOUT, 1000);
// 1166     }
// 1167   }
// 1168 #endif
// 1169 #endif
// 1170 }
        LJMP      ?BRET
          CFI EndBlock cfiBlock83
// 1171 
// 1172 #if ZG_BUILD_ENDDEVICE_TYPE
// 1173  /*********************************************************************
// 1174  * @fn          bdb_ZedAttemptRecoverNwk
// 1175  *
// 1176  * @brief       Instruct the ZED to try to rejoin its previews network
// 1177  *
// 1178  * @return      success if the attempt is being excecuted
// 1179  *              False if device do not have nwk parameters to perform this action
// 1180  */
// 1181 uint8 bdb_ZedAttemptRecoverNwk(void)
// 1182 {
// 1183   if(ZG_DEVICE_ENDDEVICE_TYPE)
// 1184   {
// 1185     if(bdbAttributes.bdbNodeIsOnANetwork)
// 1186     {
// 1187       if(bdbCommissioningProcedureState.bdbCommissioningState == BDB_PARENT_LOST)
// 1188       {
// 1189         if(ZDOInitDevice(0) == ZDO_INITDEV_RESTORED_NETWORK_STATE)
// 1190         {
// 1191           return ZSuccess;
// 1192         }
// 1193       }
// 1194     }
// 1195   }
// 1196   return ZFailure;
// 1197 }
// 1198 
// 1199 #endif
// 1200 
// 1201  /*********************************************************************
// 1202  * @fn          bdb_reportCommissioningState
// 1203  *
// 1204  * @brief       Process the result of a BDB main state attempt.
// 1205  *
// 1206  * @param       bdbCommissioningState - MainState that is issuing fail
// 1207  * @param       didSuccess - TRUE if the main state were success, FALSE otherwise
// 1208  *
// 1209  * @return      none
// 1210  */

        RSEG BANKED_CODE:HUGECODE:NOROOT(0)
// 1211 void bdb_reportCommissioningState(uint8 bdbCommissioningState,bool didSuccess)
bdb_reportCommissioningState:
          CFI Block cfiBlock84 Using cfiCommon0
          CFI Function bdb_reportCommissioningState
        CODE
// 1212 {
        FUNCALL bdb_reportCommissioningState, ZDApp_ChangeState
        LOCFRAME ISTACK, 0, STACK
        LOCFRAME PSTACK, 0, STACK
        LOCFRAME XSTACK, 14, STACK
        LOCFRAME IOVERLAY, 0, STATIC
        LOCFRAME DOVERLAY, 0, STATIC
        ARGFRAME ISTACK, 0, STACK
        ARGFRAME PSTACK, 0, STACK
        ARGFRAME XSTACK, 14, STACK
        ARGFRAME IOVERLAY, 0, STATIC
        ARGFRAME DOVERLAY, 0, STATIC
        FUNCALL bdb_reportCommissioningState, osal_start_timerEx
        LOCFRAME ISTACK, 0, STACK
        LOCFRAME PSTACK, 0, STACK
        LOCFRAME XSTACK, 18, STACK
        LOCFRAME IOVERLAY, 0, STATIC
        LOCFRAME DOVERLAY, 0, STATIC
        ARGFRAME ISTACK, 0, STACK
        ARGFRAME PSTACK, 0, STACK
        ARGFRAME XSTACK, 18, STACK
        ARGFRAME IOVERLAY, 0, STATIC
        ARGFRAME DOVERLAY, 0, STATIC
        FUNCALL bdb_reportCommissioningState, zgWriteStartupOptions
        LOCFRAME ISTACK, 0, STACK
        LOCFRAME PSTACK, 0, STACK
        LOCFRAME XSTACK, 14, STACK
        LOCFRAME IOVERLAY, 0, STATIC
        LOCFRAME DOVERLAY, 0, STATIC
        ARGFRAME ISTACK, 0, STACK
        ARGFRAME PSTACK, 0, STACK
        ARGFRAME XSTACK, 14, STACK
        ARGFRAME IOVERLAY, 0, STATIC
        ARGFRAME DOVERLAY, 0, STATIC
        FUNCALL bdb_reportCommissioningState, ZDApp_ChangeState
        LOCFRAME ISTACK, 0, STACK
        LOCFRAME PSTACK, 0, STACK
        LOCFRAME XSTACK, 14, STACK
        LOCFRAME IOVERLAY, 0, STATIC
        LOCFRAME DOVERLAY, 0, STATIC
        ARGFRAME ISTACK, 0, STACK
        ARGFRAME PSTACK, 0, STACK
        ARGFRAME XSTACK, 14, STACK
        ARGFRAME IOVERLAY, 0, STATIC
        ARGFRAME DOVERLAY, 0, STATIC
        FUNCALL bdb_reportCommissioningState, ZDApp_ChangeState
        LOCFRAME ISTACK, 0, STACK
        LOCFRAME PSTACK, 0, STACK
        LOCFRAME XSTACK, 14, STACK
        LOCFRAME IOVERLAY, 0, STATIC
        LOCFRAME DOVERLAY, 0, STATIC
        ARGFRAME ISTACK, 0, STACK
        ARGFRAME PSTACK, 0, STACK
        ARGFRAME XSTACK, 14, STACK
        ARGFRAME IOVERLAY, 0, STATIC
        ARGFRAME DOVERLAY, 0, STATIC
        FUNCALL bdb_reportCommissioningState, ZMacSetReq
        LOCFRAME ISTACK, 0, STACK
        LOCFRAME PSTACK, 0, STACK
        LOCFRAME XSTACK, 14, STACK
        LOCFRAME IOVERLAY, 0, STATIC
        LOCFRAME DOVERLAY, 0, STATIC
        ARGFRAME ISTACK, 0, STACK
        ARGFRAME PSTACK, 0, STACK
        ARGFRAME XSTACK, 14, STACK
        ARGFRAME IOVERLAY, 0, STATIC
        ARGFRAME DOVERLAY, 0, STATIC
        FUNCALL bdb_reportCommissioningState, bdb_setFN
        LOCFRAME ISTACK, 0, STACK
        LOCFRAME PSTACK, 0, STACK
        LOCFRAME XSTACK, 14, STACK
        LOCFRAME IOVERLAY, 0, STATIC
        LOCFRAME DOVERLAY, 0, STATIC
        ARGFRAME ISTACK, 0, STACK
        ARGFRAME PSTACK, 0, STACK
        ARGFRAME XSTACK, 14, STACK
        ARGFRAME IOVERLAY, 0, STATIC
        ARGFRAME DOVERLAY, 0, STATIC
        FUNCALL bdb_reportCommissioningState, NLME_ResetRequest
        LOCFRAME ISTACK, 0, STACK
        LOCFRAME PSTACK, 0, STACK
        LOCFRAME XSTACK, 14, STACK
        LOCFRAME IOVERLAY, 0, STATIC
        LOCFRAME DOVERLAY, 0, STATIC
        ARGFRAME ISTACK, 0, STACK
        ARGFRAME PSTACK, 0, STACK
        ARGFRAME XSTACK, 14, STACK
        ARGFRAME IOVERLAY, 0, STATIC
        ARGFRAME DOVERLAY, 0, STATIC
        FUNCALL bdb_reportCommissioningState, ZDApp_ChangeState
        LOCFRAME ISTACK, 0, STACK
        LOCFRAME PSTACK, 0, STACK
        LOCFRAME XSTACK, 14, STACK
        LOCFRAME IOVERLAY, 0, STATIC
        LOCFRAME DOVERLAY, 0, STATIC
        ARGFRAME ISTACK, 0, STACK
        ARGFRAME PSTACK, 0, STACK
        ARGFRAME XSTACK, 14, STACK
        ARGFRAME IOVERLAY, 0, STATIC
        ARGFRAME DOVERLAY, 0, STATIC
        FUNCALL bdb_reportCommissioningState, osal_start_timerEx
        LOCFRAME ISTACK, 0, STACK
        LOCFRAME PSTACK, 0, STACK
        LOCFRAME XSTACK, 18, STACK
        LOCFRAME IOVERLAY, 0, STATIC
        LOCFRAME DOVERLAY, 0, STATIC
        ARGFRAME ISTACK, 0, STACK
        ARGFRAME PSTACK, 0, STACK
        ARGFRAME XSTACK, 18, STACK
        ARGFRAME IOVERLAY, 0, STATIC
        ARGFRAME DOVERLAY, 0, STATIC
        FUNCALL bdb_reportCommissioningState, bdb_getRespondentRetry
        LOCFRAME ISTACK, 0, STACK
        LOCFRAME PSTACK, 0, STACK
        LOCFRAME XSTACK, 14, STACK
        LOCFRAME IOVERLAY, 0, STATIC
        LOCFRAME DOVERLAY, 0, STATIC
        ARGFRAME ISTACK, 0, STACK
        ARGFRAME PSTACK, 0, STACK
        ARGFRAME XSTACK, 14, STACK
        ARGFRAME IOVERLAY, 0, STATIC
        ARGFRAME DOVERLAY, 0, STATIC
        FUNCALL bdb_reportCommissioningState, osal_get_timeoutEx
        LOCFRAME ISTACK, 0, STACK
        LOCFRAME PSTACK, 0, STACK
        LOCFRAME XSTACK, 14, STACK
        LOCFRAME IOVERLAY, 0, STATIC
        LOCFRAME DOVERLAY, 0, STATIC
        ARGFRAME ISTACK, 0, STACK
        ARGFRAME PSTACK, 0, STACK
        ARGFRAME XSTACK, 14, STACK
        ARGFRAME IOVERLAY, 0, STATIC
        ARGFRAME DOVERLAY, 0, STATIC
        FUNCALL bdb_reportCommissioningState, bdb_zclRespondentListClean
        LOCFRAME ISTACK, 0, STACK
        LOCFRAME PSTACK, 0, STACK
        LOCFRAME XSTACK, 14, STACK
        LOCFRAME IOVERLAY, 0, STATIC
        LOCFRAME DOVERLAY, 0, STATIC
        ARGFRAME ISTACK, 0, STACK
        ARGFRAME PSTACK, 0, STACK
        ARGFRAME XSTACK, 14, STACK
        ARGFRAME IOVERLAY, 0, STATIC
        ARGFRAME DOVERLAY, 0, STATIC
        FUNCALL bdb_reportCommissioningState, osal_stop_timerEx
        LOCFRAME ISTACK, 0, STACK
        LOCFRAME PSTACK, 0, STACK
        LOCFRAME XSTACK, 14, STACK
        LOCFRAME IOVERLAY, 0, STATIC
        LOCFRAME DOVERLAY, 0, STATIC
        ARGFRAME ISTACK, 0, STACK
        ARGFRAME PSTACK, 0, STACK
        ARGFRAME XSTACK, 14, STACK
        ARGFRAME IOVERLAY, 0, STATIC
        ARGFRAME DOVERLAY, 0, STATIC
        FUNCALL bdb_reportCommissioningState, osal_start_timerEx
        LOCFRAME ISTACK, 0, STACK
        LOCFRAME PSTACK, 0, STACK
        LOCFRAME XSTACK, 18, STACK
        LOCFRAME IOVERLAY, 0, STATIC
        LOCFRAME DOVERLAY, 0, STATIC
        ARGFRAME ISTACK, 0, STACK
        ARGFRAME PSTACK, 0, STACK
        ARGFRAME XSTACK, 18, STACK
        ARGFRAME IOVERLAY, 0, STATIC
        ARGFRAME DOVERLAY, 0, STATIC
        FUNCALL bdb_reportCommissioningState, nwk_setStateIdle
        LOCFRAME ISTACK, 0, STACK
        LOCFRAME PSTACK, 0, STACK
        LOCFRAME XSTACK, 14, STACK
        LOCFRAME IOVERLAY, 0, STATIC
        LOCFRAME DOVERLAY, 0, STATIC
        ARGFRAME ISTACK, 0, STACK
        ARGFRAME PSTACK, 0, STACK
        ARGFRAME XSTACK, 14, STACK
        ARGFRAME IOVERLAY, 0, STATIC
        ARGFRAME DOVERLAY, 0, STATIC
        FUNCALL bdb_reportCommissioningState, ZDApp_ChangeState
        LOCFRAME ISTACK, 0, STACK
        LOCFRAME PSTACK, 0, STACK
        LOCFRAME XSTACK, 14, STACK
        LOCFRAME IOVERLAY, 0, STATIC
        LOCFRAME DOVERLAY, 0, STATIC
        ARGFRAME ISTACK, 0, STACK
        ARGFRAME PSTACK, 0, STACK
        ARGFRAME XSTACK, 14, STACK
        ARGFRAME IOVERLAY, 0, STATIC
        ARGFRAME DOVERLAY, 0, STATIC
        FUNCALL bdb_reportCommissioningState, osal_start_timerEx
        LOCFRAME ISTACK, 0, STACK
        LOCFRAME PSTACK, 0, STACK
        LOCFRAME XSTACK, 18, STACK
        LOCFRAME IOVERLAY, 0, STATIC
        LOCFRAME DOVERLAY, 0, STATIC
        ARGFRAME ISTACK, 0, STACK
        ARGFRAME PSTACK, 0, STACK
        ARGFRAME XSTACK, 18, STACK
        ARGFRAME IOVERLAY, 0, STATIC
        ARGFRAME DOVERLAY, 0, STATIC
        FUNCALL bdb_reportCommissioningState, ZDApp_ChangeState
        LOCFRAME ISTACK, 0, STACK
        LOCFRAME PSTACK, 0, STACK
        LOCFRAME XSTACK, 14, STACK
        LOCFRAME IOVERLAY, 0, STATIC
        LOCFRAME DOVERLAY, 0, STATIC
        ARGFRAME ISTACK, 0, STACK
        ARGFRAME PSTACK, 0, STACK
        ARGFRAME XSTACK, 14, STACK
        ARGFRAME IOVERLAY, 0, STATIC
        ARGFRAME DOVERLAY, 0, STATIC
        FUNCALL bdb_reportCommissioningState, ZDApp_RestoreNwkSecMaterial
        LOCFRAME ISTACK, 0, STACK
        LOCFRAME PSTACK, 0, STACK
        LOCFRAME XSTACK, 14, STACK
        LOCFRAME IOVERLAY, 0, STATIC
        LOCFRAME DOVERLAY, 0, STATIC
        ARGFRAME ISTACK, 0, STACK
        ARGFRAME PSTACK, 0, STACK
        ARGFRAME XSTACK, 14, STACK
        ARGFRAME IOVERLAY, 0, STATIC
        ARGFRAME DOVERLAY, 0, STATIC
        FUNCALL bdb_reportCommissioningState, osal_start_timerEx
        LOCFRAME ISTACK, 0, STACK
        LOCFRAME PSTACK, 0, STACK
        LOCFRAME XSTACK, 18, STACK
        LOCFRAME IOVERLAY, 0, STATIC
        LOCFRAME DOVERLAY, 0, STATIC
        ARGFRAME ISTACK, 0, STACK
        ARGFRAME PSTACK, 0, STACK
        ARGFRAME XSTACK, 18, STACK
        ARGFRAME IOVERLAY, 0, STATIC
        ARGFRAME DOVERLAY, 0, STATIC
        FUNCALL bdb_reportCommissioningState, bdb_SendMsg
        LOCFRAME ISTACK, 0, STACK
        LOCFRAME PSTACK, 0, STACK
        LOCFRAME XSTACK, 16, STACK
        LOCFRAME IOVERLAY, 0, STATIC
        LOCFRAME DOVERLAY, 0, STATIC
        ARGFRAME ISTACK, 0, STACK
        ARGFRAME PSTACK, 0, STACK
        ARGFRAME XSTACK, 16, STACK
        ARGFRAME IOVERLAY, 0, STATIC
        ARGFRAME DOVERLAY, 0, STATIC
        REQUIRE ?V0
        REQUIRE ?V1
        MOV       A,#-0xa
        LCALL     ?BANKED_ENTER_XDATA
          CFI DPH0 load(1, XDATA, add(CFA_XSP16, literal(-1)))
          CFI DPL0 load(1, XDATA, add(CFA_XSP16, literal(-2)))
          CFI ?BRET_EXT load(1, XDATA, add(CFA_XSP16, literal(-3)))
          CFI ?RET_HIGH load(1, XDATA, add(CFA_XSP16, literal(-4)))
          CFI ?RET_LOW load(1, XDATA, add(CFA_XSP16, literal(-5)))
          CFI R7 load(1, XDATA, add(CFA_XSP16, literal(-6)))
          CFI V1 load(1, XDATA, add(CFA_XSP16, literal(-7)))
          CFI V0 load(1, XDATA, add(CFA_XSP16, literal(-8)))
          CFI VB load(1, XDATA, add(CFA_XSP16, literal(-9)))
          CFI R6 load(1, XDATA, add(CFA_XSP16, literal(-10)))
          CFI CFA_SP SP+0
          CFI CFA_XSP16 add(XSP16, 10)
        ; Saved register size: 10
        ; Auto size: 4
        MOV       A,#-0x4
        LCALL     ?ALLOC_XSTACK8
          CFI CFA_XSP16 add(XSP16, 14)
        MOV       A,R1
        MOV       R6,A
        MOV       A,R2
        MOV       R7,A
// 1213   bdbCommissioningModeMsg_t bdbCommissioningModeMsg;
// 1214   //Process only if we are in that state, or if we are on parent lost and processing F&B
// 1215   if((bdbCommissioningProcedureState.bdbCommissioningState == bdbCommissioningState)
// 1216      || ((bdbCommissioningProcedureState.bdbCommissioningState == BDB_PARENT_LOST) && (bdbCommissioningProcedureState.bdb_ParentLostSavedState == BDB_COMMISSIONING_STATE_FINDING_BINDING)))
        MOV       DPTR,#bdbCommissioningProcedureState
        MOVX      A,@DPTR
        XRL       A,R6
        JZ        ??bdb_reportCommissioningState_0
        MOVX      A,@DPTR
        XRL       A,#0x8
        JZ        $+5
        LJMP      ??bdb_reportCommissioningState_1 & 0xFFFF
        MOV       DPTR,#bdbCommissioningProcedureState + 3
        MOVX      A,@DPTR
        XRL       A,#0x6
        JZ        $+5
        LJMP      ??bdb_reportCommissioningState_1 & 0xFFFF
// 1217   {
// 1218     switch(bdbCommissioningState)
??bdb_reportCommissioningState_0:
        MOV       A,R6
        ADD       A,#-0x2
        JNZ       $+5
        LJMP      ??bdb_reportCommissioningState_2 & 0xFFFF
        ADD       A,#-0x2
        JZ        ??bdb_reportCommissioningState_3
        DEC       A
        JZ        ??bdb_reportCommissioningState_4
        DEC       A
        JNZ       $+5
        LJMP      ??bdb_reportCommissioningState_5 & 0xFFFF
        DEC       A
        JNZ       $+5
        LJMP      ??bdb_reportCommissioningState_6 & 0xFFFF
        LJMP      ??bdb_reportCommissioningState_7 & 0xFFFF
// 1219     {
// 1220 #if (ZG_BUILD_JOINING_TYPE)
// 1221       case BDB_COMMISSIONING_STATE_JOINING:
// 1222         if(ZG_DEVICE_JOINING_TYPE)
// 1223         {
// 1224           //Prepare for the next state or commissioning mode to be excecuted
// 1225           osal_start_timerEx(bdb_TaskID,BDB_CHANGE_COMMISSIONING_STATE,50);
// 1226 
// 1227           if(didSuccess)
// 1228           {
// 1229             //Next state is TC link key exchange
// 1230             bdbCommissioningProcedureState.bdbCommissioningState = BDB_COMMISSIONING_STATE_TC_LINK_KEY_EXCHANGE;
// 1231             //Free the list of nwk discovered
// 1232             while(pBDBListNwk)
// 1233             {
// 1234               bdb_nwkDescFree(pBDBListNwk);
// 1235             }
// 1236             
// 1237             //Set the poll rate of the ZED joining device to 1 second to allow TCLK 
// 1238             //exchange be perfomed successfully in cases in which application has a 
// 1239             //slow pollrate
// 1240             NLME_SetPollRate(TCLK_POLL_RATE);
// 1241             
// 1242             //No notification in this step
// 1243             return;
// 1244           } 
// 1245           else
// 1246           {
// 1247             uint8 temp = FALSE;
// 1248             //If fail, then restore poll rate
// 1249             NLME_SetPollRate(POLL_RATE);
// 1250             bdbAttributes.bdbCommissioningStatus = BDB_COMMISSIONING_NO_NETWORK;
// 1251             bdbCommissioningModeMsg.bdbCommissioningMode = BDB_COMMISSIONING_NWK_STEERING;
// 1252             bdbCommissioningProcedureState.bdbCommissioningState = BDB_COMMISSIONING_STATE_START_RESUME;
// 1253             bdbAttributes.bdbCommissioningMode &= ~BDB_COMMISSIONING_MODE_NWK_STEERING;
// 1254             
// 1255             //Turn off the radio
// 1256             ZMacSetReq(ZMacRxOnIdle, &temp);
// 1257             //Set the device to FN, to start as new for subsequent attempts
// 1258             bdb_setFN();
// 1259             NLME_ResetRequest();
// 1260             ZDApp_ChangeState( DEV_HOLD );
// 1261             
// 1262             //Free the list of nwk discovered
// 1263             while(pBDBListNwk)
// 1264             {
// 1265               bdb_nwkDescFree(pBDBListNwk);
// 1266             }
// 1267           }
// 1268         }
// 1269       break;
// 1270 
// 1271       case BDB_COMMISSIONING_STATE_TC_LINK_KEY_EXCHANGE:
// 1272         if(ZG_DEVICE_JOINING_TYPE)
// 1273         {
// 1274           if(didSuccess)
// 1275           {
// 1276             //Clear any setting that would set the device as FN
// 1277             zgWriteStartupOptions(ZG_STARTUP_CLEAR, ZCD_STARTOPT_DEFAULT_CONFIG_STATE | ZCD_STARTOPT_DEFAULT_NETWORK_STATE);            
// 1278             
// 1279             //Next state is nwk steering on the nwk (permit joining)
// 1280             bdbCommissioningProcedureState.bdbCommissioningState = BDB_COMMISSIONING_STATE_STEERING_ON_NWK;
// 1281             osal_start_timerEx(bdb_TaskID,BDB_CHANGE_COMMISSIONING_STATE, 50);
// 1282             
// 1283             //Set the poll rate to the application default after TCLK success
// 1284             NLME_SetPollRate(POLL_RATE);
// 1285 
// 1286             osal_stop_timerEx( bdb_TaskID, BDB_PROCESS_TIMEOUT );
// 1287             //No notification to the user is needed
// 1288             return;
// 1289           }
// 1290           else
// 1291           {
// 1292             bdbCommissioningModeMsg.bdbCommissioningMode = BDB_COMMISSIONING_NWK_STEERING;
// 1293             bdbAttributes.bdbCommissioningStatus = BDB_COMMISSIONING_TCLK_EX_FAILURE;
// 1294             
// 1295             osal_stop_timerEx( bdb_TaskID, BDB_PROCESS_TIMEOUT);
// 1296            
// 1297             //No process shall be attempted after this fail
// 1298             bdbAttributes.bdbCommissioningMode = 0;
// 1299             
// 1300             //Fill the context for the user notification
// 1301             osal_start_timerEx(bdb_TaskID,BDB_TC_LINK_KEY_EXCHANGE_FAIL,BDB_TC_LINK_KEY_EXCHANGE_FAIL_LEAVE_TIMEOUT);
// 1302           }
// 1303         }
// 1304       break;
// 1305 #endif
// 1306       
// 1307       case BDB_COMMISSIONING_STATE_STEERING_ON_NWK:
// 1308         bdbCommissioningModeMsg.bdbCommissioningMode = BDB_COMMISSIONING_NWK_STEERING;
??bdb_reportCommissioningState_3:
        MOV       A,#0x1
        LCALL     ?XSTACK_DISP0_8
        MOV       A,#0x1
        MOVX      @DPTR,A
// 1309         if(didSuccess)
        MOV       A,R7
        MOV       DPTR,#bdbAttributes + 10
        JZ        ??bdb_reportCommissioningState_8
// 1310         {
// 1311           bdbAttributes.bdbCommissioningStatus = BDB_COMMISSIONING_SUCCESS;
        CLR       A
        MOVX      @DPTR,A
// 1312           
// 1313 #if (ZG_BUILD_RTR_TYPE)          
// 1314           //Update ZDApp state
// 1315           if(ZG_DEVICE_RTRONLY_TYPE)
        MOV       DPTR,#zgDeviceLogicalType
        MOVX      A,@DPTR
        XRL       A,#0x1
        JNZ       ??bdb_reportCommissioningState_9
// 1316           {          
// 1317             ZDApp_ChangeState( DEV_ROUTER );
        ; Setup parameters for call to function ZDApp_ChangeState
        MOV       R1,#0x7
        LCALL     `??ZDApp_ChangeState::?relay`; Banked call to: ZDApp_ChangeState
        SJMP      ??bdb_reportCommissioningState_9
// 1318           }
// 1319 #endif
// 1320 #if (ZG_BUILD_ENDDEVICE_TYPE)
// 1321           if(ZG_DEVICE_ENDDEVICE_TYPE)
// 1322           {
// 1323             ZDApp_ChangeState( DEV_END_DEVICE );
// 1324           }
// 1325 #endif
// 1326         }
// 1327 #if (ZG_BUILD_COORDINATOR_TYPE)
// 1328         else
// 1329         {
// 1330           if(ZG_DEVICE_COORDINATOR_TYPE)
// 1331           {
// 1332             bdbAttributes.bdbCommissioningStatus = BDB_COMMISSIONING_NO_NETWORK;
??bdb_reportCommissioningState_8:
        MOV       A,#0x2
        MOVX      @DPTR,A
// 1333           }
// 1334         }
// 1335 #endif
// 1336         
// 1337         bdbCommissioningProcedureState.bdbCommissioningState = BDB_COMMISSIONING_STATE_START_RESUME;
??bdb_reportCommissioningState_9:
        MOV       DPTR,#bdbCommissioningProcedureState
        CLR       A
        MOVX      @DPTR,A
// 1338         osal_start_timerEx(bdb_TaskID,BDB_CHANGE_COMMISSIONING_STATE,50);
        ; Setup parameters for call to function osal_start_timerEx
        MOV       DPTR,#__Constant_32
        LCALL     ?PUSH_XSTACK8_X_FOUR
          CFI CFA_XSP16 add(XSP16, 18)
        MOV       R2,#0x4
        MOV       R3,#0x0
        MOV       DPTR,#bdb_TaskID
        MOVX      A,@DPTR
        MOV       R1,A
        LCALL     `??osal_start_timerEx::?relay`; Banked call to: osal_start_timerEx
        MOV       A,#0x4
        LCALL     ?DEALLOC_XSTACK8
          CFI CFA_XSP16 add(XSP16, 14)
// 1339         bdbAttributes.bdbCommissioningMode &= ~BDB_COMMISSIONING_MODE_NWK_STEERING;
        MOV       DPTR,#bdbAttributes + 11
        MOVX      A,@DPTR
        CLR       0xE0 /* A   */.1
        LJMP      ??bdb_reportCommissioningState_10 & 0xFFFF
// 1340       break;
// 1341       
// 1342       case BDB_COMMISSIONING_STATE_FORMATION:
// 1343         bdbCommissioningModeMsg.bdbCommissioningMode = BDB_COMMISSIONING_FORMATION;
??bdb_reportCommissioningState_4:
        MOV       A,#0x1
        LCALL     ?XSTACK_DISP0_8
        MOV       A,#0x2
        MOVX      @DPTR,A
// 1344 
// 1345         if(didSuccess)
        MOV       A,R7
        MOV       DPTR,#bdbAttributes + 10
        JZ        ??bdb_reportCommissioningState_11
// 1346         {
// 1347           bdbAttributes.bdbCommissioningStatus = BDB_COMMISSIONING_SUCCESS;
        CLR       A
        MOVX      @DPTR,A
// 1348 
// 1349           //Clear any setting that would set the device as FN
// 1350           zgWriteStartupOptions(ZG_STARTUP_CLEAR, ZCD_STARTOPT_DEFAULT_CONFIG_STATE | ZCD_STARTOPT_DEFAULT_NETWORK_STATE);          
        ; Setup parameters for call to function zgWriteStartupOptions
        MOV       R2,#0x3
        MOV       R1,A
        LCALL     `??zgWriteStartupOptions::?relay`; Banked call to: zgWriteStartupOptions
// 1351           
// 1352            //Update ZDApp State
// 1353 #if (ZG_BUILD_RTR_TYPE)
// 1354           if(ZG_DEVICE_RTRONLY_TYPE)
        MOV       DPTR,#zgDeviceLogicalType
        MOVX      A,@DPTR
        XRL       A,#0x1
        JNZ       ??bdb_reportCommissioningState_12
// 1355           {          
// 1356             ZDApp_ChangeState( DEV_ROUTER );
        ; Setup parameters for call to function ZDApp_ChangeState
        MOV       R1,#0x7
        LCALL     `??ZDApp_ChangeState::?relay`; Banked call to: ZDApp_ChangeState
// 1357           }
// 1358 #endif    
// 1359 #if (ZG_BUILD_COORDINATOR_TYPE)
// 1360           if(ZG_DEVICE_COORDINATOR_TYPE)
// 1361           {          
// 1362             ZDApp_ChangeState( DEV_ZB_COORD );
??bdb_reportCommissioningState_12:
        ; Setup parameters for call to function ZDApp_ChangeState
        MOV       R1,#0x9
        SJMP      ??bdb_reportCommissioningState_13
// 1363           }     
// 1364 #endif
// 1365         }
// 1366         else
// 1367         {
// 1368           bdbAttributes.bdbCommissioningStatus = BDB_COMMISSIONING_FORMATION_FAILURE;
??bdb_reportCommissioningState_11:
        MOV       A,#0x8
        MOVX      @DPTR,A
// 1369           //If not on the nwk, then restart the nwk parameters
// 1370 #if (ZG_BUILD_RTR_TYPE)
// 1371           if(ZG_DEVICE_RTR_TYPE)
        MOV       DPTR,#zgDeviceLogicalType
        MOVX      A,@DPTR
        JZ        ??bdb_reportCommissioningState_14
        XRL       A,#0x1
        JNZ       ??bdb_reportCommissioningState_15
// 1372           {           
// 1373             if(!bdbAttributes.bdbNodeIsOnANetwork)
??bdb_reportCommissioningState_14:
        MOV       DPTR,#bdbAttributes + 14
        MOVX      A,@DPTR
        JNZ       ??bdb_reportCommissioningState_15
// 1374             {
// 1375               uint8 temp = FALSE;
        MOV       A,#0x3
        LCALL     ?XSTACK_DISP0_8
        CLR       A
        MOVX      @DPTR,A
// 1376               //Turn off the radio
// 1377               ZMacSetReq(ZMacRxOnIdle, &temp);
        ; Setup parameters for call to function ZMacSetReq
        MOV       A,#0x3
        LCALL     ?XSTACK_DISP101_8
        MOV       R1,#0x52
        LCALL     `??ZMacSetReq::?relay`; Banked call to: ZMacSetReq
// 1378               //Set the device to FN, to start as new for subsequent attempts
// 1379               bdb_setFN();
        ; Setup parameters for call to function bdb_setFN
        LCALL     `??bdb_setFN::?relay`; Banked call to: bdb_setFN
// 1380               NLME_ResetRequest();
        ; Setup parameters for call to function NLME_ResetRequest
        LCALL     `??NLME_ResetRequest::?relay`; Banked call to: NLME_ResetRequest
// 1381               ZDApp_ChangeState( DEV_HOLD );
        ; Setup parameters for call to function ZDApp_ChangeState
        MOV       R1,#0x0
??bdb_reportCommissioningState_13:
        LCALL     `??ZDApp_ChangeState::?relay`; Banked call to: ZDApp_ChangeState
// 1382             }
// 1383           }
// 1384 #endif
// 1385         }
// 1386         bdbCommissioningProcedureState.bdbCommissioningState = BDB_COMMISSIONING_STATE_START_RESUME;
??bdb_reportCommissioningState_15:
        MOV       DPTR,#bdbCommissioningProcedureState
        CLR       A
        MOVX      @DPTR,A
// 1387         osal_start_timerEx(bdb_TaskID,BDB_CHANGE_COMMISSIONING_STATE,50);
        ; Setup parameters for call to function osal_start_timerEx
        MOV       DPTR,#__Constant_32
        LCALL     ?PUSH_XSTACK8_X_FOUR
          CFI CFA_XSP16 add(XSP16, 18)
        MOV       R2,#0x4
        MOV       R3,#0x0
        MOV       DPTR,#bdb_TaskID
        MOVX      A,@DPTR
        MOV       R1,A
        LCALL     `??osal_start_timerEx::?relay`; Banked call to: osal_start_timerEx
        MOV       A,#0x4
        LCALL     ?DEALLOC_XSTACK8
          CFI CFA_XSP16 add(XSP16, 14)
// 1388         bdbAttributes.bdbCommissioningMode &= ~BDB_COMMISSIONING_MODE_NWK_FORMATION;
        MOV       DPTR,#bdbAttributes + 11
        MOVX      A,@DPTR
        CLR       0xE0 /* A   */.2
        LJMP      ??bdb_reportCommissioningState_10 & 0xFFFF
// 1389       break;  
// 1390       
// 1391 
// 1392       case BDB_COMMISSIONING_STATE_FINDING_BINDING:
// 1393 #if (BDB_FINDING_BINDING_CAPABILITY_ENABLED==1) 
// 1394         bdbCommissioningModeMsg.bdbCommissioningMode = BDB_COMMISSIONING_FINDING_BINDING;
??bdb_reportCommissioningState_5:
        MOV       A,#0x1
        LCALL     ?XSTACK_DISP0_8
        MOV       A,#0x3
        MOVX      @DPTR,A
// 1395 
// 1396         //Do not notify the status if we have another identify to send
// 1397         if(bdbAttributes.bdbCommissioningStatus == BDB_COMMISSIONING_SUCCESS)
        MOV       DPTR,#bdbAttributes + 10
        MOVX      A,@DPTR
        JNZ       ??bdb_reportCommissioningState_16
// 1398         {
// 1399           //Success at least once during F&B as initiator, mark it
// 1400           bdb_FBStateSuccessLatch = TRUE;
        MOV       DPTR,#bdb_FBStateSuccessLatch
        MOV       A,#0x1
        MOVX      @DPTR,A
// 1401         }        
// 1402         
// 1403         //Will we process another indentify?
// 1404         if(((FINDING_AND_BINDING_PERIODIC_ENABLE == FALSE) || (bdb_FB_InitiatorCurrentCyclesNumber == 0)) && (bdb_getRespondentRetry(pRespondentHead) == NULL) && (osal_get_timeoutEx( bdb_TaskID, BDB_RESPONDENT_PROCESS_TIMEOUT) == 0))
??bdb_reportCommissioningState_16:
        MOV       DPTR,#bdb_FB_InitiatorCurrentCyclesNumber
        MOVX      A,@DPTR
        JZ        $+5
        LJMP      ??bdb_reportCommissioningState_1 & 0xFFFF
        ; Setup parameters for call to function bdb_getRespondentRetry
        LCALL     ?Subroutine19 & 0xFFFF
??CrossCallReturnLabel_87:
        LCALL     `??bdb_getRespondentRetry::?relay`; Banked call to: bdb_getRespondentRetry
        MOV       ?V1,R3
        MOV       A,R2
        ORL       A,?V1
        JZ        $+5
        LJMP      ??bdb_reportCommissioningState_1 & 0xFFFF
        ; Setup parameters for call to function osal_get_timeoutEx
        MOV       R2,#0x0
        MOV       R3,#0x40
        MOV       DPTR,#bdb_TaskID
        MOVX      A,@DPTR
        MOV       R1,A
        LCALL     `??osal_get_timeoutEx::?relay`; Banked call to: osal_get_timeoutEx
        MOV       A,R2
        ORL       A,R3
        ORL       A,R4
        ORL       A,R5
        JZ        $+5
        LJMP      ??bdb_reportCommissioningState_1 & 0xFFFF
// 1405         {
// 1406           // Dealocate respondent list and clean all the F&B process
// 1407           pRespondentCurr = NULL;
        MOV       DPTR,#pRespondentCurr
        CLR       A
        MOVX      @DPTR,A
        INC       DPTR
        MOVX      @DPTR,A
// 1408           pRespondentNext = NULL;
        MOV       DPTR,#pRespondentNext
        MOVX      @DPTR,A
        INC       DPTR
        MOVX      @DPTR,A
// 1409           bdb_zclRespondentListClean( &pRespondentHead );
        ; Setup parameters for call to function bdb_zclRespondentListClean
        MOV       R2,#pRespondentHead & 0xff
        MOV       R3,#(pRespondentHead >> 8) & 0xff
        LCALL     `??bdb_zclRespondentListClean::?relay`; Banked call to: bdb_zclRespondentListClean
// 1410           osal_stop_timerEx( bdb_TaskID, BDB_RESPONDENT_PROCESS_TIMEOUT );
        ; Setup parameters for call to function osal_stop_timerEx
        MOV       R2,#0x0
        MOV       R3,#0x40
        MOV       DPTR,#bdb_TaskID
        MOVX      A,@DPTR
        MOV       R1,A
        LCALL     `??osal_stop_timerEx::?relay`; Banked call to: osal_stop_timerEx
// 1411           
// 1412           //Report success if in any of the attempts we got success, regardless that we did receive no rsp on the last attempt
// 1413           if(bdb_FBStateSuccessLatch && (bdbAttributes.bdbCommissioningStatus == BDB_COMMISSIONING_FB_NO_IDENTIFY_QUERY_RESPONSE))
        MOV       DPTR,#bdb_FBStateSuccessLatch
        MOVX      A,@DPTR
        JZ        ??bdb_reportCommissioningState_17
        MOV       DPTR,#bdbAttributes + 10
        MOVX      A,@DPTR
        XRL       A,#0xb
        JNZ       ??bdb_reportCommissioningState_17
// 1414           {
// 1415             bdbAttributes.bdbCommissioningStatus = BDB_COMMISSIONING_SUCCESS;
        CLR       A
        MOVX      @DPTR,A
// 1416           }
// 1417           
// 1418           //Set default state
// 1419           bdb_FBStateSuccessLatch = FALSE;
??bdb_reportCommissioningState_17:
        MOV       DPTR,#bdb_FBStateSuccessLatch
        CLR       A
        MOVX      @DPTR,A
// 1420           
// 1421           //Resume BDB machine state only if we were in F&B, if we were on parent lost, only clean the commissioning mode and remove from bdb_ParentLostSavedState
// 1422           if(bdbCommissioningProcedureState.bdbCommissioningState == BDB_COMMISSIONING_STATE_FINDING_BINDING)
        MOV       DPTR,#bdbCommissioningProcedureState
        MOVX      A,@DPTR
        XRL       A,#0x6
        JNZ       ??bdb_reportCommissioningState_18
// 1423           {
// 1424             bdbCommissioningProcedureState.bdbCommissioningState = BDB_COMMISSIONING_STATE_START_RESUME;
        CLR       A
        MOVX      @DPTR,A
// 1425             osal_start_timerEx(bdb_TaskID,BDB_CHANGE_COMMISSIONING_STATE,50); 
        ; Setup parameters for call to function osal_start_timerEx
        MOV       DPTR,#__Constant_32
        LCALL     ?PUSH_XSTACK8_X_FOUR
          CFI CFA_XSP16 add(XSP16, 18)
        MOV       R2,#0x4
        MOV       R3,#0x0
        MOV       DPTR,#bdb_TaskID
        MOVX      A,@DPTR
        MOV       R1,A
        LCALL     `??osal_start_timerEx::?relay`; Banked call to: osal_start_timerEx
        MOV       A,#0x4
        LCALL     ?DEALLOC_XSTACK8
          CFI CFA_XSP16 add(XSP16, 14)
        SJMP      ??bdb_reportCommissioningState_19
// 1426           }
// 1427           else if(bdbCommissioningProcedureState.bdb_ParentLostSavedState == BDB_COMMISSIONING_STATE_FINDING_BINDING)
??bdb_reportCommissioningState_18:
        MOV       DPTR,#bdbCommissioningProcedureState + 3
        MOVX      A,@DPTR
        XRL       A,#0x6
        JNZ       ??bdb_reportCommissioningState_19
// 1428           {
// 1429             bdbCommissioningProcedureState.bdb_ParentLostSavedState = BDB_COMMISSIONING_STATE_START_RESUME;
        CLR       A
        MOVX      @DPTR,A
// 1430           }
// 1431           
// 1432           bdbAttributes.bdbCommissioningMode &= ~BDB_COMMISSIONING_MODE_FINDING_BINDING;
??bdb_reportCommissioningState_19:
        MOV       DPTR,#bdbAttributes + 11
        MOVX      A,@DPTR
        CLR       0xE0 /* A   */.3
        LJMP      ??bdb_reportCommissioningState_10 & 0xFFFF
// 1433         }
// 1434         else
// 1435         {
// 1436           return;
// 1437         }
// 1438 
// 1439 #endif
// 1440       break;     
// 1441       case BDB_COMMISSIONING_STATE_TL:
// 1442         // Set NWK task to run
// 1443         nwk_setStateIdle( FALSE );
??bdb_reportCommissioningState_2:
        ; Setup parameters for call to function nwk_setStateIdle
        MOV       R1,#0x0
        LCALL     `??nwk_setStateIdle::?relay`; Banked call to: nwk_setStateIdle
// 1444         bdbCommissioningModeMsg.bdbCommissioningMode = BDB_COMMISSIONING_TOUCHLINK;
        MOV       A,#0x1
        LCALL     ?XSTACK_DISP0_8
        MOV       A,#0x4
        MOVX      @DPTR,A
// 1445         if(didSuccess)
        MOV       A,R7
        JZ        ??bdb_reportCommissioningState_20
// 1446         {
// 1447           bdbAttributes.bdbCommissioningStatus = BDB_COMMISSIONING_SUCCESS;
        MOV       DPTR,#bdbAttributes + 10
        CLR       A
        MOVX      @DPTR,A
// 1448           bdbAttributes.bdbCommissioningMode = BDB_COMMISSIONING_MODE_IDDLE;
        INC       DPTR
        MOVX      @DPTR,A
// 1449           
// 1450           //Update ZDApp state
// 1451 #if (ZG_BUILD_RTR_TYPE)
// 1452           if(ZG_DEVICE_RTRONLY_TYPE)
        MOV       DPTR,#zgDeviceLogicalType
        MOVX      A,@DPTR
        XRL       A,#0x1
        JNZ       ??bdb_reportCommissioningState_20
// 1453           {          
// 1454             ZDApp_ChangeState( DEV_ROUTER );
        ; Setup parameters for call to function ZDApp_ChangeState
        MOV       R1,#0x7
        LCALL     `??ZDApp_ChangeState::?relay`; Banked call to: ZDApp_ChangeState
// 1455           }
// 1456 #endif
// 1457 #if (ZG_BUILD_ENDDEVICE_TYPE)
// 1458           if(ZG_DEVICE_ENDDEVICE_TYPE)
// 1459           {
// 1460             ZDApp_ChangeState( DEV_END_DEVICE );
// 1461           }
// 1462 #endif          
// 1463         }
// 1464         //The fail status is already set from the calling function to report commissioning process
// 1465         
// 1466         // The commissioning FAIL status is set before calling the bdb_reportCommissioningState
// 1467         bdbCommissioningProcedureState.bdbCommissioningState = BDB_COMMISSIONING_STATE_START_RESUME;
??bdb_reportCommissioningState_20:
        MOV       DPTR,#bdbCommissioningProcedureState
        CLR       A
        MOVX      @DPTR,A
// 1468         osal_start_timerEx(bdb_TaskID,BDB_CHANGE_COMMISSIONING_STATE,50); 
        ; Setup parameters for call to function osal_start_timerEx
        MOV       DPTR,#__Constant_32
        LCALL     ?PUSH_XSTACK8_X_FOUR
          CFI CFA_XSP16 add(XSP16, 18)
        MOV       R2,#0x4
        MOV       R3,#0x0
        MOV       DPTR,#bdb_TaskID
        MOVX      A,@DPTR
        MOV       R1,A
        LCALL     `??osal_start_timerEx::?relay`; Banked call to: osal_start_timerEx
        MOV       A,#0x4
        LCALL     ?DEALLOC_XSTACK8
          CFI CFA_XSP16 add(XSP16, 14)
// 1469         //Clear the event
// 1470         bdbAttributes.bdbCommissioningMode &= ~BDB_COMMISSIONING_MODE_INITIATOR_TL;
        MOV       DPTR,#bdbAttributes + 11
        MOVX      A,@DPTR
        CLR       0xE0 /* A   */.0
        SJMP      ??bdb_reportCommissioningState_10
// 1471         
// 1472       break;
// 1473       
// 1474       case BDB_INITIALIZATION:
// 1475         //Notify user about successfull initialization
// 1476         bdbCommissioningModeMsg.bdbCommissioningMode = BDB_COMMISSIONING_INITIALIZATION;
??bdb_reportCommissioningState_6:
        MOV       A,#0x1
        LCALL     ?XSTACK_DISP0_8
        CLR       A
        MOVX      @DPTR,A
// 1477         if(didSuccess)
        MOV       A,R7
        JZ        ??bdb_reportCommissioningState_21
// 1478         {
// 1479           //Update ZDApp state
// 1480 #if (ZG_BUILD_COORDINATOR_TYPE)
// 1481           if(ZG_DEVICE_COORDINATOR_TYPE)
// 1482           {          
// 1483             ZDApp_ChangeState( DEV_ZB_COORD );
        ; Setup parameters for call to function ZDApp_ChangeState
        MOV       R1,#0x9
        LCALL     `??ZDApp_ChangeState::?relay`; Banked call to: ZDApp_ChangeState
// 1484           }
// 1485 #endif          
// 1486 #if (ZG_BUILD_ENDDEVICE_TYPE)
// 1487           if(ZG_DEVICE_ENDDEVICE_TYPE)
// 1488           {
// 1489             uint32 pollrate = POLL_RATE;
// 1490             NLME_SetPollRate(pollrate);
// 1491             ZDApp_ChangeState( DEV_NWK_SEC_REJOIN_CURR_CHANNEL );
// 1492             
// 1493           }
// 1494 #endif          
// 1495           ZDApp_RestoreNwkSecMaterial();
        ; Setup parameters for call to function ZDApp_RestoreNwkSecMaterial
        LCALL     `??ZDApp_RestoreNwkSecMaterial::?relay`; Banked call to: ZDApp_RestoreNwkSecMaterial
// 1496           bdbAttributes.bdbCommissioningStatus = BDB_COMMISSIONING_NETWORK_RESTORED;
        MOV       DPTR,#bdbAttributes + 10
        MOV       A,#0xd
        MOVX      @DPTR,A
// 1497           bdbCommissioningProcedureState.bdbCommissioningState = BDB_COMMISSIONING_STATE_START_RESUME;
        MOV       DPTR,#bdbCommissioningProcedureState
        CLR       A
        MOVX      @DPTR,A
// 1498           osal_start_timerEx(bdb_TaskID,BDB_CHANGE_COMMISSIONING_STATE,200);
        ; Setup parameters for call to function osal_start_timerEx
        MOV       DPTR,#__Constant_c8
        LCALL     ?PUSH_XSTACK8_X_FOUR
          CFI CFA_XSP16 add(XSP16, 18)
        MOV       R2,#0x4
        MOV       R3,#0x0
        MOV       DPTR,#bdb_TaskID
        MOVX      A,@DPTR
        MOV       R1,A
        LCALL     `??osal_start_timerEx::?relay`; Banked call to: osal_start_timerEx
        MOV       A,#0x4
        LCALL     ?DEALLOC_XSTACK8
          CFI CFA_XSP16 add(XSP16, 14)
        SJMP      ??bdb_reportCommissioningState_22
// 1499         }
// 1500         else
// 1501         {
// 1502 #if (ZG_BUILD_ENDDEVICE_TYPE)                   
// 1503           if(ZG_DEVICE_ENDDEVICE_TYPE)
// 1504           {
// 1505             if(bdb_isDeviceNonFactoryNew())
// 1506             {
// 1507               //Notify the user about losing parent
// 1508               bdbCommissioningModeMsg.bdbCommissioningMode = BDB_COMMISSIONING_PARENT_LOST;
// 1509               bdbAttributes.bdbCommissioningMode |= BDB_COMMISSIONING_MODE_PARENT_LOST;
// 1510               
// 1511               //Update ZDApp state
// 1512               ZDApp_ChangeState( DEV_NWK_ORPHAN );
// 1513             }
// 1514           }
// 1515 #endif
// 1516           bdbAttributes.bdbCommissioningStatus = BDB_COMMISSIONING_NO_NETWORK;
??bdb_reportCommissioningState_21:
        MOV       DPTR,#bdbAttributes + 10
        MOV       A,#0x2
        MOVX      @DPTR,A
// 1517         }
// 1518         bdbAttributes.bdbCommissioningMode &= ~BDB_COMMISSIONING_MODE_INITIALIZATION;
??bdb_reportCommissioningState_22:
        MOV       DPTR,#bdbAttributes + 11
        MOVX      A,@DPTR
        CLR       0xE0 /* A   */.4
??bdb_reportCommissioningState_10:
        MOVX      @DPTR,A
// 1519 
// 1520       break;
// 1521 #if (ZG_BUILD_ENDDEVICE_TYPE)     
// 1522       case BDB_PARENT_LOST:
// 1523         bdbCommissioningModeMsg.bdbCommissioningMode = BDB_COMMISSIONING_PARENT_LOST;
// 1524         if(ZG_DEVICE_ENDDEVICE_TYPE)
// 1525         {
// 1526           if(didSuccess)
// 1527           {
// 1528             uint32 pollrate = POLL_RATE;
// 1529             bdbCommissioningProcedureState.bdbCommissioningState = bdbCommissioningProcedureState.bdb_ParentLostSavedState;  
// 1530             bdbCommissioningProcedureState.bdb_ParentLostSavedState = 0;
// 1531             NLME_SetPollRate(pollrate);
// 1532             bdbAttributes.bdbCommissioningMode &= ~BDB_COMMISSIONING_MODE_PARENT_LOST;
// 1533             bdbAttributes.bdbCommissioningStatus = BDB_COMMISSIONING_NETWORK_RESTORED;
// 1534             //Update ZDApp state
// 1535             ZDApp_ChangeState( DEV_NWK_SEC_REJOIN_CURR_CHANNEL );
// 1536             
// 1537             bdb_NetworkRestoredResumeState();
// 1538           }
// 1539           else
// 1540           {
// 1541             bdbAttributes.bdbCommissioningMode |= BDB_COMMISSIONING_MODE_PARENT_LOST;
// 1542             bdbAttributes.bdbCommissioningStatus = BDB_COMMISSIONING_NO_NETWORK;
// 1543             
// 1544             NLME_SetPollRate(0);
// 1545             
// 1546           }
// 1547         }
// 1548       break;
// 1549 #endif
// 1550     }
// 1551 #ifdef MT_APP_CNF_FUNC
// 1552     //Notify the user about the status, the main state which has failed
// 1553     bdbCommissioningModeMsg.bdbCommissioningStatus = bdbAttributes.bdbCommissioningStatus;
// 1554     
// 1555     bdb_NotifyApp((uint8*)&bdbCommissioningModeMsg);
// 1556 #else
// 1557     if(pfnCommissioningStatusCB)
??bdb_reportCommissioningState_7:
        MOV       DPTR,#pfnCommissioningStatusCB
        LCALL     ??Subroutine41_0 & 0xFFFF
??CrossCallReturnLabel_64:
        JZ        ??bdb_reportCommissioningState_1
// 1558     {
// 1559       //Notify the user about the status, the main state which has failed
// 1560       bdbCommissioningModeMsg.bdbCommissioningStatus = bdbAttributes.bdbCommissioningStatus;
        MOV       DPTR,#bdbAttributes + 10
        MOVX      A,@DPTR
        MOV       DPL,?XSP + 0
        MOV       DPH,?XSP + 1
        LCALL     ??Subroutine31_0 & 0xFFFF
// 1561       
// 1562       bdb_NotifyApp((uint8*)&bdbCommissioningModeMsg);
// 1563     }
// 1564 #endif
// 1565   }  
??CrossCallReturnLabel_38:
        LCALL     ?PUSH_XSTACK_I_TWO
          CFI CFA_XSP16 add(XSP16, 16)
        MOV       R4,#0x3
        MOV       R3,#0x0
        MOV       R2,#0xa
        MOV       DPTR,#bdb_TaskID
        MOVX      A,@DPTR
        MOV       R1,A
        LCALL     `??bdb_SendMsg::?relay`; Banked call to: bdb_SendMsg
        MOV       A,#0x2
        LCALL     ?DEALLOC_XSTACK8
          CFI CFA_XSP16 add(XSP16, 14)
// 1566 }
??bdb_reportCommissioningState_1:
        MOV       A,#0x4
        LJMP      ?Subroutine1 & 0xFFFF
          CFI EndBlock cfiBlock84
// 1567 
// 1568 
// 1569  /*********************************************************************
// 1570  * @fn          bdb_nwkFormationAttempt
// 1571  *
// 1572  * @brief       Process a nwk formation attempt.
// 1573  *
// 1574  * @param       didSuccess - TRUE if the nwk formation was success, FALSE 
// 1575  *                         otherwise and try secondary channel
// 1576  *
// 1577  * @return      none
// 1578  */

        RSEG BANKED_CODE:HUGECODE:NOROOT(0)
// 1579 void bdb_nwkFormationAttempt(bool didSuccess)
bdb_nwkFormationAttempt:
          CFI Block cfiBlock85 Using cfiCommon0
          CFI Function bdb_nwkFormationAttempt
        CODE
// 1580 {
        FUNCALL bdb_nwkFormationAttempt, bdb_reportCommissioningState
        LOCFRAME ISTACK, 0, STACK
        LOCFRAME PSTACK, 0, STACK
        LOCFRAME XSTACK, 9, STACK
        LOCFRAME IOVERLAY, 0, STATIC
        LOCFRAME DOVERLAY, 0, STATIC
        ARGFRAME ISTACK, 0, STACK
        ARGFRAME PSTACK, 0, STACK
        ARGFRAME XSTACK, 9, STACK
        ARGFRAME IOVERLAY, 0, STATIC
        ARGFRAME DOVERLAY, 0, STATIC
        FUNCALL bdb_nwkFormationAttempt, bdb_nwkJoiningFormation
        LOCFRAME ISTACK, 0, STACK
        LOCFRAME PSTACK, 0, STACK
        LOCFRAME XSTACK, 9, STACK
        LOCFRAME IOVERLAY, 0, STATIC
        LOCFRAME DOVERLAY, 0, STATIC
        ARGFRAME ISTACK, 0, STACK
        ARGFRAME PSTACK, 0, STACK
        ARGFRAME XSTACK, 9, STACK
        ARGFRAME IOVERLAY, 0, STATIC
        ARGFRAME DOVERLAY, 0, STATIC
        FUNCALL bdb_nwkFormationAttempt, bdb_reportCommissioningState
        LOCFRAME ISTACK, 0, STACK
        LOCFRAME PSTACK, 0, STACK
        LOCFRAME XSTACK, 9, STACK
        LOCFRAME IOVERLAY, 0, STATIC
        LOCFRAME DOVERLAY, 0, STATIC
        ARGFRAME ISTACK, 0, STACK
        ARGFRAME PSTACK, 0, STACK
        ARGFRAME XSTACK, 9, STACK
        ARGFRAME IOVERLAY, 0, STATIC
        ARGFRAME DOVERLAY, 0, STATIC
        MOV       A,#-0x9
        LCALL     ?BANKED_ENTER_XDATA
          CFI DPH0 load(1, XDATA, add(CFA_XSP16, literal(-1)))
          CFI DPL0 load(1, XDATA, add(CFA_XSP16, literal(-2)))
          CFI ?BRET_EXT load(1, XDATA, add(CFA_XSP16, literal(-3)))
          CFI ?RET_HIGH load(1, XDATA, add(CFA_XSP16, literal(-4)))
          CFI ?RET_LOW load(1, XDATA, add(CFA_XSP16, literal(-5)))
          CFI R7 load(1, XDATA, add(CFA_XSP16, literal(-6)))
          CFI V0 load(1, XDATA, add(CFA_XSP16, literal(-7)))
          CFI VB load(1, XDATA, add(CFA_XSP16, literal(-8)))
          CFI R6 load(1, XDATA, add(CFA_XSP16, literal(-9)))
          CFI CFA_SP SP+0
          CFI CFA_XSP16 add(XSP16, 9)
        ; Saved register size: 9
        ; Auto size: 0
        MOV       A,R1
// 1581   if(didSuccess)
        JZ        ??bdb_nwkFormationAttempt_0
// 1582   {
// 1583     bdb_reportCommissioningState(BDB_COMMISSIONING_STATE_FORMATION,TRUE);
        ; Setup parameters for call to function bdb_reportCommissioningState
        MOV       R2,#0x1
        SJMP      ??bdb_nwkFormationAttempt_1
// 1584   }
// 1585   else
// 1586   {
// 1587     //Can we try the secondary channel set?
// 1588     if((vDoPrimaryScan) && (bdbAttributes.bdbSecondaryChannelSet))
??bdb_nwkFormationAttempt_0:
        MOV       DPTR,#vDoPrimaryScan
        MOVX      A,@DPTR
        JZ        ??bdb_nwkFormationAttempt_2
        MOV       DPTR,#bdbAttributes
        LCALL     ?XLOAD_R0123
        MOV       A,R0
        ORL       A,R1
        ORL       A,R2
        ORL       A,R3
        JZ        ??bdb_nwkFormationAttempt_2
// 1589     {
// 1590       vDoPrimaryScan = FALSE;
        MOV       DPTR,#vDoPrimaryScan
        CLR       A
        MOVX      @DPTR,A
// 1591       bdb_nwkJoiningFormation(FALSE);
        ; Setup parameters for call to function bdb_nwkJoiningFormation
        MOV       R1,A
        LCALL     `??bdb_nwkJoiningFormation::?relay`; Banked call to: bdb_nwkJoiningFormation
        SJMP      ??bdb_nwkFormationAttempt_3
// 1592     }
// 1593     else
// 1594     {
// 1595       bdb_reportCommissioningState(BDB_COMMISSIONING_STATE_FORMATION, FALSE);
??bdb_nwkFormationAttempt_2:
        ; Setup parameters for call to function bdb_reportCommissioningState
        MOV       R2,#0x0
??bdb_nwkFormationAttempt_1:
        MOV       R1,#0x5
        LCALL     `??bdb_reportCommissioningState::?relay`; Banked call to: bdb_reportCommissioningState
// 1596     }
// 1597   }
// 1598 }
??bdb_nwkFormationAttempt_3:
        LJMP      ?Subroutine0 & 0xFFFF
          CFI EndBlock cfiBlock85
// 1599 
// 1600 
// 1601 
// 1602 /*********************************************************************
// 1603  * @fn          bdb_isDeviceNonFactoryNew
// 1604  *
// 1605  * @brief       Returns the state of bdbNodeIsOnANetwork attribute
// 1606  * 
// 1607  * @param       none
// 1608  *
// 1609  * @return      bdbNodeIsOnANetwork
// 1610  */

        RSEG BANKED_CODE:HUGECODE:NOROOT(0)
// 1611 bool bdb_isDeviceNonFactoryNew(void)
bdb_isDeviceNonFactoryNew:
          CFI Block cfiBlock86 Using cfiCommon0
          CFI Function bdb_isDeviceNonFactoryNew
        CODE
// 1612 {
        PUSH      DPL
          CFI DPL0 Frame(CFA_SP, 4)
          CFI CFA_SP SP+-4
        PUSH      DPH
          CFI DPH0 Frame(CFA_SP, 5)
          CFI CFA_SP SP+-5
        ; Saved register size: 2
        ; Auto size: 0
// 1613   return bdbAttributes.bdbNodeIsOnANetwork;
        MOV       DPTR,#bdbAttributes + 14
          CFI EndBlock cfiBlock86
        REQUIRE ?Subroutine7
        ; // Fall through to label ?Subroutine7
// 1614 }

        RSEG BANKED_CODE:HUGECODE:NOROOT(0)
?Subroutine7:
          CFI Block cfiBlock87 Using cfiCommon0
          CFI NoFunction
          CFI CFA_SP SP+-5
          CFI DPL0 Frame(CFA_SP, 4)
          CFI DPH0 Frame(CFA_SP, 5)
        MOVX      A,@DPTR
          CFI EndBlock cfiBlock87
        REQUIRE ??Subroutine35_0
        ; // Fall through to label ??Subroutine35_0

        RSEG BANKED_CODE:HUGECODE:NOROOT(0)
??Subroutine35_0:
          CFI Block cfiBlock88 Using cfiCommon0
          CFI NoFunction
          CFI CFA_SP SP+-5
          CFI DPL0 Frame(CFA_SP, 4)
          CFI DPH0 Frame(CFA_SP, 5)
        MOV       R1,A
        LJMP      ??Subroutine34_0 & 0xFFFF
          CFI EndBlock cfiBlock88
// 1615 
// 1616 
// 1617 /*********************************************************************
// 1618  * @fn          bdb_doTrustCenterRequireKeyExchange
// 1619  *
// 1620  * @brief       Returns the state of bdbTrustCenterRequireKeyExchange attribute
// 1621  * 
// 1622  * @param       none
// 1623  *
// 1624  * @return      bdbTrustCenterRequireKeyExchange
// 1625  */

        RSEG BANKED_CODE:HUGECODE:NOROOT(0)
// 1626 bool bdb_doTrustCenterRequireKeyExchange(void)
bdb_doTrustCenterRequireKeyExchange:
          CFI Block cfiBlock89 Using cfiCommon0
          CFI Function bdb_doTrustCenterRequireKeyExchange
        CODE
// 1627 {
        PUSH      DPL
          CFI DPL0 Frame(CFA_SP, 4)
          CFI CFA_SP SP+-4
        PUSH      DPH
          CFI DPH0 Frame(CFA_SP, 5)
          CFI CFA_SP SP+-5
        ; Saved register size: 2
        ; Auto size: 0
// 1628 #if (ZG_BUILD_COORDINATOR_TYPE) 
// 1629   return bdbAttributes.bdbTrustCenterRequireKeyExchange;
        MOV       DPTR,#bdbAttributes + 17
        SJMP      ?Subroutine7
// 1630 #else
// 1631   return 0;
// 1632 #endif
// 1633 }
          CFI EndBlock cfiBlock89
// 1634 
// 1635 /*********************************************************************
// 1636  * @fn      bdb_rejoinNwk
// 1637  *
// 1638  * @brief   Attempt to rejoin/resume a nwk from nv parameters
// 1639  *
// 1640  * @param   none
// 1641  *
// 1642  * @return  ZStatus_t
// 1643  */

        RSEG BANKED_CODE:HUGECODE:NOROOT(0)
// 1644 ZStatus_t bdb_rejoinNwk(void)
bdb_rejoinNwk:
          CFI Block cfiBlock90 Using cfiCommon0
          CFI Function bdb_rejoinNwk
        CODE
// 1645 {
        FUNCALL bdb_rejoinNwk, osal_nv_write
        LOCFRAME ISTACK, 0, STACK
        LOCFRAME PSTACK, 0, STACK
        LOCFRAME XSTACK, 15, STACK
        LOCFRAME IOVERLAY, 0, STATIC
        LOCFRAME DOVERLAY, 0, STATIC
        ARGFRAME ISTACK, 0, STACK
        ARGFRAME PSTACK, 0, STACK
        ARGFRAME XSTACK, 15, STACK
        ARGFRAME IOVERLAY, 0, STATIC
        ARGFRAME DOVERLAY, 0, STATIC
        FUNCALL bdb_rejoinNwk, ZDApp_RestoreNwkKey
        LOCFRAME ISTACK, 0, STACK
        LOCFRAME PSTACK, 0, STACK
        LOCFRAME XSTACK, 11, STACK
        LOCFRAME IOVERLAY, 0, STATIC
        LOCFRAME DOVERLAY, 0, STATIC
        ARGFRAME ISTACK, 0, STACK
        ARGFRAME PSTACK, 0, STACK
        ARGFRAME XSTACK, 11, STACK
        ARGFRAME IOVERLAY, 0, STATIC
        ARGFRAME DOVERLAY, 0, STATIC
        FUNCALL bdb_rejoinNwk, ZDApp_ChangeState
        LOCFRAME ISTACK, 0, STACK
        LOCFRAME PSTACK, 0, STACK
        LOCFRAME XSTACK, 11, STACK
        LOCFRAME IOVERLAY, 0, STATIC
        LOCFRAME DOVERLAY, 0, STATIC
        ARGFRAME ISTACK, 0, STACK
        ARGFRAME PSTACK, 0, STACK
        ARGFRAME XSTACK, 11, STACK
        ARGFRAME IOVERLAY, 0, STATIC
        ARGFRAME DOVERLAY, 0, STATIC
        FUNCALL bdb_rejoinNwk, ZDApp_ChangeState
        LOCFRAME ISTACK, 0, STACK
        LOCFRAME PSTACK, 0, STACK
        LOCFRAME XSTACK, 11, STACK
        LOCFRAME IOVERLAY, 0, STATIC
        LOCFRAME DOVERLAY, 0, STATIC
        ARGFRAME ISTACK, 0, STACK
        ARGFRAME PSTACK, 0, STACK
        ARGFRAME XSTACK, 11, STACK
        ARGFRAME IOVERLAY, 0, STATIC
        ARGFRAME DOVERLAY, 0, STATIC
        FUNCALL bdb_rejoinNwk, ZMacSetReq
        LOCFRAME ISTACK, 0, STACK
        LOCFRAME PSTACK, 0, STACK
        LOCFRAME XSTACK, 11, STACK
        LOCFRAME IOVERLAY, 0, STATIC
        LOCFRAME DOVERLAY, 0, STATIC
        ARGFRAME ISTACK, 0, STACK
        ARGFRAME PSTACK, 0, STACK
        ARGFRAME XSTACK, 11, STACK
        ARGFRAME IOVERLAY, 0, STATIC
        ARGFRAME DOVERLAY, 0, STATIC
        FUNCALL bdb_rejoinNwk, ZDApp_RestoreNwkKey
        LOCFRAME ISTACK, 0, STACK
        LOCFRAME PSTACK, 0, STACK
        LOCFRAME XSTACK, 11, STACK
        LOCFRAME IOVERLAY, 0, STATIC
        LOCFRAME DOVERLAY, 0, STATIC
        ARGFRAME ISTACK, 0, STACK
        ARGFRAME PSTACK, 0, STACK
        ARGFRAME XSTACK, 11, STACK
        ARGFRAME IOVERLAY, 0, STATIC
        ARGFRAME DOVERLAY, 0, STATIC
        FUNCALL bdb_rejoinNwk, NLME_ReJoinRequest
        LOCFRAME ISTACK, 0, STACK
        LOCFRAME PSTACK, 0, STACK
        LOCFRAME XSTACK, 11, STACK
        LOCFRAME IOVERLAY, 0, STATIC
        LOCFRAME DOVERLAY, 0, STATIC
        ARGFRAME ISTACK, 0, STACK
        ARGFRAME PSTACK, 0, STACK
        ARGFRAME XSTACK, 11, STACK
        ARGFRAME IOVERLAY, 0, STATIC
        ARGFRAME DOVERLAY, 0, STATIC
        FUNCALL bdb_rejoinNwk, NLME_ReJoinRequestUnsecure
        LOCFRAME ISTACK, 0, STACK
        LOCFRAME PSTACK, 0, STACK
        LOCFRAME XSTACK, 11, STACK
        LOCFRAME IOVERLAY, 0, STATIC
        LOCFRAME DOVERLAY, 0, STATIC
        ARGFRAME ISTACK, 0, STACK
        ARGFRAME PSTACK, 0, STACK
        ARGFRAME XSTACK, 11, STACK
        ARGFRAME IOVERLAY, 0, STATIC
        ARGFRAME DOVERLAY, 0, STATIC
        REQUIRE ?V0
        REQUIRE ?V1
        MOV       A,#-0xa
        LCALL     ?BANKED_ENTER_XDATA
          CFI DPH0 load(1, XDATA, add(CFA_XSP16, literal(-1)))
          CFI DPL0 load(1, XDATA, add(CFA_XSP16, literal(-2)))
          CFI ?BRET_EXT load(1, XDATA, add(CFA_XSP16, literal(-3)))
          CFI ?RET_HIGH load(1, XDATA, add(CFA_XSP16, literal(-4)))
          CFI ?RET_LOW load(1, XDATA, add(CFA_XSP16, literal(-5)))
          CFI R7 load(1, XDATA, add(CFA_XSP16, literal(-6)))
          CFI V1 load(1, XDATA, add(CFA_XSP16, literal(-7)))
          CFI V0 load(1, XDATA, add(CFA_XSP16, literal(-8)))
          CFI VB load(1, XDATA, add(CFA_XSP16, literal(-9)))
          CFI R6 load(1, XDATA, add(CFA_XSP16, literal(-10)))
          CFI CFA_SP SP+0
          CFI CFA_XSP16 add(XSP16, 10)
        ; Saved register size: 10
        ; Auto size: 1
        MOV       A,#-0x1
        LCALL     ?ALLOC_XSTACK8
          CFI CFA_XSP16 add(XSP16, 11)
// 1646   ZStatus_t rejoinStatus = ZSuccess;
        MOV       R6,#0x0
// 1647   
// 1648   //Update the seq number
// 1649   _NIB.SequenceNum ++;
        MOV       DPTR,#_NIB
        MOVX      A,@DPTR
        INC       A
        MOVX      @DPTR,A
// 1650   
// 1651   osal_nv_write(ZCD_NV_NIB,osal_offsetof( nwkIB_t, SequenceNum ), sizeof( uint8), &_NIB.SequenceNum );
        ; Setup parameters for call to function osal_nv_write
        MOV       ?V0,#_NIB & 0xff
        MOV       ?V1,#(_NIB >> 8) & 0xff
        MOV       R0,#?V0
        LCALL     ?PUSH_XSTACK_I_TWO
          CFI CFA_XSP16 add(XSP16, 13)
        MOV       ?V0,#0x1
        MOV       ?V1,R6
        MOV       R0,#?V0
        LCALL     ?PUSH_XSTACK_I_TWO
          CFI CFA_XSP16 add(XSP16, 15)
        MOV       R4,#0x0
        MOV       R5,#0x0
        MOV       R2,#0x21
        MOV       R3,#0x0
        LCALL     `??osal_nv_write::?relay`; Banked call to: osal_nv_write
        MOV       A,#0x4
        LCALL     ?DEALLOC_XSTACK8
          CFI CFA_XSP16 add(XSP16, 11)
// 1652   
// 1653   // Transition state machine to correct rejoin state based on nwk key
// 1654   if ( ZDApp_RestoreNwkKey( FALSE )== TRUE )
        ; Setup parameters for call to function ZDApp_RestoreNwkKey
        MOV       R1,#0x0
        LCALL     `??ZDApp_RestoreNwkKey::?relay`; Banked call to: ZDApp_RestoreNwkKey
        MOV       A,R1
        XRL       A,#0x1
        JNZ       ??bdb_rejoinNwk_0
// 1655   {
// 1656     ZDApp_ChangeState( DEV_NWK_SEC_REJOIN_CURR_CHANNEL );
        ; Setup parameters for call to function ZDApp_ChangeState
        MOV       R1,#0x4
        SJMP      ??bdb_rejoinNwk_1
// 1657   }
// 1658   else
// 1659   {
// 1660     ZDApp_ChangeState( DEV_NWK_TC_REJOIN_CURR_CHANNEL );
??bdb_rejoinNwk_0:
        ; Setup parameters for call to function ZDApp_ChangeState
        MOV       R1,#0xe
??bdb_rejoinNwk_1:
        LCALL     `??ZDApp_ChangeState::?relay`; Banked call to: ZDApp_ChangeState
// 1661   }
// 1662 
// 1663   // Before trying to do rejoin, check if the device has a valid short address
// 1664   // If not, generate a random short address for itself
// 1665   if ( _NIB.nwkDevAddress == INVALID_NODE_ADDR )
        MOV       DPTR,#_NIB + 20
        MOVX      A,@DPTR
        XRL       A,#0xfe
        JNZ       ??bdb_rejoinNwk_2
        INC       DPTR
        MOVX      A,@DPTR
        CPL       A
??bdb_rejoinNwk_2:
        JNZ       ??bdb_rejoinNwk_3
// 1666   {
// 1667     rejoinStatus = ZFailure;
        MOV       R6,#0x1
// 1668   }
// 1669 
// 1670   // Check if the device has a valid PanID, if not, set it to the discovered Pan
// 1671   if ( _NIB.nwkPanId == 0xFFFF )
??bdb_rejoinNwk_3:
        MOV       DPTR,#_NIB + 33
        MOVX      A,@DPTR
        CPL       A
        JNZ       ??bdb_rejoinNwk_4
        INC       DPTR
        MOVX      A,@DPTR
        CPL       A
??bdb_rejoinNwk_4:
        JNZ       ??bdb_rejoinNwk_5
// 1672   {
// 1673     rejoinStatus = ZFailure;
        MOV       R6,#0x1
        SJMP      ??bdb_rejoinNwk_6
// 1674   }
// 1675 
// 1676   if(rejoinStatus == ZSuccess)
??bdb_rejoinNwk_5:
        MOV       A,R6
        MOV       C,0xE0 /* A   */.0
        JC        ??bdb_rejoinNwk_6
// 1677   {
// 1678     uint8 tmp = true;
        MOV       DPL,?XSP + 0
        MOV       DPH,?XSP + 1
        MOV       A,#0x1
        MOVX      @DPTR,A
// 1679     ZMacSetReq( ZMacRxOnIdle, &tmp ); // Set receiver always on during rejoin
        ; Setup parameters for call to function ZMacSetReq
        MOV       R2,?XSP + 0
        MOV       R3,?XSP + 1
        MOV       R1,#0x52
        LCALL     `??ZMacSetReq::?relay`; Banked call to: ZMacSetReq
// 1680         
// 1681     // Perform Secure or Unsecure Rejoin depending on available configuration
// 1682     if ( ZG_SECURE_ENABLED && ( ZDApp_RestoreNwkKey( TRUE ) == TRUE ) )
        ; Setup parameters for call to function ZDApp_RestoreNwkKey
        MOV       R1,#0x1
        LCALL     `??ZDApp_RestoreNwkKey::?relay`; Banked call to: ZDApp_RestoreNwkKey
        MOV       A,R1
        XRL       A,#0x1
        MOV       DPTR,#_NIB + 22
        JNZ       ??bdb_rejoinNwk_7
// 1683     {
// 1684       rejoinStatus = NLME_ReJoinRequest( ZDO_UseExtendedPANID, _NIB.nwkLogicalChannel);
        ; Setup parameters for call to function NLME_ReJoinRequest
        MOVX      A,@DPTR
        MOV       R1,A
        MOV       R2,#ZDO_UseExtendedPANID & 0xff
        MOV       R3,#(ZDO_UseExtendedPANID >> 8) & 0xff
        LCALL     `??NLME_ReJoinRequest::?relay`; Banked call to: NLME_ReJoinRequest
        SJMP      ??bdb_rejoinNwk_8
// 1685     }
// 1686     else
// 1687     {
// 1688       rejoinStatus = NLME_ReJoinRequestUnsecure( ZDO_UseExtendedPANID, _NIB.nwkLogicalChannel);
??bdb_rejoinNwk_7:
        ; Setup parameters for call to function NLME_ReJoinRequestUnsecure
        MOVX      A,@DPTR
        MOV       R1,A
        MOV       R2,#ZDO_UseExtendedPANID & 0xff
        MOV       R3,#(ZDO_UseExtendedPANID >> 8) & 0xff
        LCALL     `??NLME_ReJoinRequestUnsecure::?relay`; Banked call to: NLME_ReJoinRequestUnsecure
??bdb_rejoinNwk_8:
        MOV       A,R1
        MOV       R6,A
// 1689     }
// 1690   }
// 1691   
// 1692   return rejoinStatus;
??bdb_rejoinNwk_6:
        MOV       A,R6
        MOV       R1,A
        MOV       A,#0x1
        LJMP      ?Subroutine1 & 0xFFFF
// 1693 }
          CFI EndBlock cfiBlock90
// 1694 
// 1695 #if (ZG_BUILD_JOINING_TYPE)
// 1696  /*********************************************************************
// 1697  * @fn          bdb_nwkDiscoveryAttempt
// 1698  *
// 1699  * @brief       Process a nwk discovery attempt
// 1700  *
// 1701  * @param       didSuccess - TRUE we found nwk in the scanned channels, FALSE if 
// 1702  *                           no suitable nwks were found, try secondary channel
// 1703  *
// 1704  * @return      none
// 1705  */
// 1706 void bdb_nwkDiscoveryAttempt(bool didSuccess)
// 1707 {
// 1708   uint8 bdbJoinEvent = BDB_JOIN_EVENT_NWK_DISCOVERY;
// 1709   
// 1710   if(didSuccess)
// 1711   {
// 1712     bdb_SendMsg(bdb_TaskID, BDB_COMMISSIONING_STATE_JOINING, BDB_MSG_EVENT_SUCCESS,sizeof(bdbJoinEvent),(uint8*)&bdbJoinEvent);
// 1713   }
// 1714   else
// 1715   {
// 1716     //Can we try the secondary channel set?
// 1717     if((vDoPrimaryScan) && (bdbAttributes.bdbSecondaryChannelSet))
// 1718     {
// 1719       vDoPrimaryScan = FALSE;
// 1720       bdb_setChannel(bdbAttributes.bdbSecondaryChannelSet);
// 1721       
// 1722       ZDApp_NetworkInit( 50 );
// 1723     }
// 1724     else
// 1725     {
// 1726       bdb_reportCommissioningState(BDB_COMMISSIONING_STATE_JOINING, FALSE);
// 1727     }
// 1728   }
// 1729 }
// 1730 
// 1731  /*********************************************************************
// 1732  * @fn          bdb_filterNwkDisc
// 1733  *
// 1734  * @brief       Filter the nwks found and attempt to join the suitable nwks
// 1735  *              Here the application can include nwk filters 
// 1736  *
// 1737  * @param       none
// 1738  *
// 1739  * @return      none
// 1740  */
// 1741 void bdb_filterNwkDisc(void)
// 1742 {
// 1743   networkDesc_t* pNwkDesc;
// 1744   uint8 i = 0;
// 1745   uint8 ResultCount = 0;
// 1746   uint8 stackProfile = 0;
// 1747   uint8 stackProfilePro = 0;
// 1748   
// 1749   pBDBListNwk  = nwk_getNwkDescList();
// 1750   nwk_desc_list_release();
// 1751   
// 1752   pNwkDesc = pBDBListNwk;
// 1753   while (pNwkDesc)
// 1754   {
// 1755     ResultCount++;
// 1756     pNwkDesc = pNwkDesc->nextDesc;
// 1757   }
// 1758   
// 1759   if(pBDBListNwk)
// 1760   {
// 1761     if(pfnFilterNwkDesc)
// 1762     {
// 1763       pfnFilterNwkDesc(pBDBListNwk, ResultCount);
// 1764     }
// 1765     
// 1766     for ( stackProfile = 0; stackProfile < STACK_PROFILE_MAX; stackProfile++ )
// 1767     {
// 1768       pNwkDesc = pBDBListNwk;
// 1769       
// 1770       if(pNwkDesc)
// 1771       {
// 1772         for ( i = 0; i < ResultCount; i++, pNwkDesc = pNwkDesc->nextDesc )
// 1773         {
// 1774           if ( nwk_ExtPANIDValid( ZDO_UseExtendedPANID ) == true )
// 1775           {
// 1776             // If the extended Pan ID is commissioned to a non zero value
// 1777             // Only join the Pan that has match EPID
// 1778             if ( osal_ExtAddrEqual( ZDO_UseExtendedPANID, pNwkDesc->extendedPANID) == false )
// 1779             {
// 1780               //Remove from the list
// 1781               bdb_nwkDescFree(pNwkDesc);
// 1782               ResultCount--;
// 1783               continue;
// 1784             }
// 1785           }
// 1786           else if ( zgConfigPANID != 0xFFFF )
// 1787           {
// 1788             // PAN Id is preconfigured. check if it matches
// 1789             if ( pNwkDesc->panId != zgConfigPANID )
// 1790             {
// 1791               //Remove from the list
// 1792               bdb_nwkDescFree(pNwkDesc);
// 1793               ResultCount--;
// 1794               continue;
// 1795             }
// 1796           }
// 1797 
// 1798           if ( pNwkDesc->chosenRouter != _NIB.nwkCoordAddress || _NIB.nwkCoordAddress == INVALID_NODE_ADDR )
// 1799           {
// 1800             // check that network is allowing joining
// 1801             if ( ZSTACK_ROUTER_BUILD )
// 1802             {
// 1803               if ( stackProfilePro == FALSE )
// 1804               {
// 1805                 if ( !pNwkDesc->routerCapacity )
// 1806                 {
// 1807                   //Remove from the list
// 1808                   bdb_nwkDescFree(pNwkDesc);
// 1809                   ResultCount--;
// 1810                   continue;
// 1811                 }
// 1812               }
// 1813               else
// 1814               {
// 1815                 if ( !pNwkDesc->deviceCapacity )
// 1816                 {
// 1817                   //Remove from the list
// 1818                   bdb_nwkDescFree(pNwkDesc);
// 1819                   ResultCount--;
// 1820                   continue;
// 1821                 }
// 1822               }
// 1823             }
// 1824             else if ( ZSTACK_END_DEVICE_BUILD )
// 1825             {
// 1826               if ( !pNwkDesc->deviceCapacity )
// 1827               {
// 1828                 //Remove from the list
// 1829                 bdb_nwkDescFree(pNwkDesc);
// 1830                 ResultCount--;
// 1831                 continue;
// 1832               }
// 1833             }
// 1834           }
// 1835 
// 1836           // check version of zigbee protocol
// 1837           if ( pNwkDesc->version != _NIB.nwkProtocolVersion )
// 1838             continue;
// 1839 
// 1840           // check version of stack profile
// 1841           if ( pNwkDesc->stackProfile != zgStackProfile  )
// 1842           {
// 1843             if ( ((zgStackProfile == HOME_CONTROLS) && (pNwkDesc->stackProfile == ZIGBEEPRO_PROFILE))
// 1844                 || ((zgStackProfile == ZIGBEEPRO_PROFILE) && (pNwkDesc->stackProfile == HOME_CONTROLS))  )
// 1845             {
// 1846               stackProfilePro = TRUE;
// 1847             }
// 1848 
// 1849             if ( stackProfile == 0 )
// 1850             {
// 1851               //Remove from the list
// 1852               bdb_nwkDescFree(pNwkDesc);
// 1853               ResultCount--;
// 1854               continue;
// 1855             }
// 1856           }
// 1857         }
// 1858       }
// 1859     }
// 1860   }
// 1861 }
// 1862       
// 1863  /*********************************************************************
// 1864  * @fn          bdb_tryNwkAssoc
// 1865  *
// 1866  * @brief       Try to associate to the first network in the network descriptor list
// 1867  *
// 1868  * @param       none
// 1869  *
// 1870  * @return      none
// 1871  */
// 1872 static void bdb_tryNwkAssoc(void)
// 1873 {
// 1874   if(pBDBListNwk)
// 1875   {
// 1876     bdbCommissioningProcedureState.bdbJoinState = BDB_JOIN_STATE_ASSOC;
// 1877     
// 1878     //Try the first in the list after the filtering
// 1879     if(ZSuccess != bdb_joinProcess(pBDBListNwk))
// 1880     {
// 1881       //If fail, free the first in the list and prepare for futher processing, either next nwk or discover again
// 1882       uint8 bdbJoinEvent = BDB_JOIN_EVENT_ASSOCIATION;
// 1883       bdb_nwkDescFree(pBDBListNwk);
// 1884       bdb_SendMsg(bdb_TaskID,BDB_COMMISSIONING_STATE_JOINING,BDB_MSG_EVENT_FAIL,sizeof(uint8),&bdbJoinEvent);
// 1885     }
// 1886   }
// 1887   else
// 1888   {
// 1889     bdbCommissioningProcedureState.bdbJoinState = BDB_JOIN_STATE_NWK_DISC;
// 1890     uint8 bdbJoinEvent = BDB_JOIN_EVENT_NWK_DISCOVERY;
// 1891     
// 1892     bdb_SendMsg(bdb_TaskID,BDB_COMMISSIONING_STATE_JOINING,BDB_MSG_EVENT_FAIL,sizeof(uint8),&bdbJoinEvent);
// 1893   }
// 1894 }
// 1895 
// 1896 
// 1897 
// 1898  /*********************************************************************
// 1899  * @fn          bdb_nwkAssocAttemt
// 1900  *
// 1901  * @brief       Process the result of an attempt to associate to a network 
// 1902  *
// 1903  * @param       didSuccess - bool
// 1904  *
// 1905  * @return      none
// 1906  */
// 1907 void bdb_nwkAssocAttemt(bool didSuccess)
// 1908 {
// 1909   bdbAttributes.bdbCommissioningStatus = BDB_COMMISSIONING_STATE_JOINING;
// 1910   uint8 bdbJoinEvent = BDB_JOIN_EVENT_ASSOCIATION;
// 1911   uint8 status;
// 1912   
// 1913   if(didSuccess)
// 1914   {
// 1915     status = BDB_MSG_EVENT_SUCCESS;
// 1916   }
// 1917   else
// 1918   {
// 1919     if(bdb_nwkAssocRetriesCount < BDBC_REC_SAME_NETWORK_RETRY_ATTEMPS)
// 1920     {
// 1921       bdb_nwkAssocRetriesCount++;
// 1922     }
// 1923     else
// 1924     {
// 1925       //Free the first in the list and prepare for futher processing
// 1926       bdb_nwkDescFree(pBDBListNwk);
// 1927       bdb_nwkAssocRetriesCount = 0;
// 1928     }
// 1929     status = BDB_MSG_EVENT_FAIL;
// 1930   }
// 1931   bdb_SendMsg(bdb_TaskID,BDB_COMMISSIONING_STATE_JOINING,status,sizeof(uint8),&bdbJoinEvent);
// 1932 }
// 1933                        
// 1934 
// 1935 /****************************************************************************
// 1936  * @fn          bdb_nwkDescFree
// 1937  *
// 1938  * @brief       This function frees one network discovery data.
// 1939  *
// 1940  * @param       ZSuccess - If the device was found and erased
// 1941  * @param       ZInvalidParameter - Not found
// 1942  *
// 1943  * @return      none
// 1944  */
// 1945 ZStatus_t bdb_nwkDescFree(networkDesc_t* nodeDescToRemove)
// 1946 {
// 1947   networkDesc_t* current_desc;
// 1948   networkDesc_t* prev_desc;
// 1949   
// 1950   current_desc = pBDBListNwk;
// 1951 
// 1952   while(current_desc != NULL)
// 1953   {  
// 1954     if(current_desc == nodeDescToRemove)
// 1955     {
// 1956       if (current_desc == pBDBListNwk)
// 1957       {
// 1958         pBDBListNwk = pBDBListNwk->nextDesc;
// 1959       }
// 1960       else
// 1961       {
// 1962         prev_desc->nextDesc = current_desc->nextDesc;
// 1963       }
// 1964       
// 1965       osal_mem_free( current_desc );
// 1966       
// 1967       return ZSuccess;
// 1968     }
// 1969 
// 1970     prev_desc = current_desc;
// 1971     current_desc = current_desc->nextDesc;
// 1972   }
// 1973   
// 1974   return ZInvalidParameter;
// 1975 }
// 1976 
// 1977 /*********************************************************************
// 1978 * @fn          bdb_joinProcess
// 1979 *
// 1980 * @brief       Start the joining process for the selected nwk
// 1981 *
// 1982 * @return      ZStatus_t
// 1983 */  
// 1984 ZStatus_t bdb_joinProcess(networkDesc_t *pChosenNwk)
// 1985 {
// 1986   ZStatus_t status;
// 1987  
// 1988   ZDApp_ChangeState( DEV_NWK_JOINING );
// 1989   ZDApp_NodeProfileSync( pChosenNwk->stackProfile);
// 1990 
// 1991   status =  NLME_JoinRequest( pChosenNwk->extendedPANID, pChosenNwk->panId,
// 1992                         pChosenNwk->logicalChannel,
// 1993                         ZDO_Config_Node_Descriptor.CapabilityFlags,
// 1994                         pChosenNwk->chosenRouter, pChosenNwk->chosenRouterDepth );
// 1995   
// 1996   if(status == ZSuccess)
// 1997   {
// 1998     // The receiver is on, turn network layer polling off.
// 1999     if ( ZDO_Config_Node_Descriptor.CapabilityFlags & CAPINFO_RCVR_ON_IDLE )
// 2000     {
// 2001       // for an End Device with NO Child Table Management process or for a Router
// 2002       if ( ( ZG_DEVICE_RTR_TYPE )  ||
// 2003            ( (ZG_DEVICE_ENDDEVICE_TYPE) && ( zgChildAgingEnable == FALSE ) ) )
// 2004       {
// 2005         NLME_SetPollRate( 0 );
// 2006         NLME_SetQueuedPollRate( 0 );
// 2007         NLME_SetResponseRate( 0 );
// 2008       }
// 2009     }
// 2010     else
// 2011     {
// 2012       if ( (ZG_SECURE_ENABLED) && (devStartMode == MODE_JOIN) )
// 2013       {
// 2014         ZDApp_SavedPollRate = zgPollRate;
// 2015         NLME_SetPollRate( zgRejoinPollRate );
// 2016       }
// 2017     }
// 2018   }
// 2019   return status;
// 2020 }
// 2021 #endif
// 2022 
// 2023 
// 2024  /*********************************************************************
// 2025  * @fn          bdb_setChannelAttribute
// 2026  *
// 2027  * @brief       Set the primary or seconday channel for discovery or formation procedure
// 2028  *
// 2029  * @param       isPrimaryChannel - True if channel to set is primary,  
// 2030  *                                 False if the channel to set is secondary
// 2031  *
// 2032  * @param       channel - Channel mask
// 2033  *
// 2034  * @return      none
// 2035  */

        RSEG BANKED_CODE:HUGECODE:NOROOT(0)
// 2036 void bdb_setChannelAttribute(bool isPrimaryChannel, uint32 channel)
bdb_setChannelAttribute:
          CFI Block cfiBlock91 Using cfiCommon0
          CFI Function bdb_setChannelAttribute
        CODE
// 2037 {
        REQUIRE ?V0
        REQUIRE ?V1
        REQUIRE ?V2
        REQUIRE ?V3
        MOV       A,#-0xc
        LCALL     ?BANKED_ENTER_XDATA
          CFI DPH0 load(1, XDATA, add(CFA_XSP16, literal(-1)))
          CFI DPL0 load(1, XDATA, add(CFA_XSP16, literal(-2)))
          CFI ?BRET_EXT load(1, XDATA, add(CFA_XSP16, literal(-3)))
          CFI ?RET_HIGH load(1, XDATA, add(CFA_XSP16, literal(-4)))
          CFI ?RET_LOW load(1, XDATA, add(CFA_XSP16, literal(-5)))
          CFI R7 load(1, XDATA, add(CFA_XSP16, literal(-6)))
          CFI V3 load(1, XDATA, add(CFA_XSP16, literal(-7)))
          CFI V2 load(1, XDATA, add(CFA_XSP16, literal(-8)))
          CFI V1 load(1, XDATA, add(CFA_XSP16, literal(-9)))
          CFI V0 load(1, XDATA, add(CFA_XSP16, literal(-10)))
          CFI VB load(1, XDATA, add(CFA_XSP16, literal(-11)))
          CFI R6 load(1, XDATA, add(CFA_XSP16, literal(-12)))
          CFI CFA_SP SP+0
          CFI CFA_XSP16 add(XSP16, 12)
        ; Saved register size: 12
        ; Auto size: 0
        MOV       ?V0,R2
        MOV       ?V1,R3
        MOV       ?V2,R4
        MOV       ?V3,R5
// 2038   if(isPrimaryChannel)
        MOV       A,R1
        JZ        ??bdb_setChannelAttribute_0
// 2039   {
// 2040     bdbAttributes.bdbPrimaryChannelSet = channel;
        MOV       DPTR,#bdbAttributes + 4
        SJMP      ??bdb_setChannelAttribute_1
// 2041   }
// 2042   else
// 2043   {
// 2044     bdbAttributes.bdbSecondaryChannelSet = channel;
??bdb_setChannelAttribute_0:
        MOV       DPTR,#bdbAttributes
??bdb_setChannelAttribute_1:
        MOV       R0,#?V0
        LCALL     ?L_MOV_TO_X
// 2045   }
// 2046 }
        SJMP      ??Subroutine37_0
          CFI EndBlock cfiBlock91
// 2047 
// 2048  /*********************************************************************
// 2049  * @fn          bdb_setChannel
// 2050  *
// 2051  * @brief       Set channel and save it in Nv for joining/formation operations
// 2052  *
// 2053  * @param       channel - Channel mask
// 2054  *
// 2055  * @return      none
// 2056  */

        RSEG BANKED_CODE:HUGECODE:NOROOT(0)
?Subroutine2:
          CFI Block cfiBlock92 Using cfiCommon0
          CFI NoFunction
          CFI CFA_SP SP+0
          CFI CFA_XSP16 add(XSP16, 16)
          CFI VB load(1, XDATA, add(CFA_XSP16, literal(-11)))
          CFI DPL0 load(1, XDATA, add(CFA_XSP16, literal(-2)))
          CFI DPH0 load(1, XDATA, add(CFA_XSP16, literal(-1)))
          CFI R6 load(1, XDATA, add(CFA_XSP16, literal(-12)))
          CFI R7 load(1, XDATA, add(CFA_XSP16, literal(-6)))
          CFI V0 load(1, XDATA, add(CFA_XSP16, literal(-10)))
          CFI V1 load(1, XDATA, add(CFA_XSP16, literal(-9)))
          CFI V2 load(1, XDATA, add(CFA_XSP16, literal(-8)))
          CFI V3 load(1, XDATA, add(CFA_XSP16, literal(-7)))
          CFI ?BRET_EXT load(1, XDATA, add(CFA_XSP16, literal(-3)))
          CFI ?RET_HIGH load(1, XDATA, add(CFA_XSP16, literal(-4)))
          CFI ?RET_LOW load(1, XDATA, add(CFA_XSP16, literal(-5)))
        MOV       A,#0x4
          CFI EndBlock cfiBlock92
        REQUIRE ??Subroutine36_0
        ; // Fall through to label ??Subroutine36_0

        RSEG BANKED_CODE:HUGECODE:NOROOT(0)
??Subroutine36_0:
          CFI Block cfiBlock93 Using cfiCommon0
          CFI NoFunction
          CFI CFA_SP SP+0
          CFI CFA_XSP16 add(XSP16, 20)
          CFI VB load(1, XDATA, add(CFA_XSP16, literal(-11)))
          CFI DPL0 load(1, XDATA, add(CFA_XSP16, literal(-2)))
          CFI DPH0 load(1, XDATA, add(CFA_XSP16, literal(-1)))
          CFI R6 load(1, XDATA, add(CFA_XSP16, literal(-12)))
          CFI R7 load(1, XDATA, add(CFA_XSP16, literal(-6)))
          CFI V0 load(1, XDATA, add(CFA_XSP16, literal(-10)))
          CFI V1 load(1, XDATA, add(CFA_XSP16, literal(-9)))
          CFI V2 load(1, XDATA, add(CFA_XSP16, literal(-8)))
          CFI V3 load(1, XDATA, add(CFA_XSP16, literal(-7)))
          CFI ?BRET_EXT load(1, XDATA, add(CFA_XSP16, literal(-3)))
          CFI ?RET_HIGH load(1, XDATA, add(CFA_XSP16, literal(-4)))
          CFI ?RET_LOW load(1, XDATA, add(CFA_XSP16, literal(-5)))
          CFI Invalid
        LCALL     ?DEALLOC_XSTACK8
          CFI EndBlock cfiBlock93
        REQUIRE ??Subroutine37_0
        ; // Fall through to label ??Subroutine37_0

        RSEG BANKED_CODE:HUGECODE:NOROOT(0)
??Subroutine37_0:
          CFI Block cfiBlock94 Using cfiCommon0
          CFI NoFunction
          CFI CFA_SP SP+0
          CFI CFA_XSP16 add(XSP16, 12)
          CFI VB load(1, XDATA, add(CFA_XSP16, literal(-11)))
          CFI DPL0 load(1, XDATA, add(CFA_XSP16, literal(-2)))
          CFI DPH0 load(1, XDATA, add(CFA_XSP16, literal(-1)))
          CFI R6 load(1, XDATA, add(CFA_XSP16, literal(-12)))
          CFI R7 load(1, XDATA, add(CFA_XSP16, literal(-6)))
          CFI V0 load(1, XDATA, add(CFA_XSP16, literal(-10)))
          CFI V1 load(1, XDATA, add(CFA_XSP16, literal(-9)))
          CFI V2 load(1, XDATA, add(CFA_XSP16, literal(-8)))
          CFI V3 load(1, XDATA, add(CFA_XSP16, literal(-7)))
          CFI ?BRET_EXT load(1, XDATA, add(CFA_XSP16, literal(-3)))
          CFI ?RET_HIGH load(1, XDATA, add(CFA_XSP16, literal(-4)))
          CFI ?RET_LOW load(1, XDATA, add(CFA_XSP16, literal(-5)))
        MOV       R7,#0x4
        LJMP      ?BANKED_LEAVE_XDATA
          CFI EndBlock cfiBlock94

        RSEG BANKED_CODE:HUGECODE:NOROOT(0)
// 2057 void bdb_setChannel(uint32 channel)
bdb_setChannel:
          CFI Block cfiBlock95 Using cfiCommon0
          CFI Function bdb_setChannel
        CODE
// 2058 {
        FUNCALL bdb_setChannel, osal_nv_write
        LOCFRAME ISTACK, 0, STACK
        LOCFRAME PSTACK, 0, STACK
        LOCFRAME XSTACK, 16, STACK
        LOCFRAME IOVERLAY, 0, STATIC
        LOCFRAME DOVERLAY, 0, STATIC
        ARGFRAME ISTACK, 0, STACK
        ARGFRAME PSTACK, 0, STACK
        ARGFRAME XSTACK, 16, STACK
        ARGFRAME IOVERLAY, 0, STATIC
        ARGFRAME DOVERLAY, 0, STATIC
        REQUIRE ?V0
        REQUIRE ?V1
        REQUIRE ?V2
        REQUIRE ?V3
        MOV       A,#-0xc
        LCALL     ?BANKED_ENTER_XDATA
          CFI DPH0 load(1, XDATA, add(CFA_XSP16, literal(-1)))
          CFI DPL0 load(1, XDATA, add(CFA_XSP16, literal(-2)))
          CFI ?BRET_EXT load(1, XDATA, add(CFA_XSP16, literal(-3)))
          CFI ?RET_HIGH load(1, XDATA, add(CFA_XSP16, literal(-4)))
          CFI ?RET_LOW load(1, XDATA, add(CFA_XSP16, literal(-5)))
          CFI R7 load(1, XDATA, add(CFA_XSP16, literal(-6)))
          CFI V3 load(1, XDATA, add(CFA_XSP16, literal(-7)))
          CFI V2 load(1, XDATA, add(CFA_XSP16, literal(-8)))
          CFI V1 load(1, XDATA, add(CFA_XSP16, literal(-9)))
          CFI V0 load(1, XDATA, add(CFA_XSP16, literal(-10)))
          CFI VB load(1, XDATA, add(CFA_XSP16, literal(-11)))
          CFI R6 load(1, XDATA, add(CFA_XSP16, literal(-12)))
          CFI CFA_SP SP+0
          CFI CFA_XSP16 add(XSP16, 12)
        ; Saved register size: 12
        ; Auto size: 0
        MOV       ?V0,R2
        MOV       ?V1,R3
        MOV       ?V2,R4
        MOV       ?V3,R5
// 2059   //Assign the channel and save it into nv
// 2060   vScanChannels = channel;
        MOV       DPTR,#zgDefaultChannelList
        MOV       R0,#?V0
        LCALL     ?L_MOV_TO_X
// 2061   runtimeChannel = channel;
        MOV       DPTR,#runtimeChannel
        MOV       R0,#?V0
        LCALL     ?L_MOV_TO_X
// 2062     
// 2063   osal_nv_write(ZCD_NV_CHANLIST,0,sizeof(uint32),&vScanChannels);
        ; Setup parameters for call to function osal_nv_write
        MOV       ?V0,#zgDefaultChannelList & 0xff
        MOV       ?V1,#(zgDefaultChannelList >> 8) & 0xff
        MOV       R0,#?V0
        LCALL     ?PUSH_XSTACK_I_TWO
          CFI CFA_XSP16 add(XSP16, 14)
        MOV       ?V0,#0x4
        MOV       ?V1,#0x0
        MOV       R0,#?V0
        LCALL     ?PUSH_XSTACK_I_TWO
          CFI CFA_XSP16 add(XSP16, 16)
        MOV       R4,#0x0
        MOV       R5,#0x0
        MOV       R2,#-0x7c
        MOV       R3,#0x0
        LCALL     `??osal_nv_write::?relay`; Banked call to: osal_nv_write
        SJMP      ?Subroutine2
// 2064 }
          CFI EndBlock cfiBlock95
// 2065 
// 2066 
// 2067  /*********************************************************************
// 2068  * @fn          bdb_nwkJoiningFormation   
// 2069  *
// 2070  * @brief       Performs Joining/Formation operation on primary or secondary channel
// 2071  *
// 2072  * @param       isJoining - TRUE if the device is performing joining, FALSE is performing Formation
// 2073  *
// 2074  * @return      none
// 2075  */

        RSEG BANKED_CODE:HUGECODE:NOROOT(0)
// 2076 void bdb_nwkJoiningFormation(bool isJoining)
bdb_nwkJoiningFormation:
          CFI Block cfiBlock96 Using cfiCommon0
          CFI Function bdb_nwkJoiningFormation
        CODE
// 2077 {
        FUNCALL bdb_nwkJoiningFormation, bdb_setChannel
        LOCFRAME ISTACK, 0, STACK
        LOCFRAME PSTACK, 0, STACK
        LOCFRAME XSTACK, 12, STACK
        LOCFRAME IOVERLAY, 0, STATIC
        LOCFRAME DOVERLAY, 0, STATIC
        ARGFRAME ISTACK, 0, STACK
        ARGFRAME PSTACK, 0, STACK
        ARGFRAME XSTACK, 12, STACK
        ARGFRAME IOVERLAY, 0, STATIC
        ARGFRAME DOVERLAY, 0, STATIC
        FUNCALL bdb_nwkJoiningFormation, bdb_setChannel
        LOCFRAME ISTACK, 0, STACK
        LOCFRAME PSTACK, 0, STACK
        LOCFRAME XSTACK, 12, STACK
        LOCFRAME IOVERLAY, 0, STATIC
        LOCFRAME DOVERLAY, 0, STATIC
        ARGFRAME ISTACK, 0, STACK
        ARGFRAME PSTACK, 0, STACK
        ARGFRAME XSTACK, 12, STACK
        ARGFRAME IOVERLAY, 0, STATIC
        ARGFRAME DOVERLAY, 0, STATIC
        FUNCALL bdb_nwkJoiningFormation, ZDOInitDeviceEx
        LOCFRAME ISTACK, 0, STACK
        LOCFRAME PSTACK, 0, STACK
        LOCFRAME XSTACK, 12, STACK
        LOCFRAME IOVERLAY, 0, STATIC
        LOCFRAME DOVERLAY, 0, STATIC
        ARGFRAME ISTACK, 0, STACK
        ARGFRAME PSTACK, 0, STACK
        ARGFRAME XSTACK, 12, STACK
        ARGFRAME IOVERLAY, 0, STATIC
        ARGFRAME DOVERLAY, 0, STATIC
        FUNCALL bdb_nwkJoiningFormation, ZDOInitDeviceEx
        LOCFRAME ISTACK, 0, STACK
        LOCFRAME PSTACK, 0, STACK
        LOCFRAME XSTACK, 12, STACK
        LOCFRAME IOVERLAY, 0, STATIC
        LOCFRAME DOVERLAY, 0, STATIC
        ARGFRAME ISTACK, 0, STACK
        ARGFRAME PSTACK, 0, STACK
        ARGFRAME XSTACK, 12, STACK
        ARGFRAME IOVERLAY, 0, STATIC
        ARGFRAME DOVERLAY, 0, STATIC
        FUNCALL bdb_nwkJoiningFormation, bdb_reportCommissioningState
        LOCFRAME ISTACK, 0, STACK
        LOCFRAME PSTACK, 0, STACK
        LOCFRAME XSTACK, 12, STACK
        LOCFRAME IOVERLAY, 0, STATIC
        LOCFRAME DOVERLAY, 0, STATIC
        ARGFRAME ISTACK, 0, STACK
        ARGFRAME PSTACK, 0, STACK
        ARGFRAME XSTACK, 12, STACK
        ARGFRAME IOVERLAY, 0, STATIC
        ARGFRAME DOVERLAY, 0, STATIC
        FUNCALL bdb_nwkJoiningFormation, bdb_reportCommissioningState
        LOCFRAME ISTACK, 0, STACK
        LOCFRAME PSTACK, 0, STACK
        LOCFRAME XSTACK, 12, STACK
        LOCFRAME IOVERLAY, 0, STATIC
        LOCFRAME DOVERLAY, 0, STATIC
        ARGFRAME ISTACK, 0, STACK
        ARGFRAME PSTACK, 0, STACK
        ARGFRAME XSTACK, 12, STACK
        ARGFRAME IOVERLAY, 0, STATIC
        ARGFRAME DOVERLAY, 0, STATIC
        REQUIRE ?V0
        REQUIRE ?V1
        REQUIRE ?V2
        REQUIRE ?V3
        MOV       A,#-0xc
        LCALL     ?BANKED_ENTER_XDATA
          CFI DPH0 load(1, XDATA, add(CFA_XSP16, literal(-1)))
          CFI DPL0 load(1, XDATA, add(CFA_XSP16, literal(-2)))
          CFI ?BRET_EXT load(1, XDATA, add(CFA_XSP16, literal(-3)))
          CFI ?RET_HIGH load(1, XDATA, add(CFA_XSP16, literal(-4)))
          CFI ?RET_LOW load(1, XDATA, add(CFA_XSP16, literal(-5)))
          CFI R7 load(1, XDATA, add(CFA_XSP16, literal(-6)))
          CFI V3 load(1, XDATA, add(CFA_XSP16, literal(-7)))
          CFI V2 load(1, XDATA, add(CFA_XSP16, literal(-8)))
          CFI V1 load(1, XDATA, add(CFA_XSP16, literal(-9)))
          CFI V0 load(1, XDATA, add(CFA_XSP16, literal(-10)))
          CFI VB load(1, XDATA, add(CFA_XSP16, literal(-11)))
          CFI R6 load(1, XDATA, add(CFA_XSP16, literal(-12)))
          CFI CFA_SP SP+0
          CFI CFA_XSP16 add(XSP16, 12)
        ; Saved register size: 12
        ; Auto size: 0
        MOV       A,R1
        MOV       R6,A
// 2078   
// 2079   if((vDoPrimaryScan) && (bdbAttributes.bdbPrimaryChannelSet))
        MOV       DPTR,#vDoPrimaryScan
        MOVX      A,@DPTR
        JZ        ??bdb_nwkJoiningFormation_0
        MOV       DPTR,#bdbAttributes + 4
        MOV       R0,#?V0
        LCALL     ?L_MOV_X
        MOV       A,?V0
        ORL       A,?V1
        ORL       A,?V2
        ORL       A,?V3
        JZ        ??bdb_nwkJoiningFormation_0
// 2080   {
// 2081     bdb_setChannel(bdbAttributes.bdbPrimaryChannelSet);
        ; Setup parameters for call to function bdb_setChannel
        MOV       R2,?V0
        MOV       R3,?V1
        MOV       R4,?V2
        MOV       R5,?V3
        SJMP      ??bdb_nwkJoiningFormation_1
// 2082   }
// 2083   else
// 2084   {
// 2085     vDoPrimaryScan = FALSE;
??bdb_nwkJoiningFormation_0:
        MOV       DPTR,#vDoPrimaryScan
        CLR       A
        MOVX      @DPTR,A
// 2086     bdb_setChannel(bdbAttributes.bdbSecondaryChannelSet);
        ; Setup parameters for call to function bdb_setChannel
        MOV       DPTR,#bdbAttributes
        LCALL     ?XLOAD_R2345
??bdb_nwkJoiningFormation_1:
        LCALL     `??bdb_setChannel::?relay`; Banked call to: bdb_setChannel
// 2087   }
// 2088 
// 2089   if(vScanChannels)
        MOV       DPTR,#zgDefaultChannelList
        LCALL     ?XLOAD_R0123
        MOV       A,R0
        ORL       A,R1
        ORL       A,R2
        ORL       A,R3
        JZ        ??bdb_nwkJoiningFormation_2
// 2090   {
// 2091     if(ZG_DEVICE_RTRONLY_TYPE)
        MOV       DPTR,#zgDeviceLogicalType
        MOVX      A,@DPTR
        XRL       A,#0x1
        JNZ       ??bdb_nwkJoiningFormation_3
// 2092     {
// 2093       if(isJoining)
        MOV       A,R6
        JNZ       ??bdb_nwkJoiningFormation_3
// 2094       {
// 2095         ZDOInitDeviceEx(100,0);
// 2096       }
// 2097       else
// 2098       {
// 2099         ZDOInitDeviceEx(100,1);
        ; Setup parameters for call to function ZDOInitDeviceEx
        MOV       R1,#0x1
        SJMP      ??bdb_nwkJoiningFormation_4
// 2100       }
// 2101     }
// 2102     //ZED can only join, and ZC can only create
// 2103     else
// 2104     {
// 2105       ZDOInitDeviceEx(100,0);
??bdb_nwkJoiningFormation_3:
        ; Setup parameters for call to function ZDOInitDeviceEx
        MOV       R1,#0x0
??bdb_nwkJoiningFormation_4:
        MOV       R2,#0x64
        MOV       R3,#0x0
        LCALL     `??ZDOInitDeviceEx::?relay`; Banked call to: ZDOInitDeviceEx
        SJMP      ??bdb_nwkJoiningFormation_5
// 2106     }
// 2107   }
// 2108   else
// 2109   {
// 2110     if(isJoining)
??bdb_nwkJoiningFormation_2:
        MOV       A,R6
        MOV       R2,#0x0
        JZ        ??bdb_nwkJoiningFormation_6
// 2111     {
// 2112       bdb_reportCommissioningState(BDB_COMMISSIONING_STATE_JOINING, FALSE);
        ; Setup parameters for call to function bdb_reportCommissioningState
        MOV       R1,#0x3
        SJMP      ??bdb_nwkJoiningFormation_7
// 2113     }
// 2114     else
// 2115     {
// 2116       bdb_reportCommissioningState(BDB_COMMISSIONING_STATE_FORMATION, FALSE);
??bdb_nwkJoiningFormation_6:
        ; Setup parameters for call to function bdb_reportCommissioningState
        MOV       R1,#0x5
??bdb_nwkJoiningFormation_7:
        LCALL     `??bdb_reportCommissioningState::?relay`; Banked call to: bdb_reportCommissioningState
// 2117     }
// 2118   }
// 2119 }
??bdb_nwkJoiningFormation_5:
        LJMP      ??Subroutine37_0 & 0xFFFF
          CFI EndBlock cfiBlock96
// 2120 
// 2121 #if (ZG_BUILD_JOINING_TYPE)
// 2122  /*********************************************************************
// 2123  * @fn          bdb_tcLinkKeyExchangeAttempt
// 2124  *
// 2125  * @brief       Generic send msg for TC link key exchange process attempts
// 2126  *
// 2127  * @param       didSuccess - FALSE if the step failed/timeout, TRUE otherwise
// 2128  * @param       bdbTCExchangeState - Step in which the attemp was done
// 2129  *
// 2130  * @return      none
// 2131  */
// 2132 void bdb_tcLinkKeyExchangeAttempt(bool didSuccess, uint8 bdbTCExchangeState)
// 2133 {
// 2134   bool bdbEventStatus = BDB_MSG_EVENT_SUCCESS;
// 2135   uint8 dummy;
// 2136   bdbCommissioningProcedureState.bdbTCExchangeState = bdbTCExchangeState;
// 2137   if(didSuccess)
// 2138   {
// 2139     //Allow try since we are performing a new step.
// 2140     osal_stop_timerEx(bdb_TaskID, BDB_PROCESS_TIMEOUT);
// 2141     bdbAttributes.bdbTCLinkKeyExchangeAttempts = 0;
// 2142   }
// 2143   else
// 2144   {
// 2145     bdbEventStatus = BDB_MSG_EVENT_FAIL;
// 2146   }
// 2147   bdb_SendMsg(bdb_TaskID,BDB_COMMISSIONING_STATE_TC_LINK_KEY_EXCHANGE,bdbEventStatus,1, &dummy);
// 2148 }
// 2149 
// 2150 
// 2151  /*********************************************************************
// 2152  * @fn          bdb_requestVerifyTCLinkKey
// 2153  *
// 2154  * @brief       Attempt to verify the TC link key by sending Verify Key Request
// 2155  *
// 2156  * @param       none
// 2157  *
// 2158  * @return      none
// 2159  */
// 2160 void bdb_requestVerifyTCLinkKey(void)
// 2161 {
// 2162     uint8 TC_ExtAddr[Z_EXTADDR_LEN];
// 2163     APSME_VerifyKeyReq_t vKey;
// 2164     
// 2165     APSME_GetRequest( apsTrustCenterAddress,0, TC_ExtAddr );
// 2166     
// 2167     vKey.tcExtAddr = TC_ExtAddr;
// 2168     vKey.keyType = KEY_TYPE_TC_LINK;
// 2169     
// 2170     APSME_VerifyKeyReq( &vKey );
// 2171     
// 2172     osal_stop_timerEx(bdb_TaskID,BDB_PROCESS_TIMEOUT);
// 2173     osal_start_timerEx(bdb_TaskID,BDB_PROCESS_TIMEOUT,BDBC_TC_LINK_KEY_EXANGE_TIMEOUT);
// 2174     
// 2175 }
// 2176 
// 2177 /*********************************************************************
// 2178  * @fn          bdb_requestTCLinkKey
// 2179  *
// 2180  * @brief       Attempt to request a TC link key
// 2181  *
// 2182  * @param       none
// 2183  *
// 2184  * @return      none
// 2185  */
// 2186 void bdb_requestTCLinkKey(void)
// 2187 {
// 2188   zAddrType_t destAddr;
// 2189   APSME_RequestKeyReq_t req;
// 2190 
// 2191   destAddr.addrMode = Addr16Bit;
// 2192   destAddr.addr.shortAddr = 0x0000;
// 2193   
// 2194   req.dstAddr = destAddr.addr.shortAddr;
// 2195   req.keyType = KEY_TYPE_TC_LINK;
// 2196   
// 2197   APSME_RequestKeyReq(&req);
// 2198   
// 2199   osal_stop_timerEx(bdb_TaskID,BDB_PROCESS_TIMEOUT);
// 2200   
// 2201   osal_start_timerEx(bdb_TaskID,BDB_PROCESS_TIMEOUT,(uint32)requestLinkKeyTimeout);
// 2202 } 
// 2203 
// 2204 
// 2205 /*********************************************************************
// 2206  * @fn          bdb_requestTCStackVersion
// 2207  *
// 2208  * @brief       Attempt to request the TC stack version using ZDP Node desc if 
// 2209  *              join a Centralized nwk
// 2210  *
// 2211  * @param       none
// 2212  *
// 2213  * @return      none
// 2214  */
// 2215 void bdb_requestTCStackVersion(void)
// 2216 {
// 2217   if(requestNewTrustCenterLinkKey)
// 2218   {
// 2219     if(!APSME_IsDistributedSecurity())
// 2220     {
// 2221       if(bdbAttributes.bdbTCLinkKeyExchangeMethod == BDB_TC_LINK_KEY_EXCHANGE_APS_KEY)
// 2222       {
// 2223         zAddrType_t destAddr;
// 2224        
// 2225         destAddr.addrMode = Addr16Bit;
// 2226         destAddr.addr.shortAddr = 0x0000;
// 2227        
// 2228         ZDP_NodeDescReq( &destAddr, destAddr.addr.shortAddr, 0);  
// 2229         
// 2230         osal_stop_timerEx(bdb_TaskID,BDB_PROCESS_TIMEOUT);
// 2231         osal_start_timerEx( bdb_TaskID, BDB_PROCESS_TIMEOUT, BDBC_TC_LINK_KEY_EXANGE_TIMEOUT );
// 2232         return;
// 2233       }
// 2234       else
// 2235       {
// 2236         if(pfnCBKETCLinkKeyExchange)
// 2237         {
// 2238           pfnCBKETCLinkKeyExchange();
// 2239         }
// 2240         return;
// 2241       }
// 2242     }
// 2243     else
// 2244     {
// 2245       bdb_setNodeJoinLinkKeyType(BDB_DISTRIBUTED_SECURITY_GLOBAL_LINK_KEY);
// 2246     }
// 2247   }
// 2248   else
// 2249   {
// 2250     //Key not required, set default which is global
// 2251     bdb_setNodeJoinLinkKeyType(BDB_DEFAULT_GLOBAL_TRUST_CENTER_LINK_KEY);
// 2252   }
// 2253   //TC link key not required or join distributed nwk
// 2254   bdb_reportCommissioningState(BDB_COMMISSIONING_STATE_TC_LINK_KEY_EXCHANGE,TRUE);
// 2255 }
// 2256 #endif
// 2257 
// 2258 
// 2259 /*********************************************************************
// 2260  * @fn          bdb_nwkSteeringDeviceOnNwk
// 2261  *
// 2262  * @brief       Send ZDP mgmt permit joining
// 2263  *
// 2264  * @param       none
// 2265  *
// 2266  * @return      none
// 2267  */

        RSEG BANKED_CODE:HUGECODE:NOROOT(0)
// 2268 void bdb_nwkSteeringDeviceOnNwk(void)
bdb_nwkSteeringDeviceOnNwk:
          CFI Block cfiBlock97 Using cfiCommon0
          CFI Function bdb_nwkSteeringDeviceOnNwk
        CODE
// 2269 {
        FUNCALL bdb_nwkSteeringDeviceOnNwk, ZDP_MgmtPermitJoinReq
        LOCFRAME ISTACK, 2, STACK
        LOCFRAME PSTACK, 0, STACK
        LOCFRAME XSTACK, 9, STACK
        LOCFRAME IOVERLAY, 0, STATIC
        LOCFRAME DOVERLAY, 0, STATIC
        ARGFRAME ISTACK, 2, STACK
        ARGFRAME PSTACK, 0, STACK
        ARGFRAME XSTACK, 9, STACK
        ARGFRAME IOVERLAY, 0, STATIC
        ARGFRAME DOVERLAY, 0, STATIC
        PUSH      DPL
          CFI DPL0 Frame(CFA_SP, 4)
          CFI CFA_SP SP+-4
        PUSH      DPH
          CFI DPH0 Frame(CFA_SP, 5)
          CFI CFA_SP SP+-5
        ; Saved register size: 2
        ; Auto size: 9
        MOV       A,#-0x9
        LCALL     ?ALLOC_XSTACK8
          CFI CFA_XSP16 add(XSP16, 9)
// 2270   zAddrType_t dstAddr;
// 2271   dstAddr.addr.shortAddr = NWK_BROADCAST_SHORTADDR_DEVZCZR;
        MOV       DPL,?XSP + 0
        MOV       DPH,?XSP + 1
        MOV       A,#-0x4
        MOVX      @DPTR,A
        INC       DPTR
        MOV       A,#-0x1
        MOVX      @DPTR,A
// 2272   dstAddr.addrMode = AddrBroadcast;
        MOV       A,#0x8
        LCALL     ?XSTACK_DISP0_8
        MOV       A,#0xf
        MOVX      @DPTR,A
// 2273   // Trust Center significance is always true
// 2274   ZDP_MgmtPermitJoinReq( &dstAddr, BDBC_MIN_COMMISSIONING_TIME, TRUE, FALSE );
        ; Setup parameters for call to function ZDP_MgmtPermitJoinReq
        MOV       R5,#0x0
        MOV       R4,#0x1
        MOV       R1,#-0x4c
        MOV       R2,?XSP + 0
        MOV       R3,?XSP + 1
        LCALL     `??ZDP_MgmtPermitJoinReq::?relay`; Banked call to: ZDP_MgmtPermitJoinReq
// 2275 }
        MOV       A,#0x9
          CFI EndBlock cfiBlock97
        REQUIRE ?Subroutine6
        ; // Fall through to label ?Subroutine6

        RSEG BANKED_CODE:HUGECODE:NOROOT(0)
?Subroutine6:
          CFI Block cfiBlock98 Using cfiCommon0
          CFI NoFunction
          CFI CFA_SP SP+-5
          CFI CFA_XSP16 add(XSP16, 9)
          CFI DPL0 Frame(CFA_SP, 4)
          CFI DPH0 Frame(CFA_SP, 5)
          CFI Invalid
        LCALL     ?DEALLOC_XSTACK8
          CFI CFA_XSP16 XSP16+0
          CFI Valid
        LJMP      ??Subroutine34_0 & 0xFFFF
          CFI EndBlock cfiBlock98
// 2276 
// 2277 
// 2278 /*********************************************************************
// 2279  * @fn          bdb_startResumeCommissioningProcess
// 2280  *
// 2281  * @brief       Starts or resume the commissioning operations sets in the 
// 2282  *              commissioningMode attribute
// 2283  *
// 2284  * @param       none
// 2285  *
// 2286  * @return      none
// 2287  */

        RSEG BANKED_CODE:HUGECODE:NOROOT(0)
// 2288 void bdb_startResumeCommissioningProcess(void)
bdb_startResumeCommissioningProcess:
          CFI Block cfiBlock99 Using cfiCommon0
          CFI Function bdb_startResumeCommissioningProcess
        CODE
// 2289 {
        FUNCALL bdb_startResumeCommissioningProcess, bdb_nwkSteeringDeviceOnNwk
        LOCFRAME ISTACK, 0, STACK
        LOCFRAME PSTACK, 0, STACK
        LOCFRAME XSTACK, 21, STACK
        LOCFRAME IOVERLAY, 0, STATIC
        LOCFRAME DOVERLAY, 0, STATIC
        ARGFRAME ISTACK, 0, STACK
        ARGFRAME PSTACK, 0, STACK
        ARGFRAME XSTACK, 21, STACK
        ARGFRAME IOVERLAY, 0, STATIC
        ARGFRAME DOVERLAY, 0, STATIC
        FUNCALL bdb_startResumeCommissioningProcess, bdb_reportCommissioningState
        LOCFRAME ISTACK, 0, STACK
        LOCFRAME PSTACK, 0, STACK
        LOCFRAME XSTACK, 21, STACK
        LOCFRAME IOVERLAY, 0, STATIC
        LOCFRAME DOVERLAY, 0, STATIC
        ARGFRAME ISTACK, 0, STACK
        ARGFRAME PSTACK, 0, STACK
        ARGFRAME XSTACK, 21, STACK
        ARGFRAME IOVERLAY, 0, STATIC
        ARGFRAME DOVERLAY, 0, STATIC
        FUNCALL bdb_startResumeCommissioningProcess, bdb_reportCommissioningState
        LOCFRAME ISTACK, 0, STACK
        LOCFRAME PSTACK, 0, STACK
        LOCFRAME XSTACK, 21, STACK
        LOCFRAME IOVERLAY, 0, STATIC
        LOCFRAME DOVERLAY, 0, STATIC
        ARGFRAME ISTACK, 0, STACK
        ARGFRAME PSTACK, 0, STACK
        ARGFRAME XSTACK, 21, STACK
        ARGFRAME IOVERLAY, 0, STATIC
        ARGFRAME DOVERLAY, 0, STATIC
        FUNCALL bdb_startResumeCommissioningProcess, osal_memset
        LOCFRAME ISTACK, 0, STACK
        LOCFRAME PSTACK, 0, STACK
        LOCFRAME XSTACK, 21, STACK
        LOCFRAME IOVERLAY, 0, STATIC
        LOCFRAME DOVERLAY, 0, STATIC
        ARGFRAME ISTACK, 0, STACK
        ARGFRAME PSTACK, 0, STACK
        ARGFRAME XSTACK, 21, STACK
        ARGFRAME IOVERLAY, 0, STATIC
        ARGFRAME DOVERLAY, 0, STATIC
        FUNCALL bdb_startResumeCommissioningProcess, bdb_nwkJoiningFormation
        LOCFRAME ISTACK, 0, STACK
        LOCFRAME PSTACK, 0, STACK
        LOCFRAME XSTACK, 21, STACK
        LOCFRAME IOVERLAY, 0, STATIC
        LOCFRAME DOVERLAY, 0, STATIC
        ARGFRAME ISTACK, 0, STACK
        ARGFRAME PSTACK, 0, STACK
        ARGFRAME XSTACK, 21, STACK
        ARGFRAME IOVERLAY, 0, STATIC
        ARGFRAME DOVERLAY, 0, STATIC
        FUNCALL bdb_startResumeCommissioningProcess, bdb_NotifyCommissioningModeStart
        LOCFRAME ISTACK, 0, STACK
        LOCFRAME PSTACK, 0, STACK
        LOCFRAME XSTACK, 21, STACK
        LOCFRAME IOVERLAY, 0, STATIC
        LOCFRAME DOVERLAY, 0, STATIC
        ARGFRAME ISTACK, 0, STACK
        ARGFRAME PSTACK, 0, STACK
        ARGFRAME XSTACK, 21, STACK
        ARGFRAME IOVERLAY, 0, STATIC
        ARGFRAME DOVERLAY, 0, STATIC
        FUNCALL bdb_startResumeCommissioningProcess, bdb_reportCommissioningState
        LOCFRAME ISTACK, 0, STACK
        LOCFRAME PSTACK, 0, STACK
        LOCFRAME XSTACK, 21, STACK
        LOCFRAME IOVERLAY, 0, STATIC
        LOCFRAME DOVERLAY, 0, STATIC
        ARGFRAME ISTACK, 0, STACK
        ARGFRAME PSTACK, 0, STACK
        ARGFRAME XSTACK, 21, STACK
        ARGFRAME IOVERLAY, 0, STATIC
        ARGFRAME DOVERLAY, 0, STATIC
        FUNCALL bdb_startResumeCommissioningProcess, bdb_setEpDescListToActiveEndpoint
        LOCFRAME ISTACK, 0, STACK
        LOCFRAME PSTACK, 0, STACK
        LOCFRAME XSTACK, 21, STACK
        LOCFRAME IOVERLAY, 0, STATIC
        LOCFRAME DOVERLAY, 0, STATIC
        ARGFRAME ISTACK, 0, STACK
        ARGFRAME PSTACK, 0, STACK
        ARGFRAME XSTACK, 21, STACK
        ARGFRAME IOVERLAY, 0, STATIC
        ARGFRAME DOVERLAY, 0, STATIC
        FUNCALL bdb_startResumeCommissioningProcess, bdb_exitFindingBindingWStatus
        LOCFRAME ISTACK, 0, STACK
        LOCFRAME PSTACK, 0, STACK
        LOCFRAME XSTACK, 21, STACK
        LOCFRAME IOVERLAY, 0, STATIC
        LOCFRAME DOVERLAY, 0, STATIC
        ARGFRAME ISTACK, 0, STACK
        ARGFRAME PSTACK, 0, STACK
        ARGFRAME XSTACK, 21, STACK
        ARGFRAME IOVERLAY, 0, STATIC
        ARGFRAME DOVERLAY, 0, STATIC
        FUNCALL bdb_startResumeCommissioningProcess, zclFindAttrRec
        LOCFRAME ISTACK, 0, STACK
        LOCFRAME PSTACK, 0, STACK
        LOCFRAME XSTACK, 23, STACK
        LOCFRAME IOVERLAY, 0, STATIC
        LOCFRAME DOVERLAY, 0, STATIC
        ARGFRAME ISTACK, 0, STACK
        ARGFRAME PSTACK, 0, STACK
        ARGFRAME XSTACK, 23, STACK
        ARGFRAME IOVERLAY, 0, STATIC
        ARGFRAME DOVERLAY, 0, STATIC
        FUNCALL bdb_startResumeCommissioningProcess, osal_start_timerEx
        LOCFRAME ISTACK, 0, STACK
        LOCFRAME PSTACK, 0, STACK
        LOCFRAME XSTACK, 25, STACK
        LOCFRAME IOVERLAY, 0, STATIC
        LOCFRAME DOVERLAY, 0, STATIC
        ARGFRAME ISTACK, 0, STACK
        ARGFRAME PSTACK, 0, STACK
        ARGFRAME XSTACK, 25, STACK
        ARGFRAME IOVERLAY, 0, STATIC
        ARGFRAME DOVERLAY, 0, STATIC
        FUNCALL bdb_startResumeCommissioningProcess, bdb_exitFindingBindingWStatus
        LOCFRAME ISTACK, 0, STACK
        LOCFRAME PSTACK, 0, STACK
        LOCFRAME XSTACK, 21, STACK
        LOCFRAME IOVERLAY, 0, STATIC
        LOCFRAME DOVERLAY, 0, STATIC
        ARGFRAME ISTACK, 0, STACK
        ARGFRAME PSTACK, 0, STACK
        ARGFRAME XSTACK, 21, STACK
        ARGFRAME IOVERLAY, 0, STATIC
        ARGFRAME DOVERLAY, 0, STATIC
        FUNCALL bdb_startResumeCommissioningProcess, bdb_SendMsg
        LOCFRAME ISTACK, 0, STACK
        LOCFRAME PSTACK, 0, STACK
        LOCFRAME XSTACK, 23, STACK
        LOCFRAME IOVERLAY, 0, STATIC
        LOCFRAME DOVERLAY, 0, STATIC
        ARGFRAME ISTACK, 0, STACK
        ARGFRAME PSTACK, 0, STACK
        ARGFRAME XSTACK, 23, STACK
        ARGFRAME IOVERLAY, 0, STATIC
        ARGFRAME DOVERLAY, 0, STATIC
        FUNCALL bdb_startResumeCommissioningProcess, bdb_exitFindingBindingWStatus
        LOCFRAME ISTACK, 0, STACK
        LOCFRAME PSTACK, 0, STACK
        LOCFRAME XSTACK, 21, STACK
        LOCFRAME IOVERLAY, 0, STATIC
        LOCFRAME DOVERLAY, 0, STATIC
        ARGFRAME ISTACK, 0, STACK
        ARGFRAME PSTACK, 0, STACK
        ARGFRAME XSTACK, 21, STACK
        ARGFRAME IOVERLAY, 0, STATIC
        ARGFRAME DOVERLAY, 0, STATIC
        FUNCALL bdb_startResumeCommissioningProcess, bdb_exitFindingBindingWStatus
        LOCFRAME ISTACK, 0, STACK
        LOCFRAME PSTACK, 0, STACK
        LOCFRAME XSTACK, 21, STACK
        LOCFRAME IOVERLAY, 0, STATIC
        LOCFRAME DOVERLAY, 0, STATIC
        ARGFRAME ISTACK, 0, STACK
        ARGFRAME PSTACK, 0, STACK
        ARGFRAME XSTACK, 21, STACK
        ARGFRAME IOVERLAY, 0, STATIC
        ARGFRAME DOVERLAY, 0, STATIC
        FUNCALL bdb_startResumeCommissioningProcess, bdb_SendIdentifyQuery
        LOCFRAME ISTACK, 0, STACK
        LOCFRAME PSTACK, 0, STACK
        LOCFRAME XSTACK, 21, STACK
        LOCFRAME IOVERLAY, 0, STATIC
        LOCFRAME DOVERLAY, 0, STATIC
        ARGFRAME ISTACK, 0, STACK
        ARGFRAME PSTACK, 0, STACK
        ARGFRAME XSTACK, 21, STACK
        ARGFRAME IOVERLAY, 0, STATIC
        ARGFRAME DOVERLAY, 0, STATIC
        FUNCALL bdb_startResumeCommissioningProcess, bdb_exitFindingBindingWStatus
        LOCFRAME ISTACK, 0, STACK
        LOCFRAME PSTACK, 0, STACK
        LOCFRAME XSTACK, 21, STACK
        LOCFRAME IOVERLAY, 0, STATIC
        LOCFRAME DOVERLAY, 0, STATIC
        ARGFRAME ISTACK, 0, STACK
        ARGFRAME PSTACK, 0, STACK
        ARGFRAME XSTACK, 21, STACK
        ARGFRAME IOVERLAY, 0, STATIC
        ARGFRAME DOVERLAY, 0, STATIC
        FUNCALL bdb_startResumeCommissioningProcess, osal_start_timerEx
        LOCFRAME ISTACK, 0, STACK
        LOCFRAME PSTACK, 0, STACK
        LOCFRAME XSTACK, 25, STACK
        LOCFRAME IOVERLAY, 0, STATIC
        LOCFRAME DOVERLAY, 0, STATIC
        ARGFRAME ISTACK, 0, STACK
        ARGFRAME PSTACK, 0, STACK
        ARGFRAME XSTACK, 25, STACK
        ARGFRAME IOVERLAY, 0, STATIC
        ARGFRAME DOVERLAY, 0, STATIC
        FUNCALL bdb_startResumeCommissioningProcess, bdb_SendMsg
        LOCFRAME ISTACK, 0, STACK
        LOCFRAME PSTACK, 0, STACK
        LOCFRAME XSTACK, 23, STACK
        LOCFRAME IOVERLAY, 0, STATIC
        LOCFRAME DOVERLAY, 0, STATIC
        ARGFRAME ISTACK, 0, STACK
        ARGFRAME PSTACK, 0, STACK
        ARGFRAME XSTACK, 23, STACK
        ARGFRAME IOVERLAY, 0, STATIC
        ARGFRAME DOVERLAY, 0, STATIC
        REQUIRE ?V0
        REQUIRE ?V1
        MOV       A,#-0xa
        LCALL     ?BANKED_ENTER_XDATA
          CFI DPH0 load(1, XDATA, add(CFA_XSP16, literal(-1)))
          CFI DPL0 load(1, XDATA, add(CFA_XSP16, literal(-2)))
          CFI ?BRET_EXT load(1, XDATA, add(CFA_XSP16, literal(-3)))
          CFI ?RET_HIGH load(1, XDATA, add(CFA_XSP16, literal(-4)))
          CFI ?RET_LOW load(1, XDATA, add(CFA_XSP16, literal(-5)))
          CFI R7 load(1, XDATA, add(CFA_XSP16, literal(-6)))
          CFI V1 load(1, XDATA, add(CFA_XSP16, literal(-7)))
          CFI V0 load(1, XDATA, add(CFA_XSP16, literal(-8)))
          CFI VB load(1, XDATA, add(CFA_XSP16, literal(-9)))
          CFI R6 load(1, XDATA, add(CFA_XSP16, literal(-10)))
          CFI CFA_SP SP+0
          CFI CFA_XSP16 add(XSP16, 10)
        ; Saved register size: 10
        ; Auto size: 11
        MOV       A,#-0xb
        LCALL     ?ALLOC_XSTACK8
          CFI CFA_XSP16 add(XSP16, 21)
// 2290 
// 2291 #if ( defined ( BDB_TL_INITIATOR ) && (BDB_TOUCHLINK_CAPABILITY_ENABLED == TRUE) ) 
// 2292   if(bdbAttributes.bdbCommissioningMode & BDB_COMMISSIONING_MODE_INITIATOR_TL)
// 2293   {
// 2294     uint16 nwkAddr;
// 2295 
// 2296     //Does the device supports this commissioning mode?
// 2297     if(bdbAttributes.bdbNodeCommissioningCapability & BDB_TOUCHLINK_CAPABILITY)
// 2298     {
// 2299       //Clear previous state and substates
// 2300       osal_memset(&bdbCommissioningProcedureState,0,sizeof(bdbCommissioningProcedureState));
// 2301       bdbCommissioningProcedureState.bdbCommissioningState = BDB_COMMISSIONING_STATE_TL;
// 2302       
// 2303       // Get our short address
// 2304       ZMacGetReq( ZMacShortAddress, (byte*)&nwkAddr );
// 2305       if ( nwkAddr >= NWK_BROADCAST_SHORTADDR_DEVZCZR )
// 2306       {
// 2307         initiatorSelectNwkParams();
// 2308       }
// 2309       
// 2310       touchLinkInitiator_StartDevDisc( );  
// 2311       
// 2312       bdb_NotifyCommissioningModeStart(BDB_COMMISSIONING_TOUCHLINK);
// 2313     }
// 2314     else
// 2315     {
// 2316       //Process the next commissioning mode
// 2317       bdb_reportCommissioningState( BDB_COMMISSIONING_STATE_TL, FALSE );
// 2318     }
// 2319     return;
// 2320   }
// 2321 #endif // BDB_TOUCHLINK_CAPABILITY_ENABLED  
// 2322   
// 2323 #if ZG_BUILD_ENDDEVICE_TYPE
// 2324   if(ZG_DEVICE_ENDDEVICE_TYPE)
// 2325   {
// 2326     if(bdbAttributes.bdbCommissioningMode & BDB_COMMISSIONING_MODE_PARENT_LOST)
// 2327     {
// 2328       //No commissioning process can be performed if the ZED has lost its parent
// 2329       return;
// 2330     }
// 2331   }
// 2332 #endif
// 2333   
// 2334   if(bdbAttributes.bdbCommissioningMode & BDB_COMMISSIONING_MODE_NWK_STEERING)
        MOV       DPTR,#bdbAttributes + 11
        MOVX      A,@DPTR
        MOV       C,0xE0 /* A   */.1
        JNC       ??bdb_startResumeCommissioningProcess_0
// 2335   {
// 2336     bdbCommissioningProcedureState.bdbCommissioningState = BDB_COMMISSIONING_STATE_STEERING_ON_NWK;
        MOV       DPTR,#bdbCommissioningProcedureState
        MOV       A,#0x4
        MOVX      @DPTR,A
// 2337     
// 2338     if(bdbAttributes.bdbNodeCommissioningCapability & BDB_NETWORK_STEERING_CAPABILITY)
        MOV       DPTR,#bdbAttributes + 12
        MOVX      A,@DPTR
        MOV       C,0xE0 /* A   */.0
        JNC       ??bdb_startResumeCommissioningProcess_1
// 2339     {
// 2340 #if (BDB_TOUCHLINK_CAPABILITY_ENABLED == TRUE)
// 2341       bdb_ClearNetworkParams();
// 2342 #endif
// 2343       if(bdbAttributes.bdbNodeIsOnANetwork)
        MOV       DPTR,#bdbAttributes + 14
        MOVX      A,@DPTR
        JZ        ??bdb_startResumeCommissioningProcess_2
// 2344       {
// 2345         bdb_nwkSteeringDeviceOnNwk();
        ; Setup parameters for call to function bdb_nwkSteeringDeviceOnNwk
        LCALL     `??bdb_nwkSteeringDeviceOnNwk::?relay`; Banked call to: bdb_nwkSteeringDeviceOnNwk
// 2346         bdb_reportCommissioningState(BDB_COMMISSIONING_STATE_STEERING_ON_NWK, TRUE);
        ; Setup parameters for call to function bdb_reportCommissioningState
        MOV       R2,#0x1
        MOV       R1,#0x4
        LCALL     `??bdb_reportCommissioningState::?relay`; Banked call to: bdb_reportCommissioningState
// 2347       }
// 2348 #if (ZG_BUILD_JOINING_TYPE)
// 2349       else
// 2350       {
// 2351         if(ZG_DEVICE_JOINING_TYPE)
// 2352         {
// 2353           vDoPrimaryScan = TRUE;
// 2354           
// 2355           //Initialize the commissioning procedure state, bdbJoinState to nwk discovery and TCLinkKeyExchange to not active
// 2356           osal_memset(&bdbCommissioningProcedureState,0,sizeof(bdbCommissioningProcedureState_t));
// 2357           bdbCommissioningProcedureState.bdbCommissioningState = BDB_COMMISSIONING_STATE_JOINING;
// 2358           bdb_nwkJoiningFormation(TRUE);
// 2359           bdb_NotifyCommissioningModeStart(BDB_COMMISSIONING_NWK_STEERING);
// 2360         }
// 2361       }
// 2362 #endif
// 2363 #if (ZG_BUILD_COORDINATOR_TYPE)
// 2364       if(ZG_DEVICE_COORDINATOR_TYPE)
// 2365       {
// 2366         bdb_reportCommissioningState(BDB_COMMISSIONING_STATE_STEERING_ON_NWK, FALSE);
??bdb_startResumeCommissioningProcess_2:
        ; Setup parameters for call to function bdb_reportCommissioningState
        MOV       R2,#0x0
        MOV       R1,#0x4
        LCALL     `??bdb_reportCommissioningState::?relay`; Banked call to: bdb_reportCommissioningState
// 2367       }
// 2368 #endif
// 2369     }
// 2370     return;
??bdb_startResumeCommissioningProcess_1:
        LJMP      ??bdb_startResumeCommissioningProcess_3 & 0xFFFF
// 2371   }
// 2372   
// 2373   if(bdbAttributes.bdbCommissioningMode & BDB_COMMISSIONING_MODE_NWK_FORMATION)
??bdb_startResumeCommissioningProcess_0:
        MOV       C,0xE0 /* A   */.2
        JNC       ??bdb_startResumeCommissioningProcess_4
// 2374   {
// 2375     bdbCommissioningProcedureState.bdbCommissioningState = BDB_COMMISSIONING_STATE_FORMATION;
        MOV       DPTR,#bdbCommissioningProcedureState
        MOV       A,#0x5
        MOVX      @DPTR,A
// 2376     
// 2377     if(bdbAttributes.bdbNodeCommissioningCapability & BDB_NETWORK_FORMATION_CAPABILITY)
        MOV       DPTR,#bdbAttributes + 12
        MOVX      A,@DPTR
        MOV       C,0xE0 /* A   */.1
        JNC       ??bdb_startResumeCommissioningProcess_5
// 2378     {
// 2379       if(!bdbAttributes.bdbNodeIsOnANetwork)
        MOV       DPTR,#bdbAttributes + 14
        MOVX      A,@DPTR
        JNZ       ??bdb_startResumeCommissioningProcess_5
// 2380       {
// 2381 #if (BDB_TOUCHLINK_CAPABILITY_ENABLED == TRUE)
// 2382       bdb_ClearNetworkParams();
// 2383 #endif
// 2384         vDoPrimaryScan = TRUE;
        MOV       DPTR,#vDoPrimaryScan
        MOV       A,#0x1
        MOVX      @DPTR,A
// 2385         
// 2386         osal_memset(&bdbCommissioningProcedureState,0,sizeof(bdbCommissioningProcedureState));
        ; Setup parameters for call to function osal_memset
        MOV       R4,#0x4
        MOV       R5,#0x0
        MOV       R1,#0x0
        MOV       R2,#bdbCommissioningProcedureState & 0xff
        MOV       R3,#(bdbCommissioningProcedureState >> 8) & 0xff
        LCALL     `??osal_memset::?relay`; Banked call to: osal_memset
// 2387         bdbCommissioningProcedureState.bdbCommissioningState = BDB_COMMISSIONING_STATE_FORMATION;
        MOV       DPTR,#bdbCommissioningProcedureState
        MOV       A,#0x5
        MOVX      @DPTR,A
// 2388 
// 2389         bdb_nwkJoiningFormation(FALSE);
        ; Setup parameters for call to function bdb_nwkJoiningFormation
        MOV       R1,#0x0
        LCALL     `??bdb_nwkJoiningFormation::?relay`; Banked call to: bdb_nwkJoiningFormation
// 2390         bdb_NotifyCommissioningModeStart(BDB_COMMISSIONING_FORMATION);
        ; Setup parameters for call to function bdb_NotifyCommissioningModeStart
        MOV       R1,#0x2
        LCALL     `??bdb_NotifyCommissioningModeStart::?relay`; Banked call to: bdb_NotifyCommissioningModeStart
// 2391         return;
        LJMP      ??bdb_startResumeCommissioningProcess_3 & 0xFFFF
// 2392       }
// 2393     }
// 2394     bdb_reportCommissioningState(BDB_COMMISSIONING_STATE_FORMATION, FALSE);
??bdb_startResumeCommissioningProcess_5:
        ; Setup parameters for call to function bdb_reportCommissioningState
        MOV       R2,#0x0
        MOV       R1,#0x5
        LCALL     `??bdb_reportCommissioningState::?relay`; Banked call to: bdb_reportCommissioningState
// 2395     return;
        LJMP      ??bdb_startResumeCommissioningProcess_3 & 0xFFFF
// 2396   }
// 2397 
// 2398 #if (BDB_FINDING_BINDING_CAPABILITY_ENABLED==1)    
// 2399   if(bdbAttributes.bdbCommissioningMode & BDB_COMMISSIONING_MODE_FINDING_BINDING)
??bdb_startResumeCommissioningProcess_4:
        MOV       C,0xE0 /* A   */.3
        JC        $+5
        LJMP      ??bdb_startResumeCommissioningProcess_3 & 0xFFFF
// 2400   {
// 2401     bdbCommissioningProcedureState.bdbCommissioningState = BDB_COMMISSIONING_STATE_FINDING_BINDING;
        MOV       DPTR,#bdbCommissioningProcedureState
        MOV       A,#0x6
        MOVX      @DPTR,A
// 2402     
// 2403     //Is the device on a network?
// 2404     if(bdb_isDeviceNonFactoryNew())
        MOV       DPTR,#bdbAttributes + 14
        MOVX      A,@DPTR
        JNZ       $+5
        LJMP      ??bdb_startResumeCommissioningProcess_6 & 0xFFFF
// 2405     {
// 2406       zclAttrRec_t attrRec;
// 2407 
// 2408       endPointDesc_t *bdb_CurrEpDescriptor = NULL;
// 2409 
// 2410       bdb_CurrEpDescriptor = bdb_setEpDescListToActiveEndpoint();
        ; Setup parameters for call to function bdb_setEpDescListToActiveEndpoint
        LCALL     `??bdb_setEpDescListToActiveEndpoint::?relay`; Banked call to: bdb_setEpDescListToActiveEndpoint
        MOV       ?V0,R2
        MOV       ?V1,R3
        MOV       R6,?V0
        MOV       R7,?V1
// 2411       
// 2412       //If not found endpoint with Identify cluster is found, then report fail
// 2413       if(bdb_CurrEpDescriptor == NULL)
        MOV       A,R6
        ORL       A,R7
        JNZ       $+5
        LJMP      ??bdb_startResumeCommissioningProcess_6 & 0xFFFF
// 2414       {
// 2415         bdb_exitFindingBindingWStatus(BDB_COMMISSIONING_FAILURE);
        ; Setup parameters for call to function bdb_exitFindingBindingWStatus
// 2416         return;
// 2417       }
// 2418       
// 2419       if( bdb_CurrEpDescriptorList->epDesc->epType & BDB_FINDING_AND_BINDING_TARGET)  //F&B as Target
        LCALL     ?Subroutine22 & 0xFFFF
??CrossCallReturnLabel_24:
        MOV       R0,A
        INC       DPTR
        LCALL     ??Subroutine38_0 & 0xFFFF
??CrossCallReturnLabel_46:
        INC       DPTR
        MOVX      A,@DPTR
        MOV       C,0xE0 /* A   */.1
        JC        $+5
        LJMP      ??bdb_startResumeCommissioningProcess_7 & 0xFFFF
// 2420       {
// 2421         if (zclFindAttrRec( bdb_CurrEpDescriptor->endPoint, ZCL_CLUSTER_ID_GEN_IDENTIFY,
// 2422                   ATTRID_IDENTIFY_TIME, &attrRec ) )
        ; Setup parameters for call to function zclFindAttrRec
        MOV       A,#0x3
        LCALL     ?XSTACK_DISP100_8
        MOV       ?V0,R0
        MOV       ?V1,R1
        MOV       R0,#?V0
        LCALL     ?PUSH_XSTACK_I_TWO
          CFI CFA_XSP16 add(XSP16, 23)
        MOV       R4,#0x0
        MOV       R5,#0x0
        MOV       R2,#0x3
        MOV       R3,#0x0
        MOV       DPL,R6
        MOV       DPH,R7
        MOVX      A,@DPTR
        MOV       R1,A
        LCALL     `??zclFindAttrRec::?relay`; Banked call to: zclFindAttrRec
        MOV       A,#0x2
        LCALL     ?DEALLOC_XSTACK8
          CFI CFA_XSP16 add(XSP16, 21)
        MOV       A,R1
        JNZ       $+5
        LJMP      ??bdb_startResumeCommissioningProcess_8 & 0xFFFF
// 2423         {
// 2424           //Set it to at less 180 
// 2425           if ( *((uint16*)attrRec.attr.dataPtr) <= BDBC_MIN_COMMISSIONING_TIME )
        MOV       A,#0x9
        LCALL     ?XSTACK_DISP0_8
        LCALL     ?Subroutine15 & 0xFFFF
??CrossCallReturnLabel_10:
        CLR       C
        MOVX      A,@DPTR
        SUBB      A,#-0x4b
        INC       DPTR
        MOVX      A,@DPTR
        SUBB      A,#0x0
        JNC       ??bdb_startResumeCommissioningProcess_9
// 2426           {
// 2427             *((uint16*)attrRec.attr.dataPtr) = BDBC_MIN_COMMISSIONING_TIME;
        MOV       DPL,R0
        MOV       DPH,R1
        MOV       A,#-0x4c
        MOVX      @DPTR,A
        INC       DPTR
        CLR       A
        MOVX      @DPTR,A
// 2428              osal_start_timerEx( bdb_TaskID, BDB_IDENTIFY_TIMEOUT, 1000 );
        ; Setup parameters for call to function osal_start_timerEx
        MOV       DPTR,#__Constant_3e8
        LCALL     ?PUSH_XSTACK8_X_FOUR
          CFI CFA_XSP16 add(XSP16, 25)
        MOV       R2,#0x0
        MOV       R3,#0x20
        MOV       DPTR,#bdb_TaskID
        MOVX      A,@DPTR
        MOV       R1,A
        LCALL     `??osal_start_timerEx::?relay`; Banked call to: osal_start_timerEx
        MOV       A,#0x4
        LCALL     ?DEALLOC_XSTACK8
          CFI CFA_XSP16 add(XSP16, 21)
// 2429 
// 2430             if(pfnIdentifyTimeChangeCB != NULL)
        MOV       DPTR,#pfnIdentifyTimeChangeCB
        LCALL     ??Subroutine41_0 & 0xFFFF
??CrossCallReturnLabel_65:
        JZ        ??bdb_startResumeCommissioningProcess_9
// 2431             {
// 2432               if(bdbIndentifyActiveEndpoint == 0xFF)
        MOV       DPTR,#bdbIndentifyActiveEndpoint
        MOVX      A,@DPTR
        CPL       A
        JNZ       ??bdb_startResumeCommissioningProcess_10
// 2433               {
// 2434                 pfnIdentifyTimeChangeCB(bdbIndentifyActiveEndpoint);  
        ; Setup parameters for indirect call
        MOV       R1,#-0x1
        SJMP      ??bdb_startResumeCommissioningProcess_11
// 2435               }
// 2436               else
// 2437               {
// 2438                 pfnIdentifyTimeChangeCB(bdb_CurrEpDescriptor->endPoint);
??bdb_startResumeCommissioningProcess_10:
        ; Setup parameters for indirect call
        MOV       DPL,R6
        MOV       DPH,R7
        MOVX      A,@DPTR
        MOV       R1,A
// 2439               }
// 2440             }
// 2441           }
??bdb_startResumeCommissioningProcess_11:
        LCALL     ?Subroutine23 & 0xFFFF
??CrossCallReturnLabel_48:
        LCALL     ?CALL_IND
// 2442           //Attribute found and set, report success
// 2443           if(!(bdb_CurrEpDescriptorList->epDesc->epType & BDB_FINDING_AND_BINDING_INITIATOR))
??bdb_startResumeCommissioningProcess_9:
        LCALL     ?Subroutine13 & 0xFFFF
??CrossCallReturnLabel_2:
        JC        ??bdb_startResumeCommissioningProcess_12
// 2444           {
// 2445             bdb_exitFindingBindingWStatus(BDB_COMMISSIONING_FB_TARGET_IN_PROGRESS);
        ; Setup parameters for call to function bdb_exitFindingBindingWStatus
        MOV       R1,#0x9
        SJMP      ??bdb_startResumeCommissioningProcess_13
// 2446           }
// 2447           else
// 2448           {
// 2449             bdbCommissioningModeMsg_t bdbCommissioningModeMsg;
// 2450 
// 2451             bdbCommissioningModeMsg.bdbCommissioningMode = BDB_COMMISSIONING_FINDING_BINDING;
??bdb_startResumeCommissioningProcess_12:
        MOV       A,#0x1
        LCALL     ?XSTACK_DISP0_8
        MOV       A,#0x3
        MOVX      @DPTR,A
// 2452             bdbCommissioningModeMsg.bdbCommissioningStatus = BDB_COMMISSIONING_FB_TARGET_IN_PROGRESS;
        MOV       DPL,?XSP + 0
        MOV       DPH,?XSP + 1
        MOV       A,#0x9
        LCALL     ??Subroutine31_0 & 0xFFFF
// 2453 
// 2454             bdb_NotifyApp((uint8*)&bdbCommissioningModeMsg);
// 2455           }
// 2456         }
??CrossCallReturnLabel_39:
        LCALL     ?PUSH_XSTACK_I_TWO
          CFI CFA_XSP16 add(XSP16, 23)
        MOV       R4,#0x3
        MOV       R3,#0x0
        MOV       R2,#0xa
        MOV       DPTR,#bdb_TaskID
        MOVX      A,@DPTR
        MOV       R1,A
        LCALL     `??bdb_SendMsg::?relay`; Banked call to: bdb_SendMsg
        MOV       A,#0x2
        LCALL     ?DEALLOC_XSTACK8
          CFI CFA_XSP16 add(XSP16, 21)
        SJMP      ??bdb_startResumeCommissioningProcess_7
// 2457         else
// 2458         {
// 2459           //Attribute not found and no initiator process, report fail
// 2460           if(!(bdb_CurrEpDescriptorList->epDesc->epType & BDB_FINDING_AND_BINDING_INITIATOR))
??bdb_startResumeCommissioningProcess_8:
        LCALL     ?Subroutine13 & 0xFFFF
??CrossCallReturnLabel_3:
        JC        ??bdb_startResumeCommissioningProcess_7
// 2461           {
// 2462             bdb_exitFindingBindingWStatus(BDB_COMMISSIONING_FAILURE);
        ; Setup parameters for call to function bdb_exitFindingBindingWStatus
        MOV       R1,#0xe
??bdb_startResumeCommissioningProcess_13:
        LCALL     `??bdb_exitFindingBindingWStatus::?relay`; Banked call to: bdb_exitFindingBindingWStatus
// 2463           }
// 2464         }
// 2465       }  //F&B Target
// 2466       
// 2467       if( bdb_CurrEpDescriptorList->epDesc->epType & BDB_FINDING_AND_BINDING_INITIATOR)  //F&B as Initiator
??bdb_startResumeCommissioningProcess_7:
        LCALL     ?Subroutine22 & 0xFFFF
??CrossCallReturnLabel_25:
        ADD       A,#0x1
        MOV       R0,A
        INC       DPTR
        MOVX      A,@DPTR
        ADDC      A,#0x0
        MOV       R1,A
        MOV       DPL,R0
        MOV       DPH,R1
        MOVX      A,@DPTR
        MOV       C,0xE0 /* A   */.0
        JNC       ??bdb_startResumeCommissioningProcess_3
// 2468       {
// 2469         bdbCommissioningModeMsg_t bdbCommissioningModeMsg;
// 2470         
// 2471         //If no function to add binds is available then do not process Initiator
// 2472         if(!pbindAddEntry)
        MOV       DPTR,#pbindAddEntry
        LCALL     ?Subroutine14 & 0xFFFF
??CrossCallReturnLabel_6:
        JNZ       ??bdb_startResumeCommissioningProcess_14
// 2473         {
// 2474           //If no target process, then report fail
// 2475           if(!(bdb_CurrEpDescriptorList->epDesc->epType & BDB_FINDING_AND_BINDING_TARGET))
        MOV       DPL,R0
        MOV       DPH,R1
        MOVX      A,@DPTR
        MOV       C,0xE0 /* A   */.1
        JC        ??bdb_startResumeCommissioningProcess_3
// 2476           {
// 2477             bdb_exitFindingBindingWStatus(BDB_COMMISSIONING_FAILURE);
// 2478           }        
// 2479         }
// 2480         else
// 2481         {
// 2482           //Send identify query with the endpoint requested
// 2483           if(bdb_SendIdentifyQuery(bdb_CurrEpDescriptor->endPoint) != ZSuccess)
// 2484           {
// 2485             bdb_exitFindingBindingWStatus(BDB_COMMISSIONING_FAILURE);
// 2486           }
// 2487 
// 2488           //If periodic F&B is enabled
// 2489           if ( FINDING_AND_BINDING_PERIODIC_ENABLE == TRUE )
// 2490           {
// 2491             // total F&B time will be at least BDBC_MIN_COMMISSIONING_TIME, and at most (BDBC_MIN_COMMISSIONING_TIME + FINDING_AND_BINDING_PERIODIC_TIME - 1)
// 2492             bdb_FB_InitiatorCurrentCyclesNumber = (BDBC_MIN_COMMISSIONING_TIME + (FINDING_AND_BINDING_PERIODIC_TIME - 1)) / FINDING_AND_BINDING_PERIODIC_TIME;
// 2493             
// 2494             osal_start_timerEx(bdb_TaskID, BDB_FINDING_AND_BINDING_PERIOD_TIMEOUT, FINDING_AND_BINDING_PERIODIC_TIME * 1000);
// 2495           }
// 2496 
// 2497           bdbCommissioningModeMsg.bdbCommissioningMode = BDB_COMMISSIONING_FINDING_BINDING;
// 2498           bdbCommissioningModeMsg.bdbCommissioningStatus = BDB_COMMISSIONING_FB_INITITATOR_IN_PROGRESS;
// 2499 
// 2500           bdb_NotifyApp((uint8*)&bdbCommissioningModeMsg);
// 2501         }
// 2502       } //F&B Initiator
// 2503     }
// 2504     //Not in the network
// 2505     else
// 2506     {
// 2507       bdb_exitFindingBindingWStatus(BDB_COMMISSIONING_FAILURE);
??bdb_startResumeCommissioningProcess_6:
        ; Setup parameters for call to function bdb_exitFindingBindingWStatus
        MOV       R1,#0xe
        LCALL     `??bdb_exitFindingBindingWStatus::?relay`; Banked call to: bdb_exitFindingBindingWStatus
// 2508     }
// 2509     
// 2510     return;
        SJMP      ??bdb_startResumeCommissioningProcess_3
??bdb_startResumeCommissioningProcess_14:
        ; Setup parameters for call to function bdb_SendIdentifyQuery
        MOV       DPL,R6
        MOV       DPH,R7
        MOVX      A,@DPTR
        MOV       R1,A
        LCALL     `??bdb_SendIdentifyQuery::?relay`; Banked call to: bdb_SendIdentifyQuery
        MOV       A,R1
        JZ        ??bdb_startResumeCommissioningProcess_15
        ; Setup parameters for call to function bdb_exitFindingBindingWStatus
        MOV       R1,#0xe
        LCALL     `??bdb_exitFindingBindingWStatus::?relay`; Banked call to: bdb_exitFindingBindingWStatus
??bdb_startResumeCommissioningProcess_15:
        MOV       DPTR,#bdb_FB_InitiatorCurrentCyclesNumber
        MOV       A,#0xc
        MOVX      @DPTR,A
        ; Setup parameters for call to function osal_start_timerEx
        MOV       DPTR,#__Constant_3a98
        LCALL     ?PUSH_XSTACK8_X_FOUR
          CFI CFA_XSP16 add(XSP16, 25)
        MOV       R2,#0x40
        MOV       R3,#0x0
        MOV       DPTR,#bdb_TaskID
        MOVX      A,@DPTR
        MOV       R1,A
        LCALL     `??osal_start_timerEx::?relay`; Banked call to: osal_start_timerEx
        MOV       A,#0x4
        LCALL     ?DEALLOC_XSTACK8
          CFI CFA_XSP16 add(XSP16, 21)
        MOV       A,#0x1
        LCALL     ?XSTACK_DISP0_8
        MOV       A,#0x3
        MOVX      @DPTR,A
        MOV       DPL,?XSP + 0
        MOV       DPH,?XSP + 1
        MOV       A,#0xa
        LCALL     ??Subroutine31_0 & 0xFFFF
// 2511   }
??CrossCallReturnLabel_40:
        LCALL     ?PUSH_XSTACK_I_TWO
          CFI CFA_XSP16 add(XSP16, 23)
        MOV       R4,#0x3
        MOV       R3,#0x0
        MOV       R2,#0xa
        MOV       DPTR,#bdb_TaskID
        MOVX      A,@DPTR
        MOV       R1,A
        LCALL     `??bdb_SendMsg::?relay`; Banked call to: bdb_SendMsg
        MOV       A,#0x2
        LCALL     ?DEALLOC_XSTACK8
          CFI CFA_XSP16 add(XSP16, 21)
// 2512 #endif
// 2513   
// 2514 }
??bdb_startResumeCommissioningProcess_3:
        MOV       A,#0xb
        LJMP      ?Subroutine1 & 0xFFFF
          CFI EndBlock cfiBlock99

        RSEG BANKED_CODE:HUGECODE:NOROOT(0)
?Subroutine23:
          CFI Block cfiCond100 Using cfiCommon0
          CFI Function bdb_startResumeCommissioningProcess
          CFI Conditional ??CrossCallReturnLabel_48
          CFI R6 load(1, XDATA, add(CFA_XSP16, literal(-10)))
          CFI VB load(1, XDATA, add(CFA_XSP16, literal(-9)))
          CFI V0 load(1, XDATA, add(CFA_XSP16, literal(-8)))
          CFI V1 load(1, XDATA, add(CFA_XSP16, literal(-7)))
          CFI R7 load(1, XDATA, add(CFA_XSP16, literal(-6)))
          CFI ?RET_LOW load(1, XDATA, add(CFA_XSP16, literal(-5)))
          CFI ?RET_HIGH load(1, XDATA, add(CFA_XSP16, literal(-4)))
          CFI ?BRET_EXT load(1, XDATA, add(CFA_XSP16, literal(-3)))
          CFI DPL0 load(1, XDATA, add(CFA_XSP16, literal(-2)))
          CFI DPH0 load(1, XDATA, add(CFA_XSP16, literal(-1)))
          CFI CFA_SP SP+-2
          CFI CFA_XSP16 add(XSP16, 21)
          CFI Block cfiCond101 Using cfiCommon0
          CFI (cfiCond101) Function bdb_event_loop
          CFI (cfiCond101) Conditional ??CrossCallReturnLabel_49
          CFI (cfiCond101) R6 load(1, XDATA, add(CFA_XSP16, literal(-16)))
          CFI (cfiCond101) VB load(1, XDATA, add(CFA_XSP16, literal(-15)))
          CFI (cfiCond101) V0 load(1, XDATA, add(CFA_XSP16, literal(-14)))
          CFI (cfiCond101) V1 load(1, XDATA, add(CFA_XSP16, literal(-13)))
          CFI (cfiCond101) V2 load(1, XDATA, add(CFA_XSP16, literal(-12)))
          CFI (cfiCond101) V3 load(1, XDATA, add(CFA_XSP16, literal(-11)))
          CFI (cfiCond101) V4 load(1, XDATA, add(CFA_XSP16, literal(-10)))
          CFI (cfiCond101) V5 load(1, XDATA, add(CFA_XSP16, literal(-9)))
          CFI (cfiCond101) V6 load(1, XDATA, add(CFA_XSP16, literal(-8)))
          CFI (cfiCond101) V7 load(1, XDATA, add(CFA_XSP16, literal(-7)))
          CFI (cfiCond101) R7 load(1, XDATA, add(CFA_XSP16, literal(-6)))
          CFI (cfiCond101) ?RET_LOW load(1, XDATA, add(CFA_XSP16, literal(-5)))
          CFI (cfiCond101) ?RET_HIGH load(1, XDATA, add(CFA_XSP16, literal(-4)))
          CFI (cfiCond101) ?BRET_EXT load(1, XDATA, add(CFA_XSP16, literal(-3)))
          CFI (cfiCond101) DPL0 load(1, XDATA, add(CFA_XSP16, literal(-2)))
          CFI (cfiCond101) DPH0 load(1, XDATA, add(CFA_XSP16, literal(-1)))
          CFI (cfiCond101) CFA_SP SP+-2
          CFI (cfiCond101) CFA_XSP16 add(XSP16, 24)
          CFI Block cfiPicker102 Using cfiCommon1
          CFI (cfiPicker102) NoFunction
          CFI (cfiPicker102) Picker
        MOV       DPTR,#pfnIdentifyTimeChangeCB + 1
          CFI EndBlock cfiCond100
          CFI EndBlock cfiCond101
          CFI EndBlock cfiPicker102
        REQUIRE ??Subroutine38_0
        ; // Fall through to label ??Subroutine38_0

        RSEG BANKED_CODE:HUGECODE:NOROOT(0)
??Subroutine38_0:
          CFI Block cfiCond103 Using cfiCommon0
          CFI Function bdb_ZclIdentifyCmdInd
          CFI Conditional ??CrossCallReturnLabel_45
          CFI R6 load(1, XDATA, add(CFA_XSP16, literal(-12)))
          CFI VB load(1, XDATA, add(CFA_XSP16, literal(-11)))
          CFI V0 load(1, XDATA, add(CFA_XSP16, literal(-10)))
          CFI V1 load(1, XDATA, add(CFA_XSP16, literal(-9)))
          CFI V2 load(1, XDATA, add(CFA_XSP16, literal(-8)))
          CFI V3 load(1, XDATA, add(CFA_XSP16, literal(-7)))
          CFI R7 load(1, XDATA, add(CFA_XSP16, literal(-6)))
          CFI ?RET_LOW load(1, XDATA, add(CFA_XSP16, literal(-5)))
          CFI ?RET_HIGH load(1, XDATA, add(CFA_XSP16, literal(-4)))
          CFI ?BRET_EXT load(1, XDATA, add(CFA_XSP16, literal(-3)))
          CFI DPL0 load(1, XDATA, add(CFA_XSP16, literal(-2)))
          CFI DPH0 load(1, XDATA, add(CFA_XSP16, literal(-1)))
          CFI CFA_SP SP+-2
          CFI CFA_XSP16 add(XSP16, 20)
          CFI Block cfiCond104 Using cfiCommon0
          CFI (cfiCond104) Function bdb_startResumeCommissioningProcess
          CFI (cfiCond104) Conditional ??CrossCallReturnLabel_46
          CFI (cfiCond104) R6 load(1, XDATA, add(CFA_XSP16, literal(-10)))
          CFI (cfiCond104) VB load(1, XDATA, add(CFA_XSP16, literal(-9)))
          CFI (cfiCond104) V0 load(1, XDATA, add(CFA_XSP16, literal(-8)))
          CFI (cfiCond104) V1 load(1, XDATA, add(CFA_XSP16, literal(-7)))
          CFI (cfiCond104) R7 load(1, XDATA, add(CFA_XSP16, literal(-6)))
          CFI (cfiCond104) ?RET_LOW load(1, XDATA, add(CFA_XSP16, literal(-5)))
          CFI (cfiCond104) ?RET_HIGH load(1, XDATA, add(CFA_XSP16, literal(-4)))
          CFI (cfiCond104) ?BRET_EXT load(1, XDATA, add(CFA_XSP16, literal(-3)))
          CFI (cfiCond104) DPL0 load(1, XDATA, add(CFA_XSP16, literal(-2)))
          CFI (cfiCond104) DPH0 load(1, XDATA, add(CFA_XSP16, literal(-1)))
          CFI (cfiCond104) CFA_SP SP+-2
          CFI (cfiCond104) CFA_XSP16 add(XSP16, 21)
          CFI Block cfiCond105 Using cfiCommon0
          CFI (cfiCond105) Function bdb_event_loop
          CFI (cfiCond105) Conditional ??CrossCallReturnLabel_47
          CFI (cfiCond105) R6 load(1, XDATA, add(CFA_XSP16, literal(-16)))
          CFI (cfiCond105) VB load(1, XDATA, add(CFA_XSP16, literal(-15)))
          CFI (cfiCond105) V0 load(1, XDATA, add(CFA_XSP16, literal(-14)))
          CFI (cfiCond105) V1 load(1, XDATA, add(CFA_XSP16, literal(-13)))
          CFI (cfiCond105) V2 load(1, XDATA, add(CFA_XSP16, literal(-12)))
          CFI (cfiCond105) V3 load(1, XDATA, add(CFA_XSP16, literal(-11)))
          CFI (cfiCond105) V4 load(1, XDATA, add(CFA_XSP16, literal(-10)))
          CFI (cfiCond105) V5 load(1, XDATA, add(CFA_XSP16, literal(-9)))
          CFI (cfiCond105) V6 load(1, XDATA, add(CFA_XSP16, literal(-8)))
          CFI (cfiCond105) V7 load(1, XDATA, add(CFA_XSP16, literal(-7)))
          CFI (cfiCond105) R7 load(1, XDATA, add(CFA_XSP16, literal(-6)))
          CFI (cfiCond105) ?RET_LOW load(1, XDATA, add(CFA_XSP16, literal(-5)))
          CFI (cfiCond105) ?RET_HIGH load(1, XDATA, add(CFA_XSP16, literal(-4)))
          CFI (cfiCond105) ?BRET_EXT load(1, XDATA, add(CFA_XSP16, literal(-3)))
          CFI (cfiCond105) DPL0 load(1, XDATA, add(CFA_XSP16, literal(-2)))
          CFI (cfiCond105) DPH0 load(1, XDATA, add(CFA_XSP16, literal(-1)))
          CFI (cfiCond105) CFA_SP SP+-2
          CFI (cfiCond105) CFA_XSP16 add(XSP16, 24)
          CFI Block cfiCond106 Using cfiCommon0
          CFI (cfiCond106) Function bdb_startResumeCommissioningProcess
          CFI (cfiCond106) Conditional ??CrossCallReturnLabel_48
          CFI (cfiCond106) R6 load(1, XDATA, add(CFA_XSP16, literal(-10)))
          CFI (cfiCond106) VB load(1, XDATA, add(CFA_XSP16, literal(-9)))
          CFI (cfiCond106) V0 load(1, XDATA, add(CFA_XSP16, literal(-8)))
          CFI (cfiCond106) V1 load(1, XDATA, add(CFA_XSP16, literal(-7)))
          CFI (cfiCond106) R7 load(1, XDATA, add(CFA_XSP16, literal(-6)))
          CFI (cfiCond106) ?RET_LOW load(1, XDATA, add(CFA_XSP16, literal(-5)))
          CFI (cfiCond106) ?RET_HIGH load(1, XDATA, add(CFA_XSP16, literal(-4)))
          CFI (cfiCond106) ?BRET_EXT load(1, XDATA, add(CFA_XSP16, literal(-3)))
          CFI (cfiCond106) DPL0 load(1, XDATA, add(CFA_XSP16, literal(-2)))
          CFI (cfiCond106) DPH0 load(1, XDATA, add(CFA_XSP16, literal(-1)))
          CFI (cfiCond106) CFA_SP SP+-2
          CFI (cfiCond106) CFA_XSP16 add(XSP16, 21)
          CFI Block cfiCond107 Using cfiCommon0
          CFI (cfiCond107) Function bdb_event_loop
          CFI (cfiCond107) Conditional ??CrossCallReturnLabel_49
          CFI (cfiCond107) R6 load(1, XDATA, add(CFA_XSP16, literal(-16)))
          CFI (cfiCond107) VB load(1, XDATA, add(CFA_XSP16, literal(-15)))
          CFI (cfiCond107) V0 load(1, XDATA, add(CFA_XSP16, literal(-14)))
          CFI (cfiCond107) V1 load(1, XDATA, add(CFA_XSP16, literal(-13)))
          CFI (cfiCond107) V2 load(1, XDATA, add(CFA_XSP16, literal(-12)))
          CFI (cfiCond107) V3 load(1, XDATA, add(CFA_XSP16, literal(-11)))
          CFI (cfiCond107) V4 load(1, XDATA, add(CFA_XSP16, literal(-10)))
          CFI (cfiCond107) V5 load(1, XDATA, add(CFA_XSP16, literal(-9)))
          CFI (cfiCond107) V6 load(1, XDATA, add(CFA_XSP16, literal(-8)))
          CFI (cfiCond107) V7 load(1, XDATA, add(CFA_XSP16, literal(-7)))
          CFI (cfiCond107) R7 load(1, XDATA, add(CFA_XSP16, literal(-6)))
          CFI (cfiCond107) ?RET_LOW load(1, XDATA, add(CFA_XSP16, literal(-5)))
          CFI (cfiCond107) ?RET_HIGH load(1, XDATA, add(CFA_XSP16, literal(-4)))
          CFI (cfiCond107) ?BRET_EXT load(1, XDATA, add(CFA_XSP16, literal(-3)))
          CFI (cfiCond107) DPL0 load(1, XDATA, add(CFA_XSP16, literal(-2)))
          CFI (cfiCond107) DPH0 load(1, XDATA, add(CFA_XSP16, literal(-1)))
          CFI (cfiCond107) CFA_SP SP+-2
          CFI (cfiCond107) CFA_XSP16 add(XSP16, 24)
          CFI Block cfiPicker108 Using cfiCommon1
          CFI (cfiPicker108) NoFunction
          CFI (cfiPicker108) Picker
        MOVX      A,@DPTR
        MOV       DPH,A
        MOV       DPL,R0
        RET
          CFI EndBlock cfiCond103
          CFI EndBlock cfiCond104
          CFI EndBlock cfiCond105
          CFI EndBlock cfiCond106
          CFI EndBlock cfiCond107
          CFI EndBlock cfiPicker108

        RSEG BANKED_CODE:HUGECODE:NOROOT(0)
?Subroutine22:
          CFI Block cfiCond109 Using cfiCommon0
          CFI Function bdb_startResumeCommissioningProcess
          CFI Conditional ??CrossCallReturnLabel_24
          CFI R6 load(1, XDATA, add(CFA_XSP16, literal(-10)))
          CFI VB load(1, XDATA, add(CFA_XSP16, literal(-9)))
          CFI V0 load(1, XDATA, add(CFA_XSP16, literal(-8)))
          CFI V1 load(1, XDATA, add(CFA_XSP16, literal(-7)))
          CFI R7 load(1, XDATA, add(CFA_XSP16, literal(-6)))
          CFI ?RET_LOW load(1, XDATA, add(CFA_XSP16, literal(-5)))
          CFI ?RET_HIGH load(1, XDATA, add(CFA_XSP16, literal(-4)))
          CFI ?BRET_EXT load(1, XDATA, add(CFA_XSP16, literal(-3)))
          CFI DPL0 load(1, XDATA, add(CFA_XSP16, literal(-2)))
          CFI DPH0 load(1, XDATA, add(CFA_XSP16, literal(-1)))
          CFI CFA_SP SP+-2
          CFI CFA_XSP16 add(XSP16, 21)
          CFI Block cfiCond110 Using cfiCommon0
          CFI (cfiCond110) Function bdb_startResumeCommissioningProcess
          CFI (cfiCond110) Conditional ??CrossCallReturnLabel_25
          CFI (cfiCond110) R6 load(1, XDATA, add(CFA_XSP16, literal(-10)))
          CFI (cfiCond110) VB load(1, XDATA, add(CFA_XSP16, literal(-9)))
          CFI (cfiCond110) V0 load(1, XDATA, add(CFA_XSP16, literal(-8)))
          CFI (cfiCond110) V1 load(1, XDATA, add(CFA_XSP16, literal(-7)))
          CFI (cfiCond110) R7 load(1, XDATA, add(CFA_XSP16, literal(-6)))
          CFI (cfiCond110) ?RET_LOW load(1, XDATA, add(CFA_XSP16, literal(-5)))
          CFI (cfiCond110) ?RET_HIGH load(1, XDATA, add(CFA_XSP16, literal(-4)))
          CFI (cfiCond110) ?BRET_EXT load(1, XDATA, add(CFA_XSP16, literal(-3)))
          CFI (cfiCond110) DPL0 load(1, XDATA, add(CFA_XSP16, literal(-2)))
          CFI (cfiCond110) DPH0 load(1, XDATA, add(CFA_XSP16, literal(-1)))
          CFI (cfiCond110) CFA_SP SP+-2
          CFI (cfiCond110) CFA_XSP16 add(XSP16, 21)
          CFI Block cfiPicker111 Using cfiCommon1
          CFI (cfiPicker111) NoFunction
          CFI (cfiPicker111) Picker
        LCALL     ?Subroutine27 & 0xFFFF
??CrossCallReturnLabel_33:
        RET
          CFI EndBlock cfiCond109
          CFI EndBlock cfiCond110
          CFI EndBlock cfiPicker111

        RSEG BANKED_CODE:HUGECODE:NOROOT(0)
?Subroutine27:
          CFI Block cfiCond112 Using cfiCommon0
          CFI Function bdb_startResumeCommissioningProcess
          CFI Conditional ??CrossCallReturnLabel_33, ??CrossCallReturnLabel_24
          CFI R6 load(1, XDATA, add(CFA_XSP16, literal(-10)))
          CFI VB load(1, XDATA, add(CFA_XSP16, literal(-9)))
          CFI V0 load(1, XDATA, add(CFA_XSP16, literal(-8)))
          CFI V1 load(1, XDATA, add(CFA_XSP16, literal(-7)))
          CFI R7 load(1, XDATA, add(CFA_XSP16, literal(-6)))
          CFI ?RET_LOW load(1, XDATA, add(CFA_XSP16, literal(-5)))
          CFI ?RET_HIGH load(1, XDATA, add(CFA_XSP16, literal(-4)))
          CFI ?BRET_EXT load(1, XDATA, add(CFA_XSP16, literal(-3)))
          CFI DPL0 load(1, XDATA, add(CFA_XSP16, literal(-2)))
          CFI DPH0 load(1, XDATA, add(CFA_XSP16, literal(-1)))
          CFI CFA_SP SP+-4
          CFI CFA_XSP16 add(XSP16, 21)
          CFI Block cfiCond113 Using cfiCommon0
          CFI (cfiCond113) Function bdb_startResumeCommissioningProcess
          CFI (cfiCond113) Conditional ??CrossCallReturnLabel_33, ??CrossCallReturnLabel_25
          CFI (cfiCond113) R6 load(1, XDATA, add(CFA_XSP16, literal(-10)))
          CFI (cfiCond113) VB load(1, XDATA, add(CFA_XSP16, literal(-9)))
          CFI (cfiCond113) V0 load(1, XDATA, add(CFA_XSP16, literal(-8)))
          CFI (cfiCond113) V1 load(1, XDATA, add(CFA_XSP16, literal(-7)))
          CFI (cfiCond113) R7 load(1, XDATA, add(CFA_XSP16, literal(-6)))
          CFI (cfiCond113) ?RET_LOW load(1, XDATA, add(CFA_XSP16, literal(-5)))
          CFI (cfiCond113) ?RET_HIGH load(1, XDATA, add(CFA_XSP16, literal(-4)))
          CFI (cfiCond113) ?BRET_EXT load(1, XDATA, add(CFA_XSP16, literal(-3)))
          CFI (cfiCond113) DPL0 load(1, XDATA, add(CFA_XSP16, literal(-2)))
          CFI (cfiCond113) DPH0 load(1, XDATA, add(CFA_XSP16, literal(-1)))
          CFI (cfiCond113) CFA_SP SP+-4
          CFI (cfiCond113) CFA_XSP16 add(XSP16, 21)
          CFI Block cfiCond114 Using cfiCommon0
          CFI (cfiCond114) Function bdb_startResumeCommissioningProcess
          CFI (cfiCond114) Conditional ??CrossCallReturnLabel_32, ??CrossCallReturnLabel_2
          CFI (cfiCond114) R6 load(1, XDATA, add(CFA_XSP16, literal(-10)))
          CFI (cfiCond114) VB load(1, XDATA, add(CFA_XSP16, literal(-9)))
          CFI (cfiCond114) V0 load(1, XDATA, add(CFA_XSP16, literal(-8)))
          CFI (cfiCond114) V1 load(1, XDATA, add(CFA_XSP16, literal(-7)))
          CFI (cfiCond114) R7 load(1, XDATA, add(CFA_XSP16, literal(-6)))
          CFI (cfiCond114) ?RET_LOW load(1, XDATA, add(CFA_XSP16, literal(-5)))
          CFI (cfiCond114) ?RET_HIGH load(1, XDATA, add(CFA_XSP16, literal(-4)))
          CFI (cfiCond114) ?BRET_EXT load(1, XDATA, add(CFA_XSP16, literal(-3)))
          CFI (cfiCond114) DPL0 load(1, XDATA, add(CFA_XSP16, literal(-2)))
          CFI (cfiCond114) DPH0 load(1, XDATA, add(CFA_XSP16, literal(-1)))
          CFI (cfiCond114) CFA_SP SP+-4
          CFI (cfiCond114) CFA_XSP16 add(XSP16, 21)
          CFI Block cfiCond115 Using cfiCommon0
          CFI (cfiCond115) Function bdb_startResumeCommissioningProcess
          CFI (cfiCond115) Conditional ??CrossCallReturnLabel_32, ??CrossCallReturnLabel_3
          CFI (cfiCond115) R6 load(1, XDATA, add(CFA_XSP16, literal(-10)))
          CFI (cfiCond115) VB load(1, XDATA, add(CFA_XSP16, literal(-9)))
          CFI (cfiCond115) V0 load(1, XDATA, add(CFA_XSP16, literal(-8)))
          CFI (cfiCond115) V1 load(1, XDATA, add(CFA_XSP16, literal(-7)))
          CFI (cfiCond115) R7 load(1, XDATA, add(CFA_XSP16, literal(-6)))
          CFI (cfiCond115) ?RET_LOW load(1, XDATA, add(CFA_XSP16, literal(-5)))
          CFI (cfiCond115) ?RET_HIGH load(1, XDATA, add(CFA_XSP16, literal(-4)))
          CFI (cfiCond115) ?BRET_EXT load(1, XDATA, add(CFA_XSP16, literal(-3)))
          CFI (cfiCond115) DPL0 load(1, XDATA, add(CFA_XSP16, literal(-2)))
          CFI (cfiCond115) DPH0 load(1, XDATA, add(CFA_XSP16, literal(-1)))
          CFI (cfiCond115) CFA_SP SP+-4
          CFI (cfiCond115) CFA_XSP16 add(XSP16, 21)
          CFI Block cfiPicker116 Using cfiCommon1
          CFI (cfiPicker116) NoFunction
          CFI (cfiPicker116) Picker
        MOV       DPTR,#bdb_CurrEpDescriptorList
        LCALL     ?Subroutine30 & 0xFFFF
??CrossCallReturnLabel_35:
        MOVX      A,@DPTR
        RET
          CFI EndBlock cfiCond112
          CFI EndBlock cfiCond113
          CFI EndBlock cfiCond114
          CFI EndBlock cfiCond115
          CFI EndBlock cfiPicker116

        RSEG BANKED_CODE:HUGECODE:NOROOT(0)
?Subroutine30:
          CFI Block cfiCond117 Using cfiCommon0
          CFI Function bdb_TCJoiningDeviceFree
          CFI Conditional ??CrossCallReturnLabel_34, ??CrossCallReturnLabel_17
          CFI R6 load(1, XDATA, add(CFA_XSP16, literal(-15)))
          CFI VB load(1, XDATA, add(CFA_XSP16, literal(-14)))
          CFI V0 load(1, XDATA, add(CFA_XSP16, literal(-13)))
          CFI V1 load(1, XDATA, add(CFA_XSP16, literal(-12)))
          CFI V2 load(1, XDATA, add(CFA_XSP16, literal(-11)))
          CFI V3 load(1, XDATA, add(CFA_XSP16, literal(-10)))
          CFI V4 load(1, XDATA, add(CFA_XSP16, literal(-9)))
          CFI V5 load(1, XDATA, add(CFA_XSP16, literal(-8)))
          CFI V6 load(1, XDATA, add(CFA_XSP16, literal(-7)))
          CFI R7 load(1, XDATA, add(CFA_XSP16, literal(-6)))
          CFI ?RET_LOW load(1, XDATA, add(CFA_XSP16, literal(-5)))
          CFI ?RET_HIGH load(1, XDATA, add(CFA_XSP16, literal(-4)))
          CFI ?BRET_EXT load(1, XDATA, add(CFA_XSP16, literal(-3)))
          CFI DPL0 load(1, XDATA, add(CFA_XSP16, literal(-2)))
          CFI DPH0 load(1, XDATA, add(CFA_XSP16, literal(-1)))
          CFI CFA_SP SP+-4
          CFI CFA_XSP16 add(XSP16, 18)
          CFI Block cfiCond118 Using cfiCommon0
          CFI (cfiCond118) Function bdb_TCJoiningDeviceFree
          CFI (cfiCond118) Conditional ??CrossCallReturnLabel_34, ??CrossCallReturnLabel_18
          CFI (cfiCond118) R6 load(1, XDATA, add(CFA_XSP16, literal(-15)))
          CFI (cfiCond118) VB load(1, XDATA, add(CFA_XSP16, literal(-14)))
          CFI (cfiCond118) V0 load(1, XDATA, add(CFA_XSP16, literal(-13)))
          CFI (cfiCond118) V1 load(1, XDATA, add(CFA_XSP16, literal(-12)))
          CFI (cfiCond118) V2 load(1, XDATA, add(CFA_XSP16, literal(-11)))
          CFI (cfiCond118) V3 load(1, XDATA, add(CFA_XSP16, literal(-10)))
          CFI (cfiCond118) V4 load(1, XDATA, add(CFA_XSP16, literal(-9)))
          CFI (cfiCond118) V5 load(1, XDATA, add(CFA_XSP16, literal(-8)))
          CFI (cfiCond118) V6 load(1, XDATA, add(CFA_XSP16, literal(-7)))
          CFI (cfiCond118) R7 load(1, XDATA, add(CFA_XSP16, literal(-6)))
          CFI (cfiCond118) ?RET_LOW load(1, XDATA, add(CFA_XSP16, literal(-5)))
          CFI (cfiCond118) ?RET_HIGH load(1, XDATA, add(CFA_XSP16, literal(-4)))
          CFI (cfiCond118) ?BRET_EXT load(1, XDATA, add(CFA_XSP16, literal(-3)))
          CFI (cfiCond118) DPL0 load(1, XDATA, add(CFA_XSP16, literal(-2)))
          CFI (cfiCond118) DPH0 load(1, XDATA, add(CFA_XSP16, literal(-1)))
          CFI (cfiCond118) CFA_SP SP+-4
          CFI (cfiCond118) CFA_XSP16 add(XSP16, 18)
          CFI Block cfiCond119 Using cfiCommon0
          CFI (cfiCond119) Function bdb_startResumeCommissioningProcess
          CFI (cfiCond119) Conditional ??CrossCallReturnLabel_35, ??CrossCallReturnLabel_33, ??CrossCallReturnLabel_24
          CFI (cfiCond119) R6 load(1, XDATA, add(CFA_XSP16, literal(-10)))
          CFI (cfiCond119) VB load(1, XDATA, add(CFA_XSP16, literal(-9)))
          CFI (cfiCond119) V0 load(1, XDATA, add(CFA_XSP16, literal(-8)))
          CFI (cfiCond119) V1 load(1, XDATA, add(CFA_XSP16, literal(-7)))
          CFI (cfiCond119) R7 load(1, XDATA, add(CFA_XSP16, literal(-6)))
          CFI (cfiCond119) ?RET_LOW load(1, XDATA, add(CFA_XSP16, literal(-5)))
          CFI (cfiCond119) ?RET_HIGH load(1, XDATA, add(CFA_XSP16, literal(-4)))
          CFI (cfiCond119) ?BRET_EXT load(1, XDATA, add(CFA_XSP16, literal(-3)))
          CFI (cfiCond119) DPL0 load(1, XDATA, add(CFA_XSP16, literal(-2)))
          CFI (cfiCond119) DPH0 load(1, XDATA, add(CFA_XSP16, literal(-1)))
          CFI (cfiCond119) CFA_SP SP+-6
          CFI (cfiCond119) CFA_XSP16 add(XSP16, 21)
          CFI Block cfiCond120 Using cfiCommon0
          CFI (cfiCond120) Function bdb_startResumeCommissioningProcess
          CFI (cfiCond120) Conditional ??CrossCallReturnLabel_35, ??CrossCallReturnLabel_33, ??CrossCallReturnLabel_25
          CFI (cfiCond120) R6 load(1, XDATA, add(CFA_XSP16, literal(-10)))
          CFI (cfiCond120) VB load(1, XDATA, add(CFA_XSP16, literal(-9)))
          CFI (cfiCond120) V0 load(1, XDATA, add(CFA_XSP16, literal(-8)))
          CFI (cfiCond120) V1 load(1, XDATA, add(CFA_XSP16, literal(-7)))
          CFI (cfiCond120) R7 load(1, XDATA, add(CFA_XSP16, literal(-6)))
          CFI (cfiCond120) ?RET_LOW load(1, XDATA, add(CFA_XSP16, literal(-5)))
          CFI (cfiCond120) ?RET_HIGH load(1, XDATA, add(CFA_XSP16, literal(-4)))
          CFI (cfiCond120) ?BRET_EXT load(1, XDATA, add(CFA_XSP16, literal(-3)))
          CFI (cfiCond120) DPL0 load(1, XDATA, add(CFA_XSP16, literal(-2)))
          CFI (cfiCond120) DPH0 load(1, XDATA, add(CFA_XSP16, literal(-1)))
          CFI (cfiCond120) CFA_SP SP+-6
          CFI (cfiCond120) CFA_XSP16 add(XSP16, 21)
          CFI Block cfiCond121 Using cfiCommon0
          CFI (cfiCond121) Function bdb_startResumeCommissioningProcess
          CFI (cfiCond121) Conditional ??CrossCallReturnLabel_35, ??CrossCallReturnLabel_32, ??CrossCallReturnLabel_2
          CFI (cfiCond121) R6 load(1, XDATA, add(CFA_XSP16, literal(-10)))
          CFI (cfiCond121) VB load(1, XDATA, add(CFA_XSP16, literal(-9)))
          CFI (cfiCond121) V0 load(1, XDATA, add(CFA_XSP16, literal(-8)))
          CFI (cfiCond121) V1 load(1, XDATA, add(CFA_XSP16, literal(-7)))
          CFI (cfiCond121) R7 load(1, XDATA, add(CFA_XSP16, literal(-6)))
          CFI (cfiCond121) ?RET_LOW load(1, XDATA, add(CFA_XSP16, literal(-5)))
          CFI (cfiCond121) ?RET_HIGH load(1, XDATA, add(CFA_XSP16, literal(-4)))
          CFI (cfiCond121) ?BRET_EXT load(1, XDATA, add(CFA_XSP16, literal(-3)))
          CFI (cfiCond121) DPL0 load(1, XDATA, add(CFA_XSP16, literal(-2)))
          CFI (cfiCond121) DPH0 load(1, XDATA, add(CFA_XSP16, literal(-1)))
          CFI (cfiCond121) CFA_SP SP+-6
          CFI (cfiCond121) CFA_XSP16 add(XSP16, 21)
          CFI Block cfiCond122 Using cfiCommon0
          CFI (cfiCond122) Function bdb_startResumeCommissioningProcess
          CFI (cfiCond122) Conditional ??CrossCallReturnLabel_35, ??CrossCallReturnLabel_32, ??CrossCallReturnLabel_3
          CFI (cfiCond122) R6 load(1, XDATA, add(CFA_XSP16, literal(-10)))
          CFI (cfiCond122) VB load(1, XDATA, add(CFA_XSP16, literal(-9)))
          CFI (cfiCond122) V0 load(1, XDATA, add(CFA_XSP16, literal(-8)))
          CFI (cfiCond122) V1 load(1, XDATA, add(CFA_XSP16, literal(-7)))
          CFI (cfiCond122) R7 load(1, XDATA, add(CFA_XSP16, literal(-6)))
          CFI (cfiCond122) ?RET_LOW load(1, XDATA, add(CFA_XSP16, literal(-5)))
          CFI (cfiCond122) ?RET_HIGH load(1, XDATA, add(CFA_XSP16, literal(-4)))
          CFI (cfiCond122) ?BRET_EXT load(1, XDATA, add(CFA_XSP16, literal(-3)))
          CFI (cfiCond122) DPL0 load(1, XDATA, add(CFA_XSP16, literal(-2)))
          CFI (cfiCond122) DPH0 load(1, XDATA, add(CFA_XSP16, literal(-1)))
          CFI (cfiCond122) CFA_SP SP+-6
          CFI (cfiCond122) CFA_XSP16 add(XSP16, 21)
          CFI Block cfiPicker123 Using cfiCommon1
          CFI (cfiPicker123) NoFunction
          CFI (cfiPicker123) Picker
        MOVX      A,@DPTR
        MOV       R0,A
        INC       DPTR
        MOVX      A,@DPTR
        MOV       DPH,A
        MOV       DPL,R0
        INC       DPTR
        INC       DPTR
        RET
          CFI EndBlock cfiCond117
          CFI EndBlock cfiCond118
          CFI EndBlock cfiCond119
          CFI EndBlock cfiCond120
          CFI EndBlock cfiCond121
          CFI EndBlock cfiCond122
          CFI EndBlock cfiPicker123

        RSEG BANKED_CODE:HUGECODE:NOROOT(0)
?Subroutine15:
          CFI Block cfiCond124 Using cfiCommon0
          CFI Function bdb_ZclIdentifyCmdInd
          CFI Conditional ??CrossCallReturnLabel_9
          CFI R6 load(1, XDATA, add(CFA_XSP16, literal(-12)))
          CFI VB load(1, XDATA, add(CFA_XSP16, literal(-11)))
          CFI V0 load(1, XDATA, add(CFA_XSP16, literal(-10)))
          CFI V1 load(1, XDATA, add(CFA_XSP16, literal(-9)))
          CFI V2 load(1, XDATA, add(CFA_XSP16, literal(-8)))
          CFI V3 load(1, XDATA, add(CFA_XSP16, literal(-7)))
          CFI R7 load(1, XDATA, add(CFA_XSP16, literal(-6)))
          CFI ?RET_LOW load(1, XDATA, add(CFA_XSP16, literal(-5)))
          CFI ?RET_HIGH load(1, XDATA, add(CFA_XSP16, literal(-4)))
          CFI ?BRET_EXT load(1, XDATA, add(CFA_XSP16, literal(-3)))
          CFI DPL0 load(1, XDATA, add(CFA_XSP16, literal(-2)))
          CFI DPH0 load(1, XDATA, add(CFA_XSP16, literal(-1)))
          CFI CFA_SP SP+-2
          CFI CFA_XSP16 add(XSP16, 20)
          CFI Block cfiCond125 Using cfiCommon0
          CFI (cfiCond125) Function bdb_startResumeCommissioningProcess
          CFI (cfiCond125) Conditional ??CrossCallReturnLabel_10
          CFI (cfiCond125) R6 load(1, XDATA, add(CFA_XSP16, literal(-10)))
          CFI (cfiCond125) VB load(1, XDATA, add(CFA_XSP16, literal(-9)))
          CFI (cfiCond125) V0 load(1, XDATA, add(CFA_XSP16, literal(-8)))
          CFI (cfiCond125) V1 load(1, XDATA, add(CFA_XSP16, literal(-7)))
          CFI (cfiCond125) R7 load(1, XDATA, add(CFA_XSP16, literal(-6)))
          CFI (cfiCond125) ?RET_LOW load(1, XDATA, add(CFA_XSP16, literal(-5)))
          CFI (cfiCond125) ?RET_HIGH load(1, XDATA, add(CFA_XSP16, literal(-4)))
          CFI (cfiCond125) ?BRET_EXT load(1, XDATA, add(CFA_XSP16, literal(-3)))
          CFI (cfiCond125) DPL0 load(1, XDATA, add(CFA_XSP16, literal(-2)))
          CFI (cfiCond125) DPH0 load(1, XDATA, add(CFA_XSP16, literal(-1)))
          CFI (cfiCond125) CFA_SP SP+-2
          CFI (cfiCond125) CFA_XSP16 add(XSP16, 21)
          CFI Block cfiCond126 Using cfiCommon0
          CFI (cfiCond126) Function bdb_event_loop
          CFI (cfiCond126) Conditional ??CrossCallReturnLabel_11
          CFI (cfiCond126) R6 load(1, XDATA, add(CFA_XSP16, literal(-16)))
          CFI (cfiCond126) VB load(1, XDATA, add(CFA_XSP16, literal(-15)))
          CFI (cfiCond126) V0 load(1, XDATA, add(CFA_XSP16, literal(-14)))
          CFI (cfiCond126) V1 load(1, XDATA, add(CFA_XSP16, literal(-13)))
          CFI (cfiCond126) V2 load(1, XDATA, add(CFA_XSP16, literal(-12)))
          CFI (cfiCond126) V3 load(1, XDATA, add(CFA_XSP16, literal(-11)))
          CFI (cfiCond126) V4 load(1, XDATA, add(CFA_XSP16, literal(-10)))
          CFI (cfiCond126) V5 load(1, XDATA, add(CFA_XSP16, literal(-9)))
          CFI (cfiCond126) V6 load(1, XDATA, add(CFA_XSP16, literal(-8)))
          CFI (cfiCond126) V7 load(1, XDATA, add(CFA_XSP16, literal(-7)))
          CFI (cfiCond126) R7 load(1, XDATA, add(CFA_XSP16, literal(-6)))
          CFI (cfiCond126) ?RET_LOW load(1, XDATA, add(CFA_XSP16, literal(-5)))
          CFI (cfiCond126) ?RET_HIGH load(1, XDATA, add(CFA_XSP16, literal(-4)))
          CFI (cfiCond126) ?BRET_EXT load(1, XDATA, add(CFA_XSP16, literal(-3)))
          CFI (cfiCond126) DPL0 load(1, XDATA, add(CFA_XSP16, literal(-2)))
          CFI (cfiCond126) DPH0 load(1, XDATA, add(CFA_XSP16, literal(-1)))
          CFI (cfiCond126) CFA_SP SP+-2
          CFI (cfiCond126) CFA_XSP16 add(XSP16, 24)
          CFI Block cfiCond127 Using cfiCommon0
          CFI (cfiCond127) Function bdb_event_loop
          CFI (cfiCond127) Conditional ??CrossCallReturnLabel_12
          CFI (cfiCond127) R6 load(1, XDATA, add(CFA_XSP16, literal(-16)))
          CFI (cfiCond127) VB load(1, XDATA, add(CFA_XSP16, literal(-15)))
          CFI (cfiCond127) V0 load(1, XDATA, add(CFA_XSP16, literal(-14)))
          CFI (cfiCond127) V1 load(1, XDATA, add(CFA_XSP16, literal(-13)))
          CFI (cfiCond127) V2 load(1, XDATA, add(CFA_XSP16, literal(-12)))
          CFI (cfiCond127) V3 load(1, XDATA, add(CFA_XSP16, literal(-11)))
          CFI (cfiCond127) V4 load(1, XDATA, add(CFA_XSP16, literal(-10)))
          CFI (cfiCond127) V5 load(1, XDATA, add(CFA_XSP16, literal(-9)))
          CFI (cfiCond127) V6 load(1, XDATA, add(CFA_XSP16, literal(-8)))
          CFI (cfiCond127) V7 load(1, XDATA, add(CFA_XSP16, literal(-7)))
          CFI (cfiCond127) R7 load(1, XDATA, add(CFA_XSP16, literal(-6)))
          CFI (cfiCond127) ?RET_LOW load(1, XDATA, add(CFA_XSP16, literal(-5)))
          CFI (cfiCond127) ?RET_HIGH load(1, XDATA, add(CFA_XSP16, literal(-4)))
          CFI (cfiCond127) ?BRET_EXT load(1, XDATA, add(CFA_XSP16, literal(-3)))
          CFI (cfiCond127) DPL0 load(1, XDATA, add(CFA_XSP16, literal(-2)))
          CFI (cfiCond127) DPH0 load(1, XDATA, add(CFA_XSP16, literal(-1)))
          CFI (cfiCond127) CFA_SP SP+-2
          CFI (cfiCond127) CFA_XSP16 add(XSP16, 24)
          CFI Block cfiPicker128 Using cfiCommon1
          CFI (cfiPicker128) NoFunction
          CFI (cfiPicker128) Picker
        LCALL     ?Subroutine28 & 0xFFFF
??CrossCallReturnLabel_72:
        MOV       DPL,R0
        MOV       DPH,R1
        RET
          CFI EndBlock cfiCond124
          CFI EndBlock cfiCond125
          CFI EndBlock cfiCond126
          CFI EndBlock cfiCond127
          CFI EndBlock cfiPicker128

        RSEG BANKED_CODE:HUGECODE:NOROOT(0)
?Subroutine13:
          CFI Block cfiCond129 Using cfiCommon0
          CFI Function bdb_startResumeCommissioningProcess
          CFI Conditional ??CrossCallReturnLabel_2
          CFI R6 load(1, XDATA, add(CFA_XSP16, literal(-10)))
          CFI VB load(1, XDATA, add(CFA_XSP16, literal(-9)))
          CFI V0 load(1, XDATA, add(CFA_XSP16, literal(-8)))
          CFI V1 load(1, XDATA, add(CFA_XSP16, literal(-7)))
          CFI R7 load(1, XDATA, add(CFA_XSP16, literal(-6)))
          CFI ?RET_LOW load(1, XDATA, add(CFA_XSP16, literal(-5)))
          CFI ?RET_HIGH load(1, XDATA, add(CFA_XSP16, literal(-4)))
          CFI ?BRET_EXT load(1, XDATA, add(CFA_XSP16, literal(-3)))
          CFI DPL0 load(1, XDATA, add(CFA_XSP16, literal(-2)))
          CFI DPH0 load(1, XDATA, add(CFA_XSP16, literal(-1)))
          CFI CFA_SP SP+-2
          CFI CFA_XSP16 add(XSP16, 21)
          CFI Block cfiCond130 Using cfiCommon0
          CFI (cfiCond130) Function bdb_startResumeCommissioningProcess
          CFI (cfiCond130) Conditional ??CrossCallReturnLabel_3
          CFI (cfiCond130) R6 load(1, XDATA, add(CFA_XSP16, literal(-10)))
          CFI (cfiCond130) VB load(1, XDATA, add(CFA_XSP16, literal(-9)))
          CFI (cfiCond130) V0 load(1, XDATA, add(CFA_XSP16, literal(-8)))
          CFI (cfiCond130) V1 load(1, XDATA, add(CFA_XSP16, literal(-7)))
          CFI (cfiCond130) R7 load(1, XDATA, add(CFA_XSP16, literal(-6)))
          CFI (cfiCond130) ?RET_LOW load(1, XDATA, add(CFA_XSP16, literal(-5)))
          CFI (cfiCond130) ?RET_HIGH load(1, XDATA, add(CFA_XSP16, literal(-4)))
          CFI (cfiCond130) ?BRET_EXT load(1, XDATA, add(CFA_XSP16, literal(-3)))
          CFI (cfiCond130) DPL0 load(1, XDATA, add(CFA_XSP16, literal(-2)))
          CFI (cfiCond130) DPH0 load(1, XDATA, add(CFA_XSP16, literal(-1)))
          CFI (cfiCond130) CFA_SP SP+-2
          CFI (cfiCond130) CFA_XSP16 add(XSP16, 21)
          CFI Block cfiPicker131 Using cfiCommon1
          CFI (cfiPicker131) NoFunction
          CFI (cfiPicker131) Picker
        LCALL     ?Subroutine27 & 0xFFFF
??CrossCallReturnLabel_32:
        MOV       R0,A
        INC       DPTR
        MOVX      A,@DPTR
        MOV       DPH,A
        MOV       DPL,R0
        INC       DPTR
        MOVX      A,@DPTR
        MOV       C,0xE0 /* A   */.0
        RET
          CFI EndBlock cfiCond129
          CFI EndBlock cfiCond130
          CFI EndBlock cfiPicker131

        RSEG BANKED_CODE:HUGECODE:NOROOT(0)
?Subroutine12:
          CFI Block cfiCond132 Using cfiCommon0
          CFI Function bdb_CreateRespondentList
          CFI Conditional ??CrossCallReturnLabel_50
          CFI R6 load(1, XDATA, add(CFA_XSP16, literal(-10)))
          CFI VB load(1, XDATA, add(CFA_XSP16, literal(-9)))
          CFI V0 load(1, XDATA, add(CFA_XSP16, literal(-8)))
          CFI V1 load(1, XDATA, add(CFA_XSP16, literal(-7)))
          CFI R7 load(1, XDATA, add(CFA_XSP16, literal(-6)))
          CFI ?RET_LOW load(1, XDATA, add(CFA_XSP16, literal(-5)))
          CFI ?RET_HIGH load(1, XDATA, add(CFA_XSP16, literal(-4)))
          CFI ?BRET_EXT load(1, XDATA, add(CFA_XSP16, literal(-3)))
          CFI DPL0 load(1, XDATA, add(CFA_XSP16, literal(-2)))
          CFI DPH0 load(1, XDATA, add(CFA_XSP16, literal(-1)))
          CFI CFA_SP SP+-2
          CFI CFA_XSP16 add(XSP16, 10)
          CFI Block cfiCond133 Using cfiCommon0
          CFI (cfiCond133) Function bdb_AddRespondentNode
          CFI (cfiCond133) Conditional ??CrossCallReturnLabel_51
          CFI (cfiCond133) R6 load(1, XDATA, add(CFA_XSP16, literal(-10)))
          CFI (cfiCond133) VB load(1, XDATA, add(CFA_XSP16, literal(-9)))
          CFI (cfiCond133) V0 load(1, XDATA, add(CFA_XSP16, literal(-8)))
          CFI (cfiCond133) V1 load(1, XDATA, add(CFA_XSP16, literal(-7)))
          CFI (cfiCond133) R7 load(1, XDATA, add(CFA_XSP16, literal(-6)))
          CFI (cfiCond133) ?RET_LOW load(1, XDATA, add(CFA_XSP16, literal(-5)))
          CFI (cfiCond133) ?RET_HIGH load(1, XDATA, add(CFA_XSP16, literal(-4)))
          CFI (cfiCond133) ?BRET_EXT load(1, XDATA, add(CFA_XSP16, literal(-3)))
          CFI (cfiCond133) DPL0 load(1, XDATA, add(CFA_XSP16, literal(-2)))
          CFI (cfiCond133) DPH0 load(1, XDATA, add(CFA_XSP16, literal(-1)))
          CFI (cfiCond133) CFA_SP SP+-2
          CFI (cfiCond133) CFA_XSP16 add(XSP16, 10)
          CFI Block cfiCond134 Using cfiCommon0
          CFI (cfiCond134) Function bdb_zclRespondentListClean
          CFI (cfiCond134) Conditional ??CrossCallReturnLabel_52
          CFI (cfiCond134) R6 load(1, XDATA, add(CFA_XSP16, literal(-12)))
          CFI (cfiCond134) VB load(1, XDATA, add(CFA_XSP16, literal(-11)))
          CFI (cfiCond134) V0 load(1, XDATA, add(CFA_XSP16, literal(-10)))
          CFI (cfiCond134) V1 load(1, XDATA, add(CFA_XSP16, literal(-9)))
          CFI (cfiCond134) V2 load(1, XDATA, add(CFA_XSP16, literal(-8)))
          CFI (cfiCond134) V3 load(1, XDATA, add(CFA_XSP16, literal(-7)))
          CFI (cfiCond134) R7 load(1, XDATA, add(CFA_XSP16, literal(-6)))
          CFI (cfiCond134) ?RET_LOW load(1, XDATA, add(CFA_XSP16, literal(-5)))
          CFI (cfiCond134) ?RET_HIGH load(1, XDATA, add(CFA_XSP16, literal(-4)))
          CFI (cfiCond134) ?BRET_EXT load(1, XDATA, add(CFA_XSP16, literal(-3)))
          CFI (cfiCond134) DPL0 load(1, XDATA, add(CFA_XSP16, literal(-2)))
          CFI (cfiCond134) DPH0 load(1, XDATA, add(CFA_XSP16, literal(-1)))
          CFI (cfiCond134) CFA_SP SP+-2
          CFI (cfiCond134) CFA_XSP16 add(XSP16, 12)
          CFI Block cfiPicker135 Using cfiCommon1
          CFI (cfiPicker135) NoFunction
          CFI (cfiPicker135) Picker
        MOV       A,R2
        MOV       R6,A
        MOV       A,R3
          CFI EndBlock cfiCond132
          CFI EndBlock cfiCond133
          CFI EndBlock cfiCond134
          CFI EndBlock cfiPicker135
        REQUIRE ??Subroutine39_0
        ; // Fall through to label ??Subroutine39_0

        RSEG BANKED_CODE:HUGECODE:NOROOT(0)
??Subroutine39_0:
          CFI Block cfiCond136 Using cfiCommon0
          CFI Function bdb_AddRespondentNode
          CFI Conditional ??CrossCallReturnLabel_53
          CFI R6 load(1, XDATA, add(CFA_XSP16, literal(-10)))
          CFI VB load(1, XDATA, add(CFA_XSP16, literal(-9)))
          CFI V0 load(1, XDATA, add(CFA_XSP16, literal(-8)))
          CFI V1 load(1, XDATA, add(CFA_XSP16, literal(-7)))
          CFI R7 load(1, XDATA, add(CFA_XSP16, literal(-6)))
          CFI ?RET_LOW load(1, XDATA, add(CFA_XSP16, literal(-5)))
          CFI ?RET_HIGH load(1, XDATA, add(CFA_XSP16, literal(-4)))
          CFI ?BRET_EXT load(1, XDATA, add(CFA_XSP16, literal(-3)))
          CFI DPL0 load(1, XDATA, add(CFA_XSP16, literal(-2)))
          CFI DPH0 load(1, XDATA, add(CFA_XSP16, literal(-1)))
          CFI CFA_SP SP+-2
          CFI CFA_XSP16 add(XSP16, 10)
          CFI Block cfiCond137 Using cfiCommon0
          CFI (cfiCond137) Function bdb_CreateRespondentList
          CFI (cfiCond137) Conditional ??CrossCallReturnLabel_50
          CFI (cfiCond137) R6 load(1, XDATA, add(CFA_XSP16, literal(-10)))
          CFI (cfiCond137) VB load(1, XDATA, add(CFA_XSP16, literal(-9)))
          CFI (cfiCond137) V0 load(1, XDATA, add(CFA_XSP16, literal(-8)))
          CFI (cfiCond137) V1 load(1, XDATA, add(CFA_XSP16, literal(-7)))
          CFI (cfiCond137) R7 load(1, XDATA, add(CFA_XSP16, literal(-6)))
          CFI (cfiCond137) ?RET_LOW load(1, XDATA, add(CFA_XSP16, literal(-5)))
          CFI (cfiCond137) ?RET_HIGH load(1, XDATA, add(CFA_XSP16, literal(-4)))
          CFI (cfiCond137) ?BRET_EXT load(1, XDATA, add(CFA_XSP16, literal(-3)))
          CFI (cfiCond137) DPL0 load(1, XDATA, add(CFA_XSP16, literal(-2)))
          CFI (cfiCond137) DPH0 load(1, XDATA, add(CFA_XSP16, literal(-1)))
          CFI (cfiCond137) CFA_SP SP+-2
          CFI (cfiCond137) CFA_XSP16 add(XSP16, 10)
          CFI Block cfiCond138 Using cfiCommon0
          CFI (cfiCond138) Function bdb_AddRespondentNode
          CFI (cfiCond138) Conditional ??CrossCallReturnLabel_51
          CFI (cfiCond138) R6 load(1, XDATA, add(CFA_XSP16, literal(-10)))
          CFI (cfiCond138) VB load(1, XDATA, add(CFA_XSP16, literal(-9)))
          CFI (cfiCond138) V0 load(1, XDATA, add(CFA_XSP16, literal(-8)))
          CFI (cfiCond138) V1 load(1, XDATA, add(CFA_XSP16, literal(-7)))
          CFI (cfiCond138) R7 load(1, XDATA, add(CFA_XSP16, literal(-6)))
          CFI (cfiCond138) ?RET_LOW load(1, XDATA, add(CFA_XSP16, literal(-5)))
          CFI (cfiCond138) ?RET_HIGH load(1, XDATA, add(CFA_XSP16, literal(-4)))
          CFI (cfiCond138) ?BRET_EXT load(1, XDATA, add(CFA_XSP16, literal(-3)))
          CFI (cfiCond138) DPL0 load(1, XDATA, add(CFA_XSP16, literal(-2)))
          CFI (cfiCond138) DPH0 load(1, XDATA, add(CFA_XSP16, literal(-1)))
          CFI (cfiCond138) CFA_SP SP+-2
          CFI (cfiCond138) CFA_XSP16 add(XSP16, 10)
          CFI Block cfiCond139 Using cfiCommon0
          CFI (cfiCond139) Function bdb_zclRespondentListClean
          CFI (cfiCond139) Conditional ??CrossCallReturnLabel_52
          CFI (cfiCond139) R6 load(1, XDATA, add(CFA_XSP16, literal(-12)))
          CFI (cfiCond139) VB load(1, XDATA, add(CFA_XSP16, literal(-11)))
          CFI (cfiCond139) V0 load(1, XDATA, add(CFA_XSP16, literal(-10)))
          CFI (cfiCond139) V1 load(1, XDATA, add(CFA_XSP16, literal(-9)))
          CFI (cfiCond139) V2 load(1, XDATA, add(CFA_XSP16, literal(-8)))
          CFI (cfiCond139) V3 load(1, XDATA, add(CFA_XSP16, literal(-7)))
          CFI (cfiCond139) R7 load(1, XDATA, add(CFA_XSP16, literal(-6)))
          CFI (cfiCond139) ?RET_LOW load(1, XDATA, add(CFA_XSP16, literal(-5)))
          CFI (cfiCond139) ?RET_HIGH load(1, XDATA, add(CFA_XSP16, literal(-4)))
          CFI (cfiCond139) ?BRET_EXT load(1, XDATA, add(CFA_XSP16, literal(-3)))
          CFI (cfiCond139) DPL0 load(1, XDATA, add(CFA_XSP16, literal(-2)))
          CFI (cfiCond139) DPH0 load(1, XDATA, add(CFA_XSP16, literal(-1)))
          CFI (cfiCond139) CFA_SP SP+-2
          CFI (cfiCond139) CFA_XSP16 add(XSP16, 12)
          CFI Block cfiPicker140 Using cfiCommon1
          CFI (cfiPicker140) NoFunction
          CFI (cfiPicker140) Picker
        MOV       R7,A
          CFI EndBlock cfiCond136
          CFI EndBlock cfiCond137
          CFI EndBlock cfiCond138
          CFI EndBlock cfiCond139
          CFI EndBlock cfiPicker140
        REQUIRE ??Subroutine40_0
        ; // Fall through to label ??Subroutine40_0

        RSEG BANKED_CODE:HUGECODE:NOROOT(0)
??Subroutine40_0:
          CFI Block cfiCond141 Using cfiCommon0
          CFI Function bdb_TCAddJoiningDevice
          CFI Conditional ??CrossCallReturnLabel_69
          CFI R6 load(1, XDATA, add(CFA_XSP16, literal(-19)))
          CFI VB load(1, XDATA, add(CFA_XSP16, literal(-18)))
          CFI V0 load(1, XDATA, add(CFA_XSP16, literal(-17)))
          CFI V1 load(1, XDATA, add(CFA_XSP16, literal(-16)))
          CFI V2 load(1, XDATA, add(CFA_XSP16, literal(-15)))
          CFI V3 load(1, XDATA, add(CFA_XSP16, literal(-14)))
          CFI V4 load(1, XDATA, add(CFA_XSP16, literal(-13)))
          CFI V5 load(1, XDATA, add(CFA_XSP16, literal(-12)))
          CFI V6 load(1, XDATA, add(CFA_XSP16, literal(-11)))
          CFI V7 load(1, XDATA, add(CFA_XSP16, literal(-10)))
          CFI V8 load(1, XDATA, add(CFA_XSP16, literal(-9)))
          CFI V9 load(1, XDATA, add(CFA_XSP16, literal(-8)))
          CFI V10 load(1, XDATA, add(CFA_XSP16, literal(-7)))
          CFI R7 load(1, XDATA, add(CFA_XSP16, literal(-6)))
          CFI ?RET_LOW load(1, XDATA, add(CFA_XSP16, literal(-5)))
          CFI ?RET_HIGH load(1, XDATA, add(CFA_XSP16, literal(-4)))
          CFI ?BRET_EXT load(1, XDATA, add(CFA_XSP16, literal(-3)))
          CFI DPL0 load(1, XDATA, add(CFA_XSP16, literal(-2)))
          CFI DPH0 load(1, XDATA, add(CFA_XSP16, literal(-1)))
          CFI CFA_SP SP+-2
          CFI CFA_XSP16 add(XSP16, 28)
          CFI Block cfiCond142 Using cfiCommon0
          CFI (cfiCond142) Function bdb_AddRespondentNode
          CFI (cfiCond142) Conditional ??CrossCallReturnLabel_53
          CFI (cfiCond142) R6 load(1, XDATA, add(CFA_XSP16, literal(-10)))
          CFI (cfiCond142) VB load(1, XDATA, add(CFA_XSP16, literal(-9)))
          CFI (cfiCond142) V0 load(1, XDATA, add(CFA_XSP16, literal(-8)))
          CFI (cfiCond142) V1 load(1, XDATA, add(CFA_XSP16, literal(-7)))
          CFI (cfiCond142) R7 load(1, XDATA, add(CFA_XSP16, literal(-6)))
          CFI (cfiCond142) ?RET_LOW load(1, XDATA, add(CFA_XSP16, literal(-5)))
          CFI (cfiCond142) ?RET_HIGH load(1, XDATA, add(CFA_XSP16, literal(-4)))
          CFI (cfiCond142) ?BRET_EXT load(1, XDATA, add(CFA_XSP16, literal(-3)))
          CFI (cfiCond142) DPL0 load(1, XDATA, add(CFA_XSP16, literal(-2)))
          CFI (cfiCond142) DPH0 load(1, XDATA, add(CFA_XSP16, literal(-1)))
          CFI (cfiCond142) CFA_SP SP+-2
          CFI (cfiCond142) CFA_XSP16 add(XSP16, 10)
          CFI Block cfiCond143 Using cfiCommon0
          CFI (cfiCond143) Function bdb_CreateRespondentList
          CFI (cfiCond143) Conditional ??CrossCallReturnLabel_50
          CFI (cfiCond143) R6 load(1, XDATA, add(CFA_XSP16, literal(-10)))
          CFI (cfiCond143) VB load(1, XDATA, add(CFA_XSP16, literal(-9)))
          CFI (cfiCond143) V0 load(1, XDATA, add(CFA_XSP16, literal(-8)))
          CFI (cfiCond143) V1 load(1, XDATA, add(CFA_XSP16, literal(-7)))
          CFI (cfiCond143) R7 load(1, XDATA, add(CFA_XSP16, literal(-6)))
          CFI (cfiCond143) ?RET_LOW load(1, XDATA, add(CFA_XSP16, literal(-5)))
          CFI (cfiCond143) ?RET_HIGH load(1, XDATA, add(CFA_XSP16, literal(-4)))
          CFI (cfiCond143) ?BRET_EXT load(1, XDATA, add(CFA_XSP16, literal(-3)))
          CFI (cfiCond143) DPL0 load(1, XDATA, add(CFA_XSP16, literal(-2)))
          CFI (cfiCond143) DPH0 load(1, XDATA, add(CFA_XSP16, literal(-1)))
          CFI (cfiCond143) CFA_SP SP+-2
          CFI (cfiCond143) CFA_XSP16 add(XSP16, 10)
          CFI Block cfiCond144 Using cfiCommon0
          CFI (cfiCond144) Function bdb_AddRespondentNode
          CFI (cfiCond144) Conditional ??CrossCallReturnLabel_51
          CFI (cfiCond144) R6 load(1, XDATA, add(CFA_XSP16, literal(-10)))
          CFI (cfiCond144) VB load(1, XDATA, add(CFA_XSP16, literal(-9)))
          CFI (cfiCond144) V0 load(1, XDATA, add(CFA_XSP16, literal(-8)))
          CFI (cfiCond144) V1 load(1, XDATA, add(CFA_XSP16, literal(-7)))
          CFI (cfiCond144) R7 load(1, XDATA, add(CFA_XSP16, literal(-6)))
          CFI (cfiCond144) ?RET_LOW load(1, XDATA, add(CFA_XSP16, literal(-5)))
          CFI (cfiCond144) ?RET_HIGH load(1, XDATA, add(CFA_XSP16, literal(-4)))
          CFI (cfiCond144) ?BRET_EXT load(1, XDATA, add(CFA_XSP16, literal(-3)))
          CFI (cfiCond144) DPL0 load(1, XDATA, add(CFA_XSP16, literal(-2)))
          CFI (cfiCond144) DPH0 load(1, XDATA, add(CFA_XSP16, literal(-1)))
          CFI (cfiCond144) CFA_SP SP+-2
          CFI (cfiCond144) CFA_XSP16 add(XSP16, 10)
          CFI Block cfiCond145 Using cfiCommon0
          CFI (cfiCond145) Function bdb_zclRespondentListClean
          CFI (cfiCond145) Conditional ??CrossCallReturnLabel_52
          CFI (cfiCond145) R6 load(1, XDATA, add(CFA_XSP16, literal(-12)))
          CFI (cfiCond145) VB load(1, XDATA, add(CFA_XSP16, literal(-11)))
          CFI (cfiCond145) V0 load(1, XDATA, add(CFA_XSP16, literal(-10)))
          CFI (cfiCond145) V1 load(1, XDATA, add(CFA_XSP16, literal(-9)))
          CFI (cfiCond145) V2 load(1, XDATA, add(CFA_XSP16, literal(-8)))
          CFI (cfiCond145) V3 load(1, XDATA, add(CFA_XSP16, literal(-7)))
          CFI (cfiCond145) R7 load(1, XDATA, add(CFA_XSP16, literal(-6)))
          CFI (cfiCond145) ?RET_LOW load(1, XDATA, add(CFA_XSP16, literal(-5)))
          CFI (cfiCond145) ?RET_HIGH load(1, XDATA, add(CFA_XSP16, literal(-4)))
          CFI (cfiCond145) ?BRET_EXT load(1, XDATA, add(CFA_XSP16, literal(-3)))
          CFI (cfiCond145) DPL0 load(1, XDATA, add(CFA_XSP16, literal(-2)))
          CFI (cfiCond145) DPH0 load(1, XDATA, add(CFA_XSP16, literal(-1)))
          CFI (cfiCond145) CFA_SP SP+-2
          CFI (cfiCond145) CFA_XSP16 add(XSP16, 12)
          CFI Block cfiPicker146 Using cfiCommon1
          CFI (cfiPicker146) NoFunction
          CFI (cfiPicker146) Picker
        MOV       DPL,R6
        MOV       DPH,R7
          CFI EndBlock cfiCond141
          CFI EndBlock cfiCond142
          CFI EndBlock cfiCond143
          CFI EndBlock cfiCond144
          CFI EndBlock cfiCond145
          CFI EndBlock cfiPicker146
        REQUIRE ??Subroutine41_0
        ; // Fall through to label ??Subroutine41_0

        RSEG BANKED_CODE:HUGECODE:NOROOT(0)
??Subroutine41_0:
          CFI Block cfiCond147 Using cfiCommon0
          CFI Function bdb_ZclIdentifyCmdInd
          CFI Conditional ??CrossCallReturnLabel_54
          CFI R6 load(1, XDATA, add(CFA_XSP16, literal(-12)))
          CFI VB load(1, XDATA, add(CFA_XSP16, literal(-11)))
          CFI V0 load(1, XDATA, add(CFA_XSP16, literal(-10)))
          CFI V1 load(1, XDATA, add(CFA_XSP16, literal(-9)))
          CFI V2 load(1, XDATA, add(CFA_XSP16, literal(-8)))
          CFI V3 load(1, XDATA, add(CFA_XSP16, literal(-7)))
          CFI R7 load(1, XDATA, add(CFA_XSP16, literal(-6)))
          CFI ?RET_LOW load(1, XDATA, add(CFA_XSP16, literal(-5)))
          CFI ?RET_HIGH load(1, XDATA, add(CFA_XSP16, literal(-4)))
          CFI ?BRET_EXT load(1, XDATA, add(CFA_XSP16, literal(-3)))
          CFI DPL0 load(1, XDATA, add(CFA_XSP16, literal(-2)))
          CFI DPH0 load(1, XDATA, add(CFA_XSP16, literal(-1)))
          CFI CFA_SP SP+-2
          CFI CFA_XSP16 add(XSP16, 20)
          CFI Block cfiCond148 Using cfiCommon0
          CFI (cfiCond148) Function bdb_TCAddJoiningDevice
          CFI (cfiCond148) Conditional ??CrossCallReturnLabel_55
          CFI (cfiCond148) R6 load(1, XDATA, add(CFA_XSP16, literal(-19)))
          CFI (cfiCond148) VB load(1, XDATA, add(CFA_XSP16, literal(-18)))
          CFI (cfiCond148) V0 load(1, XDATA, add(CFA_XSP16, literal(-17)))
          CFI (cfiCond148) V1 load(1, XDATA, add(CFA_XSP16, literal(-16)))
          CFI (cfiCond148) V2 load(1, XDATA, add(CFA_XSP16, literal(-15)))
          CFI (cfiCond148) V3 load(1, XDATA, add(CFA_XSP16, literal(-14)))
          CFI (cfiCond148) V4 load(1, XDATA, add(CFA_XSP16, literal(-13)))
          CFI (cfiCond148) V5 load(1, XDATA, add(CFA_XSP16, literal(-12)))
          CFI (cfiCond148) V6 load(1, XDATA, add(CFA_XSP16, literal(-11)))
          CFI (cfiCond148) V7 load(1, XDATA, add(CFA_XSP16, literal(-10)))
          CFI (cfiCond148) V8 load(1, XDATA, add(CFA_XSP16, literal(-9)))
          CFI (cfiCond148) V9 load(1, XDATA, add(CFA_XSP16, literal(-8)))
          CFI (cfiCond148) V10 load(1, XDATA, add(CFA_XSP16, literal(-7)))
          CFI (cfiCond148) R7 load(1, XDATA, add(CFA_XSP16, literal(-6)))
          CFI (cfiCond148) ?RET_LOW load(1, XDATA, add(CFA_XSP16, literal(-5)))
          CFI (cfiCond148) ?RET_HIGH load(1, XDATA, add(CFA_XSP16, literal(-4)))
          CFI (cfiCond148) ?BRET_EXT load(1, XDATA, add(CFA_XSP16, literal(-3)))
          CFI (cfiCond148) DPL0 load(1, XDATA, add(CFA_XSP16, literal(-2)))
          CFI (cfiCond148) DPH0 load(1, XDATA, add(CFA_XSP16, literal(-1)))
          CFI (cfiCond148) CFA_SP SP+-2
          CFI (cfiCond148) CFA_XSP16 add(XSP16, 28)
          CFI Block cfiCond149 Using cfiCommon0
          CFI (cfiCond149) Function bdb_TCAddJoiningDevice
          CFI (cfiCond149) Conditional ??CrossCallReturnLabel_56
          CFI (cfiCond149) R6 load(1, XDATA, add(CFA_XSP16, literal(-19)))
          CFI (cfiCond149) VB load(1, XDATA, add(CFA_XSP16, literal(-18)))
          CFI (cfiCond149) V0 load(1, XDATA, add(CFA_XSP16, literal(-17)))
          CFI (cfiCond149) V1 load(1, XDATA, add(CFA_XSP16, literal(-16)))
          CFI (cfiCond149) V2 load(1, XDATA, add(CFA_XSP16, literal(-15)))
          CFI (cfiCond149) V3 load(1, XDATA, add(CFA_XSP16, literal(-14)))
          CFI (cfiCond149) V4 load(1, XDATA, add(CFA_XSP16, literal(-13)))
          CFI (cfiCond149) V5 load(1, XDATA, add(CFA_XSP16, literal(-12)))
          CFI (cfiCond149) V6 load(1, XDATA, add(CFA_XSP16, literal(-11)))
          CFI (cfiCond149) V7 load(1, XDATA, add(CFA_XSP16, literal(-10)))
          CFI (cfiCond149) V8 load(1, XDATA, add(CFA_XSP16, literal(-9)))
          CFI (cfiCond149) V9 load(1, XDATA, add(CFA_XSP16, literal(-8)))
          CFI (cfiCond149) V10 load(1, XDATA, add(CFA_XSP16, literal(-7)))
          CFI (cfiCond149) R7 load(1, XDATA, add(CFA_XSP16, literal(-6)))
          CFI (cfiCond149) ?RET_LOW load(1, XDATA, add(CFA_XSP16, literal(-5)))
          CFI (cfiCond149) ?RET_HIGH load(1, XDATA, add(CFA_XSP16, literal(-4)))
          CFI (cfiCond149) ?BRET_EXT load(1, XDATA, add(CFA_XSP16, literal(-3)))
          CFI (cfiCond149) DPL0 load(1, XDATA, add(CFA_XSP16, literal(-2)))
          CFI (cfiCond149) DPH0 load(1, XDATA, add(CFA_XSP16, literal(-1)))
          CFI (cfiCond149) CFA_SP SP+-2
          CFI (cfiCond149) CFA_XSP16 add(XSP16, 28)
          CFI Block cfiCond150 Using cfiCommon0
          CFI (cfiCond150) Function bdb_TCAddJoiningDevice
          CFI (cfiCond150) Conditional ??CrossCallReturnLabel_57
          CFI (cfiCond150) R6 load(1, XDATA, add(CFA_XSP16, literal(-19)))
          CFI (cfiCond150) VB load(1, XDATA, add(CFA_XSP16, literal(-18)))
          CFI (cfiCond150) V0 load(1, XDATA, add(CFA_XSP16, literal(-17)))
          CFI (cfiCond150) V1 load(1, XDATA, add(CFA_XSP16, literal(-16)))
          CFI (cfiCond150) V2 load(1, XDATA, add(CFA_XSP16, literal(-15)))
          CFI (cfiCond150) V3 load(1, XDATA, add(CFA_XSP16, literal(-14)))
          CFI (cfiCond150) V4 load(1, XDATA, add(CFA_XSP16, literal(-13)))
          CFI (cfiCond150) V5 load(1, XDATA, add(CFA_XSP16, literal(-12)))
          CFI (cfiCond150) V6 load(1, XDATA, add(CFA_XSP16, literal(-11)))
          CFI (cfiCond150) V7 load(1, XDATA, add(CFA_XSP16, literal(-10)))
          CFI (cfiCond150) V8 load(1, XDATA, add(CFA_XSP16, literal(-9)))
          CFI (cfiCond150) V9 load(1, XDATA, add(CFA_XSP16, literal(-8)))
          CFI (cfiCond150) V10 load(1, XDATA, add(CFA_XSP16, literal(-7)))
          CFI (cfiCond150) R7 load(1, XDATA, add(CFA_XSP16, literal(-6)))
          CFI (cfiCond150) ?RET_LOW load(1, XDATA, add(CFA_XSP16, literal(-5)))
          CFI (cfiCond150) ?RET_HIGH load(1, XDATA, add(CFA_XSP16, literal(-4)))
          CFI (cfiCond150) ?BRET_EXT load(1, XDATA, add(CFA_XSP16, literal(-3)))
          CFI (cfiCond150) DPL0 load(1, XDATA, add(CFA_XSP16, literal(-2)))
          CFI (cfiCond150) DPH0 load(1, XDATA, add(CFA_XSP16, literal(-1)))
          CFI (cfiCond150) CFA_SP SP+-2
          CFI (cfiCond150) CFA_XSP16 add(XSP16, 28)
          CFI Block cfiCond151 Using cfiCommon0
          CFI (cfiCond151) Function bdb_TCProcessJoiningList
          CFI (cfiCond151) Conditional ??CrossCallReturnLabel_58
          CFI (cfiCond151) R6 load(1, XDATA, add(CFA_XSP16, literal(-15)))
          CFI (cfiCond151) VB load(1, XDATA, add(CFA_XSP16, literal(-14)))
          CFI (cfiCond151) V0 load(1, XDATA, add(CFA_XSP16, literal(-13)))
          CFI (cfiCond151) V1 load(1, XDATA, add(CFA_XSP16, literal(-12)))
          CFI (cfiCond151) V2 load(1, XDATA, add(CFA_XSP16, literal(-11)))
          CFI (cfiCond151) V3 load(1, XDATA, add(CFA_XSP16, literal(-10)))
          CFI (cfiCond151) V4 load(1, XDATA, add(CFA_XSP16, literal(-9)))
          CFI (cfiCond151) V5 load(1, XDATA, add(CFA_XSP16, literal(-8)))
          CFI (cfiCond151) V6 load(1, XDATA, add(CFA_XSP16, literal(-7)))
          CFI (cfiCond151) R7 load(1, XDATA, add(CFA_XSP16, literal(-6)))
          CFI (cfiCond151) ?RET_LOW load(1, XDATA, add(CFA_XSP16, literal(-5)))
          CFI (cfiCond151) ?RET_HIGH load(1, XDATA, add(CFA_XSP16, literal(-4)))
          CFI (cfiCond151) ?BRET_EXT load(1, XDATA, add(CFA_XSP16, literal(-3)))
          CFI (cfiCond151) DPL0 load(1, XDATA, add(CFA_XSP16, literal(-2)))
          CFI (cfiCond151) DPH0 load(1, XDATA, add(CFA_XSP16, literal(-1)))
          CFI (cfiCond151) CFA_SP SP+-2
          CFI (cfiCond151) CFA_XSP16 add(XSP16, 57)
          CFI Block cfiCond152 Using cfiCommon0
          CFI (cfiCond152) Function bdb_TCProcessJoiningList
          CFI (cfiCond152) Conditional ??CrossCallReturnLabel_59
          CFI (cfiCond152) R6 load(1, XDATA, add(CFA_XSP16, literal(-15)))
          CFI (cfiCond152) VB load(1, XDATA, add(CFA_XSP16, literal(-14)))
          CFI (cfiCond152) V0 load(1, XDATA, add(CFA_XSP16, literal(-13)))
          CFI (cfiCond152) V1 load(1, XDATA, add(CFA_XSP16, literal(-12)))
          CFI (cfiCond152) V2 load(1, XDATA, add(CFA_XSP16, literal(-11)))
          CFI (cfiCond152) V3 load(1, XDATA, add(CFA_XSP16, literal(-10)))
          CFI (cfiCond152) V4 load(1, XDATA, add(CFA_XSP16, literal(-9)))
          CFI (cfiCond152) V5 load(1, XDATA, add(CFA_XSP16, literal(-8)))
          CFI (cfiCond152) V6 load(1, XDATA, add(CFA_XSP16, literal(-7)))
          CFI (cfiCond152) R7 load(1, XDATA, add(CFA_XSP16, literal(-6)))
          CFI (cfiCond152) ?RET_LOW load(1, XDATA, add(CFA_XSP16, literal(-5)))
          CFI (cfiCond152) ?RET_HIGH load(1, XDATA, add(CFA_XSP16, literal(-4)))
          CFI (cfiCond152) ?BRET_EXT load(1, XDATA, add(CFA_XSP16, literal(-3)))
          CFI (cfiCond152) DPL0 load(1, XDATA, add(CFA_XSP16, literal(-2)))
          CFI (cfiCond152) DPH0 load(1, XDATA, add(CFA_XSP16, literal(-1)))
          CFI (cfiCond152) CFA_SP SP+-2
          CFI (cfiCond152) CFA_XSP16 add(XSP16, 57)
          CFI Block cfiCond153 Using cfiCommon0
          CFI (cfiCond153) Function bdb_TCProcessJoiningList
          CFI (cfiCond153) Conditional ??CrossCallReturnLabel_60
          CFI (cfiCond153) R6 load(1, XDATA, add(CFA_XSP16, literal(-15)))
          CFI (cfiCond153) VB load(1, XDATA, add(CFA_XSP16, literal(-14)))
          CFI (cfiCond153) V0 load(1, XDATA, add(CFA_XSP16, literal(-13)))
          CFI (cfiCond153) V1 load(1, XDATA, add(CFA_XSP16, literal(-12)))
          CFI (cfiCond153) V2 load(1, XDATA, add(CFA_XSP16, literal(-11)))
          CFI (cfiCond153) V3 load(1, XDATA, add(CFA_XSP16, literal(-10)))
          CFI (cfiCond153) V4 load(1, XDATA, add(CFA_XSP16, literal(-9)))
          CFI (cfiCond153) V5 load(1, XDATA, add(CFA_XSP16, literal(-8)))
          CFI (cfiCond153) V6 load(1, XDATA, add(CFA_XSP16, literal(-7)))
          CFI (cfiCond153) R7 load(1, XDATA, add(CFA_XSP16, literal(-6)))
          CFI (cfiCond153) ?RET_LOW load(1, XDATA, add(CFA_XSP16, literal(-5)))
          CFI (cfiCond153) ?RET_HIGH load(1, XDATA, add(CFA_XSP16, literal(-4)))
          CFI (cfiCond153) ?BRET_EXT load(1, XDATA, add(CFA_XSP16, literal(-3)))
          CFI (cfiCond153) DPL0 load(1, XDATA, add(CFA_XSP16, literal(-2)))
          CFI (cfiCond153) DPH0 load(1, XDATA, add(CFA_XSP16, literal(-1)))
          CFI (cfiCond153) CFA_SP SP+-2
          CFI (cfiCond153) CFA_XSP16 add(XSP16, 57)
          CFI Block cfiCond154 Using cfiCommon0
          CFI (cfiCond154) Function bdb_TCjoiningDeviceComplete
          CFI (cfiCond154) Conditional ??CrossCallReturnLabel_61
          CFI (cfiCond154) R6 load(1, XDATA, add(CFA_XSP16, literal(-19)))
          CFI (cfiCond154) VB load(1, XDATA, add(CFA_XSP16, literal(-18)))
          CFI (cfiCond154) V0 load(1, XDATA, add(CFA_XSP16, literal(-17)))
          CFI (cfiCond154) V1 load(1, XDATA, add(CFA_XSP16, literal(-16)))
          CFI (cfiCond154) V2 load(1, XDATA, add(CFA_XSP16, literal(-15)))
          CFI (cfiCond154) V3 load(1, XDATA, add(CFA_XSP16, literal(-14)))
          CFI (cfiCond154) V4 load(1, XDATA, add(CFA_XSP16, literal(-13)))
          CFI (cfiCond154) V5 load(1, XDATA, add(CFA_XSP16, literal(-12)))
          CFI (cfiCond154) V6 load(1, XDATA, add(CFA_XSP16, literal(-11)))
          CFI (cfiCond154) V7 load(1, XDATA, add(CFA_XSP16, literal(-10)))
          CFI (cfiCond154) V8 load(1, XDATA, add(CFA_XSP16, literal(-9)))
          CFI (cfiCond154) V9 load(1, XDATA, add(CFA_XSP16, literal(-8)))
          CFI (cfiCond154) V10 load(1, XDATA, add(CFA_XSP16, literal(-7)))
          CFI (cfiCond154) R7 load(1, XDATA, add(CFA_XSP16, literal(-6)))
          CFI (cfiCond154) ?RET_LOW load(1, XDATA, add(CFA_XSP16, literal(-5)))
          CFI (cfiCond154) ?RET_HIGH load(1, XDATA, add(CFA_XSP16, literal(-4)))
          CFI (cfiCond154) ?BRET_EXT load(1, XDATA, add(CFA_XSP16, literal(-3)))
          CFI (cfiCond154) DPL0 load(1, XDATA, add(CFA_XSP16, literal(-2)))
          CFI (cfiCond154) DPH0 load(1, XDATA, add(CFA_XSP16, literal(-1)))
          CFI (cfiCond154) CFA_SP SP+-2
          CFI (cfiCond154) CFA_XSP16 add(XSP16, 28)
          CFI Block cfiCond155 Using cfiCommon0
          CFI (cfiCond155) Function bdb_TCjoiningDeviceComplete
          CFI (cfiCond155) Conditional ??CrossCallReturnLabel_62
          CFI (cfiCond155) R6 load(1, XDATA, add(CFA_XSP16, literal(-19)))
          CFI (cfiCond155) VB load(1, XDATA, add(CFA_XSP16, literal(-18)))
          CFI (cfiCond155) V0 load(1, XDATA, add(CFA_XSP16, literal(-17)))
          CFI (cfiCond155) V1 load(1, XDATA, add(CFA_XSP16, literal(-16)))
          CFI (cfiCond155) V2 load(1, XDATA, add(CFA_XSP16, literal(-15)))
          CFI (cfiCond155) V3 load(1, XDATA, add(CFA_XSP16, literal(-14)))
          CFI (cfiCond155) V4 load(1, XDATA, add(CFA_XSP16, literal(-13)))
          CFI (cfiCond155) V5 load(1, XDATA, add(CFA_XSP16, literal(-12)))
          CFI (cfiCond155) V6 load(1, XDATA, add(CFA_XSP16, literal(-11)))
          CFI (cfiCond155) V7 load(1, XDATA, add(CFA_XSP16, literal(-10)))
          CFI (cfiCond155) V8 load(1, XDATA, add(CFA_XSP16, literal(-9)))
          CFI (cfiCond155) V9 load(1, XDATA, add(CFA_XSP16, literal(-8)))
          CFI (cfiCond155) V10 load(1, XDATA, add(CFA_XSP16, literal(-7)))
          CFI (cfiCond155) R7 load(1, XDATA, add(CFA_XSP16, literal(-6)))
          CFI (cfiCond155) ?RET_LOW load(1, XDATA, add(CFA_XSP16, literal(-5)))
          CFI (cfiCond155) ?RET_HIGH load(1, XDATA, add(CFA_XSP16, literal(-4)))
          CFI (cfiCond155) ?BRET_EXT load(1, XDATA, add(CFA_XSP16, literal(-3)))
          CFI (cfiCond155) DPL0 load(1, XDATA, add(CFA_XSP16, literal(-2)))
          CFI (cfiCond155) DPH0 load(1, XDATA, add(CFA_XSP16, literal(-1)))
          CFI (cfiCond155) CFA_SP SP+-2
          CFI (cfiCond155) CFA_XSP16 add(XSP16, 28)
          CFI Block cfiCond156 Using cfiCommon0
          CFI (cfiCond156) Function bdb_TCjoiningDeviceComplete
          CFI (cfiCond156) Conditional ??CrossCallReturnLabel_63
          CFI (cfiCond156) R6 load(1, XDATA, add(CFA_XSP16, literal(-19)))
          CFI (cfiCond156) VB load(1, XDATA, add(CFA_XSP16, literal(-18)))
          CFI (cfiCond156) V0 load(1, XDATA, add(CFA_XSP16, literal(-17)))
          CFI (cfiCond156) V1 load(1, XDATA, add(CFA_XSP16, literal(-16)))
          CFI (cfiCond156) V2 load(1, XDATA, add(CFA_XSP16, literal(-15)))
          CFI (cfiCond156) V3 load(1, XDATA, add(CFA_XSP16, literal(-14)))
          CFI (cfiCond156) V4 load(1, XDATA, add(CFA_XSP16, literal(-13)))
          CFI (cfiCond156) V5 load(1, XDATA, add(CFA_XSP16, literal(-12)))
          CFI (cfiCond156) V6 load(1, XDATA, add(CFA_XSP16, literal(-11)))
          CFI (cfiCond156) V7 load(1, XDATA, add(CFA_XSP16, literal(-10)))
          CFI (cfiCond156) V8 load(1, XDATA, add(CFA_XSP16, literal(-9)))
          CFI (cfiCond156) V9 load(1, XDATA, add(CFA_XSP16, literal(-8)))
          CFI (cfiCond156) V10 load(1, XDATA, add(CFA_XSP16, literal(-7)))
          CFI (cfiCond156) R7 load(1, XDATA, add(CFA_XSP16, literal(-6)))
          CFI (cfiCond156) ?RET_LOW load(1, XDATA, add(CFA_XSP16, literal(-5)))
          CFI (cfiCond156) ?RET_HIGH load(1, XDATA, add(CFA_XSP16, literal(-4)))
          CFI (cfiCond156) ?BRET_EXT load(1, XDATA, add(CFA_XSP16, literal(-3)))
          CFI (cfiCond156) DPL0 load(1, XDATA, add(CFA_XSP16, literal(-2)))
          CFI (cfiCond156) DPH0 load(1, XDATA, add(CFA_XSP16, literal(-1)))
          CFI (cfiCond156) CFA_SP SP+-2
          CFI (cfiCond156) CFA_XSP16 add(XSP16, 28)
          CFI Block cfiCond157 Using cfiCommon0
          CFI (cfiCond157) Function bdb_reportCommissioningState
          CFI (cfiCond157) Conditional ??CrossCallReturnLabel_64
          CFI (cfiCond157) R6 load(1, XDATA, add(CFA_XSP16, literal(-10)))
          CFI (cfiCond157) VB load(1, XDATA, add(CFA_XSP16, literal(-9)))
          CFI (cfiCond157) V0 load(1, XDATA, add(CFA_XSP16, literal(-8)))
          CFI (cfiCond157) V1 load(1, XDATA, add(CFA_XSP16, literal(-7)))
          CFI (cfiCond157) R7 load(1, XDATA, add(CFA_XSP16, literal(-6)))
          CFI (cfiCond157) ?RET_LOW load(1, XDATA, add(CFA_XSP16, literal(-5)))
          CFI (cfiCond157) ?RET_HIGH load(1, XDATA, add(CFA_XSP16, literal(-4)))
          CFI (cfiCond157) ?BRET_EXT load(1, XDATA, add(CFA_XSP16, literal(-3)))
          CFI (cfiCond157) DPL0 load(1, XDATA, add(CFA_XSP16, literal(-2)))
          CFI (cfiCond157) DPH0 load(1, XDATA, add(CFA_XSP16, literal(-1)))
          CFI (cfiCond157) CFA_SP SP+-2
          CFI (cfiCond157) CFA_XSP16 add(XSP16, 14)
          CFI Block cfiCond158 Using cfiCommon0
          CFI (cfiCond158) Function bdb_startResumeCommissioningProcess
          CFI (cfiCond158) Conditional ??CrossCallReturnLabel_65
          CFI (cfiCond158) R6 load(1, XDATA, add(CFA_XSP16, literal(-10)))
          CFI (cfiCond158) VB load(1, XDATA, add(CFA_XSP16, literal(-9)))
          CFI (cfiCond158) V0 load(1, XDATA, add(CFA_XSP16, literal(-8)))
          CFI (cfiCond158) V1 load(1, XDATA, add(CFA_XSP16, literal(-7)))
          CFI (cfiCond158) R7 load(1, XDATA, add(CFA_XSP16, literal(-6)))
          CFI (cfiCond158) ?RET_LOW load(1, XDATA, add(CFA_XSP16, literal(-5)))
          CFI (cfiCond158) ?RET_HIGH load(1, XDATA, add(CFA_XSP16, literal(-4)))
          CFI (cfiCond158) ?BRET_EXT load(1, XDATA, add(CFA_XSP16, literal(-3)))
          CFI (cfiCond158) DPL0 load(1, XDATA, add(CFA_XSP16, literal(-2)))
          CFI (cfiCond158) DPH0 load(1, XDATA, add(CFA_XSP16, literal(-1)))
          CFI (cfiCond158) CFA_SP SP+-2
          CFI (cfiCond158) CFA_XSP16 add(XSP16, 21)
          CFI Block cfiCond159 Using cfiCommon0
          CFI (cfiCond159) Function bdb_event_loop
          CFI (cfiCond159) Conditional ??CrossCallReturnLabel_66
          CFI (cfiCond159) R6 load(1, XDATA, add(CFA_XSP16, literal(-16)))
          CFI (cfiCond159) VB load(1, XDATA, add(CFA_XSP16, literal(-15)))
          CFI (cfiCond159) V0 load(1, XDATA, add(CFA_XSP16, literal(-14)))
          CFI (cfiCond159) V1 load(1, XDATA, add(CFA_XSP16, literal(-13)))
          CFI (cfiCond159) V2 load(1, XDATA, add(CFA_XSP16, literal(-12)))
          CFI (cfiCond159) V3 load(1, XDATA, add(CFA_XSP16, literal(-11)))
          CFI (cfiCond159) V4 load(1, XDATA, add(CFA_XSP16, literal(-10)))
          CFI (cfiCond159) V5 load(1, XDATA, add(CFA_XSP16, literal(-9)))
          CFI (cfiCond159) V6 load(1, XDATA, add(CFA_XSP16, literal(-8)))
          CFI (cfiCond159) V7 load(1, XDATA, add(CFA_XSP16, literal(-7)))
          CFI (cfiCond159) R7 load(1, XDATA, add(CFA_XSP16, literal(-6)))
          CFI (cfiCond159) ?RET_LOW load(1, XDATA, add(CFA_XSP16, literal(-5)))
          CFI (cfiCond159) ?RET_HIGH load(1, XDATA, add(CFA_XSP16, literal(-4)))
          CFI (cfiCond159) ?BRET_EXT load(1, XDATA, add(CFA_XSP16, literal(-3)))
          CFI (cfiCond159) DPL0 load(1, XDATA, add(CFA_XSP16, literal(-2)))
          CFI (cfiCond159) DPH0 load(1, XDATA, add(CFA_XSP16, literal(-1)))
          CFI (cfiCond159) CFA_SP SP+-2
          CFI (cfiCond159) CFA_XSP16 add(XSP16, 24)
          CFI Block cfiCond160 Using cfiCommon0
          CFI (cfiCond160) Function bdb_event_loop
          CFI (cfiCond160) Conditional ??CrossCallReturnLabel_67
          CFI (cfiCond160) R6 load(1, XDATA, add(CFA_XSP16, literal(-16)))
          CFI (cfiCond160) VB load(1, XDATA, add(CFA_XSP16, literal(-15)))
          CFI (cfiCond160) V0 load(1, XDATA, add(CFA_XSP16, literal(-14)))
          CFI (cfiCond160) V1 load(1, XDATA, add(CFA_XSP16, literal(-13)))
          CFI (cfiCond160) V2 load(1, XDATA, add(CFA_XSP16, literal(-12)))
          CFI (cfiCond160) V3 load(1, XDATA, add(CFA_XSP16, literal(-11)))
          CFI (cfiCond160) V4 load(1, XDATA, add(CFA_XSP16, literal(-10)))
          CFI (cfiCond160) V5 load(1, XDATA, add(CFA_XSP16, literal(-9)))
          CFI (cfiCond160) V6 load(1, XDATA, add(CFA_XSP16, literal(-8)))
          CFI (cfiCond160) V7 load(1, XDATA, add(CFA_XSP16, literal(-7)))
          CFI (cfiCond160) R7 load(1, XDATA, add(CFA_XSP16, literal(-6)))
          CFI (cfiCond160) ?RET_LOW load(1, XDATA, add(CFA_XSP16, literal(-5)))
          CFI (cfiCond160) ?RET_HIGH load(1, XDATA, add(CFA_XSP16, literal(-4)))
          CFI (cfiCond160) ?BRET_EXT load(1, XDATA, add(CFA_XSP16, literal(-3)))
          CFI (cfiCond160) DPL0 load(1, XDATA, add(CFA_XSP16, literal(-2)))
          CFI (cfiCond160) DPH0 load(1, XDATA, add(CFA_XSP16, literal(-1)))
          CFI (cfiCond160) CFA_SP SP+-2
          CFI (cfiCond160) CFA_XSP16 add(XSP16, 24)
          CFI Block cfiCond161 Using cfiCommon0
          CFI (cfiCond161) Function bdb_ProcessNodeDescRsp
          CFI (cfiCond161) Conditional ??CrossCallReturnLabel_68
          CFI (cfiCond161) R6 load(1, XDATA, add(CFA_XSP16, literal(-10)))
          CFI (cfiCond161) VB load(1, XDATA, add(CFA_XSP16, literal(-9)))
          CFI (cfiCond161) V0 load(1, XDATA, add(CFA_XSP16, literal(-8)))
          CFI (cfiCond161) V1 load(1, XDATA, add(CFA_XSP16, literal(-7)))
          CFI (cfiCond161) R7 load(1, XDATA, add(CFA_XSP16, literal(-6)))
          CFI (cfiCond161) ?RET_LOW load(1, XDATA, add(CFA_XSP16, literal(-5)))
          CFI (cfiCond161) ?RET_HIGH load(1, XDATA, add(CFA_XSP16, literal(-4)))
          CFI (cfiCond161) ?BRET_EXT load(1, XDATA, add(CFA_XSP16, literal(-3)))
          CFI (cfiCond161) DPL0 load(1, XDATA, add(CFA_XSP16, literal(-2)))
          CFI (cfiCond161) DPH0 load(1, XDATA, add(CFA_XSP16, literal(-1)))
          CFI (cfiCond161) CFA_SP SP+-2
          CFI (cfiCond161) CFA_XSP16 add(XSP16, 45)
          CFI Block cfiCond162 Using cfiCommon0
          CFI (cfiCond162) Function bdb_TCAddJoiningDevice
          CFI (cfiCond162) Conditional ??CrossCallReturnLabel_69
          CFI (cfiCond162) R6 load(1, XDATA, add(CFA_XSP16, literal(-19)))
          CFI (cfiCond162) VB load(1, XDATA, add(CFA_XSP16, literal(-18)))
          CFI (cfiCond162) V0 load(1, XDATA, add(CFA_XSP16, literal(-17)))
          CFI (cfiCond162) V1 load(1, XDATA, add(CFA_XSP16, literal(-16)))
          CFI (cfiCond162) V2 load(1, XDATA, add(CFA_XSP16, literal(-15)))
          CFI (cfiCond162) V3 load(1, XDATA, add(CFA_XSP16, literal(-14)))
          CFI (cfiCond162) V4 load(1, XDATA, add(CFA_XSP16, literal(-13)))
          CFI (cfiCond162) V5 load(1, XDATA, add(CFA_XSP16, literal(-12)))
          CFI (cfiCond162) V6 load(1, XDATA, add(CFA_XSP16, literal(-11)))
          CFI (cfiCond162) V7 load(1, XDATA, add(CFA_XSP16, literal(-10)))
          CFI (cfiCond162) V8 load(1, XDATA, add(CFA_XSP16, literal(-9)))
          CFI (cfiCond162) V9 load(1, XDATA, add(CFA_XSP16, literal(-8)))
          CFI (cfiCond162) V10 load(1, XDATA, add(CFA_XSP16, literal(-7)))
          CFI (cfiCond162) R7 load(1, XDATA, add(CFA_XSP16, literal(-6)))
          CFI (cfiCond162) ?RET_LOW load(1, XDATA, add(CFA_XSP16, literal(-5)))
          CFI (cfiCond162) ?RET_HIGH load(1, XDATA, add(CFA_XSP16, literal(-4)))
          CFI (cfiCond162) ?BRET_EXT load(1, XDATA, add(CFA_XSP16, literal(-3)))
          CFI (cfiCond162) DPL0 load(1, XDATA, add(CFA_XSP16, literal(-2)))
          CFI (cfiCond162) DPH0 load(1, XDATA, add(CFA_XSP16, literal(-1)))
          CFI (cfiCond162) CFA_SP SP+-2
          CFI (cfiCond162) CFA_XSP16 add(XSP16, 28)
          CFI Block cfiCond163 Using cfiCommon0
          CFI (cfiCond163) Function bdb_AddRespondentNode
          CFI (cfiCond163) Conditional ??CrossCallReturnLabel_53
          CFI (cfiCond163) R6 load(1, XDATA, add(CFA_XSP16, literal(-10)))
          CFI (cfiCond163) VB load(1, XDATA, add(CFA_XSP16, literal(-9)))
          CFI (cfiCond163) V0 load(1, XDATA, add(CFA_XSP16, literal(-8)))
          CFI (cfiCond163) V1 load(1, XDATA, add(CFA_XSP16, literal(-7)))
          CFI (cfiCond163) R7 load(1, XDATA, add(CFA_XSP16, literal(-6)))
          CFI (cfiCond163) ?RET_LOW load(1, XDATA, add(CFA_XSP16, literal(-5)))
          CFI (cfiCond163) ?RET_HIGH load(1, XDATA, add(CFA_XSP16, literal(-4)))
          CFI (cfiCond163) ?BRET_EXT load(1, XDATA, add(CFA_XSP16, literal(-3)))
          CFI (cfiCond163) DPL0 load(1, XDATA, add(CFA_XSP16, literal(-2)))
          CFI (cfiCond163) DPH0 load(1, XDATA, add(CFA_XSP16, literal(-1)))
          CFI (cfiCond163) CFA_SP SP+-2
          CFI (cfiCond163) CFA_XSP16 add(XSP16, 10)
          CFI Block cfiCond164 Using cfiCommon0
          CFI (cfiCond164) Function bdb_CreateRespondentList
          CFI (cfiCond164) Conditional ??CrossCallReturnLabel_50
          CFI (cfiCond164) R6 load(1, XDATA, add(CFA_XSP16, literal(-10)))
          CFI (cfiCond164) VB load(1, XDATA, add(CFA_XSP16, literal(-9)))
          CFI (cfiCond164) V0 load(1, XDATA, add(CFA_XSP16, literal(-8)))
          CFI (cfiCond164) V1 load(1, XDATA, add(CFA_XSP16, literal(-7)))
          CFI (cfiCond164) R7 load(1, XDATA, add(CFA_XSP16, literal(-6)))
          CFI (cfiCond164) ?RET_LOW load(1, XDATA, add(CFA_XSP16, literal(-5)))
          CFI (cfiCond164) ?RET_HIGH load(1, XDATA, add(CFA_XSP16, literal(-4)))
          CFI (cfiCond164) ?BRET_EXT load(1, XDATA, add(CFA_XSP16, literal(-3)))
          CFI (cfiCond164) DPL0 load(1, XDATA, add(CFA_XSP16, literal(-2)))
          CFI (cfiCond164) DPH0 load(1, XDATA, add(CFA_XSP16, literal(-1)))
          CFI (cfiCond164) CFA_SP SP+-2
          CFI (cfiCond164) CFA_XSP16 add(XSP16, 10)
          CFI Block cfiCond165 Using cfiCommon0
          CFI (cfiCond165) Function bdb_AddRespondentNode
          CFI (cfiCond165) Conditional ??CrossCallReturnLabel_51
          CFI (cfiCond165) R6 load(1, XDATA, add(CFA_XSP16, literal(-10)))
          CFI (cfiCond165) VB load(1, XDATA, add(CFA_XSP16, literal(-9)))
          CFI (cfiCond165) V0 load(1, XDATA, add(CFA_XSP16, literal(-8)))
          CFI (cfiCond165) V1 load(1, XDATA, add(CFA_XSP16, literal(-7)))
          CFI (cfiCond165) R7 load(1, XDATA, add(CFA_XSP16, literal(-6)))
          CFI (cfiCond165) ?RET_LOW load(1, XDATA, add(CFA_XSP16, literal(-5)))
          CFI (cfiCond165) ?RET_HIGH load(1, XDATA, add(CFA_XSP16, literal(-4)))
          CFI (cfiCond165) ?BRET_EXT load(1, XDATA, add(CFA_XSP16, literal(-3)))
          CFI (cfiCond165) DPL0 load(1, XDATA, add(CFA_XSP16, literal(-2)))
          CFI (cfiCond165) DPH0 load(1, XDATA, add(CFA_XSP16, literal(-1)))
          CFI (cfiCond165) CFA_SP SP+-2
          CFI (cfiCond165) CFA_XSP16 add(XSP16, 10)
          CFI Block cfiCond166 Using cfiCommon0
          CFI (cfiCond166) Function bdb_zclRespondentListClean
          CFI (cfiCond166) Conditional ??CrossCallReturnLabel_52
          CFI (cfiCond166) R6 load(1, XDATA, add(CFA_XSP16, literal(-12)))
          CFI (cfiCond166) VB load(1, XDATA, add(CFA_XSP16, literal(-11)))
          CFI (cfiCond166) V0 load(1, XDATA, add(CFA_XSP16, literal(-10)))
          CFI (cfiCond166) V1 load(1, XDATA, add(CFA_XSP16, literal(-9)))
          CFI (cfiCond166) V2 load(1, XDATA, add(CFA_XSP16, literal(-8)))
          CFI (cfiCond166) V3 load(1, XDATA, add(CFA_XSP16, literal(-7)))
          CFI (cfiCond166) R7 load(1, XDATA, add(CFA_XSP16, literal(-6)))
          CFI (cfiCond166) ?RET_LOW load(1, XDATA, add(CFA_XSP16, literal(-5)))
          CFI (cfiCond166) ?RET_HIGH load(1, XDATA, add(CFA_XSP16, literal(-4)))
          CFI (cfiCond166) ?BRET_EXT load(1, XDATA, add(CFA_XSP16, literal(-3)))
          CFI (cfiCond166) DPL0 load(1, XDATA, add(CFA_XSP16, literal(-2)))
          CFI (cfiCond166) DPH0 load(1, XDATA, add(CFA_XSP16, literal(-1)))
          CFI (cfiCond166) CFA_SP SP+-2
          CFI (cfiCond166) CFA_XSP16 add(XSP16, 12)
          CFI Block cfiPicker167 Using cfiCommon1
          CFI (cfiPicker167) NoFunction
          CFI (cfiPicker167) Picker
        LCALL     ?Subroutine28 & 0xFFFF
??CrossCallReturnLabel_74:
        MOV       A,R0
        ORL       A,R1
        RET
          CFI EndBlock cfiCond147
          CFI EndBlock cfiCond148
          CFI EndBlock cfiCond149
          CFI EndBlock cfiCond150
          CFI EndBlock cfiCond151
          CFI EndBlock cfiCond152
          CFI EndBlock cfiCond153
          CFI EndBlock cfiCond154
          CFI EndBlock cfiCond155
          CFI EndBlock cfiCond156
          CFI EndBlock cfiCond157
          CFI EndBlock cfiCond158
          CFI EndBlock cfiCond159
          CFI EndBlock cfiCond160
          CFI EndBlock cfiCond161
          CFI EndBlock cfiCond162
          CFI EndBlock cfiCond163
          CFI EndBlock cfiCond164
          CFI EndBlock cfiCond165
          CFI EndBlock cfiCond166
          CFI EndBlock cfiPicker167
// 2515 
// 2516 /*********************************************************************
// 2517  * @fn          bdb_event_loop
// 2518  *
// 2519  * @brief       Main event loop bdb tasks.
// 2520  *
// 2521  * @param       task_id - task id
// 2522  * @param       events - event bitmap
// 2523  *
// 2524  * @return      unprocessed events
// 2525  */

        RSEG BANKED_CODE:HUGECODE:NOROOT(0)
// 2526 UINT16 bdb_event_loop(byte task_id, UINT16 events)
bdb_event_loop:
          CFI Block cfiBlock168 Using cfiCommon0
          CFI Function bdb_event_loop
        CODE
// 2527 {
        FUNCALL bdb_event_loop, bdb_startResumeCommissioningProcess
        LOCFRAME ISTACK, 0, STACK
        LOCFRAME PSTACK, 0, STACK
        LOCFRAME XSTACK, 24, STACK
        LOCFRAME IOVERLAY, 0, STATIC
        LOCFRAME DOVERLAY, 0, STATIC
        ARGFRAME ISTACK, 0, STACK
        ARGFRAME PSTACK, 0, STACK
        ARGFRAME XSTACK, 24, STACK
        ARGFRAME IOVERLAY, 0, STATIC
        ARGFRAME DOVERLAY, 0, STATIC
        FUNCALL bdb_event_loop, bdb_nwkSteeringDeviceOnNwk
        LOCFRAME ISTACK, 0, STACK
        LOCFRAME PSTACK, 0, STACK
        LOCFRAME XSTACK, 24, STACK
        LOCFRAME IOVERLAY, 0, STATIC
        LOCFRAME DOVERLAY, 0, STATIC
        ARGFRAME ISTACK, 0, STACK
        ARGFRAME PSTACK, 0, STACK
        ARGFRAME XSTACK, 24, STACK
        ARGFRAME IOVERLAY, 0, STATIC
        ARGFRAME DOVERLAY, 0, STATIC
        FUNCALL bdb_event_loop, bdb_reportCommissioningState
        LOCFRAME ISTACK, 0, STACK
        LOCFRAME PSTACK, 0, STACK
        LOCFRAME XSTACK, 24, STACK
        LOCFRAME IOVERLAY, 0, STATIC
        LOCFRAME DOVERLAY, 0, STATIC
        ARGFRAME ISTACK, 0, STACK
        ARGFRAME PSTACK, 0, STACK
        ARGFRAME XSTACK, 24, STACK
        ARGFRAME IOVERLAY, 0, STATIC
        ARGFRAME DOVERLAY, 0, STATIC
        FUNCALL bdb_event_loop, osal_start_timerEx
        LOCFRAME ISTACK, 0, STACK
        LOCFRAME PSTACK, 0, STACK
        LOCFRAME XSTACK, 28, STACK
        LOCFRAME IOVERLAY, 0, STATIC
        LOCFRAME DOVERLAY, 0, STATIC
        ARGFRAME ISTACK, 0, STACK
        ARGFRAME PSTACK, 0, STACK
        ARGFRAME XSTACK, 28, STACK
        ARGFRAME IOVERLAY, 0, STATIC
        ARGFRAME DOVERLAY, 0, STATIC
        FUNCALL bdb_event_loop, osal_msg_deallocate
        LOCFRAME ISTACK, 0, STACK
        LOCFRAME PSTACK, 0, STACK
        LOCFRAME XSTACK, 24, STACK
        LOCFRAME IOVERLAY, 0, STATIC
        LOCFRAME DOVERLAY, 0, STATIC
        ARGFRAME ISTACK, 0, STACK
        ARGFRAME PSTACK, 0, STACK
        ARGFRAME XSTACK, 24, STACK
        ARGFRAME IOVERLAY, 0, STATIC
        ARGFRAME DOVERLAY, 0, STATIC
        FUNCALL bdb_event_loop, osal_msg_receive
        LOCFRAME ISTACK, 0, STACK
        LOCFRAME PSTACK, 0, STACK
        LOCFRAME XSTACK, 24, STACK
        LOCFRAME IOVERLAY, 0, STATIC
        LOCFRAME DOVERLAY, 0, STATIC
        ARGFRAME ISTACK, 0, STACK
        ARGFRAME PSTACK, 0, STACK
        ARGFRAME XSTACK, 24, STACK
        ARGFRAME IOVERLAY, 0, STATIC
        ARGFRAME DOVERLAY, 0, STATIC
        FUNCALL bdb_event_loop, bdb_ProcessSimpleDesc
        LOCFRAME ISTACK, 0, STACK
        LOCFRAME PSTACK, 0, STACK
        LOCFRAME XSTACK, 24, STACK
        LOCFRAME IOVERLAY, 0, STATIC
        LOCFRAME DOVERLAY, 0, STATIC
        ARGFRAME ISTACK, 0, STACK
        ARGFRAME PSTACK, 0, STACK
        ARGFRAME XSTACK, 24, STACK
        ARGFRAME IOVERLAY, 0, STATIC
        ARGFRAME DOVERLAY, 0, STATIC
        FUNCALL bdb_event_loop, bdb_ProcessIEEEAddrRsp
        LOCFRAME ISTACK, 0, STACK
        LOCFRAME PSTACK, 0, STACK
        LOCFRAME XSTACK, 24, STACK
        LOCFRAME IOVERLAY, 0, STATIC
        LOCFRAME DOVERLAY, 0, STATIC
        ARGFRAME ISTACK, 0, STACK
        ARGFRAME PSTACK, 0, STACK
        ARGFRAME XSTACK, 24, STACK
        ARGFRAME IOVERLAY, 0, STATIC
        ARGFRAME DOVERLAY, 0, STATIC
        FUNCALL bdb_event_loop, bdb_RepProcessEvent
        LOCFRAME ISTACK, 0, STACK
        LOCFRAME PSTACK, 0, STACK
        LOCFRAME XSTACK, 24, STACK
        LOCFRAME IOVERLAY, 0, STATIC
        LOCFRAME DOVERLAY, 0, STATIC
        ARGFRAME ISTACK, 0, STACK
        ARGFRAME PSTACK, 0, STACK
        ARGFRAME XSTACK, 24, STACK
        ARGFRAME IOVERLAY, 0, STATIC
        ARGFRAME DOVERLAY, 0, STATIC
        FUNCALL bdb_event_loop, bdb_TCProcessJoiningList
        LOCFRAME ISTACK, 0, STACK
        LOCFRAME PSTACK, 0, STACK
        LOCFRAME XSTACK, 24, STACK
        LOCFRAME IOVERLAY, 0, STATIC
        LOCFRAME DOVERLAY, 0, STATIC
        ARGFRAME ISTACK, 0, STACK
        ARGFRAME PSTACK, 0, STACK
        ARGFRAME XSTACK, 24, STACK
        ARGFRAME IOVERLAY, 0, STATIC
        ARGFRAME DOVERLAY, 0, STATIC
        FUNCALL bdb_event_loop, bdb_setEpDescListToActiveEndpoint
        LOCFRAME ISTACK, 0, STACK
        LOCFRAME PSTACK, 0, STACK
        LOCFRAME XSTACK, 24, STACK
        LOCFRAME IOVERLAY, 0, STATIC
        LOCFRAME DOVERLAY, 0, STATIC
        ARGFRAME ISTACK, 0, STACK
        ARGFRAME PSTACK, 0, STACK
        ARGFRAME XSTACK, 24, STACK
        ARGFRAME IOVERLAY, 0, STATIC
        ARGFRAME DOVERLAY, 0, STATIC
        FUNCALL bdb_event_loop, osal_get_timeoutEx
        LOCFRAME ISTACK, 0, STACK
        LOCFRAME PSTACK, 0, STACK
        LOCFRAME XSTACK, 24, STACK
        LOCFRAME IOVERLAY, 0, STATIC
        LOCFRAME DOVERLAY, 0, STATIC
        ARGFRAME ISTACK, 0, STACK
        ARGFRAME PSTACK, 0, STACK
        ARGFRAME XSTACK, 24, STACK
        ARGFRAME IOVERLAY, 0, STATIC
        ARGFRAME DOVERLAY, 0, STATIC
        FUNCALL bdb_event_loop, bdb_getRespondentRetry
        LOCFRAME ISTACK, 0, STACK
        LOCFRAME PSTACK, 0, STACK
        LOCFRAME XSTACK, 24, STACK
        LOCFRAME IOVERLAY, 0, STATIC
        LOCFRAME DOVERLAY, 0, STATIC
        ARGFRAME ISTACK, 0, STACK
        ARGFRAME PSTACK, 0, STACK
        ARGFRAME XSTACK, 24, STACK
        ARGFRAME IOVERLAY, 0, STATIC
        ARGFRAME DOVERLAY, 0, STATIC
        FUNCALL bdb_event_loop, bdb_SendIdentifyQuery
        LOCFRAME ISTACK, 0, STACK
        LOCFRAME PSTACK, 0, STACK
        LOCFRAME XSTACK, 24, STACK
        LOCFRAME IOVERLAY, 0, STATIC
        LOCFRAME DOVERLAY, 0, STATIC
        ARGFRAME ISTACK, 0, STACK
        ARGFRAME PSTACK, 0, STACK
        ARGFRAME XSTACK, 24, STACK
        ARGFRAME IOVERLAY, 0, STATIC
        ARGFRAME DOVERLAY, 0, STATIC
        FUNCALL bdb_event_loop, osal_start_timerEx
        LOCFRAME ISTACK, 0, STACK
        LOCFRAME PSTACK, 0, STACK
        LOCFRAME XSTACK, 28, STACK
        LOCFRAME IOVERLAY, 0, STATIC
        LOCFRAME DOVERLAY, 0, STATIC
        ARGFRAME ISTACK, 0, STACK
        ARGFRAME PSTACK, 0, STACK
        ARGFRAME XSTACK, 28, STACK
        ARGFRAME IOVERLAY, 0, STATIC
        ARGFRAME DOVERLAY, 0, STATIC
        FUNCALL bdb_event_loop, bdb_exitFindingBindingWStatus
        LOCFRAME ISTACK, 0, STACK
        LOCFRAME PSTACK, 0, STACK
        LOCFRAME XSTACK, 24, STACK
        LOCFRAME IOVERLAY, 0, STATIC
        LOCFRAME DOVERLAY, 0, STATIC
        ARGFRAME ISTACK, 0, STACK
        ARGFRAME PSTACK, 0, STACK
        ARGFRAME XSTACK, 24, STACK
        ARGFRAME IOVERLAY, 0, STATIC
        ARGFRAME DOVERLAY, 0, STATIC
        FUNCALL bdb_event_loop, zclFindAttrRec
        LOCFRAME ISTACK, 0, STACK
        LOCFRAME PSTACK, 0, STACK
        LOCFRAME XSTACK, 26, STACK
        LOCFRAME IOVERLAY, 0, STATIC
        LOCFRAME DOVERLAY, 0, STATIC
        ARGFRAME ISTACK, 0, STACK
        ARGFRAME PSTACK, 0, STACK
        ARGFRAME XSTACK, 26, STACK
        ARGFRAME IOVERLAY, 0, STATIC
        ARGFRAME DOVERLAY, 0, STATIC
        FUNCALL bdb_event_loop, osal_start_timerEx
        LOCFRAME ISTACK, 0, STACK
        LOCFRAME PSTACK, 0, STACK
        LOCFRAME XSTACK, 28, STACK
        LOCFRAME IOVERLAY, 0, STATIC
        LOCFRAME DOVERLAY, 0, STATIC
        ARGFRAME ISTACK, 0, STACK
        ARGFRAME PSTACK, 0, STACK
        ARGFRAME XSTACK, 28, STACK
        ARGFRAME IOVERLAY, 0, STATIC
        ARGFRAME DOVERLAY, 0, STATIC
        FUNCALL bdb_event_loop, osal_stop_timerEx
        LOCFRAME ISTACK, 0, STACK
        LOCFRAME PSTACK, 0, STACK
        LOCFRAME XSTACK, 24, STACK
        LOCFRAME IOVERLAY, 0, STATIC
        LOCFRAME DOVERLAY, 0, STATIC
        ARGFRAME ISTACK, 0, STACK
        ARGFRAME PSTACK, 0, STACK
        ARGFRAME XSTACK, 24, STACK
        ARGFRAME IOVERLAY, 0, STATIC
        ARGFRAME DOVERLAY, 0, STATIC
        FUNCALL bdb_event_loop, bdb_ProcessRespondentList
        LOCFRAME ISTACK, 0, STACK
        LOCFRAME PSTACK, 0, STACK
        LOCFRAME XSTACK, 24, STACK
        LOCFRAME IOVERLAY, 0, STATIC
        LOCFRAME DOVERLAY, 0, STATIC
        ARGFRAME ISTACK, 0, STACK
        ARGFRAME PSTACK, 0, STACK
        ARGFRAME XSTACK, 24, STACK
        ARGFRAME IOVERLAY, 0, STATIC
        ARGFRAME DOVERLAY, 0, STATIC
        REQUIRE ?V0
        REQUIRE ?V1
        REQUIRE ?V2
        REQUIRE ?V3
        REQUIRE ?V4
        REQUIRE ?V6
        REQUIRE ?V7
        MOV       A,#-0x10
        LCALL     ?BANKED_ENTER_XDATA
          CFI DPH0 load(1, XDATA, add(CFA_XSP16, literal(-1)))
          CFI DPL0 load(1, XDATA, add(CFA_XSP16, literal(-2)))
          CFI ?BRET_EXT load(1, XDATA, add(CFA_XSP16, literal(-3)))
          CFI ?RET_HIGH load(1, XDATA, add(CFA_XSP16, literal(-4)))
          CFI ?RET_LOW load(1, XDATA, add(CFA_XSP16, literal(-5)))
          CFI R7 load(1, XDATA, add(CFA_XSP16, literal(-6)))
          CFI V7 load(1, XDATA, add(CFA_XSP16, literal(-7)))
          CFI V6 load(1, XDATA, add(CFA_XSP16, literal(-8)))
          CFI V5 load(1, XDATA, add(CFA_XSP16, literal(-9)))
          CFI V4 load(1, XDATA, add(CFA_XSP16, literal(-10)))
          CFI V3 load(1, XDATA, add(CFA_XSP16, literal(-11)))
          CFI V2 load(1, XDATA, add(CFA_XSP16, literal(-12)))
          CFI V1 load(1, XDATA, add(CFA_XSP16, literal(-13)))
          CFI V0 load(1, XDATA, add(CFA_XSP16, literal(-14)))
          CFI VB load(1, XDATA, add(CFA_XSP16, literal(-15)))
          CFI R6 load(1, XDATA, add(CFA_XSP16, literal(-16)))
          CFI CFA_SP SP+0
          CFI CFA_XSP16 add(XSP16, 16)
        ; Saved register size: 16
        ; Auto size: 8
        MOV       A,#-0x8
        LCALL     ?ALLOC_XSTACK8
          CFI CFA_XSP16 add(XSP16, 24)
        MOV       A,R2
        MOV       R6,A
        MOV       A,R3
        MOV       R7,A
// 2528   (void)task_id;  // Intentionally unreferenced parameter
// 2529   
// 2530 #if (BDB_FINDING_BINDING_CAPABILITY_ENABLED==1)  
// 2531   endPointDesc_t * bdb_CurrEpDescriptor;
// 2532 #endif
// 2533   
// 2534   if(events & BDB_CHANGE_COMMISSIONING_STATE)
        MOV       A,R6
        ANL       A,#0x4
        JZ        ??bdb_event_loop_0
// 2535   {
// 2536     switch(bdbCommissioningProcedureState.bdbCommissioningState)
        MOV       DPTR,#bdbCommissioningProcedureState
        MOVX      A,@DPTR
        JZ        ??bdb_event_loop_1
        ADD       A,#-0x4
        JZ        ??bdb_event_loop_2
        ADD       A,#-0x2
        JZ        ??bdb_event_loop_3
        SJMP      ??bdb_event_loop_4
// 2537     {
// 2538       case BDB_COMMISSIONING_STATE_START_RESUME:
// 2539         bdb_startResumeCommissioningProcess();
??bdb_event_loop_1:
        ; Setup parameters for call to function bdb_startResumeCommissioningProcess
        LCALL     `??bdb_startResumeCommissioningProcess::?relay`; Banked call to: bdb_startResumeCommissioningProcess
// 2540       break;
        SJMP      ??bdb_event_loop_4
// 2541       
// 2542       case BDB_COMMISSIONING_STATE_TC_LINK_KEY_EXCHANGE:
// 2543         if (ZG_BUILD_JOINING_TYPE)
// 2544         {
// 2545           bdb_tcLinkKeyExchangeAttempt(TRUE,BDB_REQ_TC_STACK_VERSION);
// 2546         }
// 2547       break;
// 2548       
// 2549       case BDB_COMMISSIONING_STATE_STEERING_ON_NWK:
// 2550         bdb_nwkSteeringDeviceOnNwk();
??bdb_event_loop_2:
        ; Setup parameters for call to function bdb_nwkSteeringDeviceOnNwk
        LCALL     `??bdb_nwkSteeringDeviceOnNwk::?relay`; Banked call to: bdb_nwkSteeringDeviceOnNwk
// 2551         
// 2552         bdb_reportCommissioningState(BDB_COMMISSIONING_STATE_STEERING_ON_NWK, TRUE);
        ; Setup parameters for call to function bdb_reportCommissioningState
        MOV       R2,#0x1
        MOV       R1,#0x4
        LCALL     `??bdb_reportCommissioningState::?relay`; Banked call to: bdb_reportCommissioningState
// 2553       break;
        SJMP      ??bdb_event_loop_4
// 2554       
// 2555       case BDB_COMMISSIONING_STATE_FINDING_BINDING:
// 2556         bdbAttributes.bdbCommissioningStatus = BDB_COMMISSIONING_SUCCESS;
??bdb_event_loop_3:
        MOV       DPTR,#bdbAttributes + 10
        CLR       A
        MOVX      @DPTR,A
// 2557         bdbCommissioningProcedureState.bdbCommissioningState = BDB_COMMISSIONING_STATE_START_RESUME;
        MOV       DPTR,#bdbCommissioningProcedureState
        MOVX      @DPTR,A
// 2558         osal_start_timerEx(bdb_TaskID,BDB_CHANGE_COMMISSIONING_STATE,50);
        ; Setup parameters for call to function osal_start_timerEx
        MOV       DPTR,#__Constant_32
        LCALL     ?PUSH_XSTACK8_X_FOUR
          CFI CFA_XSP16 add(XSP16, 28)
        MOV       R2,#0x4
        MOV       R3,#0x0
        MOV       DPTR,#bdb_TaskID
        MOVX      A,@DPTR
        MOV       R1,A
        LCALL     `??osal_start_timerEx::?relay`; Banked call to: osal_start_timerEx
        MOV       A,#0x4
        LCALL     ?DEALLOC_XSTACK8
          CFI CFA_XSP16 add(XSP16, 24)
// 2559       break;
// 2560       
// 2561     }
// 2562     return (events ^ BDB_CHANGE_COMMISSIONING_STATE);
??bdb_event_loop_4:
        MOV       A,R6
        XRL       A,#0x4
        LJMP      ??bdb_event_loop_5 & 0xFFFF
// 2563   }
// 2564 
// 2565   if ( events & SYS_EVENT_MSG )
??bdb_event_loop_0:
        MOV       A,R7
        ANL       A,#0x80
        JNZ       ??bdb_event_loop_6
// 2566   {
// 2567     uint8 *msg_ptr;
// 2568     
// 2569     while ( (msg_ptr = osal_msg_receive( bdb_TaskID )) )
// 2570     {
// 2571       //Process the Incomming ZDO messages used by BDB commissioning methods
// 2572       if(((bdbInMsg_t*)msg_ptr)->hdr.event == BDB_ZDO_CB_MSG)
// 2573       {
// 2574         bdb_processZDOMgs((zdoIncomingMsg_t *)msg_ptr);
// 2575       }
// 2576       
// 2577       //Validate the is receive on the right process
// 2578       else if(((bdbInMsg_t*)msg_ptr)->hdr.event == bdbCommissioningProcedureState.bdbCommissioningState)
// 2579       {
// 2580         bdb_ProcessOSALMsg( (bdbInMsg_t *)msg_ptr );
// 2581       }
// 2582       //Notify the user
// 2583       else if(((bdbInMsg_t*)msg_ptr)->hdr.event == BDB_NOTIFY_USER)
// 2584       {
// 2585         ((bdbCommissioningModeMsg_t*) ((bdbInMsg_t*)msg_ptr)->buf)->bdbRemainingCommissioningModes = bdbAttributes.bdbCommissioningMode;
// 2586         if(pfnCommissioningStatusCB)
// 2587         {
// 2588           pfnCommissioningStatusCB((bdbCommissioningModeMsg_t*) (((bdbInMsg_t*)msg_ptr)->buf));
// 2589         }
// 2590 #ifdef MT_APP_CNF_FUNC
// 2591         //Notify the host processor about the event
// 2592         MT_AppCnfCommissioningNotification((bdbCommissioningModeMsg_t*) (((bdbInMsg_t*)msg_ptr)->buf));
// 2593 #endif
// 2594       }
// 2595 #if (ZG_BUILD_COORDINATOR_TYPE)
// 2596       else
// 2597       {
// 2598         if(ZG_DEVICE_COORDINATOR_TYPE)
// 2599         {
// 2600           //Notify the status 
// 2601           if(((bdbInMsg_t*)msg_ptr)->hdr.event == BDB_TC_LINK_KEY_EXCHANGE_PROCESS)
// 2602           {
// 2603             pfnTCLinkKeyExchangeProcessCB( (bdb_TCLinkKeyExchProcess_t*) ((bdbInMsg_t*)msg_ptr)->buf);
// 2604           }
// 2605         }
// 2606       }
// 2607 #endif
// 2608       // Release the memory
// 2609       osal_msg_deallocate( msg_ptr );
// 2610     }
// 2611 
// 2612     // Return unprocessed events
// 2613     return (events ^ SYS_EVENT_MSG);
// 2614   }
// 2615   
// 2616 
// 2617   if(events & BDB_PROCESS_TIMEOUT)
        MOV       A,R7
        ANL       A,#0x10
        JNZ       $+5
        LJMP      ??bdb_event_loop_7 & 0xFFFF
// 2618   {
// 2619     bdb_processTimeout();
// 2620     // Return unprocessed events
// 2621     return (events ^ BDB_PROCESS_TIMEOUT);
        MOV       A,R7
        XRL       A,#0x10
        LJMP      ??bdb_event_loop_8 & 0xFFFF
// 2622   }
??bdb_event_loop_9:
        MOV       A,#0x9
        XRL       A,R0
        JNZ       ??bdb_event_loop_10
        ; Setup parameters for indirect call
        MOV       DPTR,#pfnTCLinkKeyExchangeProcessCB
        MOVX      A,@DPTR
        MOV       R0,A
        INC       DPTR
??bdb_event_loop_11:
        LCALL     ??Subroutine38_0 & 0xFFFF
??CrossCallReturnLabel_47:
        LCALL     ?CALL_IND
??bdb_event_loop_10:
        ; Setup parameters for call to function osal_msg_deallocate
        MOV       R2,?V0
        MOV       R3,?V1
        LCALL     `??osal_msg_deallocate::?relay`; Banked call to: osal_msg_deallocate
??bdb_event_loop_6:
        ; Setup parameters for call to function osal_msg_receive
        MOV       DPTR,#bdb_TaskID
        MOVX      A,@DPTR
        MOV       R1,A
        LCALL     `??osal_msg_receive::?relay`; Banked call to: osal_msg_receive
        MOV       ?V0,R2
        MOV       ?V1,R3
        MOV       A,R2
        ORL       A,?V1
        JZ        ??bdb_event_loop_12
        MOV       DPL,R2
        MOV       DPH,R3
        MOVX      A,@DPTR
        MOV       R0,A
        MOV       A,#-0x2d
        XRL       A,R0
        JNZ       ??bdb_event_loop_13
        MOV       A,R2
        ADD       A,#0xc
        MOV       DPL,A
        CLR       A
        ADDC      A,?V1
        MOV       DPH,A
        MOVX      A,@DPTR
        MOV       ?V2,A
        INC       DPTR
        MOVX      A,@DPTR
        MOV       ?V3,A
        MOV       R0,#?V2
        LCALL     ?US_SWITCH_DENSE
`?<Jumptable for bdb_event_loop>_0`:
        DATA
        DATA16
        DATA
        DATA16
        DW        32769
        DATA
        DATA8
        DATA
        DATA8
        DB        3
        DATA
        DATA16
        DATA
        DATA16
        DW        ??bdb_event_loop_10
        DATA
        DATA16
        DATA
        DATA16
        DW        ??bdb_event_loop_14
        DATA
        DATA16
        DATA
        DATA16
        DW        ??bdb_event_loop_10
        DATA
        DATA16
        DATA
        DATA16
        DW        ??bdb_event_loop_10
        DATA
        DATA16
        DATA
        DATA16
        DW        ??bdb_event_loop_15
        CODE
??bdb_event_loop_15:
        ; Setup parameters for call to function bdb_ProcessSimpleDesc
        LCALL     `??bdb_ProcessSimpleDesc::?relay`; Banked call to: bdb_ProcessSimpleDesc
        SJMP      ??bdb_event_loop_10
??bdb_event_loop_14:
        ; Setup parameters for call to function bdb_ProcessIEEEAddrRsp
        LCALL     `??bdb_ProcessIEEEAddrRsp::?relay`; Banked call to: bdb_ProcessIEEEAddrRsp
        SJMP      ??bdb_event_loop_10
??bdb_event_loop_13:
        MOV       DPTR,#bdbCommissioningProcedureState
        MOVX      A,@DPTR
        XRL       A,R0
        JZ        ??bdb_event_loop_10
        MOV       A,R2
        ADD       A,#0x2
        MOV       R2,A
        CLR       A
        ADDC      A,?V1
        MOV       R3,A
        MOV       A,#0xa
        XRL       A,R0
        JNZ       ??bdb_event_loop_9
        MOV       DPTR,#bdbAttributes + 11
        MOVX      A,@DPTR
        MOV       DPL,?V0
        MOV       DPH,?V1
        INC       DPTR
        INC       DPTR
        INC       DPTR
        INC       DPTR
        MOVX      @DPTR,A
        MOV       DPTR,#pfnCommissioningStatusCB
        LCALL     ??Subroutine41_0 & 0xFFFF
??CrossCallReturnLabel_66:
        JZ        ??bdb_event_loop_10
        ; Setup parameters for indirect call
        LJMP      ??bdb_event_loop_11 & 0xFFFF
??bdb_event_loop_12:
        MOV       A,R6
        MOV       R2,A
        MOV       A,R7
        XRL       A,#0x80
        LJMP      ??bdb_event_loop_8 & 0xFFFF
// 2623   
// 2624   if(events &  BDB_REPORT_TIMEOUT){
??bdb_event_loop_7:
        MOV       A,R6
        ANL       A,#0x80
        JZ        ??bdb_event_loop_16
// 2625 #ifdef BDB_REPORTING    
// 2626     bdb_RepProcessEvent();
        ; Setup parameters for call to function bdb_RepProcessEvent
        LCALL     `??bdb_RepProcessEvent::?relay`; Banked call to: bdb_RepProcessEvent
// 2627 #endif
// 2628     // Return unprocessed events
// 2629     return (events ^ BDB_REPORT_TIMEOUT);
        MOV       A,R6
        XRL       A,#0x80
        SJMP      ??bdb_event_loop_5
// 2630   }
// 2631   
// 2632 #if (ZG_BUILD_JOINING_TYPE)
// 2633   if(events & BDB_TC_LINK_KEY_EXCHANGE_FAIL)
// 2634   {
// 2635     if(ZG_DEVICE_JOINING_TYPE)
// 2636     {
// 2637       NLME_LeaveReq_t leaveReq;
// 2638       // Set every field to 0
// 2639       osal_memset( &leaveReq, 0, sizeof( NLME_LeaveReq_t ) );
// 2640       
// 2641       bdb_setNodeIsOnANetwork(FALSE);
// 2642 
// 2643       if ( NLME_LeaveReq( &leaveReq ) != ZSuccess )
// 2644       {
// 2645         osal_set_event( bdb_TaskID,BDB_TC_LINK_KEY_EXCHANGE_FAIL);
// 2646       }
// 2647     }
// 2648     // Return unprocessed events
// 2649     return (events ^ BDB_TC_LINK_KEY_EXCHANGE_FAIL);
// 2650   }
// 2651 #endif
// 2652   
// 2653   if(events & BDB_TC_JOIN_TIMEOUT)
??bdb_event_loop_16:
        MOV       A,R7
        ANL       A,#0x8
        JZ        ??bdb_event_loop_17
// 2654   {     
// 2655 #if (ZG_BUILD_COORDINATOR_TYPE)
// 2656     if(ZG_DEVICE_COORDINATOR_TYPE)
// 2657     {
// 2658       bdb_TCProcessJoiningList();
        ; Setup parameters for call to function bdb_TCProcessJoiningList
        LCALL     `??bdb_TCProcessJoiningList::?relay`; Banked call to: bdb_TCProcessJoiningList
// 2659     }
// 2660 #endif    
// 2661     return (events ^ BDB_TC_JOIN_TIMEOUT);
        MOV       A,R6
        MOV       R2,A
        MOV       A,R7
        XRL       A,#0x8
        LJMP      ??bdb_event_loop_8 & 0xFFFF
// 2662   }
// 2663 
// 2664 #if (BDB_FINDING_BINDING_CAPABILITY_ENABLED==1)  
// 2665   
// 2666   if(events & BDB_FINDING_AND_BINDING_PERIOD_TIMEOUT)
??bdb_event_loop_17:
        MOV       A,R6
        ANL       A,#0x40
        JZ        ??bdb_event_loop_18
// 2667   {
// 2668     if ( FINDING_AND_BINDING_PERIODIC_ENABLE == TRUE )
// 2669     {
// 2670       bdb_CurrEpDescriptor = bdb_setEpDescListToActiveEndpoint();
        ; Setup parameters for call to function bdb_setEpDescListToActiveEndpoint
        LCALL     `??bdb_setEpDescListToActiveEndpoint::?relay`; Banked call to: bdb_setEpDescListToActiveEndpoint
        MOV       ?V0,R2
        MOV       ?V1,R3
// 2671       
// 2672       //If we have endpoint from which to send the identify command, then proceed, otherwise finish
// 2673       if(bdb_CurrEpDescriptor != NULL) //just a safty check. The fact that we got to this functuon at all means that this cannot be NULL
        MOV       A,R2
        ORL       A,?V1
        JZ        ??bdb_event_loop_19
// 2674       {
// 2675         //Substract an attempt
// 2676         bdb_FB_InitiatorCurrentCyclesNumber--;
// 2677         
// 2678         if(bdb_FB_InitiatorCurrentCyclesNumber > 0)
        MOV       DPTR,#bdb_FB_InitiatorCurrentCyclesNumber
        MOVX      A,@DPTR
        DEC       A
        MOVX      @DPTR,A
        JZ        ??bdb_event_loop_20
// 2679         {
// 2680           //Only send Identify Query if there is no pending responses from a previous identify query
// 2681           if ((osal_get_timeoutEx(bdb_TaskID, BDB_RESPONDENT_PROCESS_TIMEOUT) == 0) && (bdb_getRespondentRetry(pRespondentHead) == NULL))
        ; Setup parameters for call to function osal_get_timeoutEx
        MOV       R2,#0x0
        MOV       R3,#0x40
        MOV       DPTR,#bdb_TaskID
        MOVX      A,@DPTR
        MOV       R1,A
        LCALL     `??osal_get_timeoutEx::?relay`; Banked call to: osal_get_timeoutEx
        MOV       A,R2
        ORL       A,R3
        ORL       A,R4
        ORL       A,R5
        JNZ       ??bdb_event_loop_21
        ; Setup parameters for call to function bdb_getRespondentRetry
        LCALL     ?Subroutine19 & 0xFFFF
??CrossCallReturnLabel_88:
        LCALL     `??bdb_getRespondentRetry::?relay`; Banked call to: bdb_getRespondentRetry
        MOV       ?V3,R3
        MOV       A,R2
        ORL       A,?V3
        JNZ       ??bdb_event_loop_21
// 2682           {
// 2683             //Send identify query with the endpoint requested
// 2684             bdb_SendIdentifyQuery(bdb_CurrEpDescriptor->endPoint);
        ; Setup parameters for call to function bdb_SendIdentifyQuery
        MOV       DPL,?V0
        MOV       DPH,?V1
        MOVX      A,@DPTR
        MOV       R1,A
        LCALL     `??bdb_SendIdentifyQuery::?relay`; Banked call to: bdb_SendIdentifyQuery
// 2685           }
// 2686           osal_start_timerEx(bdb_TaskID, BDB_FINDING_AND_BINDING_PERIOD_TIMEOUT, FINDING_AND_BINDING_PERIODIC_TIME * 1000);
??bdb_event_loop_21:
        ; Setup parameters for call to function osal_start_timerEx
        MOV       DPTR,#__Constant_3a98
        LCALL     ?PUSH_XSTACK8_X_FOUR
          CFI CFA_XSP16 add(XSP16, 28)
        MOV       R2,#0x40
        MOV       R3,#0x0
        MOV       DPTR,#bdb_TaskID
        MOVX      A,@DPTR
        MOV       R1,A
        LCALL     `??osal_start_timerEx::?relay`; Banked call to: osal_start_timerEx
        MOV       A,#0x4
        LCALL     ?DEALLOC_XSTACK8
          CFI CFA_XSP16 add(XSP16, 24)
// 2687         }
// 2688       }
// 2689     }
// 2690 
// 2691     if (bdb_FB_InitiatorCurrentCyclesNumber == 0)
??bdb_event_loop_19:
        MOV       DPTR,#bdb_FB_InitiatorCurrentCyclesNumber
        MOVX      A,@DPTR
        JNZ       ??bdb_event_loop_22
// 2692     {
// 2693       bdb_exitFindingBindingWStatus( BDB_COMMISSIONING_FB_NO_IDENTIFY_QUERY_RESPONSE );
??bdb_event_loop_20:
        ; Setup parameters for call to function bdb_exitFindingBindingWStatus
        MOV       R1,#0xb
        LCALL     `??bdb_exitFindingBindingWStatus::?relay`; Banked call to: bdb_exitFindingBindingWStatus
// 2694     }
// 2695     
// 2696     return (events ^ BDB_FINDING_AND_BINDING_PERIOD_TIMEOUT);
??bdb_event_loop_22:
        MOV       A,R6
        XRL       A,#0x40
??bdb_event_loop_5:
        MOV       R2,A
        MOV       A,R7
        LJMP      ??bdb_event_loop_8 & 0xFFFF
// 2697   }
// 2698   
// 2699   if(events & BDB_IDENTIFY_TIMEOUT)
??bdb_event_loop_18:
        MOV       A,R7
        ANL       A,#0x20
        JNZ       $+5
        LJMP      ??bdb_event_loop_23 & 0xFFFF
// 2700   {
// 2701     zclAttrRec_t identifyAttrRec;
// 2702     epList_t *bdb_CurrEpDescriptorNextInList = NULL;
// 2703     bdb_CurrEpDescriptorNextInList = bdb_HeadEpDescriptorList;
        MOV       DPTR,#bdb_HeadEpDescriptorList
        LCALL     ?Subroutine28 & 0xFFFF
??CrossCallReturnLabel_70:
        MOV       ?V0,R0
        MOV       ?V1,R1
// 2704     
// 2705     bool KeepIdentifyTimerRunning = FALSE;
        MOV       ?V4,#0x0
        SJMP      ??CrossCallReturnLabel_22
// 2706     
// 2707     while(bdb_CurrEpDescriptorNextInList != NULL )
// 2708     {
// 2709       endPointDesc_t *bdb_EpDescriptor = NULL;
// 2710       bdb_EpDescriptor = bdb_CurrEpDescriptorNextInList->epDesc;
// 2711     
// 2712       //Do not check ZDO or Zigbee reserved endpoints
// 2713       if((bdb_CurrEpDescriptorNextInList->epDesc->endPoint == 0) || (bdb_CurrEpDescriptorNextInList->epDesc->endPoint >= BDB_ZIGBEE_RESERVED_ENDPOINTS_START))
// 2714       {
// 2715         bdb_CurrEpDescriptorNextInList = bdb_CurrEpDescriptorNextInList->nextDesc;
// 2716         continue;
// 2717       }
// 2718       
// 2719       if ( zclFindAttrRec( bdb_EpDescriptor->endPoint, ZCL_CLUSTER_ID_GEN_IDENTIFY,
// 2720                         ATTRID_IDENTIFY_TIME, &identifyAttrRec ) )
// 2721       {
// 2722         if(*((uint16*)identifyAttrRec.attr.dataPtr) > 0)
// 2723         {
// 2724           (uint16)(*((uint16*)identifyAttrRec.attr.dataPtr))--;
// 2725           KeepIdentifyTimerRunning = TRUE;
// 2726         }
// 2727         else
// 2728         {
// 2729           // Use bdb success main state
// 2730           bdbAttributes.bdbCommissioningStatus = BDB_COMMISSIONING_SUCCESS;
??bdb_event_loop_24:
        MOV       DPTR,#bdbAttributes + 10
        CLR       A
        MOVX      @DPTR,A
// 2731           if(pfnIdentifyTimeChangeCB != NULL)
        MOV       DPTR,#pfnIdentifyTimeChangeCB
        LCALL     ??Subroutine41_0 & 0xFFFF
??CrossCallReturnLabel_67:
        JZ        ??bdb_event_loop_25
// 2732           {
// 2733             pfnIdentifyTimeChangeCB(bdb_EpDescriptor->endPoint);
        ; Setup parameters for indirect call
        MOV       DPL,?V2
        MOV       DPH,?V3
        MOVX      A,@DPTR
        MOV       R1,A
        LCALL     ?Subroutine23 & 0xFFFF
// 2734           }
// 2735         }
??CrossCallReturnLabel_49:
        LCALL     ?CALL_IND
// 2736       }
// 2737       bdb_CurrEpDescriptorNextInList = bdb_CurrEpDescriptorNextInList->nextDesc;
??bdb_event_loop_25:
        MOV       DPL,?V0
        MOV       DPH,?V1
        LCALL     ?Subroutine21 & 0xFFFF
??CrossCallReturnLabel_22:
        MOV       A,?V0
        ORL       A,?V1
        JZ        ??bdb_event_loop_26
        MOV       DPL,?V0
        MOV       DPH,?V1
        INC       DPTR
        INC       DPTR
        LCALL     ?Subroutine15 & 0xFFFF
??CrossCallReturnLabel_11:
        MOV       ?V2,DPL
        MOV       ?V3,DPH
        MOVX      A,@DPTR
        JZ        ??bdb_event_loop_25
        CLR       C
        SUBB      A,#-0xf
        JNC       ??bdb_event_loop_25
        ; Setup parameters for call to function zclFindAttrRec
        MOV       R0,?XSP + 0
        MOV       R1,?XSP + 1
        MOV       ?V6,R0
        MOV       ?V7,R1
        MOV       R0,#?V6
        LCALL     ?PUSH_XSTACK_I_TWO
          CFI CFA_XSP16 add(XSP16, 26)
        MOV       R4,#0x0
        MOV       R5,#0x0
        MOV       R2,#0x3
        MOV       R3,#0x0
        MOV       DPL,?V2
        MOV       DPH,?V3
        MOVX      A,@DPTR
        MOV       R1,A
        LCALL     `??zclFindAttrRec::?relay`; Banked call to: zclFindAttrRec
        MOV       A,#0x2
        LCALL     ?DEALLOC_XSTACK8
          CFI CFA_XSP16 add(XSP16, 24)
        MOV       A,R1
        JZ        ??bdb_event_loop_25
        MOV       A,#0x6
        LCALL     ?XSTACK_DISP0_8
        LCALL     ?Subroutine15 & 0xFFFF
??CrossCallReturnLabel_12:
        LCALL     ?Subroutine14 & 0xFFFF
??CrossCallReturnLabel_7:
        JZ        ??bdb_event_loop_24
        MOV       A,R2
        ADD       A,#-0x1
        DEC       R2
        MOV       A,R3
        ADDC      A,#-0x1
        MOV       R3,A
        MOV       DPL,R0
        MOV       DPH,R1
        MOV       A,R2
        MOVX      @DPTR,A
        INC       DPTR
        MOV       A,R3
        MOVX      @DPTR,A
        MOV       ?V4,#0x1
        SJMP      ??bdb_event_loop_25
// 2738     }
// 2739     
// 2740     //If any endpoint has identify running, keep the timer on
// 2741     if(KeepIdentifyTimerRunning)
??bdb_event_loop_26:
        MOV       A,?V4
        JZ        ??bdb_event_loop_27
// 2742     {
// 2743       osal_start_timerEx( bdb_TaskID, BDB_IDENTIFY_TIMEOUT, 1000 );
        ; Setup parameters for call to function osal_start_timerEx
        MOV       DPTR,#__Constant_3e8
        LCALL     ?PUSH_XSTACK8_X_FOUR
          CFI CFA_XSP16 add(XSP16, 28)
        MOV       R2,#0x0
        MOV       R3,#0x20
        MOV       DPTR,#bdb_TaskID
        MOVX      A,@DPTR
        MOV       R1,A
        LCALL     `??osal_start_timerEx::?relay`; Banked call to: osal_start_timerEx
        MOV       A,#0x4
        LCALL     ?DEALLOC_XSTACK8
          CFI CFA_XSP16 add(XSP16, 24)
        SJMP      ??bdb_event_loop_28
// 2744     }
// 2745     else
// 2746     {
// 2747       osal_stop_timerEx( bdb_TaskID, BDB_IDENTIFY_TIMEOUT );
??bdb_event_loop_27:
        ; Setup parameters for call to function osal_stop_timerEx
        MOV       R2,#0x0
        MOV       R3,#0x20
        MOV       DPTR,#bdb_TaskID
        MOVX      A,@DPTR
        MOV       R1,A
        LCALL     `??osal_stop_timerEx::?relay`; Banked call to: osal_stop_timerEx
// 2748     }
// 2749     
// 2750     // Return unprocessed events
// 2751     return (events ^ BDB_IDENTIFY_TIMEOUT);
??bdb_event_loop_28:
        MOV       A,R6
        MOV       R2,A
        MOV       A,R7
        XRL       A,#0x20
        SJMP      ??bdb_event_loop_8
// 2752   }
// 2753   
// 2754   if(events & BDB_RESPONDENT_PROCESS_TIMEOUT)
??bdb_event_loop_23:
        MOV       A,R7
        ANL       A,#0x40
        JZ        ??bdb_event_loop_29
// 2755   {
// 2756     // Send Simple Descriptor request to a respondent node
// 2757     bdb_ProcessRespondentList();
        ; Setup parameters for call to function bdb_ProcessRespondentList
        LCALL     `??bdb_ProcessRespondentList::?relay`; Banked call to: bdb_ProcessRespondentList
// 2758 
// 2759     return (events ^ BDB_RESPONDENT_PROCESS_TIMEOUT);
        MOV       A,R6
        MOV       R2,A
        MOV       A,R7
        XRL       A,#0x40
??bdb_event_loop_8:
        MOV       R3,A
        SJMP      ??bdb_event_loop_30
// 2760   }
// 2761 #endif
// 2762   
// 2763   return 0;
??bdb_event_loop_29:
        MOV       R2,#0x0
        MOV       R3,#0x0
??bdb_event_loop_30:
        MOV       A,#0x8
        LCALL     ?DEALLOC_XSTACK8
          CFI CFA_XSP16 add(XSP16, 16)
        MOV       R7,#0x8
        LJMP      ?BANKED_LEAVE_XDATA
// 2764 }
          CFI EndBlock cfiBlock168

        RSEG BANKED_CODE:HUGECODE:NOROOT(0)
?Subroutine21:
          CFI Block cfiCond169 Using cfiCommon0
          CFI Function bdb_TCProcessJoiningList
          CFI Conditional ??CrossCallReturnLabel_21
          CFI R6 load(1, XDATA, add(CFA_XSP16, literal(-15)))
          CFI VB load(1, XDATA, add(CFA_XSP16, literal(-14)))
          CFI V0 load(1, XDATA, add(CFA_XSP16, literal(-13)))
          CFI V1 load(1, XDATA, add(CFA_XSP16, literal(-12)))
          CFI V2 load(1, XDATA, add(CFA_XSP16, literal(-11)))
          CFI V3 load(1, XDATA, add(CFA_XSP16, literal(-10)))
          CFI V4 load(1, XDATA, add(CFA_XSP16, literal(-9)))
          CFI V5 load(1, XDATA, add(CFA_XSP16, literal(-8)))
          CFI V6 load(1, XDATA, add(CFA_XSP16, literal(-7)))
          CFI R7 load(1, XDATA, add(CFA_XSP16, literal(-6)))
          CFI ?RET_LOW load(1, XDATA, add(CFA_XSP16, literal(-5)))
          CFI ?RET_HIGH load(1, XDATA, add(CFA_XSP16, literal(-4)))
          CFI ?BRET_EXT load(1, XDATA, add(CFA_XSP16, literal(-3)))
          CFI DPL0 load(1, XDATA, add(CFA_XSP16, literal(-2)))
          CFI DPH0 load(1, XDATA, add(CFA_XSP16, literal(-1)))
          CFI CFA_SP SP+-2
          CFI CFA_XSP16 add(XSP16, 57)
          CFI Block cfiCond170 Using cfiCommon0
          CFI (cfiCond170) Function bdb_event_loop
          CFI (cfiCond170) Conditional ??CrossCallReturnLabel_22
          CFI (cfiCond170) R6 load(1, XDATA, add(CFA_XSP16, literal(-16)))
          CFI (cfiCond170) VB load(1, XDATA, add(CFA_XSP16, literal(-15)))
          CFI (cfiCond170) V0 load(1, XDATA, add(CFA_XSP16, literal(-14)))
          CFI (cfiCond170) V1 load(1, XDATA, add(CFA_XSP16, literal(-13)))
          CFI (cfiCond170) V2 load(1, XDATA, add(CFA_XSP16, literal(-12)))
          CFI (cfiCond170) V3 load(1, XDATA, add(CFA_XSP16, literal(-11)))
          CFI (cfiCond170) V4 load(1, XDATA, add(CFA_XSP16, literal(-10)))
          CFI (cfiCond170) V5 load(1, XDATA, add(CFA_XSP16, literal(-9)))
          CFI (cfiCond170) V6 load(1, XDATA, add(CFA_XSP16, literal(-8)))
          CFI (cfiCond170) V7 load(1, XDATA, add(CFA_XSP16, literal(-7)))
          CFI (cfiCond170) R7 load(1, XDATA, add(CFA_XSP16, literal(-6)))
          CFI (cfiCond170) ?RET_LOW load(1, XDATA, add(CFA_XSP16, literal(-5)))
          CFI (cfiCond170) ?RET_HIGH load(1, XDATA, add(CFA_XSP16, literal(-4)))
          CFI (cfiCond170) ?BRET_EXT load(1, XDATA, add(CFA_XSP16, literal(-3)))
          CFI (cfiCond170) DPL0 load(1, XDATA, add(CFA_XSP16, literal(-2)))
          CFI (cfiCond170) DPH0 load(1, XDATA, add(CFA_XSP16, literal(-1)))
          CFI (cfiCond170) CFA_SP SP+-2
          CFI (cfiCond170) CFA_XSP16 add(XSP16, 24)
          CFI Block cfiCond171 Using cfiCommon0
          CFI (cfiCond171) Function bdb_ProcessNodeDescRsp
          CFI (cfiCond171) Conditional ??CrossCallReturnLabel_23
          CFI (cfiCond171) R6 load(1, XDATA, add(CFA_XSP16, literal(-10)))
          CFI (cfiCond171) VB load(1, XDATA, add(CFA_XSP16, literal(-9)))
          CFI (cfiCond171) V0 load(1, XDATA, add(CFA_XSP16, literal(-8)))
          CFI (cfiCond171) V1 load(1, XDATA, add(CFA_XSP16, literal(-7)))
          CFI (cfiCond171) R7 load(1, XDATA, add(CFA_XSP16, literal(-6)))
          CFI (cfiCond171) ?RET_LOW load(1, XDATA, add(CFA_XSP16, literal(-5)))
          CFI (cfiCond171) ?RET_HIGH load(1, XDATA, add(CFA_XSP16, literal(-4)))
          CFI (cfiCond171) ?BRET_EXT load(1, XDATA, add(CFA_XSP16, literal(-3)))
          CFI (cfiCond171) DPL0 load(1, XDATA, add(CFA_XSP16, literal(-2)))
          CFI (cfiCond171) DPH0 load(1, XDATA, add(CFA_XSP16, literal(-1)))
          CFI (cfiCond171) CFA_SP SP+-2
          CFI (cfiCond171) CFA_XSP16 add(XSP16, 45)
          CFI Block cfiPicker172 Using cfiCommon1
          CFI (cfiPicker172) NoFunction
          CFI (cfiPicker172) Picker
        MOVX      A,@DPTR
        MOV       ?V0,A
        INC       DPTR
        MOVX      A,@DPTR
        MOV       ?V1,A
        RET
          CFI EndBlock cfiCond169
          CFI EndBlock cfiCond170
          CFI EndBlock cfiCond171
          CFI EndBlock cfiPicker172

        RSEG BANKED_CODE:HUGECODE:NOROOT(0)
?Subroutine14:
          CFI Block cfiCond173 Using cfiCommon0
          CFI Function bdb_TCJoiningDeviceFree
          CFI Conditional ??CrossCallReturnLabel_4
          CFI R6 load(1, XDATA, add(CFA_XSP16, literal(-15)))
          CFI VB load(1, XDATA, add(CFA_XSP16, literal(-14)))
          CFI V0 load(1, XDATA, add(CFA_XSP16, literal(-13)))
          CFI V1 load(1, XDATA, add(CFA_XSP16, literal(-12)))
          CFI V2 load(1, XDATA, add(CFA_XSP16, literal(-11)))
          CFI V3 load(1, XDATA, add(CFA_XSP16, literal(-10)))
          CFI V4 load(1, XDATA, add(CFA_XSP16, literal(-9)))
          CFI V5 load(1, XDATA, add(CFA_XSP16, literal(-8)))
          CFI V6 load(1, XDATA, add(CFA_XSP16, literal(-7)))
          CFI R7 load(1, XDATA, add(CFA_XSP16, literal(-6)))
          CFI ?RET_LOW load(1, XDATA, add(CFA_XSP16, literal(-5)))
          CFI ?RET_HIGH load(1, XDATA, add(CFA_XSP16, literal(-4)))
          CFI ?BRET_EXT load(1, XDATA, add(CFA_XSP16, literal(-3)))
          CFI DPL0 load(1, XDATA, add(CFA_XSP16, literal(-2)))
          CFI DPH0 load(1, XDATA, add(CFA_XSP16, literal(-1)))
          CFI CFA_SP SP+-2
          CFI CFA_XSP16 add(XSP16, 15)
          CFI Block cfiCond174 Using cfiCommon0
          CFI (cfiCond174) Function bdb_startResumeCommissioningProcess
          CFI (cfiCond174) Conditional ??CrossCallReturnLabel_6
          CFI (cfiCond174) R6 load(1, XDATA, add(CFA_XSP16, literal(-10)))
          CFI (cfiCond174) VB load(1, XDATA, add(CFA_XSP16, literal(-9)))
          CFI (cfiCond174) V0 load(1, XDATA, add(CFA_XSP16, literal(-8)))
          CFI (cfiCond174) V1 load(1, XDATA, add(CFA_XSP16, literal(-7)))
          CFI (cfiCond174) R7 load(1, XDATA, add(CFA_XSP16, literal(-6)))
          CFI (cfiCond174) ?RET_LOW load(1, XDATA, add(CFA_XSP16, literal(-5)))
          CFI (cfiCond174) ?RET_HIGH load(1, XDATA, add(CFA_XSP16, literal(-4)))
          CFI (cfiCond174) ?BRET_EXT load(1, XDATA, add(CFA_XSP16, literal(-3)))
          CFI (cfiCond174) DPL0 load(1, XDATA, add(CFA_XSP16, literal(-2)))
          CFI (cfiCond174) DPH0 load(1, XDATA, add(CFA_XSP16, literal(-1)))
          CFI (cfiCond174) CFA_SP SP+-2
          CFI (cfiCond174) CFA_XSP16 add(XSP16, 21)
          CFI Block cfiCond175 Using cfiCommon0
          CFI (cfiCond175) Function bdb_event_loop
          CFI (cfiCond175) Conditional ??CrossCallReturnLabel_7
          CFI (cfiCond175) R6 load(1, XDATA, add(CFA_XSP16, literal(-16)))
          CFI (cfiCond175) VB load(1, XDATA, add(CFA_XSP16, literal(-15)))
          CFI (cfiCond175) V0 load(1, XDATA, add(CFA_XSP16, literal(-14)))
          CFI (cfiCond175) V1 load(1, XDATA, add(CFA_XSP16, literal(-13)))
          CFI (cfiCond175) V2 load(1, XDATA, add(CFA_XSP16, literal(-12)))
          CFI (cfiCond175) V3 load(1, XDATA, add(CFA_XSP16, literal(-11)))
          CFI (cfiCond175) V4 load(1, XDATA, add(CFA_XSP16, literal(-10)))
          CFI (cfiCond175) V5 load(1, XDATA, add(CFA_XSP16, literal(-9)))
          CFI (cfiCond175) V6 load(1, XDATA, add(CFA_XSP16, literal(-8)))
          CFI (cfiCond175) V7 load(1, XDATA, add(CFA_XSP16, literal(-7)))
          CFI (cfiCond175) R7 load(1, XDATA, add(CFA_XSP16, literal(-6)))
          CFI (cfiCond175) ?RET_LOW load(1, XDATA, add(CFA_XSP16, literal(-5)))
          CFI (cfiCond175) ?RET_HIGH load(1, XDATA, add(CFA_XSP16, literal(-4)))
          CFI (cfiCond175) ?BRET_EXT load(1, XDATA, add(CFA_XSP16, literal(-3)))
          CFI (cfiCond175) DPL0 load(1, XDATA, add(CFA_XSP16, literal(-2)))
          CFI (cfiCond175) DPH0 load(1, XDATA, add(CFA_XSP16, literal(-1)))
          CFI (cfiCond175) CFA_SP SP+-2
          CFI (cfiCond175) CFA_XSP16 add(XSP16, 24)
          CFI Block cfiCond176 Using cfiCommon0
          CFI (cfiCond176) Function bdb_AddRespondentNode
          CFI (cfiCond176) Conditional ??CrossCallReturnLabel_5
          CFI (cfiCond176) R6 load(1, XDATA, add(CFA_XSP16, literal(-10)))
          CFI (cfiCond176) VB load(1, XDATA, add(CFA_XSP16, literal(-9)))
          CFI (cfiCond176) V0 load(1, XDATA, add(CFA_XSP16, literal(-8)))
          CFI (cfiCond176) V1 load(1, XDATA, add(CFA_XSP16, literal(-7)))
          CFI (cfiCond176) R7 load(1, XDATA, add(CFA_XSP16, literal(-6)))
          CFI (cfiCond176) ?RET_LOW load(1, XDATA, add(CFA_XSP16, literal(-5)))
          CFI (cfiCond176) ?RET_HIGH load(1, XDATA, add(CFA_XSP16, literal(-4)))
          CFI (cfiCond176) ?BRET_EXT load(1, XDATA, add(CFA_XSP16, literal(-3)))
          CFI (cfiCond176) DPL0 load(1, XDATA, add(CFA_XSP16, literal(-2)))
          CFI (cfiCond176) DPH0 load(1, XDATA, add(CFA_XSP16, literal(-1)))
          CFI (cfiCond176) CFA_SP SP+-2
          CFI (cfiCond176) CFA_XSP16 add(XSP16, 10)
          CFI Block cfiCond177 Using cfiCommon0
          CFI (cfiCond177) Function bdb_zclRespondentListClean
          CFI (cfiCond177) Conditional ??CrossCallReturnLabel_8
          CFI (cfiCond177) R6 load(1, XDATA, add(CFA_XSP16, literal(-12)))
          CFI (cfiCond177) VB load(1, XDATA, add(CFA_XSP16, literal(-11)))
          CFI (cfiCond177) V0 load(1, XDATA, add(CFA_XSP16, literal(-10)))
          CFI (cfiCond177) V1 load(1, XDATA, add(CFA_XSP16, literal(-9)))
          CFI (cfiCond177) V2 load(1, XDATA, add(CFA_XSP16, literal(-8)))
          CFI (cfiCond177) V3 load(1, XDATA, add(CFA_XSP16, literal(-7)))
          CFI (cfiCond177) R7 load(1, XDATA, add(CFA_XSP16, literal(-6)))
          CFI (cfiCond177) ?RET_LOW load(1, XDATA, add(CFA_XSP16, literal(-5)))
          CFI (cfiCond177) ?RET_HIGH load(1, XDATA, add(CFA_XSP16, literal(-4)))
          CFI (cfiCond177) ?BRET_EXT load(1, XDATA, add(CFA_XSP16, literal(-3)))
          CFI (cfiCond177) DPL0 load(1, XDATA, add(CFA_XSP16, literal(-2)))
          CFI (cfiCond177) DPH0 load(1, XDATA, add(CFA_XSP16, literal(-1)))
          CFI (cfiCond177) CFA_SP SP+-2
          CFI (cfiCond177) CFA_XSP16 add(XSP16, 12)
          CFI Block cfiPicker178 Using cfiCommon1
          CFI (cfiPicker178) NoFunction
          CFI (cfiPicker178) Picker
        MOVX      A,@DPTR
        MOV       R2,A
        INC       DPTR
        MOVX      A,@DPTR
        MOV       R3,A
        MOV       A,R2
        ORL       A,R3
        RET
          CFI EndBlock cfiCond173
          CFI EndBlock cfiCond174
          CFI EndBlock cfiCond175
          CFI EndBlock cfiCond176
          CFI EndBlock cfiCond177
          CFI EndBlock cfiPicker178
// 2765 
// 2766 /*********************************************************************
// 2767  * @fn          bdb_processZDOMgs
// 2768  *
// 2769  * @brief       Process ZDO messages used as part of BDB commissioning methods
// 2770  *
// 2771  * @param       zdoIncomingMsg_t - ZDO message
// 2772  *
// 2773  * @return      
// 2774  */
// 2775 static void bdb_processZDOMgs(zdoIncomingMsg_t *pMsg)
// 2776 {
// 2777   switch ( pMsg->clusterID )
// 2778   {
// 2779 #if (BDB_FINDING_BINDING_CAPABILITY_ENABLED==1)      
// 2780     case IEEE_addr_rsp:
// 2781        bdb_ProcessIEEEAddrRsp(pMsg);
// 2782     break;
// 2783     case Simple_Desc_rsp:
// 2784       bdb_ProcessSimpleDesc(pMsg);
// 2785     break;
// 2786 #endif
// 2787 
// 2788 #if (ZG_BUILD_JOINING_TYPE)    
// 2789     case Node_Desc_rsp:
// 2790       bdb_ProcessNodeDescRsp(pMsg);
// 2791     break;
// 2792 #endif
// 2793     
// 2794     default:
// 2795     break;
// 2796   }
// 2797 }
// 2798 
// 2799 
// 2800 /*********************************************************************
// 2801  * @fn      bdb_ProcessNodeDescRsp
// 2802  *
// 2803  * @brief   Process Node Descriptor response to validate the stack version of the
// 2804  *
// 2805  * @param   zdoIncomingMsg_t *pMsg
// 2806  *
// 2807  * @return  none
// 2808  */

        RSEG BANKED_CODE:HUGECODE:NOROOT(0)
// 2809 void bdb_ProcessNodeDescRsp(zdoIncomingMsg_t *pMsg)
bdb_ProcessNodeDescRsp:
          CFI Block cfiBlock179 Using cfiCommon0
          CFI Function bdb_ProcessNodeDescRsp
        CODE
// 2810 {
        FUNCALL bdb_ProcessNodeDescRsp, APSME_IsDistributedSecurity
        LOCFRAME ISTACK, 0, STACK
        LOCFRAME PSTACK, 0, STACK
        LOCFRAME XSTACK, 45, STACK
        LOCFRAME IOVERLAY, 0, STATIC
        LOCFRAME DOVERLAY, 0, STATIC
        ARGFRAME ISTACK, 0, STACK
        ARGFRAME PSTACK, 0, STACK
        ARGFRAME XSTACK, 45, STACK
        ARGFRAME IOVERLAY, 0, STATIC
        ARGFRAME DOVERLAY, 0, STATIC
        FUNCALL bdb_ProcessNodeDescRsp, osal_stop_timerEx
        LOCFRAME ISTACK, 0, STACK
        LOCFRAME PSTACK, 0, STACK
        LOCFRAME XSTACK, 45, STACK
        LOCFRAME IOVERLAY, 0, STATIC
        LOCFRAME DOVERLAY, 0, STATIC
        ARGFRAME ISTACK, 0, STACK
        ARGFRAME PSTACK, 0, STACK
        ARGFRAME XSTACK, 45, STACK
        ARGFRAME IOVERLAY, 0, STATIC
        ARGFRAME DOVERLAY, 0, STATIC
        FUNCALL bdb_ProcessNodeDescRsp, ZDO_ParseNodeDescRsp
        LOCFRAME ISTACK, 0, STACK
        LOCFRAME PSTACK, 0, STACK
        LOCFRAME XSTACK, 45, STACK
        LOCFRAME IOVERLAY, 0, STATIC
        LOCFRAME DOVERLAY, 0, STATIC
        ARGFRAME ISTACK, 0, STACK
        ARGFRAME PSTACK, 0, STACK
        ARGFRAME XSTACK, 45, STACK
        ARGFRAME IOVERLAY, 0, STATIC
        ARGFRAME DOVERLAY, 0, STATIC
        FUNCALL bdb_ProcessNodeDescRsp, bdb_tcLinkKeyExchangeAttempt
        LOCFRAME ISTACK, 0, STACK
        LOCFRAME PSTACK, 0, STACK
        LOCFRAME XSTACK, 45, STACK
        LOCFRAME IOVERLAY, 0, STATIC
        LOCFRAME DOVERLAY, 0, STATIC
        ARGFRAME ISTACK, 0, STACK
        ARGFRAME PSTACK, 0, STACK
        ARGFRAME XSTACK, 45, STACK
        ARGFRAME IOVERLAY, 0, STATIC
        ARGFRAME DOVERLAY, 0, STATIC
        FUNCALL bdb_ProcessNodeDescRsp, osal_nv_write
        LOCFRAME ISTACK, 0, STACK
        LOCFRAME PSTACK, 0, STACK
        LOCFRAME XSTACK, 49, STACK
        LOCFRAME IOVERLAY, 0, STATIC
        LOCFRAME DOVERLAY, 0, STATIC
        ARGFRAME ISTACK, 0, STACK
        ARGFRAME PSTACK, 0, STACK
        ARGFRAME XSTACK, 49, STACK
        ARGFRAME IOVERLAY, 0, STATIC
        ARGFRAME DOVERLAY, 0, STATIC
        FUNCALL bdb_ProcessNodeDescRsp, bdb_setNodeJoinLinkKeyType
        LOCFRAME ISTACK, 0, STACK
        LOCFRAME PSTACK, 0, STACK
        LOCFRAME XSTACK, 45, STACK
        LOCFRAME IOVERLAY, 0, STATIC
        LOCFRAME DOVERLAY, 0, STATIC
        ARGFRAME ISTACK, 0, STACK
        ARGFRAME PSTACK, 0, STACK
        ARGFRAME XSTACK, 45, STACK
        ARGFRAME IOVERLAY, 0, STATIC
        ARGFRAME DOVERLAY, 0, STATIC
        FUNCALL bdb_ProcessNodeDescRsp, bdb_reportCommissioningState
        LOCFRAME ISTACK, 0, STACK
        LOCFRAME PSTACK, 0, STACK
        LOCFRAME XSTACK, 45, STACK
        LOCFRAME IOVERLAY, 0, STATIC
        LOCFRAME DOVERLAY, 0, STATIC
        ARGFRAME ISTACK, 0, STACK
        ARGFRAME PSTACK, 0, STACK
        ARGFRAME XSTACK, 45, STACK
        ARGFRAME IOVERLAY, 0, STATIC
        ARGFRAME DOVERLAY, 0, STATIC
        REQUIRE ?V0
        REQUIRE ?V1
        MOV       A,#-0xa
        LCALL     ?BANKED_ENTER_XDATA
          CFI DPH0 load(1, XDATA, add(CFA_XSP16, literal(-1)))
          CFI DPL0 load(1, XDATA, add(CFA_XSP16, literal(-2)))
          CFI ?BRET_EXT load(1, XDATA, add(CFA_XSP16, literal(-3)))
          CFI ?RET_HIGH load(1, XDATA, add(CFA_XSP16, literal(-4)))
          CFI ?RET_LOW load(1, XDATA, add(CFA_XSP16, literal(-5)))
          CFI R7 load(1, XDATA, add(CFA_XSP16, literal(-6)))
          CFI V1 load(1, XDATA, add(CFA_XSP16, literal(-7)))
          CFI V0 load(1, XDATA, add(CFA_XSP16, literal(-8)))
          CFI VB load(1, XDATA, add(CFA_XSP16, literal(-9)))
          CFI R6 load(1, XDATA, add(CFA_XSP16, literal(-10)))
          CFI CFA_SP SP+0
          CFI CFA_XSP16 add(XSP16, 10)
        ; Saved register size: 10
        ; Auto size: 35
        MOV       A,#-0x23
        LCALL     ?ALLOC_XSTACK8
          CFI CFA_XSP16 add(XSP16, 45)
        MOV       A,R2
        MOV       R6,A
        MOV       A,R3
        MOV       R7,A
// 2811   //Avoid processing unintended messages
// 2812   if(requestNewTrustCenterLinkKey && 
// 2813     (bdbCommissioningProcedureState.bdbCommissioningState == BDB_COMMISSIONING_STATE_TC_LINK_KEY_EXCHANGE))
        MOV       DPTR,#requestNewTrustCenterLinkKey
        MOVX      A,@DPTR
        JNZ       $+5
        LJMP      ??bdb_ProcessNodeDescRsp_0 & 0xFFFF
        MOV       DPTR,#bdbCommissioningProcedureState
        MOVX      A,@DPTR
        XRL       A,#0x1
        JZ        $+5
        LJMP      ??bdb_ProcessNodeDescRsp_0 & 0xFFFF
// 2814   {
// 2815     if(!APSME_IsDistributedSecurity())
        ; Setup parameters for call to function APSME_IsDistributedSecurity
        LCALL     `??APSME_IsDistributedSecurity::?relay`; Banked call to: APSME_IsDistributedSecurity
        MOV       A,R1
        JZ        $+5
        LJMP      ??bdb_ProcessNodeDescRsp_0 & 0xFFFF
// 2816     {
// 2817       //Is this from the coordinator?
// 2818       if(pMsg->srcAddr.addr.shortAddr == 0x0000)
        MOV       DPL,R6
        MOV       DPH,R7
        INC       DPTR
        INC       DPTR
        LCALL     ??Subroutine41_0 & 0xFFFF
??CrossCallReturnLabel_68:
        JNZ       ??bdb_ProcessNodeDescRsp_0
// 2819       {
// 2820         ZDO_NodeDescRsp_t NDRsp;
// 2821         uint8 StackComplianceRev;
// 2822 
// 2823         //Stop timer to avoid unintended resets
// 2824         osal_stop_timerEx( bdb_TaskID, BDB_PROCESS_TIMEOUT);
        ; Setup parameters for call to function osal_stop_timerEx
        MOV       R2,#0x0
        MOV       R3,#0x10
        MOV       DPTR,#bdb_TaskID
        MOVX      A,@DPTR
        MOV       R1,A
        LCALL     `??osal_stop_timerEx::?relay`; Banked call to: osal_stop_timerEx
// 2825         
// 2826         ZDO_ParseNodeDescRsp(pMsg, &NDRsp);
        ; Setup parameters for call to function ZDO_ParseNodeDescRsp
        MOV       A,#0x13
        LCALL     ?XSTACK_DISP102_8
        MOV       A,R6
        MOV       R2,A
        MOV       A,R7
        MOV       R3,A
        LCALL     `??ZDO_ParseNodeDescRsp::?relay`; Banked call to: ZDO_ParseNodeDescRsp
// 2827         
// 2828         StackComplianceRev = NDRsp.nodeDesc.ServerMask >> STACK_COMPLIANCE_CURRENT_REV_POS;
// 2829         
// 2830         if( StackComplianceRev >= STACK_COMPL_REV_21 )
        MOV       A,#0x1e
        LCALL     ?XSTACK_DISP0_8
        LCALL     ?Subroutine21 & 0xFFFF
??CrossCallReturnLabel_23:
        MOV       A,#0x9
        MOV       R0,#?V0
        LCALL     ?US_SHR
        CLR       C
        MOV       A,?V0
        SUBB      A,#0x15
        SUBB      A,0xE0 /* A   */
        CLR       C
        XRL       A,PSW
        RLC       A
        JC        ??bdb_ProcessNodeDescRsp_1
// 2831         {
// 2832           bdb_tcLinkKeyExchangeAttempt(TRUE,BDB_REQ_TC_LINK_KEY);
        ; Setup parameters for call to function bdb_tcLinkKeyExchangeAttempt
        MOV       R2,#0x2
        MOV       R1,#0x1
        LCALL     `??bdb_tcLinkKeyExchangeAttempt::?relay`; Banked call to: bdb_tcLinkKeyExchangeAttempt
        SJMP      ??bdb_ProcessNodeDescRsp_0
// 2833         }
// 2834         else
// 2835         {
// 2836           APSME_TCLKDevEntry_t TCLKDevEntry;
// 2837           
// 2838           //Save the KeyAttribute for joining device that it has joined non-R21 nwk
// 2839           TCLKDevEntry.keyAttributes = ZG_NON_R21_NWK_JOINED;
??bdb_ProcessNodeDescRsp_1:
        MOV       A,#0x10
        LCALL     ?XSTACK_DISP0_8
        MOV       A,#-0x3
        MOVX      @DPTR,A
// 2840           osal_nv_write(ZCD_NV_TCLK_TABLE_START,osal_offsetof(APSME_TCLKDevEntry_t,keyAttributes),sizeof(uint8),&TCLKDevEntry.keyAttributes);
        ; Setup parameters for call to function osal_nv_write
        MOV       ?V0,DPL
        MOV       ?V1,DPH
        MOV       R0,#?V0
        LCALL     ?PUSH_XSTACK_I_TWO
          CFI CFA_XSP16 add(XSP16, 47)
        MOV       ?V0,#0x1
        MOV       ?V1,#0x0
        MOV       R0,#?V0
        LCALL     ?PUSH_XSTACK_I_TWO
          CFI CFA_XSP16 add(XSP16, 49)
        MOV       R4,#0x10
        MOV       R5,#0x0
        MOV       R2,#0x11
        MOV       R3,#0x1
        LCALL     `??osal_nv_write::?relay`; Banked call to: osal_nv_write
        MOV       A,#0x4
        LCALL     ?DEALLOC_XSTACK8
          CFI CFA_XSP16 add(XSP16, 45)
// 2841           
// 2842           bdb_setNodeJoinLinkKeyType(BDB_DEFAULT_GLOBAL_TRUST_CENTER_LINK_KEY);
        ; Setup parameters for call to function bdb_setNodeJoinLinkKeyType
        MOV       R1,#0x0
        LCALL     `??bdb_setNodeJoinLinkKeyType::?relay`; Banked call to: bdb_setNodeJoinLinkKeyType
// 2843           bdb_reportCommissioningState(BDB_COMMISSIONING_STATE_TC_LINK_KEY_EXCHANGE, TRUE);
        ; Setup parameters for call to function bdb_reportCommissioningState
        MOV       R2,#0x1
        MOV       R1,#0x1
        LCALL     `??bdb_reportCommissioningState::?relay`; Banked call to: bdb_reportCommissioningState
// 2844         }
// 2845       }
// 2846     }
// 2847   }
// 2848 }
??bdb_ProcessNodeDescRsp_0:
        MOV       A,#0x23
          CFI EndBlock cfiBlock179
        REQUIRE ?Subroutine1
        ; // Fall through to label ?Subroutine1

        RSEG BANKED_CODE:HUGECODE:NOROOT(0)
?Subroutine1:
          CFI Block cfiBlock180 Using cfiCommon0
          CFI NoFunction
          CFI CFA_SP SP+0
          CFI CFA_XSP16 add(XSP16, 13)
          CFI VB load(1, XDATA, add(CFA_XSP16, literal(-9)))
          CFI DPL0 load(1, XDATA, add(CFA_XSP16, literal(-2)))
          CFI DPH0 load(1, XDATA, add(CFA_XSP16, literal(-1)))
          CFI R6 load(1, XDATA, add(CFA_XSP16, literal(-10)))
          CFI R7 load(1, XDATA, add(CFA_XSP16, literal(-6)))
          CFI V0 load(1, XDATA, add(CFA_XSP16, literal(-8)))
          CFI V1 load(1, XDATA, add(CFA_XSP16, literal(-7)))
          CFI ?BRET_EXT load(1, XDATA, add(CFA_XSP16, literal(-3)))
          CFI ?RET_HIGH load(1, XDATA, add(CFA_XSP16, literal(-4)))
          CFI ?RET_LOW load(1, XDATA, add(CFA_XSP16, literal(-5)))
          CFI Invalid
        LCALL     ?DEALLOC_XSTACK8
          CFI EndBlock cfiBlock180
        REQUIRE ??Subroutine42_0
        ; // Fall through to label ??Subroutine42_0

        RSEG BANKED_CODE:HUGECODE:NOROOT(0)
??Subroutine42_0:
          CFI Block cfiBlock181 Using cfiCommon0
          CFI NoFunction
          CFI CFA_SP SP+0
          CFI CFA_XSP16 add(XSP16, 10)
          CFI VB load(1, XDATA, add(CFA_XSP16, literal(-9)))
          CFI DPL0 load(1, XDATA, add(CFA_XSP16, literal(-2)))
          CFI DPH0 load(1, XDATA, add(CFA_XSP16, literal(-1)))
          CFI R6 load(1, XDATA, add(CFA_XSP16, literal(-10)))
          CFI R7 load(1, XDATA, add(CFA_XSP16, literal(-6)))
          CFI V0 load(1, XDATA, add(CFA_XSP16, literal(-8)))
          CFI V1 load(1, XDATA, add(CFA_XSP16, literal(-7)))
          CFI ?BRET_EXT load(1, XDATA, add(CFA_XSP16, literal(-3)))
          CFI ?RET_HIGH load(1, XDATA, add(CFA_XSP16, literal(-4)))
          CFI ?RET_LOW load(1, XDATA, add(CFA_XSP16, literal(-5)))
        MOV       R7,#0x2
        LJMP      ?BANKED_LEAVE_XDATA
          CFI EndBlock cfiBlock181
// 2849 
// 2850 
// 2851 /*********************************************************************
// 2852  * @fn          bdb_touchlinkSendFNReset
// 2853  *
// 2854  * @brief       Starts the Factory New Procedure for Initiator
// 2855  *
// 2856  * @param       isOnANetwork - TRUE if the devices is not FN, FALSE otherwise
// 2857  *
// 2858  * @return      none
// 2859  */

        RSEG BANKED_CODE:HUGECODE:NOROOT(0)
// 2860 void bdb_touchlinkSendFNReset( void )
bdb_touchlinkSendFNReset:
          CFI Block cfiBlock182 Using cfiCommon0
          CFI Function bdb_touchlinkSendFNReset
        CODE
// 2861 {
        ; Saved register size: 0
        ; Auto size: 0
// 2862 #ifdef BDB_TL_INITIATOR
// 2863   touchLinkInitiator_ResetToFNProcedure( );
// 2864 #endif
// 2865 }
        LJMP      ?BRET
          CFI EndBlock cfiBlock182
// 2866 
// 2867 
// 2868 /*********************************************************************
// 2869  * @fn          bdb_setNodeIsOnANetwork
// 2870  *
// 2871  * @brief       Sets and saves in Nv bdbNodeIsOnANetwork attribute
// 2872  *
// 2873  * @param       isOnANetwork - TRUE if the devices is not FN, FALSE otherwise
// 2874  *
// 2875  * @return      none
// 2876  */

        RSEG BANKED_CODE:HUGECODE:NOROOT(0)
// 2877 void bdb_setNodeIsOnANetwork(bool isOnANetwork)
bdb_setNodeIsOnANetwork:
          CFI Block cfiBlock183 Using cfiCommon0
          CFI Function bdb_setNodeIsOnANetwork
        CODE
// 2878 {
        FUNCALL bdb_setNodeIsOnANetwork, osal_nv_write
        LOCFRAME ISTACK, 0, STACK
        LOCFRAME PSTACK, 0, STACK
        LOCFRAME XSTACK, 14, STACK
        LOCFRAME IOVERLAY, 0, STATIC
        LOCFRAME DOVERLAY, 0, STATIC
        ARGFRAME ISTACK, 0, STACK
        ARGFRAME PSTACK, 0, STACK
        ARGFRAME XSTACK, 14, STACK
        ARGFRAME IOVERLAY, 0, STATIC
        ARGFRAME DOVERLAY, 0, STATIC
        REQUIRE ?V0
        REQUIRE ?V1
        MOV       A,#-0xa
        LCALL     ?BANKED_ENTER_XDATA
          CFI DPH0 load(1, XDATA, add(CFA_XSP16, literal(-1)))
          CFI DPL0 load(1, XDATA, add(CFA_XSP16, literal(-2)))
          CFI ?BRET_EXT load(1, XDATA, add(CFA_XSP16, literal(-3)))
          CFI ?RET_HIGH load(1, XDATA, add(CFA_XSP16, literal(-4)))
          CFI ?RET_LOW load(1, XDATA, add(CFA_XSP16, literal(-5)))
          CFI R7 load(1, XDATA, add(CFA_XSP16, literal(-6)))
          CFI V1 load(1, XDATA, add(CFA_XSP16, literal(-7)))
          CFI V0 load(1, XDATA, add(CFA_XSP16, literal(-8)))
          CFI VB load(1, XDATA, add(CFA_XSP16, literal(-9)))
          CFI R6 load(1, XDATA, add(CFA_XSP16, literal(-10)))
          CFI CFA_SP SP+0
          CFI CFA_XSP16 add(XSP16, 10)
        ; Saved register size: 10
        ; Auto size: 0
        MOV       A,R1
        MOV       R6,A
// 2879   if((bdbAttributes.bdbNodeIsOnANetwork != isOnANetwork) || (!bdb_initialization))
        MOV       DPTR,#bdbAttributes + 14
        MOVX      A,@DPTR
        XRL       A,R6
        JNZ       ??bdb_setNodeIsOnANetwork_0
        MOV       DPTR,#bdb_initialization
        MOVX      A,@DPTR
        JNZ       ??bdb_setNodeIsOnANetwork_1
// 2880   {
// 2881     //We lose our network
// 2882     if(!isOnANetwork)
??bdb_setNodeIsOnANetwork_0:
        MOV       A,R6
        JNZ       ??bdb_setNodeIsOnANetwork_2
// 2883     {
// 2884       bdbAttributes.bdbCommissioningMode = 0;
        MOV       DPTR,#bdbAttributes + 11
        CLR       A
        MOVX      @DPTR,A
// 2885     }
// 2886     
// 2887     bdbAttributes.bdbNodeIsOnANetwork = isOnANetwork;
??bdb_setNodeIsOnANetwork_2:
        MOV       A,R6
        MOV       DPTR,#bdbAttributes + 14
        MOVX      @DPTR,A
// 2888     
// 2889     osal_nv_write(ZCD_NV_BDBNODEISONANETWORK,0,sizeof(bdbAttributes.bdbNodeIsOnANetwork),&bdbAttributes.bdbNodeIsOnANetwork);
        ; Setup parameters for call to function osal_nv_write
        MOV       ?V0,#(bdbAttributes + 14) & 0xff
        MOV       ?V1,#((bdbAttributes + 14) >> 8) & 0xff
        MOV       R0,#?V0
        LCALL     ?PUSH_XSTACK_I_TWO
          CFI CFA_XSP16 add(XSP16, 12)
        MOV       ?V0,#0x1
        MOV       ?V1,#0x0
        MOV       R0,#?V0
        LCALL     ?PUSH_XSTACK_I_TWO
          CFI CFA_XSP16 add(XSP16, 14)
        MOV       R4,#0x0
        MOV       R5,#0x0
        MOV       R2,#0x55
        MOV       R3,#0x0
        LCALL     `??osal_nv_write::?relay`; Banked call to: osal_nv_write
        MOV       A,#0x4
        LCALL     ?DEALLOC_XSTACK8
          CFI CFA_XSP16 add(XSP16, 10)
// 2890   }
// 2891 }
??bdb_setNodeIsOnANetwork_1:
        SJMP      ??Subroutine42_0
          CFI EndBlock cfiBlock183
// 2892 
// 2893 /*********************************************************************
// 2894  * @fn          bdb_setCommissioningGroupID
// 2895  *
// 2896  * @brief       Sets the commissioning groupd ID
// 2897  *
// 2898  * @param       groupID
// 2899  *
// 2900  * @return      none
// 2901  */

        RSEG BANKED_CODE:HUGECODE:NOROOT(0)
// 2902 void bdb_setCommissioningGroupID(uint16 groupID)
bdb_setCommissioningGroupID:
          CFI Block cfiBlock184 Using cfiCommon0
          CFI Function bdb_setCommissioningGroupID
        CODE
// 2903 {
        PUSH      DPL
          CFI DPL0 Frame(CFA_SP, 4)
          CFI CFA_SP SP+-4
        PUSH      DPH
          CFI DPH0 Frame(CFA_SP, 5)
          CFI CFA_SP SP+-5
        ; Saved register size: 2
        ; Auto size: 0
// 2904   bdbAttributes.bdbCommissioningGroupID = groupID;
        MOV       DPTR,#bdbAttributes + 8
        LJMP      ?Subroutine3 & 0xFFFF
// 2905 }
          CFI EndBlock cfiBlock184
// 2906 
// 2907 /*********************************************************************
// 2908  * @fn      bdb_CreateRespondentList
// 2909  *
// 2910  * @brief   Create respondent list for finding and binding if empty
// 2911  *
// 2912  * @param   pHead - pointer to a pointer of the list head
// 2913  *
// 2914  * @return  none
// 2915  */

        RSEG BANKED_CODE:HUGECODE:NOROOT(0)
// 2916 void bdb_CreateRespondentList( bdbFindingBindingRespondent_t **pHead )
bdb_CreateRespondentList:
          CFI Block cfiBlock185 Using cfiCommon0
          CFI Function bdb_CreateRespondentList
        CODE
// 2917 {
        FUNCALL bdb_CreateRespondentList, osal_mem_alloc
        LOCFRAME ISTACK, 0, STACK
        LOCFRAME PSTACK, 0, STACK
        LOCFRAME XSTACK, 10, STACK
        LOCFRAME IOVERLAY, 0, STATIC
        LOCFRAME DOVERLAY, 0, STATIC
        ARGFRAME ISTACK, 0, STACK
        ARGFRAME PSTACK, 0, STACK
        ARGFRAME XSTACK, 10, STACK
        ARGFRAME IOVERLAY, 0, STATIC
        ARGFRAME DOVERLAY, 0, STATIC
        REQUIRE ?V0
        REQUIRE ?V1
        MOV       A,#-0xa
        LCALL     ?BANKED_ENTER_XDATA
          CFI DPH0 load(1, XDATA, add(CFA_XSP16, literal(-1)))
          CFI DPL0 load(1, XDATA, add(CFA_XSP16, literal(-2)))
          CFI ?BRET_EXT load(1, XDATA, add(CFA_XSP16, literal(-3)))
          CFI ?RET_HIGH load(1, XDATA, add(CFA_XSP16, literal(-4)))
          CFI ?RET_LOW load(1, XDATA, add(CFA_XSP16, literal(-5)))
          CFI R7 load(1, XDATA, add(CFA_XSP16, literal(-6)))
          CFI V1 load(1, XDATA, add(CFA_XSP16, literal(-7)))
          CFI V0 load(1, XDATA, add(CFA_XSP16, literal(-8)))
          CFI VB load(1, XDATA, add(CFA_XSP16, literal(-9)))
          CFI R6 load(1, XDATA, add(CFA_XSP16, literal(-10)))
          CFI CFA_SP SP+0
          CFI CFA_XSP16 add(XSP16, 10)
        ; Saved register size: 10
        ; Auto size: 0
        LCALL     ?Subroutine12 & 0xFFFF
// 2918 
// 2919   // Create the list if empty
// 2920   if ( *pHead == NULL )
??CrossCallReturnLabel_50:
        JNZ       ??CrossCallReturnLabel_30
// 2921   {
// 2922     *pHead = ( bdbFindingBindingRespondent_t* )osal_mem_alloc( sizeof( bdbFindingBindingRespondent_t ) );
        ; Setup parameters for call to function osal_mem_alloc
        MOV       R2,#0x11
        MOV       R3,#0x0
        LCALL     `??osal_mem_alloc::?relay`; Banked call to: osal_mem_alloc
        LCALL     ?Subroutine10 & 0xFFFF
// 2923     
// 2924     if ( *pHead != NULL )
??CrossCallReturnLabel_75:
        JZ        ??CrossCallReturnLabel_30
// 2925     {
// 2926       (*pHead)->pNext = NULL;
        LCALL     ?Subroutine26 & 0xFFFF
// 2927     }
// 2928   }
// 2929   return;
??CrossCallReturnLabel_30:
        SJMP      ??Subroutine42_0
// 2930 }
          CFI EndBlock cfiBlock185

        RSEG BANKED_CODE:HUGECODE:NOROOT(0)
?Subroutine10:
          CFI Block cfiCond186 Using cfiCommon0
          CFI Function bdb_CreateRespondentList
          CFI Conditional ??CrossCallReturnLabel_75
          CFI R6 load(1, XDATA, add(CFA_XSP16, literal(-10)))
          CFI VB load(1, XDATA, add(CFA_XSP16, literal(-9)))
          CFI V0 load(1, XDATA, add(CFA_XSP16, literal(-8)))
          CFI V1 load(1, XDATA, add(CFA_XSP16, literal(-7)))
          CFI R7 load(1, XDATA, add(CFA_XSP16, literal(-6)))
          CFI ?RET_LOW load(1, XDATA, add(CFA_XSP16, literal(-5)))
          CFI ?RET_HIGH load(1, XDATA, add(CFA_XSP16, literal(-4)))
          CFI ?BRET_EXT load(1, XDATA, add(CFA_XSP16, literal(-3)))
          CFI DPL0 load(1, XDATA, add(CFA_XSP16, literal(-2)))
          CFI DPH0 load(1, XDATA, add(CFA_XSP16, literal(-1)))
          CFI CFA_SP SP+-2
          CFI CFA_XSP16 add(XSP16, 10)
          CFI Block cfiCond187 Using cfiCommon0
          CFI (cfiCond187) Function bdb_AddRespondentNode
          CFI (cfiCond187) Conditional ??CrossCallReturnLabel_76
          CFI (cfiCond187) R6 load(1, XDATA, add(CFA_XSP16, literal(-10)))
          CFI (cfiCond187) VB load(1, XDATA, add(CFA_XSP16, literal(-9)))
          CFI (cfiCond187) V0 load(1, XDATA, add(CFA_XSP16, literal(-8)))
          CFI (cfiCond187) V1 load(1, XDATA, add(CFA_XSP16, literal(-7)))
          CFI (cfiCond187) R7 load(1, XDATA, add(CFA_XSP16, literal(-6)))
          CFI (cfiCond187) ?RET_LOW load(1, XDATA, add(CFA_XSP16, literal(-5)))
          CFI (cfiCond187) ?RET_HIGH load(1, XDATA, add(CFA_XSP16, literal(-4)))
          CFI (cfiCond187) ?BRET_EXT load(1, XDATA, add(CFA_XSP16, literal(-3)))
          CFI (cfiCond187) DPL0 load(1, XDATA, add(CFA_XSP16, literal(-2)))
          CFI (cfiCond187) DPH0 load(1, XDATA, add(CFA_XSP16, literal(-1)))
          CFI (cfiCond187) CFA_SP SP+-2
          CFI (cfiCond187) CFA_XSP16 add(XSP16, 10)
          CFI Block cfiPicker188 Using cfiCommon1
          CFI (cfiPicker188) NoFunction
          CFI (cfiPicker188) Picker
        MOV       ?V0,R2
        MOV       ?V1,R3
        MOV       R0,?V0
        MOV       R1,?V1
          CFI EndBlock cfiCond186
          CFI EndBlock cfiCond187
          CFI EndBlock cfiPicker188
        REQUIRE ??Subroutine43_0
        ; // Fall through to label ??Subroutine43_0

        RSEG BANKED_CODE:HUGECODE:NOROOT(0)
??Subroutine43_0:
          CFI Block cfiCond189 Using cfiCommon0
          CFI Function bdb_TCAddJoiningDevice
          CFI Conditional ??CrossCallReturnLabel_77
          CFI R6 load(1, XDATA, add(CFA_XSP16, literal(-19)))
          CFI VB load(1, XDATA, add(CFA_XSP16, literal(-18)))
          CFI V0 load(1, XDATA, add(CFA_XSP16, literal(-17)))
          CFI V1 load(1, XDATA, add(CFA_XSP16, literal(-16)))
          CFI V2 load(1, XDATA, add(CFA_XSP16, literal(-15)))
          CFI V3 load(1, XDATA, add(CFA_XSP16, literal(-14)))
          CFI V4 load(1, XDATA, add(CFA_XSP16, literal(-13)))
          CFI V5 load(1, XDATA, add(CFA_XSP16, literal(-12)))
          CFI V6 load(1, XDATA, add(CFA_XSP16, literal(-11)))
          CFI V7 load(1, XDATA, add(CFA_XSP16, literal(-10)))
          CFI V8 load(1, XDATA, add(CFA_XSP16, literal(-9)))
          CFI V9 load(1, XDATA, add(CFA_XSP16, literal(-8)))
          CFI V10 load(1, XDATA, add(CFA_XSP16, literal(-7)))
          CFI R7 load(1, XDATA, add(CFA_XSP16, literal(-6)))
          CFI ?RET_LOW load(1, XDATA, add(CFA_XSP16, literal(-5)))
          CFI ?RET_HIGH load(1, XDATA, add(CFA_XSP16, literal(-4)))
          CFI ?BRET_EXT load(1, XDATA, add(CFA_XSP16, literal(-3)))
          CFI DPL0 load(1, XDATA, add(CFA_XSP16, literal(-2)))
          CFI DPH0 load(1, XDATA, add(CFA_XSP16, literal(-1)))
          CFI CFA_SP SP+-2
          CFI CFA_XSP16 add(XSP16, 28)
          CFI Block cfiCond190 Using cfiCommon0
          CFI (cfiCond190) Function bdb_CreateRespondentList
          CFI (cfiCond190) Conditional ??CrossCallReturnLabel_75
          CFI (cfiCond190) R6 load(1, XDATA, add(CFA_XSP16, literal(-10)))
          CFI (cfiCond190) VB load(1, XDATA, add(CFA_XSP16, literal(-9)))
          CFI (cfiCond190) V0 load(1, XDATA, add(CFA_XSP16, literal(-8)))
          CFI (cfiCond190) V1 load(1, XDATA, add(CFA_XSP16, literal(-7)))
          CFI (cfiCond190) R7 load(1, XDATA, add(CFA_XSP16, literal(-6)))
          CFI (cfiCond190) ?RET_LOW load(1, XDATA, add(CFA_XSP16, literal(-5)))
          CFI (cfiCond190) ?RET_HIGH load(1, XDATA, add(CFA_XSP16, literal(-4)))
          CFI (cfiCond190) ?BRET_EXT load(1, XDATA, add(CFA_XSP16, literal(-3)))
          CFI (cfiCond190) DPL0 load(1, XDATA, add(CFA_XSP16, literal(-2)))
          CFI (cfiCond190) DPH0 load(1, XDATA, add(CFA_XSP16, literal(-1)))
          CFI (cfiCond190) CFA_SP SP+-2
          CFI (cfiCond190) CFA_XSP16 add(XSP16, 10)
          CFI Block cfiCond191 Using cfiCommon0
          CFI (cfiCond191) Function bdb_AddRespondentNode
          CFI (cfiCond191) Conditional ??CrossCallReturnLabel_76
          CFI (cfiCond191) R6 load(1, XDATA, add(CFA_XSP16, literal(-10)))
          CFI (cfiCond191) VB load(1, XDATA, add(CFA_XSP16, literal(-9)))
          CFI (cfiCond191) V0 load(1, XDATA, add(CFA_XSP16, literal(-8)))
          CFI (cfiCond191) V1 load(1, XDATA, add(CFA_XSP16, literal(-7)))
          CFI (cfiCond191) R7 load(1, XDATA, add(CFA_XSP16, literal(-6)))
          CFI (cfiCond191) ?RET_LOW load(1, XDATA, add(CFA_XSP16, literal(-5)))
          CFI (cfiCond191) ?RET_HIGH load(1, XDATA, add(CFA_XSP16, literal(-4)))
          CFI (cfiCond191) ?BRET_EXT load(1, XDATA, add(CFA_XSP16, literal(-3)))
          CFI (cfiCond191) DPL0 load(1, XDATA, add(CFA_XSP16, literal(-2)))
          CFI (cfiCond191) DPH0 load(1, XDATA, add(CFA_XSP16, literal(-1)))
          CFI (cfiCond191) CFA_SP SP+-2
          CFI (cfiCond191) CFA_XSP16 add(XSP16, 10)
          CFI Block cfiPicker192 Using cfiCommon1
          CFI (cfiPicker192) NoFunction
          CFI (cfiPicker192) Picker
        MOV       DPL,R6
        MOV       DPH,R7
        MOV       A,R0
        MOVX      @DPTR,A
        INC       DPTR
        MOV       A,R1
        MOVX      @DPTR,A
        MOV       A,R0
        ORL       A,R1
        RET
          CFI EndBlock cfiCond189
          CFI EndBlock cfiCond190
          CFI EndBlock cfiCond191
          CFI EndBlock cfiPicker192
// 2931 
// 2932 /*********************************************************************
// 2933  * @fn      bdb_AddRespondentNode
// 2934  *
// 2935  * @brief   Add node to respondent list for finding and binding
// 2936  *
// 2937  * @param   pHead - pointer to a pointer of the list head
// 2938  *
// 2939  * @return  pointer to new node
// 2940  */

        RSEG BANKED_CODE:HUGECODE:NOROOT(0)
// 2941 bdbFindingBindingRespondent_t* bdb_AddRespondentNode( bdbFindingBindingRespondent_t **pHead, zclIdentifyQueryRsp_t *pCmd )
bdb_AddRespondentNode:
          CFI Block cfiBlock193 Using cfiCommon0
          CFI Function bdb_AddRespondentNode
        CODE
// 2942 {
        FUNCALL bdb_AddRespondentNode, bdb_CreateRespondentList
        LOCFRAME ISTACK, 0, STACK
        LOCFRAME PSTACK, 0, STACK
        LOCFRAME XSTACK, 10, STACK
        LOCFRAME IOVERLAY, 0, STATIC
        LOCFRAME DOVERLAY, 0, STATIC
        ARGFRAME ISTACK, 0, STACK
        ARGFRAME PSTACK, 0, STACK
        ARGFRAME XSTACK, 10, STACK
        ARGFRAME IOVERLAY, 0, STATIC
        ARGFRAME DOVERLAY, 0, STATIC
        FUNCALL bdb_AddRespondentNode, osal_mem_alloc
        LOCFRAME ISTACK, 0, STACK
        LOCFRAME PSTACK, 0, STACK
        LOCFRAME XSTACK, 10, STACK
        LOCFRAME IOVERLAY, 0, STATIC
        LOCFRAME DOVERLAY, 0, STATIC
        ARGFRAME ISTACK, 0, STACK
        ARGFRAME PSTACK, 0, STACK
        ARGFRAME XSTACK, 10, STACK
        ARGFRAME IOVERLAY, 0, STATIC
        ARGFRAME DOVERLAY, 0, STATIC
        REQUIRE ?V0
        REQUIRE ?V1
        MOV       A,#-0xa
        LCALL     ?BANKED_ENTER_XDATA
          CFI DPH0 load(1, XDATA, add(CFA_XSP16, literal(-1)))
          CFI DPL0 load(1, XDATA, add(CFA_XSP16, literal(-2)))
          CFI ?BRET_EXT load(1, XDATA, add(CFA_XSP16, literal(-3)))
          CFI ?RET_HIGH load(1, XDATA, add(CFA_XSP16, literal(-4)))
          CFI ?RET_LOW load(1, XDATA, add(CFA_XSP16, literal(-5)))
          CFI R7 load(1, XDATA, add(CFA_XSP16, literal(-6)))
          CFI V1 load(1, XDATA, add(CFA_XSP16, literal(-7)))
          CFI V0 load(1, XDATA, add(CFA_XSP16, literal(-8)))
          CFI VB load(1, XDATA, add(CFA_XSP16, literal(-9)))
          CFI R6 load(1, XDATA, add(CFA_XSP16, literal(-10)))
          CFI CFA_SP SP+0
          CFI CFA_XSP16 add(XSP16, 10)
        ; Saved register size: 10
        ; Auto size: 0
        LCALL     ?Subroutine12 & 0xFFFF
// 2943   bdbFindingBindingRespondent_t **pCurr;
// 2944   bdbFindingBindingRespondent_t *temp;
// 2945   
// 2946     // Create respondent list if empty
// 2947   if ( *pHead == NULL )
??CrossCallReturnLabel_51:
        JNZ       ??bdb_AddRespondentNode_0
// 2948   {
// 2949     bdb_CreateRespondentList( pHead );
        ; Setup parameters for call to function bdb_CreateRespondentList
        LCALL     `??bdb_CreateRespondentList::?relay`; Banked call to: bdb_CreateRespondentList
// 2950     return *pHead;
        LJMP      ??CrossCallReturnLabel_31 & 0xFFFF
// 2951   }
// 2952   else
// 2953   {
// 2954     // if pCmd is equal to NULL, don't look for duplucates
// 2955     if( pCmd != NULL )
??bdb_AddRespondentNode_0:
        MOV       A,R4
        ORL       A,R5
        JZ        ??bdb_AddRespondentNode_1
// 2956     {
// 2957       //Find if any duplicate in the list
// 2958       temp = *pHead;
        MOV       A,R0
        MOV       R2,A
        MOV       A,R1
        MOV       R3,A
        MOV       DPL,R4
        MOV       DPH,R5
        MOVX      A,@DPTR
        MOV       R4,A
        INC       DPTR
        MOVX      A,@DPTR
        MOV       R5,A
// 2959       
// 2960       while(temp != NULL)
// 2961       {
// 2962         if((temp->data.endPoint == pCmd->srcAddr->endPoint) && (temp->data.panId == pCmd->srcAddr->panId))
??bdb_AddRespondentNode_2:
        MOV       DPL,R2
        MOV       DPH,R3
        INC       DPTR
        INC       DPTR
        INC       DPTR
        INC       DPTR
        INC       DPTR
        INC       DPTR
        INC       DPTR
        INC       DPTR
        INC       DPTR
        MOVX      A,@DPTR
        MOV       R6,A
        MOV       DPL,R4
        MOV       DPH,R5
        INC       DPTR
        INC       DPTR
        INC       DPTR
        INC       DPTR
        INC       DPTR
        INC       DPTR
        INC       DPTR
        INC       DPTR
        INC       DPTR
        MOVX      A,@DPTR
        XRL       A,R6
        JNZ       ??bdb_AddRespondentNode_3
        MOV       DPL,R2
        MOV       DPH,R3
        INC       DPTR
        INC       DPTR
        INC       DPTR
        INC       DPTR
        INC       DPTR
        INC       DPTR
        INC       DPTR
        INC       DPTR
        INC       DPTR
        INC       DPTR
        LCALL     ?Subroutine24 & 0xFFFF
??CrossCallReturnLabel_26:
        INC       DPTR
        INC       DPTR
        INC       DPTR
        INC       DPTR
        INC       DPTR
        INC       DPTR
        INC       DPTR
        INC       DPTR
        INC       DPTR
        INC       DPTR
        MOVX      A,@DPTR
        XRL       A,R6
        JNZ       ??bdb_AddRespondentNode_4
        INC       DPTR
        MOVX      A,@DPTR
        XRL       A,R7
??bdb_AddRespondentNode_4:
        JNZ       ??bdb_AddRespondentNode_3
// 2963         {
// 2964           //Duplicate
// 2965           if(temp->data.addr.shortAddr == pCmd->srcAddr->addr.shortAddr)
        MOV       DPL,R2
        MOV       DPH,R3
        LCALL     ?Subroutine24 & 0xFFFF
// 2966           {
// 2967             return NULL;
// 2968           }
// 2969         }
??CrossCallReturnLabel_27:
        MOVX      A,@DPTR
        XRL       A,R6
        JNZ       ??bdb_AddRespondentNode_5
        INC       DPTR
        MOVX      A,@DPTR
        XRL       A,R7
??bdb_AddRespondentNode_5:
        JZ        ??bdb_AddRespondentNode_6
// 2970         temp = temp->pNext;
??bdb_AddRespondentNode_3:
        MOV       A,R2
        ADD       A,#0xf
        MOV       DPL,A
        CLR       A
        ADDC      A,R3
        MOV       DPH,A
        LCALL     ?Subroutine14 & 0xFFFF
// 2971       }
// 2972     }
??CrossCallReturnLabel_5:
        JNZ       ??bdb_AddRespondentNode_2
// 2973     
// 2974     pCurr = &((*pHead)->pNext);
// 2975     
// 2976     while ( *pCurr != NULL )
// 2977     {
// 2978       pCurr = &((*pCurr)->pNext);
??bdb_AddRespondentNode_1:
        MOV       A,R0
        ADD       A,#0xf
        MOV       R6,A
        CLR       A
        ADDC      A,R1
        LCALL     ??Subroutine39_0 & 0xFFFF
// 2979     }
??CrossCallReturnLabel_53:
        JNZ       ??bdb_AddRespondentNode_1
// 2980 
// 2981     *pCurr = ( bdbFindingBindingRespondent_t* )osal_mem_alloc( sizeof( bdbFindingBindingRespondent_t ) );
        ; Setup parameters for call to function osal_mem_alloc
        MOV       R2,#0x11
        MOV       R3,#0x0
        LCALL     `??osal_mem_alloc::?relay`; Banked call to: osal_mem_alloc
        LCALL     ?Subroutine10 & 0xFFFF
// 2982     
// 2983     if(*pCurr == NULL)
??CrossCallReturnLabel_76:
        JNZ       ??bdb_AddRespondentNode_7
// 2984     {
// 2985       //No memory
// 2986       return NULL;
??bdb_AddRespondentNode_6:
        MOV       R2,#0x0
        MOV       R3,#0x0
        SJMP      ??CrossCallReturnLabel_85
// 2987     }
// 2988     
// 2989     (*pCurr)->pNext = NULL;
??bdb_AddRespondentNode_7:
        LCALL     ?Subroutine26 & 0xFFFF
// 2990   }
// 2991   
// 2992   return *pCurr;
??CrossCallReturnLabel_31:
        MOV       DPL,R6
        MOV       DPH,R7
        LCALL     ??Subroutine45_0 & 0xFFFF
??CrossCallReturnLabel_85:
        LJMP      ??Subroutine42_0 & 0xFFFF
// 2993 }
          CFI EndBlock cfiBlock193

        RSEG BANKED_CODE:HUGECODE:NOROOT(0)
?Subroutine26:
          CFI Block cfiCond194 Using cfiCommon0
          CFI Function bdb_CreateRespondentList
          CFI Conditional ??CrossCallReturnLabel_30
          CFI R6 load(1, XDATA, add(CFA_XSP16, literal(-10)))
          CFI VB load(1, XDATA, add(CFA_XSP16, literal(-9)))
          CFI V0 load(1, XDATA, add(CFA_XSP16, literal(-8)))
          CFI V1 load(1, XDATA, add(CFA_XSP16, literal(-7)))
          CFI R7 load(1, XDATA, add(CFA_XSP16, literal(-6)))
          CFI ?RET_LOW load(1, XDATA, add(CFA_XSP16, literal(-5)))
          CFI ?RET_HIGH load(1, XDATA, add(CFA_XSP16, literal(-4)))
          CFI ?BRET_EXT load(1, XDATA, add(CFA_XSP16, literal(-3)))
          CFI DPL0 load(1, XDATA, add(CFA_XSP16, literal(-2)))
          CFI DPH0 load(1, XDATA, add(CFA_XSP16, literal(-1)))
          CFI CFA_SP SP+-2
          CFI CFA_XSP16 add(XSP16, 10)
          CFI Block cfiCond195 Using cfiCommon0
          CFI (cfiCond195) Function bdb_AddRespondentNode
          CFI (cfiCond195) Conditional ??CrossCallReturnLabel_31
          CFI (cfiCond195) R6 load(1, XDATA, add(CFA_XSP16, literal(-10)))
          CFI (cfiCond195) VB load(1, XDATA, add(CFA_XSP16, literal(-9)))
          CFI (cfiCond195) V0 load(1, XDATA, add(CFA_XSP16, literal(-8)))
          CFI (cfiCond195) V1 load(1, XDATA, add(CFA_XSP16, literal(-7)))
          CFI (cfiCond195) R7 load(1, XDATA, add(CFA_XSP16, literal(-6)))
          CFI (cfiCond195) ?RET_LOW load(1, XDATA, add(CFA_XSP16, literal(-5)))
          CFI (cfiCond195) ?RET_HIGH load(1, XDATA, add(CFA_XSP16, literal(-4)))
          CFI (cfiCond195) ?BRET_EXT load(1, XDATA, add(CFA_XSP16, literal(-3)))
          CFI (cfiCond195) DPL0 load(1, XDATA, add(CFA_XSP16, literal(-2)))
          CFI (cfiCond195) DPH0 load(1, XDATA, add(CFA_XSP16, literal(-1)))
          CFI (cfiCond195) CFA_SP SP+-2
          CFI (cfiCond195) CFA_XSP16 add(XSP16, 10)
          CFI Block cfiPicker196 Using cfiCommon1
          CFI (cfiPicker196) NoFunction
          CFI (cfiPicker196) Picker
        MOV       A,R0
        ADD       A,#0xf
        MOV       DPL,A
        CLR       A
        ADDC      A,R1
        MOV       DPH,A
        CLR       A
        MOVX      @DPTR,A
        INC       DPTR
        MOVX      @DPTR,A
        RET
          CFI EndBlock cfiCond194
          CFI EndBlock cfiCond195
          CFI EndBlock cfiPicker196

        RSEG BANKED_CODE:HUGECODE:NOROOT(0)
?Subroutine24:
          CFI Block cfiCond197 Using cfiCommon0
          CFI Function bdb_AddRespondentNode
          CFI Conditional ??CrossCallReturnLabel_26
          CFI R6 load(1, XDATA, add(CFA_XSP16, literal(-10)))
          CFI VB load(1, XDATA, add(CFA_XSP16, literal(-9)))
          CFI V0 load(1, XDATA, add(CFA_XSP16, literal(-8)))
          CFI V1 load(1, XDATA, add(CFA_XSP16, literal(-7)))
          CFI R7 load(1, XDATA, add(CFA_XSP16, literal(-6)))
          CFI ?RET_LOW load(1, XDATA, add(CFA_XSP16, literal(-5)))
          CFI ?RET_HIGH load(1, XDATA, add(CFA_XSP16, literal(-4)))
          CFI ?BRET_EXT load(1, XDATA, add(CFA_XSP16, literal(-3)))
          CFI DPL0 load(1, XDATA, add(CFA_XSP16, literal(-2)))
          CFI DPH0 load(1, XDATA, add(CFA_XSP16, literal(-1)))
          CFI CFA_SP SP+-2
          CFI CFA_XSP16 add(XSP16, 10)
          CFI Block cfiCond198 Using cfiCommon0
          CFI (cfiCond198) Function bdb_AddRespondentNode
          CFI (cfiCond198) Conditional ??CrossCallReturnLabel_27
          CFI (cfiCond198) R6 load(1, XDATA, add(CFA_XSP16, literal(-10)))
          CFI (cfiCond198) VB load(1, XDATA, add(CFA_XSP16, literal(-9)))
          CFI (cfiCond198) V0 load(1, XDATA, add(CFA_XSP16, literal(-8)))
          CFI (cfiCond198) V1 load(1, XDATA, add(CFA_XSP16, literal(-7)))
          CFI (cfiCond198) R7 load(1, XDATA, add(CFA_XSP16, literal(-6)))
          CFI (cfiCond198) ?RET_LOW load(1, XDATA, add(CFA_XSP16, literal(-5)))
          CFI (cfiCond198) ?RET_HIGH load(1, XDATA, add(CFA_XSP16, literal(-4)))
          CFI (cfiCond198) ?BRET_EXT load(1, XDATA, add(CFA_XSP16, literal(-3)))
          CFI (cfiCond198) DPL0 load(1, XDATA, add(CFA_XSP16, literal(-2)))
          CFI (cfiCond198) DPH0 load(1, XDATA, add(CFA_XSP16, literal(-1)))
          CFI (cfiCond198) CFA_SP SP+-2
          CFI (cfiCond198) CFA_XSP16 add(XSP16, 10)
          CFI Block cfiPicker199 Using cfiCommon1
          CFI (cfiPicker199) NoFunction
          CFI (cfiPicker199) Picker
        LCALL     ??Subroutine44_0 & 0xFFFF
??CrossCallReturnLabel_79:
        MOV       DPL,R4
        MOV       DPH,R5
        RET
          CFI EndBlock cfiCond197
          CFI EndBlock cfiCond198
          CFI EndBlock cfiPicker199

        RSEG BANKED_CODE:HUGECODE:NOROOT(0)
?Subroutine29:
          CFI Block cfiCond200 Using cfiCommon0
          CFI Function bdb_TCAddJoiningDevice
          CFI Conditional ??CrossCallReturnLabel_80
          CFI R6 load(1, XDATA, add(CFA_XSP16, literal(-19)))
          CFI VB load(1, XDATA, add(CFA_XSP16, literal(-18)))
          CFI V0 load(1, XDATA, add(CFA_XSP16, literal(-17)))
          CFI V1 load(1, XDATA, add(CFA_XSP16, literal(-16)))
          CFI V2 load(1, XDATA, add(CFA_XSP16, literal(-15)))
          CFI V3 load(1, XDATA, add(CFA_XSP16, literal(-14)))
          CFI V4 load(1, XDATA, add(CFA_XSP16, literal(-13)))
          CFI V5 load(1, XDATA, add(CFA_XSP16, literal(-12)))
          CFI V6 load(1, XDATA, add(CFA_XSP16, literal(-11)))
          CFI V7 load(1, XDATA, add(CFA_XSP16, literal(-10)))
          CFI V8 load(1, XDATA, add(CFA_XSP16, literal(-9)))
          CFI V9 load(1, XDATA, add(CFA_XSP16, literal(-8)))
          CFI V10 load(1, XDATA, add(CFA_XSP16, literal(-7)))
          CFI R7 load(1, XDATA, add(CFA_XSP16, literal(-6)))
          CFI ?RET_LOW load(1, XDATA, add(CFA_XSP16, literal(-5)))
          CFI ?RET_HIGH load(1, XDATA, add(CFA_XSP16, literal(-4)))
          CFI ?BRET_EXT load(1, XDATA, add(CFA_XSP16, literal(-3)))
          CFI DPL0 load(1, XDATA, add(CFA_XSP16, literal(-2)))
          CFI DPH0 load(1, XDATA, add(CFA_XSP16, literal(-1)))
          CFI CFA_SP SP+-2
          CFI CFA_XSP16 add(XSP16, 28)
          CFI Block cfiCond201 Using cfiCommon0
          CFI (cfiCond201) Function bdb_TCjoiningDeviceComplete
          CFI (cfiCond201) Conditional ??CrossCallReturnLabel_81
          CFI (cfiCond201) R6 load(1, XDATA, add(CFA_XSP16, literal(-19)))
          CFI (cfiCond201) VB load(1, XDATA, add(CFA_XSP16, literal(-18)))
          CFI (cfiCond201) V0 load(1, XDATA, add(CFA_XSP16, literal(-17)))
          CFI (cfiCond201) V1 load(1, XDATA, add(CFA_XSP16, literal(-16)))
          CFI (cfiCond201) V2 load(1, XDATA, add(CFA_XSP16, literal(-15)))
          CFI (cfiCond201) V3 load(1, XDATA, add(CFA_XSP16, literal(-14)))
          CFI (cfiCond201) V4 load(1, XDATA, add(CFA_XSP16, literal(-13)))
          CFI (cfiCond201) V5 load(1, XDATA, add(CFA_XSP16, literal(-12)))
          CFI (cfiCond201) V6 load(1, XDATA, add(CFA_XSP16, literal(-11)))
          CFI (cfiCond201) V7 load(1, XDATA, add(CFA_XSP16, literal(-10)))
          CFI (cfiCond201) V8 load(1, XDATA, add(CFA_XSP16, literal(-9)))
          CFI (cfiCond201) V9 load(1, XDATA, add(CFA_XSP16, literal(-8)))
          CFI (cfiCond201) V10 load(1, XDATA, add(CFA_XSP16, literal(-7)))
          CFI (cfiCond201) R7 load(1, XDATA, add(CFA_XSP16, literal(-6)))
          CFI (cfiCond201) ?RET_LOW load(1, XDATA, add(CFA_XSP16, literal(-5)))
          CFI (cfiCond201) ?RET_HIGH load(1, XDATA, add(CFA_XSP16, literal(-4)))
          CFI (cfiCond201) ?BRET_EXT load(1, XDATA, add(CFA_XSP16, literal(-3)))
          CFI (cfiCond201) DPL0 load(1, XDATA, add(CFA_XSP16, literal(-2)))
          CFI (cfiCond201) DPH0 load(1, XDATA, add(CFA_XSP16, literal(-1)))
          CFI (cfiCond201) CFA_SP SP+-2
          CFI (cfiCond201) CFA_XSP16 add(XSP16, 28)
          CFI Block cfiPicker202 Using cfiCommon1
          CFI (cfiPicker202) NoFunction
          CFI (cfiPicker202) Picker
        MOV       DPTR,#bdb_joiningDeviceList
          CFI EndBlock cfiCond200
          CFI EndBlock cfiCond201
          CFI EndBlock cfiPicker202
        REQUIRE ??Subroutine44_0
        ; // Fall through to label ??Subroutine44_0

        RSEG BANKED_CODE:HUGECODE:NOROOT(0)
??Subroutine44_0:
          CFI Block cfiCond203 Using cfiCommon0
          CFI Function bdb_TCjoiningDeviceComplete
          CFI Conditional ??CrossCallReturnLabel_78
          CFI R6 load(1, XDATA, add(CFA_XSP16, literal(-19)))
          CFI VB load(1, XDATA, add(CFA_XSP16, literal(-18)))
          CFI V0 load(1, XDATA, add(CFA_XSP16, literal(-17)))
          CFI V1 load(1, XDATA, add(CFA_XSP16, literal(-16)))
          CFI V2 load(1, XDATA, add(CFA_XSP16, literal(-15)))
          CFI V3 load(1, XDATA, add(CFA_XSP16, literal(-14)))
          CFI V4 load(1, XDATA, add(CFA_XSP16, literal(-13)))
          CFI V5 load(1, XDATA, add(CFA_XSP16, literal(-12)))
          CFI V6 load(1, XDATA, add(CFA_XSP16, literal(-11)))
          CFI V7 load(1, XDATA, add(CFA_XSP16, literal(-10)))
          CFI V8 load(1, XDATA, add(CFA_XSP16, literal(-9)))
          CFI V9 load(1, XDATA, add(CFA_XSP16, literal(-8)))
          CFI V10 load(1, XDATA, add(CFA_XSP16, literal(-7)))
          CFI R7 load(1, XDATA, add(CFA_XSP16, literal(-6)))
          CFI ?RET_LOW load(1, XDATA, add(CFA_XSP16, literal(-5)))
          CFI ?RET_HIGH load(1, XDATA, add(CFA_XSP16, literal(-4)))
          CFI ?BRET_EXT load(1, XDATA, add(CFA_XSP16, literal(-3)))
          CFI DPL0 load(1, XDATA, add(CFA_XSP16, literal(-2)))
          CFI DPH0 load(1, XDATA, add(CFA_XSP16, literal(-1)))
          CFI CFA_SP SP+-2
          CFI CFA_XSP16 add(XSP16, 28)
          CFI Block cfiCond204 Using cfiCommon0
          CFI (cfiCond204) Function bdb_AddRespondentNode
          CFI (cfiCond204) Conditional ??CrossCallReturnLabel_79, ??CrossCallReturnLabel_26
          CFI (cfiCond204) R6 load(1, XDATA, add(CFA_XSP16, literal(-10)))
          CFI (cfiCond204) VB load(1, XDATA, add(CFA_XSP16, literal(-9)))
          CFI (cfiCond204) V0 load(1, XDATA, add(CFA_XSP16, literal(-8)))
          CFI (cfiCond204) V1 load(1, XDATA, add(CFA_XSP16, literal(-7)))
          CFI (cfiCond204) R7 load(1, XDATA, add(CFA_XSP16, literal(-6)))
          CFI (cfiCond204) ?RET_LOW load(1, XDATA, add(CFA_XSP16, literal(-5)))
          CFI (cfiCond204) ?RET_HIGH load(1, XDATA, add(CFA_XSP16, literal(-4)))
          CFI (cfiCond204) ?BRET_EXT load(1, XDATA, add(CFA_XSP16, literal(-3)))
          CFI (cfiCond204) DPL0 load(1, XDATA, add(CFA_XSP16, literal(-2)))
          CFI (cfiCond204) DPH0 load(1, XDATA, add(CFA_XSP16, literal(-1)))
          CFI (cfiCond204) CFA_SP SP+-4
          CFI (cfiCond204) CFA_XSP16 add(XSP16, 10)
          CFI Block cfiCond205 Using cfiCommon0
          CFI (cfiCond205) Function bdb_AddRespondentNode
          CFI (cfiCond205) Conditional ??CrossCallReturnLabel_79, ??CrossCallReturnLabel_27
          CFI (cfiCond205) R6 load(1, XDATA, add(CFA_XSP16, literal(-10)))
          CFI (cfiCond205) VB load(1, XDATA, add(CFA_XSP16, literal(-9)))
          CFI (cfiCond205) V0 load(1, XDATA, add(CFA_XSP16, literal(-8)))
          CFI (cfiCond205) V1 load(1, XDATA, add(CFA_XSP16, literal(-7)))
          CFI (cfiCond205) R7 load(1, XDATA, add(CFA_XSP16, literal(-6)))
          CFI (cfiCond205) ?RET_LOW load(1, XDATA, add(CFA_XSP16, literal(-5)))
          CFI (cfiCond205) ?RET_HIGH load(1, XDATA, add(CFA_XSP16, literal(-4)))
          CFI (cfiCond205) ?BRET_EXT load(1, XDATA, add(CFA_XSP16, literal(-3)))
          CFI (cfiCond205) DPL0 load(1, XDATA, add(CFA_XSP16, literal(-2)))
          CFI (cfiCond205) DPH0 load(1, XDATA, add(CFA_XSP16, literal(-1)))
          CFI (cfiCond205) CFA_SP SP+-4
          CFI (cfiCond205) CFA_XSP16 add(XSP16, 10)
          CFI Block cfiCond206 Using cfiCommon0
          CFI (cfiCond206) Function bdb_TCAddJoiningDevice
          CFI (cfiCond206) Conditional ??CrossCallReturnLabel_80
          CFI (cfiCond206) R6 load(1, XDATA, add(CFA_XSP16, literal(-19)))
          CFI (cfiCond206) VB load(1, XDATA, add(CFA_XSP16, literal(-18)))
          CFI (cfiCond206) V0 load(1, XDATA, add(CFA_XSP16, literal(-17)))
          CFI (cfiCond206) V1 load(1, XDATA, add(CFA_XSP16, literal(-16)))
          CFI (cfiCond206) V2 load(1, XDATA, add(CFA_XSP16, literal(-15)))
          CFI (cfiCond206) V3 load(1, XDATA, add(CFA_XSP16, literal(-14)))
          CFI (cfiCond206) V4 load(1, XDATA, add(CFA_XSP16, literal(-13)))
          CFI (cfiCond206) V5 load(1, XDATA, add(CFA_XSP16, literal(-12)))
          CFI (cfiCond206) V6 load(1, XDATA, add(CFA_XSP16, literal(-11)))
          CFI (cfiCond206) V7 load(1, XDATA, add(CFA_XSP16, literal(-10)))
          CFI (cfiCond206) V8 load(1, XDATA, add(CFA_XSP16, literal(-9)))
          CFI (cfiCond206) V9 load(1, XDATA, add(CFA_XSP16, literal(-8)))
          CFI (cfiCond206) V10 load(1, XDATA, add(CFA_XSP16, literal(-7)))
          CFI (cfiCond206) R7 load(1, XDATA, add(CFA_XSP16, literal(-6)))
          CFI (cfiCond206) ?RET_LOW load(1, XDATA, add(CFA_XSP16, literal(-5)))
          CFI (cfiCond206) ?RET_HIGH load(1, XDATA, add(CFA_XSP16, literal(-4)))
          CFI (cfiCond206) ?BRET_EXT load(1, XDATA, add(CFA_XSP16, literal(-3)))
          CFI (cfiCond206) DPL0 load(1, XDATA, add(CFA_XSP16, literal(-2)))
          CFI (cfiCond206) DPH0 load(1, XDATA, add(CFA_XSP16, literal(-1)))
          CFI (cfiCond206) CFA_SP SP+-2
          CFI (cfiCond206) CFA_XSP16 add(XSP16, 28)
          CFI Block cfiCond207 Using cfiCommon0
          CFI (cfiCond207) Function bdb_TCjoiningDeviceComplete
          CFI (cfiCond207) Conditional ??CrossCallReturnLabel_81
          CFI (cfiCond207) R6 load(1, XDATA, add(CFA_XSP16, literal(-19)))
          CFI (cfiCond207) VB load(1, XDATA, add(CFA_XSP16, literal(-18)))
          CFI (cfiCond207) V0 load(1, XDATA, add(CFA_XSP16, literal(-17)))
          CFI (cfiCond207) V1 load(1, XDATA, add(CFA_XSP16, literal(-16)))
          CFI (cfiCond207) V2 load(1, XDATA, add(CFA_XSP16, literal(-15)))
          CFI (cfiCond207) V3 load(1, XDATA, add(CFA_XSP16, literal(-14)))
          CFI (cfiCond207) V4 load(1, XDATA, add(CFA_XSP16, literal(-13)))
          CFI (cfiCond207) V5 load(1, XDATA, add(CFA_XSP16, literal(-12)))
          CFI (cfiCond207) V6 load(1, XDATA, add(CFA_XSP16, literal(-11)))
          CFI (cfiCond207) V7 load(1, XDATA, add(CFA_XSP16, literal(-10)))
          CFI (cfiCond207) V8 load(1, XDATA, add(CFA_XSP16, literal(-9)))
          CFI (cfiCond207) V9 load(1, XDATA, add(CFA_XSP16, literal(-8)))
          CFI (cfiCond207) V10 load(1, XDATA, add(CFA_XSP16, literal(-7)))
          CFI (cfiCond207) R7 load(1, XDATA, add(CFA_XSP16, literal(-6)))
          CFI (cfiCond207) ?RET_LOW load(1, XDATA, add(CFA_XSP16, literal(-5)))
          CFI (cfiCond207) ?RET_HIGH load(1, XDATA, add(CFA_XSP16, literal(-4)))
          CFI (cfiCond207) ?BRET_EXT load(1, XDATA, add(CFA_XSP16, literal(-3)))
          CFI (cfiCond207) DPL0 load(1, XDATA, add(CFA_XSP16, literal(-2)))
          CFI (cfiCond207) DPH0 load(1, XDATA, add(CFA_XSP16, literal(-1)))
          CFI (cfiCond207) CFA_SP SP+-2
          CFI (cfiCond207) CFA_XSP16 add(XSP16, 28)
          CFI Block cfiPicker208 Using cfiCommon1
          CFI (cfiPicker208) NoFunction
          CFI (cfiPicker208) Picker
        MOVX      A,@DPTR
        MOV       R6,A
        INC       DPTR
        MOVX      A,@DPTR
        MOV       R7,A
        RET
          CFI EndBlock cfiCond203
          CFI EndBlock cfiCond204
          CFI EndBlock cfiCond205
          CFI EndBlock cfiCond206
          CFI EndBlock cfiCond207
          CFI EndBlock cfiPicker208

        RSEG BANKED_CODE:HUGECODE:NOROOT(0)
?Subroutine19:
          CFI Block cfiCond209 Using cfiCommon0
          CFI Function bdb_reportCommissioningState
          CFI Conditional ??CrossCallReturnLabel_87
          CFI R6 load(1, XDATA, add(CFA_XSP16, literal(-10)))
          CFI VB load(1, XDATA, add(CFA_XSP16, literal(-9)))
          CFI V0 load(1, XDATA, add(CFA_XSP16, literal(-8)))
          CFI V1 load(1, XDATA, add(CFA_XSP16, literal(-7)))
          CFI R7 load(1, XDATA, add(CFA_XSP16, literal(-6)))
          CFI ?RET_LOW load(1, XDATA, add(CFA_XSP16, literal(-5)))
          CFI ?RET_HIGH load(1, XDATA, add(CFA_XSP16, literal(-4)))
          CFI ?BRET_EXT load(1, XDATA, add(CFA_XSP16, literal(-3)))
          CFI DPL0 load(1, XDATA, add(CFA_XSP16, literal(-2)))
          CFI DPH0 load(1, XDATA, add(CFA_XSP16, literal(-1)))
          CFI CFA_SP SP+-2
          CFI CFA_XSP16 add(XSP16, 14)
          CFI Block cfiCond210 Using cfiCommon0
          CFI (cfiCond210) Function bdb_event_loop
          CFI (cfiCond210) Conditional ??CrossCallReturnLabel_88
          CFI (cfiCond210) R6 load(1, XDATA, add(CFA_XSP16, literal(-16)))
          CFI (cfiCond210) VB load(1, XDATA, add(CFA_XSP16, literal(-15)))
          CFI (cfiCond210) V0 load(1, XDATA, add(CFA_XSP16, literal(-14)))
          CFI (cfiCond210) V1 load(1, XDATA, add(CFA_XSP16, literal(-13)))
          CFI (cfiCond210) V2 load(1, XDATA, add(CFA_XSP16, literal(-12)))
          CFI (cfiCond210) V3 load(1, XDATA, add(CFA_XSP16, literal(-11)))
          CFI (cfiCond210) V4 load(1, XDATA, add(CFA_XSP16, literal(-10)))
          CFI (cfiCond210) V5 load(1, XDATA, add(CFA_XSP16, literal(-9)))
          CFI (cfiCond210) V6 load(1, XDATA, add(CFA_XSP16, literal(-8)))
          CFI (cfiCond210) V7 load(1, XDATA, add(CFA_XSP16, literal(-7)))
          CFI (cfiCond210) R7 load(1, XDATA, add(CFA_XSP16, literal(-6)))
          CFI (cfiCond210) ?RET_LOW load(1, XDATA, add(CFA_XSP16, literal(-5)))
          CFI (cfiCond210) ?RET_HIGH load(1, XDATA, add(CFA_XSP16, literal(-4)))
          CFI (cfiCond210) ?BRET_EXT load(1, XDATA, add(CFA_XSP16, literal(-3)))
          CFI (cfiCond210) DPL0 load(1, XDATA, add(CFA_XSP16, literal(-2)))
          CFI (cfiCond210) DPH0 load(1, XDATA, add(CFA_XSP16, literal(-1)))
          CFI (cfiCond210) CFA_SP SP+-2
          CFI (cfiCond210) CFA_XSP16 add(XSP16, 24)
          CFI Block cfiPicker211 Using cfiCommon1
          CFI (cfiPicker211) NoFunction
          CFI (cfiPicker211) Picker
        MOV       DPTR,#pRespondentHead
          CFI EndBlock cfiCond209
          CFI EndBlock cfiCond210
          CFI EndBlock cfiPicker211
        REQUIRE ??Subroutine45_0
        ; // Fall through to label ??Subroutine45_0

        RSEG BANKED_CODE:HUGECODE:NOROOT(0)
??Subroutine45_0:
          CFI Block cfiCond212 Using cfiCommon0
          CFI Function bdb_TCProcessJoiningList
          CFI Conditional ??CrossCallReturnLabel_82
          CFI R6 load(1, XDATA, add(CFA_XSP16, literal(-15)))
          CFI VB load(1, XDATA, add(CFA_XSP16, literal(-14)))
          CFI V0 load(1, XDATA, add(CFA_XSP16, literal(-13)))
          CFI V1 load(1, XDATA, add(CFA_XSP16, literal(-12)))
          CFI V2 load(1, XDATA, add(CFA_XSP16, literal(-11)))
          CFI V3 load(1, XDATA, add(CFA_XSP16, literal(-10)))
          CFI V4 load(1, XDATA, add(CFA_XSP16, literal(-9)))
          CFI V5 load(1, XDATA, add(CFA_XSP16, literal(-8)))
          CFI V6 load(1, XDATA, add(CFA_XSP16, literal(-7)))
          CFI R7 load(1, XDATA, add(CFA_XSP16, literal(-6)))
          CFI ?RET_LOW load(1, XDATA, add(CFA_XSP16, literal(-5)))
          CFI ?RET_HIGH load(1, XDATA, add(CFA_XSP16, literal(-4)))
          CFI ?BRET_EXT load(1, XDATA, add(CFA_XSP16, literal(-3)))
          CFI DPL0 load(1, XDATA, add(CFA_XSP16, literal(-2)))
          CFI DPH0 load(1, XDATA, add(CFA_XSP16, literal(-1)))
          CFI CFA_SP SP+-2
          CFI CFA_XSP16 add(XSP16, 59)
          CFI Block cfiCond213 Using cfiCommon0
          CFI (cfiCond213) Function bdb_TCJoiningDeviceFree
          CFI (cfiCond213) Conditional ??CrossCallReturnLabel_83
          CFI (cfiCond213) R6 load(1, XDATA, add(CFA_XSP16, literal(-15)))
          CFI (cfiCond213) VB load(1, XDATA, add(CFA_XSP16, literal(-14)))
          CFI (cfiCond213) V0 load(1, XDATA, add(CFA_XSP16, literal(-13)))
          CFI (cfiCond213) V1 load(1, XDATA, add(CFA_XSP16, literal(-12)))
          CFI (cfiCond213) V2 load(1, XDATA, add(CFA_XSP16, literal(-11)))
          CFI (cfiCond213) V3 load(1, XDATA, add(CFA_XSP16, literal(-10)))
          CFI (cfiCond213) V4 load(1, XDATA, add(CFA_XSP16, literal(-9)))
          CFI (cfiCond213) V5 load(1, XDATA, add(CFA_XSP16, literal(-8)))
          CFI (cfiCond213) V6 load(1, XDATA, add(CFA_XSP16, literal(-7)))
          CFI (cfiCond213) R7 load(1, XDATA, add(CFA_XSP16, literal(-6)))
          CFI (cfiCond213) ?RET_LOW load(1, XDATA, add(CFA_XSP16, literal(-5)))
          CFI (cfiCond213) ?RET_HIGH load(1, XDATA, add(CFA_XSP16, literal(-4)))
          CFI (cfiCond213) ?BRET_EXT load(1, XDATA, add(CFA_XSP16, literal(-3)))
          CFI (cfiCond213) DPL0 load(1, XDATA, add(CFA_XSP16, literal(-2)))
          CFI (cfiCond213) DPH0 load(1, XDATA, add(CFA_XSP16, literal(-1)))
          CFI (cfiCond213) CFA_SP SP+-2
          CFI (cfiCond213) CFA_XSP16 add(XSP16, 15)
          CFI Block cfiCond214 Using cfiCommon0
          CFI (cfiCond214) Function bdb_StartCommissioning
          CFI (cfiCond214) Conditional ??CrossCallReturnLabel_84
          CFI (cfiCond214) R6 load(1, XDATA, add(CFA_XSP16, literal(-12)))
          CFI (cfiCond214) VB load(1, XDATA, add(CFA_XSP16, literal(-11)))
          CFI (cfiCond214) V0 load(1, XDATA, add(CFA_XSP16, literal(-10)))
          CFI (cfiCond214) V1 load(1, XDATA, add(CFA_XSP16, literal(-9)))
          CFI (cfiCond214) V2 load(1, XDATA, add(CFA_XSP16, literal(-8)))
          CFI (cfiCond214) V3 load(1, XDATA, add(CFA_XSP16, literal(-7)))
          CFI (cfiCond214) R7 load(1, XDATA, add(CFA_XSP16, literal(-6)))
          CFI (cfiCond214) ?RET_LOW load(1, XDATA, add(CFA_XSP16, literal(-5)))
          CFI (cfiCond214) ?RET_HIGH load(1, XDATA, add(CFA_XSP16, literal(-4)))
          CFI (cfiCond214) ?BRET_EXT load(1, XDATA, add(CFA_XSP16, literal(-3)))
          CFI (cfiCond214) DPL0 load(1, XDATA, add(CFA_XSP16, literal(-2)))
          CFI (cfiCond214) DPH0 load(1, XDATA, add(CFA_XSP16, literal(-1)))
          CFI (cfiCond214) CFA_SP SP+-2
          CFI (cfiCond214) CFA_XSP16 add(XSP16, 97)
          CFI Block cfiCond215 Using cfiCommon0
          CFI (cfiCond215) Function bdb_AddRespondentNode
          CFI (cfiCond215) Conditional ??CrossCallReturnLabel_85
          CFI (cfiCond215) R6 load(1, XDATA, add(CFA_XSP16, literal(-10)))
          CFI (cfiCond215) VB load(1, XDATA, add(CFA_XSP16, literal(-9)))
          CFI (cfiCond215) V0 load(1, XDATA, add(CFA_XSP16, literal(-8)))
          CFI (cfiCond215) V1 load(1, XDATA, add(CFA_XSP16, literal(-7)))
          CFI (cfiCond215) R7 load(1, XDATA, add(CFA_XSP16, literal(-6)))
          CFI (cfiCond215) ?RET_LOW load(1, XDATA, add(CFA_XSP16, literal(-5)))
          CFI (cfiCond215) ?RET_HIGH load(1, XDATA, add(CFA_XSP16, literal(-4)))
          CFI (cfiCond215) ?BRET_EXT load(1, XDATA, add(CFA_XSP16, literal(-3)))
          CFI (cfiCond215) DPL0 load(1, XDATA, add(CFA_XSP16, literal(-2)))
          CFI (cfiCond215) DPH0 load(1, XDATA, add(CFA_XSP16, literal(-1)))
          CFI (cfiCond215) CFA_SP SP+-2
          CFI (cfiCond215) CFA_XSP16 add(XSP16, 10)
          CFI Block cfiCond216 Using cfiCommon0
          CFI (cfiCond216) Function bdb_GenerateInstallCodeCRC
          CFI (cfiCond216) Conditional ??CrossCallReturnLabel_86
          CFI (cfiCond216) DPL0 Frame(CFA_SP, 4)
          CFI (cfiCond216) DPH0 Frame(CFA_SP, 5)
          CFI (cfiCond216) CFA_SP SP+-7
          CFI (cfiCond216) CFA_XSP16 add(XSP16, 2)
          CFI Block cfiCond217 Using cfiCommon0
          CFI (cfiCond217) Function bdb_reportCommissioningState
          CFI (cfiCond217) Conditional ??CrossCallReturnLabel_87
          CFI (cfiCond217) R6 load(1, XDATA, add(CFA_XSP16, literal(-10)))
          CFI (cfiCond217) VB load(1, XDATA, add(CFA_XSP16, literal(-9)))
          CFI (cfiCond217) V0 load(1, XDATA, add(CFA_XSP16, literal(-8)))
          CFI (cfiCond217) V1 load(1, XDATA, add(CFA_XSP16, literal(-7)))
          CFI (cfiCond217) R7 load(1, XDATA, add(CFA_XSP16, literal(-6)))
          CFI (cfiCond217) ?RET_LOW load(1, XDATA, add(CFA_XSP16, literal(-5)))
          CFI (cfiCond217) ?RET_HIGH load(1, XDATA, add(CFA_XSP16, literal(-4)))
          CFI (cfiCond217) ?BRET_EXT load(1, XDATA, add(CFA_XSP16, literal(-3)))
          CFI (cfiCond217) DPL0 load(1, XDATA, add(CFA_XSP16, literal(-2)))
          CFI (cfiCond217) DPH0 load(1, XDATA, add(CFA_XSP16, literal(-1)))
          CFI (cfiCond217) CFA_SP SP+-2
          CFI (cfiCond217) CFA_XSP16 add(XSP16, 14)
          CFI Block cfiCond218 Using cfiCommon0
          CFI (cfiCond218) Function bdb_event_loop
          CFI (cfiCond218) Conditional ??CrossCallReturnLabel_88
          CFI (cfiCond218) R6 load(1, XDATA, add(CFA_XSP16, literal(-16)))
          CFI (cfiCond218) VB load(1, XDATA, add(CFA_XSP16, literal(-15)))
          CFI (cfiCond218) V0 load(1, XDATA, add(CFA_XSP16, literal(-14)))
          CFI (cfiCond218) V1 load(1, XDATA, add(CFA_XSP16, literal(-13)))
          CFI (cfiCond218) V2 load(1, XDATA, add(CFA_XSP16, literal(-12)))
          CFI (cfiCond218) V3 load(1, XDATA, add(CFA_XSP16, literal(-11)))
          CFI (cfiCond218) V4 load(1, XDATA, add(CFA_XSP16, literal(-10)))
          CFI (cfiCond218) V5 load(1, XDATA, add(CFA_XSP16, literal(-9)))
          CFI (cfiCond218) V6 load(1, XDATA, add(CFA_XSP16, literal(-8)))
          CFI (cfiCond218) V7 load(1, XDATA, add(CFA_XSP16, literal(-7)))
          CFI (cfiCond218) R7 load(1, XDATA, add(CFA_XSP16, literal(-6)))
          CFI (cfiCond218) ?RET_LOW load(1, XDATA, add(CFA_XSP16, literal(-5)))
          CFI (cfiCond218) ?RET_HIGH load(1, XDATA, add(CFA_XSP16, literal(-4)))
          CFI (cfiCond218) ?BRET_EXT load(1, XDATA, add(CFA_XSP16, literal(-3)))
          CFI (cfiCond218) DPL0 load(1, XDATA, add(CFA_XSP16, literal(-2)))
          CFI (cfiCond218) DPH0 load(1, XDATA, add(CFA_XSP16, literal(-1)))
          CFI (cfiCond218) CFA_SP SP+-2
          CFI (cfiCond218) CFA_XSP16 add(XSP16, 24)
          CFI Block cfiPicker219 Using cfiCommon1
          CFI (cfiPicker219) NoFunction
          CFI (cfiPicker219) Picker
        MOVX      A,@DPTR
        MOV       R2,A
        INC       DPTR
        MOVX      A,@DPTR
        MOV       R3,A
        RET
          CFI EndBlock cfiCond212
          CFI EndBlock cfiCond213
          CFI EndBlock cfiCond214
          CFI EndBlock cfiCond215
          CFI EndBlock cfiCond216
          CFI EndBlock cfiCond217
          CFI EndBlock cfiCond218
          CFI EndBlock cfiPicker219
// 2994 
// 2995 /*********************************************************************
// 2996  * @fn      bdb_zclRespondentListClean
// 2997  *
// 2998  * @brief   This function free reserved memory for respondent list
// 2999  *
// 3000  * @param   pHead - begin of the respondent list
// 3001  *
// 3002  * @return  status
// 3003  */

        RSEG BANKED_CODE:HUGECODE:NOROOT(0)
// 3004 void bdb_zclRespondentListClean( bdbFindingBindingRespondent_t **pHead )
bdb_zclRespondentListClean:
          CFI Block cfiBlock220 Using cfiCommon0
          CFI Function bdb_zclRespondentListClean
        CODE
// 3005 {
        FUNCALL bdb_zclRespondentListClean, osal_mem_free
        LOCFRAME ISTACK, 0, STACK
        LOCFRAME PSTACK, 0, STACK
        LOCFRAME XSTACK, 12, STACK
        LOCFRAME IOVERLAY, 0, STATIC
        LOCFRAME DOVERLAY, 0, STATIC
        ARGFRAME ISTACK, 0, STACK
        ARGFRAME PSTACK, 0, STACK
        ARGFRAME XSTACK, 12, STACK
        ARGFRAME IOVERLAY, 0, STATIC
        ARGFRAME DOVERLAY, 0, STATIC
        REQUIRE ?V0
        REQUIRE ?V1
        REQUIRE ?V2
        REQUIRE ?V3
        MOV       A,#-0xc
        LCALL     ?BANKED_ENTER_XDATA
          CFI DPH0 load(1, XDATA, add(CFA_XSP16, literal(-1)))
          CFI DPL0 load(1, XDATA, add(CFA_XSP16, literal(-2)))
          CFI ?BRET_EXT load(1, XDATA, add(CFA_XSP16, literal(-3)))
          CFI ?RET_HIGH load(1, XDATA, add(CFA_XSP16, literal(-4)))
          CFI ?RET_LOW load(1, XDATA, add(CFA_XSP16, literal(-5)))
          CFI R7 load(1, XDATA, add(CFA_XSP16, literal(-6)))
          CFI V3 load(1, XDATA, add(CFA_XSP16, literal(-7)))
          CFI V2 load(1, XDATA, add(CFA_XSP16, literal(-8)))
          CFI V1 load(1, XDATA, add(CFA_XSP16, literal(-9)))
          CFI V0 load(1, XDATA, add(CFA_XSP16, literal(-10)))
          CFI VB load(1, XDATA, add(CFA_XSP16, literal(-11)))
          CFI R6 load(1, XDATA, add(CFA_XSP16, literal(-12)))
          CFI CFA_SP SP+0
          CFI CFA_XSP16 add(XSP16, 12)
        ; Saved register size: 12
        ; Auto size: 0
        LCALL     ?Subroutine12 & 0xFFFF
// 3006   bdbFindingBindingRespondent_t **pCurr;
// 3007   bdbFindingBindingRespondent_t **pNext;
// 3008   
// 3009   if ( *pHead == NULL )
??CrossCallReturnLabel_52:
        JZ        ??bdb_zclRespondentListClean_0
// 3010   {
// 3011     return;
// 3012   }
// 3013   
// 3014   pCurr = pHead;
        MOV       ?V0,R6
        MOV       ?V1,R7
        SJMP      ??bdb_zclRespondentListClean_1
// 3015   
// 3016   while( *pCurr != NULL )
// 3017   {
// 3018     pNext = &((*pCurr)->pNext);
??bdb_zclRespondentListClean_2:
        MOV       A,R2
        ADD       A,#0xf
        MOV       ?V2,A
        CLR       A
        ADDC      A,R3
        MOV       ?V3,A
// 3019     osal_mem_free( *pCurr );
        ; Setup parameters for call to function osal_mem_free
        LCALL     `??osal_mem_free::?relay`; Banked call to: osal_mem_free
// 3020     *pCurr = ( bdbFindingBindingRespondent_t* )NULL;
        MOV       DPL,?V0
        MOV       DPH,?V1
        CLR       A
        MOVX      @DPTR,A
        INC       DPTR
        MOVX      @DPTR,A
// 3021     pCurr = pNext;
        MOV       ?V0,?V2
        MOV       ?V1,?V3
// 3022   }
??bdb_zclRespondentListClean_1:
        MOV       DPL,?V0
        MOV       DPH,?V1
        LCALL     ?Subroutine14 & 0xFFFF
??CrossCallReturnLabel_8:
        JNZ       ??bdb_zclRespondentListClean_2
// 3023   *pHead = NULL;
        MOV       DPL,R6
        MOV       DPH,R7
        CLR       A
        MOVX      @DPTR,A
        INC       DPTR
        MOVX      @DPTR,A
// 3024 }
??bdb_zclRespondentListClean_0:
        LJMP      ??Subroutine37_0 & 0xFFFF
          CFI EndBlock cfiBlock220
// 3025 
// 3026  /*********************************************************************
// 3027  * PRIVATE FUNCTIONS
// 3028  *********************************************************************/
// 3029 
// 3030 /*********************************************************************
// 3031  * @fn      bdb_ProcessOSALMsg
// 3032  *
// 3033  * @brief   Process the incoming task message.
// 3034  *
// 3035  * @param   msgPtr - message to process
// 3036  *
// 3037  * @return  none
// 3038  */
// 3039 void bdb_ProcessOSALMsg( bdbInMsg_t *msgPtr )
// 3040 {
// 3041   
// 3042   switch(msgPtr->hdr.event)
// 3043   {
// 3044 #if (ZG_BUILD_JOINING_TYPE)
// 3045     case BDB_COMMISSIONING_STATE_JOINING:
// 3046       if(ZG_DEVICE_JOINING_TYPE)
// 3047       {
// 3048         switch(msgPtr->buf[0])
// 3049         {
// 3050           case BDB_JOIN_EVENT_NWK_DISCOVERY:
// 3051             if(msgPtr->hdr.status == BDB_MSG_EVENT_SUCCESS)
// 3052             {
// 3053               bdb_filterNwkDisc();
// 3054               bdb_tryNwkAssoc();
// 3055             }
// 3056             else
// 3057             {
// 3058               bdb_nwkDiscoveryAttempt(FALSE);
// 3059             }
// 3060           break;
// 3061           
// 3062           case BDB_JOIN_EVENT_ASSOCIATION:
// 3063             if(msgPtr->hdr.status == BDB_MSG_EVENT_SUCCESS)
// 3064             {
// 3065               bdbCommissioningProcedureState.bdbJoinState = BDB_JOIN_STATE_WAITING_NWK_KEY;
// 3066               //Nwk key timeout get right timing
// 3067               osal_start_timerEx(bdb_TaskID,BDB_PROCESS_TIMEOUT, BDB_DEFAULT_DEVICE_UNAUTH_TIMEOUT);
// 3068             }
// 3069             else
// 3070             {
// 3071               if ( (NLME_GetShortAddr() != INVALID_NODE_ADDR) ||
// 3072                    (_NIB.nwkDevAddress != INVALID_NODE_ADDR) )
// 3073               {
// 3074                 uint16 addr = INVALID_NODE_ADDR;
// 3075                 // Invalidate nwk addr so end device does not use in its data reqs.
// 3076                 _NIB.nwkDevAddress = INVALID_NODE_ADDR;
// 3077                 ZMacSetReq( ZMacShortAddress, (uint8 *)&addr );
// 3078               }
// 3079 
// 3080               //Clear the neighbor Table and network discovery tables.
// 3081               nwkNeighborInitTable();
// 3082               NLME_NwkDiscTerm();
// 3083               _NIB.nwkState = NWK_INIT;
// 3084               
// 3085               bdb_tryNwkAssoc();
// 3086             }
// 3087           break;
// 3088         }
// 3089       }
// 3090     break;
// 3091     
// 3092     case BDB_COMMISSIONING_STATE_TC_LINK_KEY_EXCHANGE:
// 3093       if(ZG_DEVICE_JOINING_TYPE)
// 3094       {
// 3095         if(msgPtr->hdr.status != BDB_MSG_EVENT_SUCCESS)
// 3096         {
// 3097           bdbAttributes.bdbTCLinkKeyExchangeAttempts++;
// 3098           if(bdbAttributes.bdbTCLinkKeyExchangeAttempts > bdbAttributes.bdbTCLinkKeyExchangeAttemptsMax)
// 3099           {
// 3100             //TCLK process fail due to many attempts fails
// 3101             bdb_reportCommissioningState(BDB_COMMISSIONING_STATE_TC_LINK_KEY_EXCHANGE, FALSE);
// 3102             return;
// 3103           }
// 3104         }
// 3105         switch(bdbCommissioningProcedureState.bdbTCExchangeState)
// 3106         {
// 3107           case BDB_REQ_TC_STACK_VERSION:
// 3108             bdb_requestTCStackVersion();
// 3109           break;
// 3110           case BDB_REQ_TC_LINK_KEY:
// 3111             bdb_requestTCLinkKey();
// 3112           break;
// 3113           case BDB_REQ_VERIFY_TC_LINK_KEY:
// 3114             bdb_requestVerifyTCLinkKey();
// 3115           break;
// 3116         }
// 3117       }
// 3118    break;
// 3119 #endif
// 3120    }
// 3121 }
// 3122 
// 3123 
// 3124 /*********************************************************************
// 3125  * @fn      bdb_processTimeout
// 3126  *
// 3127  * @brief   Handles timeout of the bdb process
// 3128  *
// 3129  * @param   msgPtr - message to process
// 3130  *
// 3131  * @return  none
// 3132  */
// 3133 void bdb_processTimeout(void)
// 3134 {
// 3135 #if (ZG_BUILD_JOINING_TYPE)
// 3136   if(ZG_DEVICE_JOINING_TYPE)
// 3137   {
// 3138     switch(bdbCommissioningProcedureState.bdbCommissioningState)
// 3139     {
// 3140       case BDB_COMMISSIONING_STATE_TC_LINK_KEY_EXCHANGE:
// 3141         
// 3142         bdb_tcLinkKeyExchangeAttempt(FALSE,bdbCommissioningProcedureState.bdbTCExchangeState);
// 3143       break;
// 3144       case BDB_COMMISSIONING_STATE_JOINING:
// 3145         if(bdbCommissioningProcedureState.bdbJoinState == BDB_JOIN_STATE_WAITING_NWK_KEY)
// 3146         {
// 3147           //If nwk key fails, then try association again
// 3148           bdbCommissioningProcedureState.bdbJoinState = BDB_JOIN_STATE_ASSOC;
// 3149           bdb_nwkAssocAttemt(FALSE);
// 3150         }
// 3151       break;
// 3152     }
// 3153   }
// 3154 #endif
// 3155   
// 3156 }
// 3157 
// 3158 
// 3159 /*********************************************************************
// 3160  * @fn      bdb_SendMsg
// 3161  *
// 3162  * @brief   Send messages to bdb processing with the expected format
// 3163  *
// 3164  * @param   msgPtr - message to process
// 3165  *
// 3166  * @return  none
// 3167  */

        RSEG BANKED_CODE:HUGECODE:NOROOT(0)
// 3168 void bdb_SendMsg(uint8 taskID, uint8 toCommissioningState,uint8 status, uint8 len, uint8 *buf)
bdb_SendMsg:
          CFI Block cfiBlock221 Using cfiCommon0
          CFI Function bdb_SendMsg
        CODE
// 3169 {
        FUNCALL bdb_SendMsg, osal_msg_allocate
        LOCFRAME ISTACK, 0, STACK
        LOCFRAME PSTACK, 0, STACK
        LOCFRAME XSTACK, 17, STACK
        LOCFRAME IOVERLAY, 0, STATIC
        LOCFRAME DOVERLAY, 0, STATIC
        ARGFRAME ISTACK, 0, STACK
        ARGFRAME PSTACK, 0, STACK
        ARGFRAME XSTACK, 17, STACK
        ARGFRAME IOVERLAY, 0, STATIC
        ARGFRAME DOVERLAY, 0, STATIC
        FUNCALL bdb_SendMsg, osal_memcpy
        LOCFRAME ISTACK, 0, STACK
        LOCFRAME PSTACK, 0, STACK
        LOCFRAME XSTACK, 20, STACK
        LOCFRAME IOVERLAY, 0, STATIC
        LOCFRAME DOVERLAY, 0, STATIC
        ARGFRAME ISTACK, 0, STACK
        ARGFRAME PSTACK, 0, STACK
        ARGFRAME XSTACK, 20, STACK
        ARGFRAME IOVERLAY, 0, STATIC
        ARGFRAME DOVERLAY, 0, STATIC
        FUNCALL bdb_SendMsg, osal_msg_send
        LOCFRAME ISTACK, 0, STACK
        LOCFRAME PSTACK, 0, STACK
        LOCFRAME XSTACK, 17, STACK
        LOCFRAME IOVERLAY, 0, STATIC
        LOCFRAME DOVERLAY, 0, STATIC
        ARGFRAME ISTACK, 0, STACK
        ARGFRAME PSTACK, 0, STACK
        ARGFRAME XSTACK, 17, STACK
        ARGFRAME IOVERLAY, 0, STATIC
        ARGFRAME DOVERLAY, 0, STATIC
        REQUIRE ?V0
        REQUIRE ?V1
        REQUIRE ?V2
        REQUIRE ?V3
        REQUIRE ?V4
        REQUIRE ?V5
        REQUIRE ?V6
        REQUIRE ?V7
        REQUIRE ?V8
        MOV       A,#-0x11
        LCALL     ?BANKED_ENTER_XDATA
          CFI DPH0 load(1, XDATA, add(CFA_XSP16, literal(-1)))
          CFI DPL0 load(1, XDATA, add(CFA_XSP16, literal(-2)))
          CFI ?BRET_EXT load(1, XDATA, add(CFA_XSP16, literal(-3)))
          CFI ?RET_HIGH load(1, XDATA, add(CFA_XSP16, literal(-4)))
          CFI ?RET_LOW load(1, XDATA, add(CFA_XSP16, literal(-5)))
          CFI R7 load(1, XDATA, add(CFA_XSP16, literal(-6)))
          CFI V8 load(1, XDATA, add(CFA_XSP16, literal(-7)))
          CFI V7 load(1, XDATA, add(CFA_XSP16, literal(-8)))
          CFI V6 load(1, XDATA, add(CFA_XSP16, literal(-9)))
          CFI V5 load(1, XDATA, add(CFA_XSP16, literal(-10)))
          CFI V4 load(1, XDATA, add(CFA_XSP16, literal(-11)))
          CFI V3 load(1, XDATA, add(CFA_XSP16, literal(-12)))
          CFI V2 load(1, XDATA, add(CFA_XSP16, literal(-13)))
          CFI V1 load(1, XDATA, add(CFA_XSP16, literal(-14)))
          CFI V0 load(1, XDATA, add(CFA_XSP16, literal(-15)))
          CFI VB load(1, XDATA, add(CFA_XSP16, literal(-16)))
          CFI R6 load(1, XDATA, add(CFA_XSP16, literal(-17)))
          CFI CFA_SP SP+0
          CFI CFA_XSP16 add(XSP16, 17)
        ; Saved register size: 17
        ; Auto size: 0
        MOV       ?V2,R1
        MOV       ?V7,R2
        MOV       ?V8,R3
        MOV       ?V3,R4
// 3170   bdbInMsg_t *msgPtr = NULL;
// 3171 
// 3172   if ( (len > 0) && (buf != NULL) )
        MOV       A,R4
        JZ        ??bdb_SendMsg_0
        MOV       A,#0x11
        LCALL     ?XSTACK_DISP0_8
        LCALL     ?Subroutine20 & 0xFFFF
??CrossCallReturnLabel_20:
        JZ        ??bdb_SendMsg_0
// 3173   {
// 3174     uint8 tmpLength;
// 3175     tmpLength = len;
// 3176     tmpLength += sizeof(osal_event_hdr_t);
// 3177     
// 3178     msgPtr = (bdbInMsg_t *)osal_msg_allocate( tmpLength );
        ; Setup parameters for call to function osal_msg_allocate
        MOV       A,#0x2
        ADD       A,R4
        MOV       R2,A
        MOV       R3,#0x0
        LCALL     `??osal_msg_allocate::?relay`; Banked call to: osal_msg_allocate
        MOV       ?V4,R2
        MOV       ?V5,R3
        MOV       R6,?V4
        MOV       R7,?V5
// 3179     
// 3180     if ( msgPtr )
        MOV       A,R6
        ORL       A,R7
        JZ        ??bdb_SendMsg_0
// 3181     {
// 3182       osal_memcpy( msgPtr->buf, buf, len );
        ; Setup parameters for call to function osal_memcpy
        MOV       ?V4,?V0
        MOV       ?V5,?V1
        MOV       ?V6,#0x0
        MOV       R0,#?V4
        LCALL     ?PUSH_XSTACK_I_THREE
          CFI CFA_XSP16 add(XSP16, 20)
        MOV       R4,?V3
        MOV       R5,#0x0
        MOV       A,R6
        ADD       A,#0x2
        MOV       R2,A
        CLR       A
        ADDC      A,R7
        MOV       R3,A
        LCALL     `??osal_memcpy::?relay`; Banked call to: osal_memcpy
        MOV       A,#0x3
        LCALL     ?DEALLOC_XSTACK8
          CFI CFA_XSP16 add(XSP16, 17)
// 3183     
// 3184       msgPtr->hdr.event = toCommissioningState;
        MOV       DPL,R6
        MOV       DPH,R7
        MOV       A,?V7
        MOVX      @DPTR,A
// 3185       msgPtr->hdr.status = status;
        INC       DPTR
        MOV       A,?V8
        MOVX      @DPTR,A
// 3186       osal_msg_send( taskID, (uint8 *)msgPtr );
        ; Setup parameters for call to function osal_msg_send
        MOV       A,R6
        MOV       R2,A
        MOV       A,R7
        MOV       R3,A
        MOV       R1,?V2
        LCALL     `??osal_msg_send::?relay`; Banked call to: osal_msg_send
// 3187     }
// 3188   }
// 3189 }
??bdb_SendMsg_0:
        MOV       R7,#0x9
        LJMP      ?BANKED_LEAVE_XDATA
          CFI EndBlock cfiBlock221

        RSEG BANKED_CODE:HUGECODE:NOROOT(0)
?Subroutine20:
          CFI Block cfiCond222 Using cfiCommon0
          CFI Function bdb_TCProcessJoiningList
          CFI Conditional ??CrossCallReturnLabel_19
          CFI R6 load(1, XDATA, add(CFA_XSP16, literal(-15)))
          CFI VB load(1, XDATA, add(CFA_XSP16, literal(-14)))
          CFI V0 load(1, XDATA, add(CFA_XSP16, literal(-13)))
          CFI V1 load(1, XDATA, add(CFA_XSP16, literal(-12)))
          CFI V2 load(1, XDATA, add(CFA_XSP16, literal(-11)))
          CFI V3 load(1, XDATA, add(CFA_XSP16, literal(-10)))
          CFI V4 load(1, XDATA, add(CFA_XSP16, literal(-9)))
          CFI V5 load(1, XDATA, add(CFA_XSP16, literal(-8)))
          CFI V6 load(1, XDATA, add(CFA_XSP16, literal(-7)))
          CFI R7 load(1, XDATA, add(CFA_XSP16, literal(-6)))
          CFI ?RET_LOW load(1, XDATA, add(CFA_XSP16, literal(-5)))
          CFI ?RET_HIGH load(1, XDATA, add(CFA_XSP16, literal(-4)))
          CFI ?BRET_EXT load(1, XDATA, add(CFA_XSP16, literal(-3)))
          CFI DPL0 load(1, XDATA, add(CFA_XSP16, literal(-2)))
          CFI DPH0 load(1, XDATA, add(CFA_XSP16, literal(-1)))
          CFI CFA_SP SP+-2
          CFI CFA_XSP16 add(XSP16, 57)
          CFI Block cfiCond223 Using cfiCommon0
          CFI (cfiCond223) Function bdb_SendMsg
          CFI (cfiCond223) Conditional ??CrossCallReturnLabel_20
          CFI (cfiCond223) R6 load(1, XDATA, add(CFA_XSP16, literal(-17)))
          CFI (cfiCond223) VB load(1, XDATA, add(CFA_XSP16, literal(-16)))
          CFI (cfiCond223) V0 load(1, XDATA, add(CFA_XSP16, literal(-15)))
          CFI (cfiCond223) V1 load(1, XDATA, add(CFA_XSP16, literal(-14)))
          CFI (cfiCond223) V2 load(1, XDATA, add(CFA_XSP16, literal(-13)))
          CFI (cfiCond223) V3 load(1, XDATA, add(CFA_XSP16, literal(-12)))
          CFI (cfiCond223) V4 load(1, XDATA, add(CFA_XSP16, literal(-11)))
          CFI (cfiCond223) V5 load(1, XDATA, add(CFA_XSP16, literal(-10)))
          CFI (cfiCond223) V6 load(1, XDATA, add(CFA_XSP16, literal(-9)))
          CFI (cfiCond223) V7 load(1, XDATA, add(CFA_XSP16, literal(-8)))
          CFI (cfiCond223) V8 load(1, XDATA, add(CFA_XSP16, literal(-7)))
          CFI (cfiCond223) R7 load(1, XDATA, add(CFA_XSP16, literal(-6)))
          CFI (cfiCond223) ?RET_LOW load(1, XDATA, add(CFA_XSP16, literal(-5)))
          CFI (cfiCond223) ?RET_HIGH load(1, XDATA, add(CFA_XSP16, literal(-4)))
          CFI (cfiCond223) ?BRET_EXT load(1, XDATA, add(CFA_XSP16, literal(-3)))
          CFI (cfiCond223) DPL0 load(1, XDATA, add(CFA_XSP16, literal(-2)))
          CFI (cfiCond223) DPH0 load(1, XDATA, add(CFA_XSP16, literal(-1)))
          CFI (cfiCond223) CFA_SP SP+-2
          CFI (cfiCond223) CFA_XSP16 add(XSP16, 17)
          CFI Block cfiPicker224 Using cfiCommon1
          CFI (cfiPicker224) NoFunction
          CFI (cfiPicker224) Picker
        MOVX      A,@DPTR
        MOV       ?V0,A
        INC       DPTR
        MOVX      A,@DPTR
        MOV       ?V1,A
        MOV       A,?V0
        ORL       A,?V1
        RET
          CFI EndBlock cfiCond222
          CFI EndBlock cfiCond223
          CFI EndBlock cfiPicker224
// 3190 
// 3191 
// 3192 /*********************************************************************
// 3193  * @fn      bdb_RegisterCommissioningStatusCB
// 3194  *
// 3195  * @brief   Register a callback in which the status of the procedures done in
// 3196  *          BDB commissioning process will be reported
// 3197  *
// 3198  * @param   bdbGCB_CommissioningStatus - application callback
// 3199  *
// 3200  * @return  none
// 3201  */

        RSEG BANKED_CODE:HUGECODE:NOROOT(0)
// 3202 void bdb_RegisterCommissioningStatusCB(bdbGCB_CommissioningStatus_t bdbGCB_CommissioningStatus)
bdb_RegisterCommissioningStatusCB:
          CFI Block cfiBlock225 Using cfiCommon0
          CFI Function bdb_RegisterCommissioningStatusCB
        CODE
// 3203 {
        PUSH      DPL
          CFI DPL0 Frame(CFA_SP, 4)
          CFI CFA_SP SP+-4
        PUSH      DPH
          CFI DPH0 Frame(CFA_SP, 5)
          CFI CFA_SP SP+-5
        ; Saved register size: 2
        ; Auto size: 0
// 3204   pfnCommissioningStatusCB = bdbGCB_CommissioningStatus;
        MOV       DPTR,#pfnCommissioningStatusCB
        LJMP      ?Subroutine3 & 0xFFFF
// 3205 }
          CFI EndBlock cfiBlock225
// 3206 
// 3207 /*********************************************************************
// 3208  * @fn      bdb_ClearNetworkParams
// 3209  *
// 3210  * @brief   Restore nwk parameters to invalid if the device is not on a network
// 3211  *
// 3212  * @param   void
// 3213  *
// 3214  * @return  void
// 3215  */

        RSEG BANKED_CODE:HUGECODE:NOROOT(0)
// 3216 void bdb_ClearNetworkParams(void)
bdb_ClearNetworkParams:
          CFI Block cfiBlock226 Using cfiCommon0
          CFI Function bdb_ClearNetworkParams
        CODE
// 3217 {
        ; Saved register size: 0
        ; Auto size: 0
// 3218 #if (BDB_TOUCHLINK_CAPABILITY_ENABLED == TRUE)
// 3219   if ( bdbAttributes.bdbNodeIsOnANetwork == FALSE )
// 3220   {
// 3221     //Clear the event
// 3222     _NIB.nwkPanId = INVALID_NODE_ADDR;
// 3223     _NIB.nwkLogicalChannel = 0;
// 3224     _NIB.nwkDevAddress = INVALID_NODE_ADDR;
// 3225     touchLink_SetMacNwkParams( _NIB.nwkDevAddress, _NIB.nwkPanId, _NIB.nwkLogicalChannel );
// 3226   }
// 3227 #endif
// 3228 }
        LJMP      ?BRET
          CFI EndBlock cfiBlock226
// 3229 
// 3230 /*********************************************************************
// 3231  * @fn      bdb_getZCLFrameCounter
// 3232  *
// 3233  * @brief   Get the next ZCL Frame Counter for packet sequence number
// 3234  *
// 3235  * @param   none
// 3236  *
// 3237  * @return  next ZCL frame counter
// 3238  */

        RSEG BANKED_CODE:HUGECODE:NOROOT(0)
// 3239 uint8 bdb_getZCLFrameCounter(void)
bdb_getZCLFrameCounter:
          CFI Block cfiBlock227 Using cfiCommon0
          CFI Function bdb_getZCLFrameCounter
        CODE
// 3240 {
        PUSH      DPL
          CFI DPL0 Frame(CFA_SP, 4)
          CFI CFA_SP SP+-4
        PUSH      DPH
          CFI DPH0 Frame(CFA_SP, 5)
          CFI CFA_SP SP+-5
        ; Saved register size: 2
        ; Auto size: 0
// 3241   bdb_ZclTransactionSequenceNumber++;
        MOV       DPTR,#bdb_ZclTransactionSequenceNumber
        MOVX      A,@DPTR
        INC       A
        MOVX      @DPTR,A
// 3242   return bdb_ZclTransactionSequenceNumber;
        LJMP      ??Subroutine35_0 & 0xFFFF
// 3243 
// 3244 }
          CFI EndBlock cfiBlock227
// 3245 
// 3246 
// 3247 #if (ZG_BUILD_JOINING_TYPE)
// 3248 /*********************************************************************
// 3249  * @fn      bdb_RegisterCBKETCLinkKeyExchangeCB
// 3250  *
// 3251  * @brief   Register a callback in which the TC link key exchange procedure will 
// 3252  *          be performed by application.
// 3253  *          Upon fail or success bdb must be notified, see bdb_CBKETCLinkKeyExchangeAttempt
// 3254  *
// 3255  * @param   bdbGCB_TCLinkKeyExchangeMethod - application callback
// 3256  *
// 3257  * @return  none
// 3258  */
// 3259 void bdb_RegisterCBKETCLinkKeyExchangeCB(bdbGCB_CBKETCLinkKeyExchange_t bdbGCB_CBKETCLinkKeyExchange)
// 3260 {
// 3261   if(bdbGCB_CBKETCLinkKeyExchange)
// 3262   {
// 3263     pfnCBKETCLinkKeyExchange = bdbGCB_CBKETCLinkKeyExchange;
// 3264     bdbAttributes.bdbTCLinkKeyExchangeMethod = BDB_TC_LINK_KEY_EXCHANGE_CBKE;
// 3265   }
// 3266   else
// 3267   {
// 3268     pfnCBKETCLinkKeyExchange = NULL;
// 3269     bdbAttributes.bdbTCLinkKeyExchangeMethod = BDB_TC_LINK_KEY_EXCHANGE_APS_KEY;
// 3270   }
// 3271 }
// 3272 
// 3273 /*********************************************************************
// 3274  * @fn      bdb_RegisterForFilterNwkDescCB
// 3275  *
// 3276  * @brief   Register a callback in which the application gets the list of network
// 3277  *          descriptors got from active scan.
// 3278  *          Use bdb_nwkDescFree to release the network descriptors that are not 
// 3279  *          of interest and leave those which are to be attempted.
// 3280  *
// 3281  * @param   bdbGCB_FilterNwkDesc - application callback
// 3282  *
// 3283  * @return  none
// 3284  */
// 3285 void bdb_RegisterForFilterNwkDescCB(bdbGCB_FilterNwkDesc_t bdbGCB_FilterNwkDesc)
// 3286 {
// 3287   if(bdbGCB_FilterNwkDesc)
// 3288   {
// 3289     pfnFilterNwkDesc = bdbGCB_FilterNwkDesc;
// 3290   }
// 3291 }
// 3292 
// 3293 
// 3294 /*********************************************************************
// 3295  * @fn          bdb_CBKETCLinkKeyExchangeAttempt
// 3296  *
// 3297  * @brief       Tell BDB module the result of the TC link key exchange, to try
// 3298  *              the default process or to keep going with the joining process.
// 3299  *
// 3300  * @param       didSuccess - TRUE if the process was succes, False otherwise
// 3301  *
// 3302  * @return      unprocessed events
// 3303  */
// 3304 void bdb_CBKETCLinkKeyExchangeAttempt(bool didSuccess)
// 3305 {
// 3306   if(didSuccess)
// 3307   {
// 3308     bdb_setNodeJoinLinkKeyType(BDB_DEFAULT_GLOBAL_TRUST_CENTER_LINK_KEY);
// 3309     bdb_reportCommissioningState(BDB_COMMISSIONING_STATE_TC_LINK_KEY_EXCHANGE, TRUE);
// 3310   }
// 3311   else
// 3312   {
// 3313     bdbAttributes.bdbTCLinkKeyExchangeMethod = BDB_TC_LINK_KEY_EXCHANGE_APS_KEY;
// 3314     //We are going back one state to try it again
// 3315     bdbCommissioningProcedureState.bdbTCExchangeState -= BDB_TC_EXCHANGE_NEXT_STATE;
// 3316     bdb_tcLinkKeyExchangeAttempt(TRUE,BDB_REQ_TC_STACK_VERSION);
// 3317   }
// 3318 
// 3319 }
// 3320 #endif
// 3321 
// 3322 #if !defined (DISABLE_GREENPOWER_BASIC_PROXY) && (ZG_BUILD_RTR_TYPE)
// 3323 
// 3324 /*********************************************************************
// 3325  * @fn      gp_ChangeChannelReq
// 3326  *
// 3327  * @brief   Callback function to notify the BDB about a GP commissioning 
// 3328  * request that will change the current channel for at most 
// 3329  * gpBirectionalCommissioningChangeChannelTimeout ms
// 3330  *
// 3331  * @param   channel - Channel in which the commissioning will take place
// 3332  *
// 3333  * @return  TRUE to allow change channel, FALSE to do not allow
// 3334  */

        RSEG BANKED_CODE:HUGECODE:NOROOT(0)
// 3335 static uint8 gp_ChangeChannelReq(void)
gp_ChangeChannelReq:
          CFI Block cfiBlock228 Using cfiCommon0
          CFI Function gp_ChangeChannelReq
        CODE
// 3336 {
        PUSH      DPL
          CFI DPL0 Frame(CFA_SP, 4)
          CFI CFA_SP SP+-4
        PUSH      DPH
          CFI DPH0 Frame(CFA_SP, 5)
          CFI CFA_SP SP+-5
        ; Saved register size: 2
        ; Auto size: 0
// 3337   uint8 allowChangeChannel = TRUE;
        MOV       R1,#0x1
// 3338   
// 3339   //Do not allow changes of channel if any process is in place
// 3340   if(bdbAttributes.bdbCommissioningMode)
        MOV       DPTR,#bdbAttributes + 11
        MOVX      A,@DPTR
        JZ        ??gp_ChangeChannelReq_0
// 3341   {
// 3342     allowChangeChannel = FALSE;
        MOV       R1,#0x0
// 3343   }
// 3344   
// 3345   //Check application state to decide if allow change channel or not
// 3346   
// 3347   return allowChangeChannel;
??gp_ChangeChannelReq_0:
        LJMP      ??Subroutine34_0 & 0xFFFF
// 3348 }
          CFI EndBlock cfiBlock228
// 3349 
// 3350 
// 3351 /*********************************************************************
// 3352  * @fn          gp_CBInit
// 3353  *
// 3354  * @brief       Register the callbacks for GP endpoint
// 3355  *
// 3356  * @param       none
// 3357  *
// 3358  * @return      none
// 3359  */
// 3360 void gp_CBInit(void)
// 3361 {
// 3362   GP_DataCnfGCB = GP_DataCnf;
// 3363   GP_endpointInitGCB = gp_endpointInit;  
// 3364   GP_expireDuplicateFilteringGCB = gp_expireDuplicateFiltering;
// 3365   GP_stopCommissioningModeGCB = gp_stopCommissioningMode;
// 3366   GP_returnOperationalChannelGCB = gp_returnOperationalChannel;
// 3367   GP_DataIndGCB = GP_DataInd;
// 3368   GP_SecReqGCB = GP_SecReq;   
// 3369   GP_CheckAnnouncedDeviceGCB = gp_CheckAnnouncedDevice;
// 3370     
// 3371   GP_aliasConflictAnnce = &aliasConflictAnnce;
// 3372   
// 3373   GP_endpointInitGCB();
// 3374 }
// 3375 
// 3376 #endif
// 3377 
// 3378 /*********************************************************************
// 3379 *********************************************************************/
// 3380 
// 3381 
// 3382 /******************************************************************************
// 3383  * @fn          bdb_GenerateInstallCodeCRC
// 3384  *
// 3385  * @brief       Creates a CRC for the install code passed.
// 3386  *
// 3387  * @param       installCode - install code from which CRC will be generated
// 3388  *
// 3389  * @return      CRC
// 3390  */

        RSEG BANKED_CODE:HUGECODE:NOROOT(0)
// 3391 uint16 bdb_GenerateInstallCodeCRC(uint8 *installCode)
bdb_GenerateInstallCodeCRC:
          CFI Block cfiBlock229 Using cfiCommon0
          CFI Function bdb_GenerateInstallCodeCRC
        CODE
// 3392 {
        FUNCALL bdb_GenerateInstallCodeCRC, bdb_calculateCCITT_CRC
        LOCFRAME ISTACK, 2, STACK
        LOCFRAME PSTACK, 0, STACK
        LOCFRAME XSTACK, 6, STACK
        LOCFRAME IOVERLAY, 0, STATIC
        LOCFRAME DOVERLAY, 0, STATIC
        ARGFRAME ISTACK, 2, STACK
        ARGFRAME PSTACK, 0, STACK
        ARGFRAME XSTACK, 6, STACK
        ARGFRAME IOVERLAY, 0, STATIC
        ARGFRAME DOVERLAY, 0, STATIC
        PUSH      DPL
          CFI DPL0 Frame(CFA_SP, 4)
          CFI CFA_SP SP+-4
        PUSH      DPH
          CFI DPH0 Frame(CFA_SP, 5)
          CFI CFA_SP SP+-5
        ; Saved register size: 2
        ; Auto size: 2
        MOV       A,#-0x2
        LCALL     ?ALLOC_XSTACK8
          CFI CFA_XSP16 add(XSP16, 2)
// 3393   uint16 CRC;
// 3394   
// 3395   bdb_calculateCCITT_CRC(installCode, INSTALL_CODE_LEN, &CRC);
        ; Setup parameters for call to function bdb_calculateCCITT_CRC
        MOV       DPTR,#__Constant_10
        LCALL     ?PUSH_XSTACK8_X_FOUR
          CFI CFA_XSP16 add(XSP16, 6)
        MOV       A,#0x4
        LCALL     ?XSTACK_DISP102_8
        LCALL     `??bdb_calculateCCITT_CRC::?relay`; Banked call to: bdb_calculateCCITT_CRC
        MOV       A,#0x4
        LCALL     ?DEALLOC_XSTACK8
          CFI CFA_XSP16 add(XSP16, 2)
// 3396 
// 3397   return CRC;
        MOV       DPL,?XSP + 0
        MOV       DPH,?XSP + 1
        LCALL     ??Subroutine45_0 & 0xFFFF
??CrossCallReturnLabel_86:
        MOV       A,#0x2
        LJMP      ?Subroutine6 & 0xFFFF
// 3398 }
          CFI EndBlock cfiBlock229
// 3399 
// 3400 /******************************************************************************
// 3401  * @fn          bdb_calculateCCITT_CRC
// 3402  *
// 3403  * @brief       Creates a CRC for the install code passed.
// 3404  *
// 3405  * @param       Mb - install code from which CRC will be generated
// 3406  * @param       msglen - install code length
// 3407  * @param       crc - 
// 3408  *
// 3409  * @return      none
// 3410  */

        RSEG BANKED_CODE:HUGECODE:NOROOT(0)
// 3411 void bdb_calculateCCITT_CRC (uint8 *Mb, uint32 msglen, uint16 *crc)
bdb_calculateCCITT_CRC:
          CFI Block cfiBlock230 Using cfiCommon0
          CFI Function bdb_calculateCCITT_CRC
        CODE
// 3412 {
        FUNCALL bdb_calculateCCITT_CRC, bdb_crcInit
        LOCFRAME ISTACK, 0, STACK
        LOCFRAME PSTACK, 0, STACK
        LOCFRAME XSTACK, 18, STACK
        LOCFRAME IOVERLAY, 0, STATIC
        LOCFRAME DOVERLAY, 0, STATIC
        ARGFRAME ISTACK, 0, STACK
        ARGFRAME PSTACK, 0, STACK
        ARGFRAME XSTACK, 18, STACK
        ARGFRAME IOVERLAY, 0, STATIC
        ARGFRAME DOVERLAY, 0, STATIC
        FUNCALL bdb_calculateCCITT_CRC, bdb_crcBitByBitFast
        LOCFRAME ISTACK, 0, STACK
        LOCFRAME PSTACK, 0, STACK
        LOCFRAME XSTACK, 22, STACK
        LOCFRAME IOVERLAY, 0, STATIC
        LOCFRAME DOVERLAY, 0, STATIC
        ARGFRAME ISTACK, 0, STACK
        ARGFRAME PSTACK, 0, STACK
        ARGFRAME XSTACK, 22, STACK
        ARGFRAME IOVERLAY, 0, STATIC
        ARGFRAME DOVERLAY, 0, STATIC
        REQUIRE ?V0
        REQUIRE ?V1
        REQUIRE ?V2
        REQUIRE ?V3
        MOV       A,#-0xc
        LCALL     ?BANKED_ENTER_XDATA
          CFI DPH0 load(1, XDATA, add(CFA_XSP16, literal(-1)))
          CFI DPL0 load(1, XDATA, add(CFA_XSP16, literal(-2)))
          CFI ?BRET_EXT load(1, XDATA, add(CFA_XSP16, literal(-3)))
          CFI ?RET_HIGH load(1, XDATA, add(CFA_XSP16, literal(-4)))
          CFI ?RET_LOW load(1, XDATA, add(CFA_XSP16, literal(-5)))
          CFI R7 load(1, XDATA, add(CFA_XSP16, literal(-6)))
          CFI V3 load(1, XDATA, add(CFA_XSP16, literal(-7)))
          CFI V2 load(1, XDATA, add(CFA_XSP16, literal(-8)))
          CFI V1 load(1, XDATA, add(CFA_XSP16, literal(-9)))
          CFI V0 load(1, XDATA, add(CFA_XSP16, literal(-10)))
          CFI VB load(1, XDATA, add(CFA_XSP16, literal(-11)))
          CFI R6 load(1, XDATA, add(CFA_XSP16, literal(-12)))
          CFI CFA_SP SP+0
          CFI CFA_XSP16 add(XSP16, 12)
        ; Saved register size: 12
        ; Auto size: 4
        MOV       A,#-0x4
        LCALL     ?ALLOC_XSTACK8
          CFI CFA_XSP16 add(XSP16, 16)
        MOV       A,R2
        MOV       R6,A
        MOV       A,R3
        MOV       R7,A
        MOV       ?V0,R4
        MOV       ?V1,R5
// 3413   uint16 crcinit_direct; 
// 3414   uint16 crcinit_nondirect;
// 3415   bdb_crcInit(crc, &crcinit_direct, &crcinit_nondirect);
        ; Setup parameters for call to function bdb_crcInit
        MOV       R0,?XSP + 0
        MOV       R1,?XSP + 1
        MOV       ?V2,R0
        MOV       ?V3,R1
        MOV       R0,#?V2
        LCALL     ?PUSH_XSTACK_I_TWO
          CFI CFA_XSP16 add(XSP16, 18)
        MOV       A,#0x4
        LCALL     ?XSTACK_DISP102_8
        MOV       R2,?V0
        MOV       R3,?V1
        LCALL     `??bdb_crcInit::?relay`; Banked call to: bdb_crcInit
        MOV       A,#0x2
        LCALL     ?DEALLOC_XSTACK8
          CFI CFA_XSP16 add(XSP16, 16)
// 3416   *crc = bdb_crcBitByBitFast(Mb, msglen, crcinit_direct, crcinit_nondirect);
        ; Setup parameters for call to function bdb_crcBitByBitFast
        MOV       DPL,?XSP + 0
        MOV       DPH,?XSP + 1
        LCALL     ?PUSH_XSTACK8_X_TWO
          CFI CFA_XSP16 add(XSP16, 18)
        MOV       A,#0x12
        LCALL     ?XSTACK_DISP0_8
        LCALL     ?PUSH_XSTACK8_X_FOUR
          CFI CFA_XSP16 add(XSP16, 22)
        MOV       A,#0x8
        LCALL     ?XSTACK_DISP0_8
        MOVX      A,@DPTR
        MOV       R4,A
        INC       DPTR
        MOVX      A,@DPTR
        MOV       R5,A
        MOV       A,R6
        MOV       R2,A
        MOV       A,R7
        MOV       R3,A
        LCALL     `??bdb_crcBitByBitFast::?relay`; Banked call to: bdb_crcBitByBitFast
        MOV       A,#0x6
        LCALL     ?DEALLOC_XSTACK8
          CFI CFA_XSP16 add(XSP16, 16)
        MOV       DPL,?V0
        MOV       DPH,?V1
        MOV       A,R2
        MOVX      @DPTR,A
        INC       DPTR
        MOV       A,R3
        MOVX      @DPTR,A
// 3417 }
        LJMP      ?Subroutine2 & 0xFFFF
          CFI EndBlock cfiBlock230
// 3418 
// 3419 
// 3420 /******************************************************************************
// 3421  * @fn          bdb_crcInit
// 3422  *
// 3423  * @brief       Initialize CRC calculation
// 3424  *
// 3425  * @param       crc - 
// 3426  * @param       crcinit_direct -
// 3427  * @param       crcinit_nondirect - 
// 3428  *
// 3429  * @return      none
// 3430  */

        RSEG BANKED_CODE:HUGECODE:NOROOT(0)
// 3431 void bdb_crcInit(uint16 *crc, uint16 *crcinit_direct, uint16 *crcinit_nondirect)
bdb_crcInit:
          CFI Block cfiBlock231 Using cfiCommon0
          CFI Function bdb_crcInit
        CODE
// 3432 {
        MOV       A,#-0x9
        LCALL     ?BANKED_ENTER_XDATA
          CFI DPH0 load(1, XDATA, add(CFA_XSP16, literal(-1)))
          CFI DPL0 load(1, XDATA, add(CFA_XSP16, literal(-2)))
          CFI ?BRET_EXT load(1, XDATA, add(CFA_XSP16, literal(-3)))
          CFI ?RET_HIGH load(1, XDATA, add(CFA_XSP16, literal(-4)))
          CFI ?RET_LOW load(1, XDATA, add(CFA_XSP16, literal(-5)))
          CFI R7 load(1, XDATA, add(CFA_XSP16, literal(-6)))
          CFI V0 load(1, XDATA, add(CFA_XSP16, literal(-7)))
          CFI VB load(1, XDATA, add(CFA_XSP16, literal(-8)))
          CFI R6 load(1, XDATA, add(CFA_XSP16, literal(-9)))
          CFI CFA_SP SP+0
          CFI CFA_XSP16 add(XSP16, 9)
        ; Saved register size: 9
        ; Auto size: 0
// 3433 
// 3434   uint16 i;
// 3435   uint16 bit;
// 3436 
// 3437   *crcinit_direct = CRC_INIT;
        MOV       DPL,R4
        MOV       DPH,R5
        MOV       A,#-0x1
        MOVX      @DPTR,A
        INC       DPTR
        MOVX      @DPTR,A
// 3438   *crc = CRC_INIT;
        MOV       DPL,R2
        MOV       DPH,R3
        MOVX      @DPTR,A
        INC       DPTR
        MOVX      @DPTR,A
// 3439   for (i=0; i<CRC_ORDER; i++) 
        MOV       R6,#0x10
// 3440   {
// 3441     bit = *crc & 1;
??bdb_crcInit_0:
        MOV       DPL,R2
        MOV       DPH,R3
        MOVX      A,@DPTR
        MOV       R0,A
// 3442     if (bit) *crc^= CRC_POLYNOM;
        MOV       C,0xE0 /* A   */.0
        JNC       ??bdb_crcInit_1
        XRL       A,#0x21
        MOVX      @DPTR,A
        INC       DPTR
        MOVX      A,@DPTR
        XRL       A,#0x10
        MOVX      @DPTR,A
// 3443     *crc >>= 1;
??bdb_crcInit_1:
        MOV       DPL,R2
        MOV       DPH,R3
        MOVX      A,@DPTR
        MOV       R4,A
        INC       DPTR
        MOVX      A,@DPTR
        CLR       C
        RRC       A
        MOV       R5,A
        MOV       A,R4
        RRC       A
        MOV       DPL,R2
        MOV       DPH,R3
        MOVX      @DPTR,A
        INC       DPTR
        MOV       A,R5
        MOVX      @DPTR,A
// 3444     if (bit) *crc|= CRC_HIGHBIT;
        MOV       A,R0
        MOV       C,0xE0 /* A   */.0
        JNC       ??bdb_crcInit_2
        MOV       DPL,R2
        MOV       DPH,R3
        INC       DPTR
        MOVX      A,@DPTR
        ORL       A,#0x80
        MOVX      @DPTR,A
// 3445   }	
??bdb_crcInit_2:
        DEC       R6
        MOV       A,R6
        JNZ       ??bdb_crcInit_0
// 3446   *crcinit_nondirect = *crc;
        MOV       DPL,R2
        MOV       DPH,R3
        LCALL     ?Subroutine28 & 0xFFFF
??CrossCallReturnLabel_71:
        MOV       A,#0x9
        LCALL     ?XSTACK_DISP0_8
        MOVX      A,@DPTR
        MOV       R2,A
        INC       DPTR
        MOVX      A,@DPTR
        MOV       DPH,A
        MOV       DPL,R2
        MOV       A,R0
        MOVX      @DPTR,A
        INC       DPTR
        MOV       A,R1
        MOVX      @DPTR,A
// 3447 
// 3448 }
        LJMP      ?Subroutine0 & 0xFFFF
          CFI EndBlock cfiBlock231
// 3449 
// 3450 
// 3451 /******************************************************************************
// 3452  * @fn          bdb_crcReflect
// 3453  *
// 3454  * @brief       
// 3455  *
// 3456  * @param       crc - 
// 3457  * @param       bitnum -
// 3458  *
// 3459  * @return      none
// 3460  */

        RSEG BANKED_CODE:HUGECODE:NOROOT(0)
// 3461 uint16 bdb_crcReflect (uint16 crc, uint16 bitnum)
bdb_crcReflect:
          CFI Block cfiBlock232 Using cfiCommon0
          CFI Function bdb_crcReflect
        CODE
// 3462 {
        REQUIRE ?V0
        REQUIRE ?V1
        REQUIRE ?V2
        REQUIRE ?V3
        MOV       A,#-0xc
        LCALL     ?BANKED_ENTER_XDATA
          CFI DPH0 load(1, XDATA, add(CFA_XSP16, literal(-1)))
          CFI DPL0 load(1, XDATA, add(CFA_XSP16, literal(-2)))
          CFI ?BRET_EXT load(1, XDATA, add(CFA_XSP16, literal(-3)))
          CFI ?RET_HIGH load(1, XDATA, add(CFA_XSP16, literal(-4)))
          CFI ?RET_LOW load(1, XDATA, add(CFA_XSP16, literal(-5)))
          CFI R7 load(1, XDATA, add(CFA_XSP16, literal(-6)))
          CFI V3 load(1, XDATA, add(CFA_XSP16, literal(-7)))
          CFI V2 load(1, XDATA, add(CFA_XSP16, literal(-8)))
          CFI V1 load(1, XDATA, add(CFA_XSP16, literal(-9)))
          CFI V0 load(1, XDATA, add(CFA_XSP16, literal(-10)))
          CFI VB load(1, XDATA, add(CFA_XSP16, literal(-11)))
          CFI R6 load(1, XDATA, add(CFA_XSP16, literal(-12)))
          CFI CFA_SP SP+0
          CFI CFA_XSP16 add(XSP16, 12)
        ; Saved register size: 12
        ; Auto size: 0
// 3463 
// 3464   // reflects the lower 'bitnum' bits of 'crc'
// 3465 
// 3466   uint16 i, j=1, crcout=0;
        MOV       R6,#0x1
        MOV       R7,#0x0
        MOV       ?V0,R7
        MOV       ?V1,R7
// 3467 
// 3468   for (i=(uint16)1<<(bitnum-1); i; i>>=1) {
        MOV       ?V2,R6
        MOV       ?V3,R7
        MOV       A,R4
        DEC       A
        MOV       R0,#?V2
        LCALL     ?S_SHL
        MOV       R0,?V2
        MOV       R1,?V3
        SJMP      ??bdb_crcReflect_0
// 3469     if (crc & i) crcout|=j;
??bdb_crcReflect_1:
        MOV       A,R2
        ANL       A,R0
        MOV       R4,A
        MOV       A,R3
        ANL       A,R1
        MOV       R5,A
        MOV       A,R4
        ORL       A,R5
        JZ        ??bdb_crcReflect_2
        MOV       A,R6
        ORL       A,?V0
        MOV       ?V0,A
        MOV       A,R7
        ORL       A,?V1
        MOV       ?V1,A
// 3470     j<<= 1;
??bdb_crcReflect_2:
        MOV       A,R6
        ADD       A,0xE0 /* A   */
        MOV       R6,A
        MOV       A,R7
        RLC       A
        MOV       R7,A
// 3471   }
        MOV       A,R1
        CLR       C
        RRC       A
        MOV       R1,A
        MOV       A,R0
        RRC       A
        MOV       R0,A
??bdb_crcReflect_0:
        MOV       A,R0
        ORL       A,R1
        JNZ       ??bdb_crcReflect_1
// 3472   return (crcout);
        MOV       R2,?V0
        MOV       R3,?V1
        LJMP      ??Subroutine37_0 & 0xFFFF
// 3473 }
          CFI EndBlock cfiBlock232
// 3474 
// 3475 
// 3476 /******************************************************************************
// 3477  * @fn          bdb_crcBitByBitFast
// 3478  *
// 3479  * @brief       
// 3480  *
// 3481  * @param       p - 
// 3482  * @param       len -
// 3483  * @param       crcinit_direct - 
// 3484  * @param       crcinit_nondirect -
// 3485  *
// 3486  * @return      crc
// 3487  */

        RSEG BANKED_CODE:HUGECODE:NOROOT(0)
// 3488 uint16 bdb_crcBitByBitFast(uint8 * p, uint32 len, uint16 crcinit_direct, uint16 crcinit_nondirect) 
bdb_crcBitByBitFast:
          CFI Block cfiBlock233 Using cfiCommon0
          CFI Function bdb_crcBitByBitFast
        CODE
// 3489 {
        FUNCALL bdb_crcBitByBitFast, bdb_crcReflect
        LOCFRAME ISTACK, 0, STACK
        LOCFRAME PSTACK, 0, STACK
        LOCFRAME XSTACK, 20, STACK
        LOCFRAME IOVERLAY, 0, STATIC
        LOCFRAME DOVERLAY, 0, STATIC
        ARGFRAME ISTACK, 0, STACK
        ARGFRAME PSTACK, 0, STACK
        ARGFRAME XSTACK, 20, STACK
        ARGFRAME IOVERLAY, 0, STATIC
        ARGFRAME DOVERLAY, 0, STATIC
        FUNCALL bdb_crcBitByBitFast, bdb_crcReflect
        LOCFRAME ISTACK, 0, STACK
        LOCFRAME PSTACK, 0, STACK
        LOCFRAME XSTACK, 20, STACK
        LOCFRAME IOVERLAY, 0, STATIC
        LOCFRAME DOVERLAY, 0, STATIC
        ARGFRAME ISTACK, 0, STACK
        ARGFRAME PSTACK, 0, STACK
        ARGFRAME XSTACK, 20, STACK
        ARGFRAME IOVERLAY, 0, STATIC
        ARGFRAME DOVERLAY, 0, STATIC
        REQUIRE ?V0
        REQUIRE ?V1
        REQUIRE ?V2
        REQUIRE ?V3
        REQUIRE ?V4
        REQUIRE ?V5
        REQUIRE ?V6
        REQUIRE ?V7
        REQUIRE ?V8
        REQUIRE ?V9
        REQUIRE ?V10
        REQUIRE ?V11
        MOV       A,#-0x14
        LCALL     ?BANKED_ENTER_XDATA
          CFI DPH0 load(1, XDATA, add(CFA_XSP16, literal(-1)))
          CFI DPL0 load(1, XDATA, add(CFA_XSP16, literal(-2)))
          CFI ?BRET_EXT load(1, XDATA, add(CFA_XSP16, literal(-3)))
          CFI ?RET_HIGH load(1, XDATA, add(CFA_XSP16, literal(-4)))
          CFI ?RET_LOW load(1, XDATA, add(CFA_XSP16, literal(-5)))
          CFI R7 load(1, XDATA, add(CFA_XSP16, literal(-6)))
          CFI V11 load(1, XDATA, add(CFA_XSP16, literal(-7)))
          CFI V10 load(1, XDATA, add(CFA_XSP16, literal(-8)))
          CFI V9 load(1, XDATA, add(CFA_XSP16, literal(-9)))
          CFI V8 load(1, XDATA, add(CFA_XSP16, literal(-10)))
          CFI V7 load(1, XDATA, add(CFA_XSP16, literal(-11)))
          CFI V6 load(1, XDATA, add(CFA_XSP16, literal(-12)))
          CFI V5 load(1, XDATA, add(CFA_XSP16, literal(-13)))
          CFI V4 load(1, XDATA, add(CFA_XSP16, literal(-14)))
          CFI V3 load(1, XDATA, add(CFA_XSP16, literal(-15)))
          CFI V2 load(1, XDATA, add(CFA_XSP16, literal(-16)))
          CFI V1 load(1, XDATA, add(CFA_XSP16, literal(-17)))
          CFI V0 load(1, XDATA, add(CFA_XSP16, literal(-18)))
          CFI VB load(1, XDATA, add(CFA_XSP16, literal(-19)))
          CFI R6 load(1, XDATA, add(CFA_XSP16, literal(-20)))
          CFI CFA_SP SP+0
          CFI CFA_XSP16 add(XSP16, 20)
        ; Saved register size: 20
        ; Auto size: 0
        MOV       ?V2,R2
        MOV       ?V3,R3
// 3490   // fast bit by bit algorithm without augmented zero bytes.
// 3491   // does not use lookup table, suited for polynom orders between 1...32.
// 3492 
// 3493   uint16 i, j, c, bit;
// 3494   uint16 crc = crcinit_direct;
        MOV       A,R4
        MOV       R6,A
        MOV       A,R5
        MOV       R7,A
// 3495 
// 3496   for (i=0; i<len; i++) {
        MOV       ?V0,#0x0
        MOV       ?V1,#0x0
        MOV       A,#0x14
        LCALL     ?XSTACK_DISP0_8
        MOV       R0,#?V8
        LCALL     ?L_MOV_X
        SJMP      ??bdb_crcBitByBitFast_0
// 3497 
// 3498     c = (uint16)*p++;
??bdb_crcBitByBitFast_1:
        MOV       DPL,?V2
        MOV       DPH,?V3
        MOVX      A,@DPTR
        MOV       R2,A
        MOV       R3,#0x0
        INC       DPTR
        MOV       ?V2,DPL
        MOV       ?V3,DPH
// 3499     c = bdb_crcReflect(c, 8);
        ; Setup parameters for call to function bdb_crcReflect
        MOV       R4,#0x8
        MOV       R5,#0x0
        LCALL     `??bdb_crcReflect::?relay`; Banked call to: bdb_crcReflect
// 3500 
// 3501     for (j=0x80; j; j>>=1) {
        MOV       R0,#-0x80
// 3502 
// 3503       bit = crc & CRC_HIGHBIT;
??bdb_crcBitByBitFast_2:
        MOV       A,R7
        ANL       A,#0x80
        MOV       R5,A
// 3504       crc<<= 1;
        MOV       A,R6
        ADD       A,0xE0 /* A   */
        MOV       R6,A
        MOV       A,R7
        RLC       A
        MOV       R7,A
// 3505       if (c & j) bit^= CRC_HIGHBIT;
        MOV       A,R2
        ANL       A,R0
        JZ        ??bdb_crcBitByBitFast_3
        MOV       A,#-0x80
        XRL       A,R5
        MOV       R5,A
// 3506       if (bit) crc^= CRC_POLYNOM;
??bdb_crcBitByBitFast_3:
        MOV       A,R5
        JZ        ??bdb_crcBitByBitFast_4
        MOV       A,#0x21
        XRL       A,R6
        MOV       R6,A
        MOV       A,#0x10
        XRL       A,R7
        MOV       R7,A
// 3507     }
??bdb_crcBitByBitFast_4:
        CLR       C
        MOV       A,R0
        RRC       A
        MOV       R0,A
        JNZ       ??bdb_crcBitByBitFast_2
// 3508   }	
        INC       ?V0
        MOV       A,?V0
        JNZ       ??bdb_crcBitByBitFast_0
        INC       ?V1
??bdb_crcBitByBitFast_0:
        MOV       ?V4,?V0
        MOV       ?V5,?V1
        CLR       A
        MOV       ?V6,A
        MOV       ?V7,A
        MOV       R0,#?V8
        MOV       R1,#?V4
        LCALL     ?UL_GT
        JC        ??bdb_crcBitByBitFast_1
// 3509 
// 3510   crc=bdb_crcReflect(crc, CRC_ORDER);
// 3511   crc^= CRC_XOR;
// 3512 
// 3513   return(crc);
        ; Setup parameters for call to function bdb_crcReflect
        MOV       R4,#0x10
        MOV       R5,#0x0
        MOV       A,R6
        MOV       R2,A
        MOV       A,R7
        MOV       R3,A
        LCALL     `??bdb_crcReflect::?relay`; Banked call to: bdb_crcReflect
        MOV       A,R2
        CPL       A
        MOV       R2,A
        MOV       A,R3
        CPL       A
        MOV       R3,A
        MOV       R7,#0xc
        LJMP      ?BANKED_LEAVE_XDATA
// 3514 }
          CFI EndBlock cfiBlock233

        RSEG XDATA_ID:CODE:NOROOT(0)
`?<Initializer for bdbAttributes>`:
        DATA32
        DD 133167104
        DD 1048576
        DATA16
        DW 65535
        DATA8
        DB 0
        DB 0
        DB 7
        DB 4
        DB 0
        DB 0
        DB 15
        DB 1

        RSEG XDATA_ID:CODE:NOROOT(0)
`?<Initializer for vDoPrimaryScan>`:
        DATA8
        DB 1

        RSEG XDATA_ID:CODE:NOROOT(0)
`?<Initializer for zgBdbInstallCodeCRC>`:
        DATA8
        DB 131
        DB 254
        DB 211
        DB 64
        DB 122
        DB 147
        DB 151
        DB 35
        DB 165
        DB 198
        DB 57
        DB 178
        DB 105
        DB 22
        DB 213
        DB 5
        DB 195
        DB 181

        RSEG BANK_RELAYS:CODE:REORDER:NOROOT(0)
`??bdb_Init::?relay`:
        CODE
        LCALL   ?BDISPATCH
        DATA24
        DC24    bdb_Init

        RSEG BANK_RELAYS:CODE:REORDER:NOROOT(0)
`??bdb_RegisterSimpleDescriptor::?relay`:
        CODE
        LCALL   ?BDISPATCH
        DATA24
        DC24    bdb_RegisterSimpleDescriptor

        RSEG BANK_RELAYS:CODE:REORDER:NOROOT(0)
`??bdb_ZclIdentifyCmdInd::?relay`:
        CODE
        LCALL   ?BDISPATCH
        DATA24
        DC24    bdb_ZclIdentifyCmdInd

        RSEG BANK_RELAYS:CODE:REORDER:NOROOT(0)
`??bdb_addInstallCode::?relay`:
        CODE
        LCALL   ?BDISPATCH
        DATA24
        DC24    bdb_addInstallCode

        RSEG BANK_RELAYS:CODE:REORDER:NOROOT(0)
`??bdb_RegisterTCLinkKeyExchangeProcessCB::?rela`:
        CODE
        LCALL   ?BDISPATCH
        DATA24
        DC24    bdb_RegisterTCLinkKeyExchangeProcessCB

        RSEG BANK_RELAYS:CODE:REORDER:NOROOT(0)
`??bdb_setTCRequireKeyExchange::?relay`:
        CODE
        LCALL   ?BDISPATCH
        DATA24
        DC24    bdb_setTCRequireKeyExchange

        RSEG BANK_RELAYS:CODE:REORDER:NOROOT(0)
`??bdb_TCAddJoiningDevice::?relay`:
        CODE
        LCALL   ?BDISPATCH
        DATA24
        DC24    bdb_TCAddJoiningDevice

        RSEG BANK_RELAYS:CODE:REORDER:NOROOT(0)
`??bdb_TCProcessJoiningList::?relay`:
        CODE
        LCALL   ?BDISPATCH
        DATA24
        DC24    bdb_TCProcessJoiningList

        RSEG BANK_RELAYS:CODE:REORDER:NOROOT(0)
`??bdb_TCjoiningDeviceComplete::?relay`:
        CODE
        LCALL   ?BDISPATCH
        DATA24
        DC24    bdb_TCjoiningDeviceComplete

        RSEG BANK_RELAYS:CODE:REORDER:NOROOT(0)
`??bdb_TCJoiningDeviceFree::?relay`:
        CODE
        LCALL   ?BDISPATCH
        DATA24
        DC24    bdb_TCJoiningDeviceFree

        RSEG BANK_RELAYS:CODE:REORDER:NOROOT(0)
`??bdb_setJoinUsesInstallCodeKey::?relay`:
        CODE
        LCALL   ?BDISPATCH
        DATA24
        DC24    bdb_setJoinUsesInstallCodeKey

        RSEG BANK_RELAYS:CODE:REORDER:NOROOT(0)
`??bdb_StartCommissioning::?relay`:
        CODE
        LCALL   ?BDISPATCH
        DATA24
        DC24    bdb_StartCommissioning

        RSEG BANK_RELAYS:CODE:REORDER:NOROOT(0)
`??bdb_NotifyCommissioningModeStart::?relay`:
        CODE
        LCALL   ?BDISPATCH
        DATA24
        DC24    bdb_NotifyCommissioningModeStart

        RSEG BANK_RELAYS:CODE:REORDER:NOROOT(0)
`??bdb_setFN::?relay`:
        CODE
        LCALL   ?BDISPATCH
        DATA24
        DC24    bdb_setFN

        RSEG BANK_RELAYS:CODE:REORDER:NOROOT(0)
`??bdb_resetLocalAction::?relay`:
        CODE
        LCALL   ?BDISPATCH
        DATA24
        DC24    bdb_resetLocalAction

        RSEG BANK_RELAYS:CODE:REORDER:NOROOT(0)
`??bdb_parentLost::?relay`:
        CODE
        LCALL   ?BDISPATCH
        DATA24
        DC24    bdb_parentLost

        RSEG BANK_RELAYS:CODE:REORDER:NOROOT(0)
`??bdb_NetworkRestoredResumeState::?relay`:
        CODE
        LCALL   ?BDISPATCH
        DATA24
        DC24    bdb_NetworkRestoredResumeState

        RSEG BANK_RELAYS:CODE:REORDER:NOROOT(0)
`??bdb_reportCommissioningState::?relay`:
        CODE
        LCALL   ?BDISPATCH
        DATA24
        DC24    bdb_reportCommissioningState

        RSEG BANK_RELAYS:CODE:REORDER:NOROOT(0)
`??bdb_nwkFormationAttempt::?relay`:
        CODE
        LCALL   ?BDISPATCH
        DATA24
        DC24    bdb_nwkFormationAttempt

        RSEG BANK_RELAYS:CODE:REORDER:NOROOT(0)
`??bdb_isDeviceNonFactoryNew::?relay`:
        CODE
        LCALL   ?BDISPATCH
        DATA24
        DC24    bdb_isDeviceNonFactoryNew

        RSEG BANK_RELAYS:CODE:REORDER:NOROOT(0)
`??bdb_doTrustCenterRequireKeyExchange::?relay`:
        CODE
        LCALL   ?BDISPATCH
        DATA24
        DC24    bdb_doTrustCenterRequireKeyExchange

        RSEG BANK_RELAYS:CODE:REORDER:NOROOT(0)
`??bdb_rejoinNwk::?relay`:
        CODE
        LCALL   ?BDISPATCH
        DATA24
        DC24    bdb_rejoinNwk

        RSEG BANK_RELAYS:CODE:REORDER:NOROOT(0)
`??bdb_setChannelAttribute::?relay`:
        CODE
        LCALL   ?BDISPATCH
        DATA24
        DC24    bdb_setChannelAttribute

        RSEG BANK_RELAYS:CODE:REORDER:NOROOT(0)
`??bdb_setChannel::?relay`:
        CODE
        LCALL   ?BDISPATCH
        DATA24
        DC24    bdb_setChannel

        RSEG BANK_RELAYS:CODE:REORDER:NOROOT(0)
`??bdb_nwkJoiningFormation::?relay`:
        CODE
        LCALL   ?BDISPATCH
        DATA24
        DC24    bdb_nwkJoiningFormation

        RSEG BANK_RELAYS:CODE:REORDER:NOROOT(0)
`??bdb_nwkSteeringDeviceOnNwk::?relay`:
        CODE
        LCALL   ?BDISPATCH
        DATA24
        DC24    bdb_nwkSteeringDeviceOnNwk

        RSEG BANK_RELAYS:CODE:REORDER:NOROOT(0)
`??bdb_startResumeCommissioningProcess::?relay`:
        CODE
        LCALL   ?BDISPATCH
        DATA24
        DC24    bdb_startResumeCommissioningProcess

        RSEG BANK_RELAYS:CODE:REORDER:NOROOT(0)
`??bdb_event_loop::?relay`:
        CODE
        LCALL   ?BDISPATCH
        DATA24
        DC24    bdb_event_loop

        RSEG BANK_RELAYS:CODE:REORDER:NOROOT(0)
`??bdb_ProcessNodeDescRsp::?relay`:
        CODE
        LCALL   ?BDISPATCH
        DATA24
        DC24    bdb_ProcessNodeDescRsp

        RSEG BANK_RELAYS:CODE:REORDER:NOROOT(0)
`??bdb_touchlinkSendFNReset::?relay`:
        CODE
        LCALL   ?BDISPATCH
        DATA24
        DC24    bdb_touchlinkSendFNReset

        RSEG BANK_RELAYS:CODE:REORDER:NOROOT(0)
`??bdb_setNodeIsOnANetwork::?relay`:
        CODE
        LCALL   ?BDISPATCH
        DATA24
        DC24    bdb_setNodeIsOnANetwork

        RSEG BANK_RELAYS:CODE:REORDER:NOROOT(0)
`??bdb_setCommissioningGroupID::?relay`:
        CODE
        LCALL   ?BDISPATCH
        DATA24
        DC24    bdb_setCommissioningGroupID

        RSEG BANK_RELAYS:CODE:REORDER:NOROOT(0)
`??bdb_CreateRespondentList::?relay`:
        CODE
        LCALL   ?BDISPATCH
        DATA24
        DC24    bdb_CreateRespondentList

        RSEG BANK_RELAYS:CODE:REORDER:NOROOT(0)
`??bdb_AddRespondentNode::?relay`:
        CODE
        LCALL   ?BDISPATCH
        DATA24
        DC24    bdb_AddRespondentNode

        RSEG BANK_RELAYS:CODE:REORDER:NOROOT(0)
`??bdb_zclRespondentListClean::?relay`:
        CODE
        LCALL   ?BDISPATCH
        DATA24
        DC24    bdb_zclRespondentListClean

        RSEG BANK_RELAYS:CODE:REORDER:NOROOT(0)
`??bdb_SendMsg::?relay`:
        CODE
        LCALL   ?BDISPATCH
        DATA24
        DC24    bdb_SendMsg

        RSEG BANK_RELAYS:CODE:REORDER:NOROOT(0)
`??bdb_RegisterCommissioningStatusCB::?relay`:
        CODE
        LCALL   ?BDISPATCH
        DATA24
        DC24    bdb_RegisterCommissioningStatusCB

        RSEG BANK_RELAYS:CODE:REORDER:NOROOT(0)
`??bdb_ClearNetworkParams::?relay`:
        CODE
        LCALL   ?BDISPATCH
        DATA24
        DC24    bdb_ClearNetworkParams

        RSEG BANK_RELAYS:CODE:REORDER:NOROOT(0)
`??bdb_getZCLFrameCounter::?relay`:
        CODE
        LCALL   ?BDISPATCH
        DATA24
        DC24    bdb_getZCLFrameCounter

        RSEG BANK_RELAYS:CODE:REORDER:NOROOT(0)
`??gp_ChangeChannelReq::?relay`:
        CODE
        LCALL   ?BDISPATCH
        DATA24
        DC24    gp_ChangeChannelReq

        RSEG BANK_RELAYS:CODE:REORDER:NOROOT(0)
`??bdb_GenerateInstallCodeCRC::?relay`:
        CODE
        LCALL   ?BDISPATCH
        DATA24
        DC24    bdb_GenerateInstallCodeCRC

        RSEG BANK_RELAYS:CODE:REORDER:NOROOT(0)
`??bdb_calculateCCITT_CRC::?relay`:
        CODE
        LCALL   ?BDISPATCH
        DATA24
        DC24    bdb_calculateCCITT_CRC

        RSEG BANK_RELAYS:CODE:REORDER:NOROOT(0)
`??bdb_crcInit::?relay`:
        CODE
        LCALL   ?BDISPATCH
        DATA24
        DC24    bdb_crcInit

        RSEG BANK_RELAYS:CODE:REORDER:NOROOT(0)
`??bdb_crcReflect::?relay`:
        CODE
        LCALL   ?BDISPATCH
        DATA24
        DC24    bdb_crcReflect

        RSEG BANK_RELAYS:CODE:REORDER:NOROOT(0)
`??bdb_crcBitByBitFast::?relay`:
        CODE
        LCALL   ?BDISPATCH
        DATA24
        DC24    bdb_crcBitByBitFast

        RSEG XDATA_ROM_C:CONST:REORDER:NOROOT(0)
        DATA8
`?<Constant "NV read: ">`:
        DB "NV read: "

        RSEG XDATA_ROM_C:CONST:REORDER:NOROOT(0)
        DATA8
`?<Constant "bdbCommissioningMode ...">`:
        DB 62H, 64H, 62H, 43H, 6FH, 6DH, 6DH, 69H
        DB 73H, 73H, 69H, 6FH, 6EH, 69H, 6EH, 67H
        DB 4DH, 6FH, 64H, 65H, 20H, 3DH, 3DH, 20H
        DB 30H, 2CH, 20H, 0E5H, 8FH, 0AAH, 0E5H, 88H
        DB 9DH, 0E5H, 0A7H, 8BH, 0E5H, 8CH, 96H, 0E4H
        DB 0B8H, 8DH, 0E7H, 0BBH, 84H, 0E7H, 0BDH, 91H
        DB 0DH, 0AH, 0

        RSEG XDATA_ROM_C:CONST:REORDER:NOROOT(0)
        DATA32
__Constant_3e8:
        DD 1000

        RSEG XDATA_ROM_C:CONST:REORDER:NOROOT(0)
        DATA32
__Constant_32:
        DD 50

        RSEG XDATA_ROM_C:CONST:REORDER:NOROOT(0)
        DATA32
__Constant_c8:
        DD 200

        RSEG XDATA_ROM_C:CONST:REORDER:NOROOT(0)
        DATA32
__Constant_3a98:
        DD 15000

        RSEG XDATA_ROM_C:CONST:REORDER:NOROOT(0)
        DATA32
__Constant_10:
        DD 16

        END
// 3515 
// 3516 
// 
// 6 104 bytes in segment BANKED_CODE
//   270 bytes in segment BANK_RELAYS
//    37 bytes in segment XDATA_I
//    37 bytes in segment XDATA_ID
//    81 bytes in segment XDATA_ROM_C
//    26 bytes in segment XDATA_Z
// 
//   307 bytes of CODE     memory
//    61 bytes of CONST    memory (+ 20 bytes shared)
// 6 104 bytes of HUGECODE memory
//    63 bytes of XDATA    memory
//
//Errors: none
//Warnings: 1
