///////////////////////////////////////////////////////////////////////////////
//
// IAR C/C++ Compiler V10.10.1.4655 for 8051              03/Feb/2026  00:10:18
// Copyright 2004-2017 IAR Systems AB.
// Standalone license - IAR Embedded Workbench for 8051
//
//    Core               =  plain
//    Code model         =  banked
//    Data model         =  large
//    Calling convention =  xdata reentrant
//    Constant location  =  data_rom
//    Dptr setup         =  1,16
//                          
//    Source file        =  
//        C:\Users\ASUS\Desktop\work\graduration project\software\Z-Stack
//        3.0.2\Components\stack\bdb\bdb_Reporting.c
//    Command line       =  
//        -f C:\Users\ASUS\AppData\Local\Temp\EWBF2C.tmp
//        ("C:\Users\ASUS\Desktop\work\graduration project\software\Z-Stack
//        3.0.2\Components\stack\bdb\bdb_Reporting.c" -D BDB_REPORTING -D
//        SECURE=1 -D TC_LINKKEY_JOIN -D NV_INIT -D NV_RESTORE -D xZTOOL_P1 -D
//        xMT_TASK -D xMT_APP_FUNC -D xMT_SYS_FUNC -D xMT_ZDO_FUNC -D
//        xMT_APP_CNF_FUNC -D LCD_SUPPORTED=DEBUG -D MULTICAST_ENABLED=FALSE -D
//        ZCL_READ -D ZCL_DISCOVER -D ZCL_WRITE -D ZCL_BASIC -D ZCL_IDENTIFY -D
//        ZCL_TEMPERATURE_MEASUREMENT -D ZCL_GROUPS -D HAL_LED=TRUE -D
//        HAL_UART=TRUE -D INT_HEAP_LEN=2048 -lC
//        "C:\Users\ASUS\Desktop\work\graduration project\software\Z-Stack
//        3.0.2\Projects\zstack\HomeAutomation\ZEM\CC2530DB\CoordinatorEB\List"
//        -lA "C:\Users\ASUS\Desktop\work\graduration project\software\Z-Stack
//        3.0.2\Projects\zstack\HomeAutomation\ZEM\CC2530DB\CoordinatorEB\List"
//        --diag_suppress Pe001,Pa010 -o
//        "C:\Users\ASUS\Desktop\work\graduration project\software\Z-Stack
//        3.0.2\Projects\zstack\HomeAutomation\ZEM\CC2530DB\CoordinatorEB\Obj"
//        -e --debug --core=plain --dptr=16,1 --data_model=large
//        --code_model=banked --calling_convention=xdata_reentrant
//        --place_constants=data_rom --nr_virtual_regs 16 -f
//        "C:\Users\ASUS\Desktop\work\graduration project\software\Z-Stack
//        3.0.2\Projects\zstack\HomeAutomation\ZEM\CC2530DB\..\..\..\Tools\CC2530DB\f8wCoord.cfg"
//        (-DCPU32MHZ -DROOT=__near_func -DMAC_CFG_APP_PENDING_QUEUE=TRUE
//        -DMAC_CFG_TX_DATA_MAX=5 -DMAC_CFG_TX_MAX=8 -DMAC_CFG_RX_MAX=5
//        -DZDO_COORDINATOR -DRTR_NWK) -f
//        "C:\Users\ASUS\Desktop\work\graduration project\software\Z-Stack
//        3.0.2\Projects\zstack\HomeAutomation\ZEM\CC2530DB\..\..\..\Tools\CC2530DB\f8wConfig.cfg"
//        (-DZIGBEEPRO -DSECURE=1 -DZG_SECURE_DYNAMIC=0 -DREFLECTOR
//        -DDEFAULT_CHANLIST=0x00000800 -DZDAPP_CONFIG_PAN_ID=0x1234
//        -DNWK_START_DELAY=100 -DEXTENDED_JOINING_RANDOM_MASK=0x007F
//        -DBEACON_REQUEST_DELAY=100 -DBEACON_REQ_DELAY_MASK=0x00FF
//        -DLINK_STATUS_JITTER_MASK=0x007F -DROUTE_EXPIRY_TIME=30
//        -DAPSC_ACK_WAIT_DURATION_POLLED=3000 -DNWK_INDIRECT_MSG_TIMEOUT=7
//        -DMAX_RREQ_ENTRIES=8 -DAPSC_MAX_FRAME_RETRIES=3
//        -DNWK_MAX_DATA_RETRIES=2 -DMAX_POLL_FAILURE_RETRIES=2 -DMAX_BCAST=9
//        -DAPS_MAX_GROUPS=16 -DMAX_RTG_ENTRIES=40 -DNWK_MAX_BINDING_ENTRIES=4
//        -DMAX_BINDING_CLUSTER_IDS=4 -DDEFAULT_KEY={0}
//        -DMAC_MAX_FRAME_SIZE=116 -DZDNWKMGR_MIN_TRANSMISSIONS=20
//        "-DCONST=const __code" -DGENERIC=__generic -DRFD_RCVC_ALWAYS_ON=FALSE
//        -DPOLL_RATE=1000 -DQUEUED_POLL_RATE=100 -DRESPONSE_POLL_RATE=100
//        -DREJOIN_POLL_RATE=440 -DREJOIN_BACKOFF=900000 -DREJOIN_SCAN=900000
//        -DENABLE_LED4_DISABLE_S1) -f "C:\Users\ASUS\Desktop\work\graduration
//        project\software\Z-Stack
//        3.0.2\Projects\zstack\HomeAutomation\ZEM\CC2530DB\..\..\..\Tools\CC2530DB\f8wZCL.cfg"
//        -I "C:\Users\ASUS\Desktop\work\graduration project\software\Z-Stack
//        3.0.2\Projects\zstack\HomeAutomation\ZEM\CC2530DB\" -I
//        "C:\Users\ASUS\Desktop\work\graduration project\software\Z-Stack
//        3.0.2\Projects\zstack\HomeAutomation\ZEM\CC2530DB\..\Source\" -I
//        "C:\Users\ASUS\Desktop\work\graduration project\software\Z-Stack
//        3.0.2\Projects\zstack\HomeAutomation\ZEM\CC2530DB\..\..\Source\" -I
//        "C:\Users\ASUS\Desktop\work\graduration project\software\Z-Stack
//        3.0.2\Projects\zstack\HomeAutomation\ZEM\CC2530DB\..\..\..\ZMain\TI2530DB\"
//        -I "C:\Users\ASUS\Desktop\work\graduration project\software\Z-Stack
//        3.0.2\Projects\zstack\HomeAutomation\ZEM\CC2530DB\..\..\..\..\..\Components\hal\include\"
//        -I "C:\Users\ASUS\Desktop\work\graduration project\software\Z-Stack
//        3.0.2\Projects\zstack\HomeAutomation\ZEM\CC2530DB\..\..\..\..\..\Components\hal\target\CC2530EB\"
//        -I "C:\Users\ASUS\Desktop\work\graduration project\software\Z-Stack
//        3.0.2\Projects\zstack\HomeAutomation\ZEM\CC2530DB\..\..\..\..\..\Components\mac\include\"
//        -I "C:\Users\ASUS\Desktop\work\graduration project\software\Z-Stack
//        3.0.2\Projects\zstack\HomeAutomation\ZEM\CC2530DB\..\..\..\..\..\Components\mac\high_level\"
//        -I "C:\Users\ASUS\Desktop\work\graduration project\software\Z-Stack
//        3.0.2\Projects\zstack\HomeAutomation\ZEM\CC2530DB\..\..\..\..\..\Components\mac\low_level\srf04\"
//        -I "C:\Users\ASUS\Desktop\work\graduration project\software\Z-Stack
//        3.0.2\Projects\zstack\HomeAutomation\ZEM\CC2530DB\..\..\..\..\..\Components\mac\low_level\srf04\single_chip\"
//        -I "C:\Users\ASUS\Desktop\work\graduration project\software\Z-Stack
//        3.0.2\Projects\zstack\HomeAutomation\ZEM\CC2530DB\..\..\..\..\..\Components\mt\"
//        -I "C:\Users\ASUS\Desktop\work\graduration project\software\Z-Stack
//        3.0.2\Projects\zstack\HomeAutomation\ZEM\CC2530DB\..\..\..\..\..\Components\osal\include\"
//        -I "C:\Users\ASUS\Desktop\work\graduration project\software\Z-Stack
//        3.0.2\Projects\zstack\HomeAutomation\ZEM\CC2530DB\..\..\..\..\..\Components\services\saddr\"
//        -I "C:\Users\ASUS\Desktop\work\graduration project\software\Z-Stack
//        3.0.2\Projects\zstack\HomeAutomation\ZEM\CC2530DB\..\..\..\..\..\Components\services\sdata\"
//        -I "C:\Users\ASUS\Desktop\work\graduration project\software\Z-Stack
//        3.0.2\Projects\zstack\HomeAutomation\ZEM\CC2530DB\..\..\..\..\..\Components\stack\af\"
//        -I "C:\Users\ASUS\Desktop\work\graduration project\software\Z-Stack
//        3.0.2\Projects\zstack\HomeAutomation\ZEM\CC2530DB\..\..\..\..\..\Components\stack\bdb\"
//        -I "C:\Users\ASUS\Desktop\work\graduration project\software\Z-Stack
//        3.0.2\Projects\zstack\HomeAutomation\ZEM\CC2530DB\..\..\..\..\..\Components\stack\gp\"
//        -I "C:\Users\ASUS\Desktop\work\graduration project\software\Z-Stack
//        3.0.2\Projects\zstack\HomeAutomation\ZEM\CC2530DB\..\..\..\..\..\Components\stack\nwk\"
//        -I "C:\Users\ASUS\Desktop\work\graduration project\software\Z-Stack
//        3.0.2\Projects\zstack\HomeAutomation\ZEM\CC2530DB\..\..\..\..\..\Components\stack\sapi\"
//        -I "C:\Users\ASUS\Desktop\work\graduration project\software\Z-Stack
//        3.0.2\Projects\zstack\HomeAutomation\ZEM\CC2530DB\..\..\..\..\..\Components\stack\sec\"
//        -I "C:\Users\ASUS\Desktop\work\graduration project\software\Z-Stack
//        3.0.2\Projects\zstack\HomeAutomation\ZEM\CC2530DB\..\..\..\..\..\Components\stack\sys\"
//        -I "C:\Users\ASUS\Desktop\work\graduration project\software\Z-Stack
//        3.0.2\Projects\zstack\HomeAutomation\ZEM\CC2530DB\..\..\..\..\..\Components\stack\zcl\"
//        -I "C:\Users\ASUS\Desktop\work\graduration project\software\Z-Stack
//        3.0.2\Projects\zstack\HomeAutomation\ZEM\CC2530DB\..\..\..\..\..\Components\stack\zdo\"
//        -I "C:\Users\ASUS\Desktop\work\graduration project\software\Z-Stack
//        3.0.2\Projects\zstack\HomeAutomation\ZEM\CC2530DB\..\..\..\..\..\Components\zmac\"
//        -I "C:\Users\ASUS\Desktop\work\graduration project\software\Z-Stack
//        3.0.2\Projects\zstack\HomeAutomation\ZEM\CC2530DB\..\..\..\..\..\Components\zmac\f8w\"
//        -Ohz --require_prototypes)
//    Locale             =  Chinese (Simplified)_China.936
//    List file          =  
//        C:\Users\ASUS\Desktop\work\graduration project\software\Z-Stack
//        3.0.2\Projects\zstack\HomeAutomation\ZEM\CC2530DB\CoordinatorEB\List\bdb_Reporting.s51
//
///////////////////////////////////////////////////////////////////////////////

        NAME bdb_Reporting

        RTMODEL "__SystemLibrary", "CLib"
        RTMODEL "__calling_convention", "xdata_reentrant"
        RTMODEL "__code_model", "banked"
        RTMODEL "__core", "plain"
        RTMODEL "__data_model", "large"
        RTMODEL "__dptr_size", "16"
        RTMODEL "__extended_stack", "disabled"
        RTMODEL "__location_for_constants", "data"
        RTMODEL "__number_of_dptrs", "1"
        RTMODEL "__register_banks", "*"
        RTMODEL "__rt_version", "1"

        RSEG DOVERLAY:DATA:NOROOT(0)
        RSEG IOVERLAY:IDATA:NOROOT(0)
        RSEG ISTACK:IDATA:NOROOT(0)
        RSEG PSTACK:XDATA:NOROOT(0)
        RSEG XSTACK:XDATA:NOROOT(0)

        EXTERN ?V0
        EXTERN ?V1
        EXTERN ?V2
        EXTERN ?V3
        EXTERN ?V4
        EXTERN ?V5
        EXTERN ?V6
        EXTERN ?V7
        EXTERN ?V8
        EXTERN ?V9
        EXTERN ?V10
        EXTERN ?V11
        EXTERN ?V12
        EXTERN ?V13
        EXTERN ?V14
        EXTERN ?V15
        EXTERN ?ALLOC_XSTACK8
        EXTERN ?BANKED_ENTER_XDATA
        EXTERN ?BANKED_LEAVE_XDATA
        EXTERN ?BDISPATCH
        EXTERN ?BRET
        EXTERN ?DEALLOC_XSTACK8
        EXTERN ?FLT_GE
        EXTERN ?FLT_SUB
        EXTERN ?L_MOV_X
        EXTERN ?L_MUL
        EXTERN ?L_SUB
        EXTERN ?MOVE_LONG8_XDATA_XDATA
        EXTERN ?PUSH_XSTACK8_X
        EXTERN ?PUSH_XSTACK8_X_TWO
        EXTERN ?PUSH_XSTACK_I_FOUR
        EXTERN ?PUSH_XSTACK_I_ONE
        EXTERN ?PUSH_XSTACK_I_THREE
        EXTERN ?PUSH_XSTACK_I_TWO
        EXTERN ?SL_GT
        EXTERN ?S_SHL
        EXTERN ?UL_DIV_MOD
        EXTERN ?UL_GT
        EXTERN ?US_DIV_MOD
        EXTERN ?VB
        EXTERN ?XSP
        EXTERN ?XSTACK_DISP0_8
        EXTERN ?XSTACK_DISP100_8
        EXTERN ?XSTACK_DISP101_8
        EXTERN ?XSTACK_DISP102_8
        EXTERN __INIT_XDATA_Z

        FUNCTION `??bdb_FindEpDesc::?relay`,0203H
        FUNCTION `??bdb_InitReportAttrLiveValues::?relay`,0203H
        PUBLIC `??bdb_ProcessInConfigReportCmd::?relay`
        FUNCTION `??bdb_ProcessInConfigReportCmd::?relay`,0203H
        PUBLIC `??bdb_ProcessInReadReportCfgCmd::?relay`
        FUNCTION `??bdb_ProcessInReadReportCfgCmd::?relay`,0203H
        PUBLIC `??bdb_RepAddAttrCfgRecordDefaultToList::?relay`
        FUNCTION `??bdb_RepAddAttrCfgRecordDefaultToList::?relay`,0203H
        FUNCTION `??bdb_RepCalculateEventElapsedTime::?relay`,0203H
        PUBLIC `??bdb_RepChangedAttrValue::?relay`
        FUNCTION `??bdb_RepChangedAttrValue::?relay`,0203H
        FUNCTION `??bdb_RepConstructAttrCfgArray::?relay`,0203H
        PUBLIC `??bdb_RepConstructReportingData::?relay`
        FUNCTION `??bdb_RepConstructReportingData::?relay`,0203H
        FUNCTION `??bdb_RepFindAttrEntry::?relay`,0203H
        PUBLIC `??bdb_RepInit::?relay`
        FUNCTION `??bdb_RepInit::?relay`,0203H
        FUNCTION `??bdb_RepInitAttrCfgRecords::?relay`,0203H
        FUNCTION `??bdb_RepLoadCfgRecords::?relay`,0203H
        PUBLIC `??bdb_RepMarkHasBindingInEndpointClusterArray::`
        FUNCTION `??bdb_RepMarkHasBindingInEndpointClusterArray::`,0203H
        PUBLIC `??bdb_RepProcessEvent::?relay`
        FUNCTION `??bdb_RepProcessEvent::?relay`,0203H
        FUNCTION `??bdb_RepReport::?relay`,0203H
        FUNCTION `??bdb_RepRestartNextEventTimer::?relay`,0203H
        FUNCTION `??bdb_RepSetupReporting::?relay`,0203H
        PUBLIC `??bdb_RepStartOrContinueReporting::?relay`
        FUNCTION `??bdb_RepStartOrContinueReporting::?relay`,0203H
        FUNCTION `??bdb_RepStartReporting::?relay`,0203H
        FUNCTION `??bdb_RepStopEventTimer::?relay`,0203H
        PUBLIC `??bdb_RepUpdateMarkBindings::?relay`
        FUNCTION `??bdb_RepUpdateMarkBindings::?relay`,0203H
        FUNCTION `??bdb_clusterEndpointArrayAdd::?relay`,0203H
        FUNCTION `??bdb_clusterEndpointArrayIncrementAll::?relay`,0203H
        FUNCTION `??bdb_clusterEndpointArrayMoveTo::?relay`,0203H
        FUNCTION `??bdb_clusterEndpointArraySearch::?relay`,0203H
        FUNCTION `??bdb_clusterEndpointArrayUpdateAt::?relay`,0203H
        FUNCTION `??bdb_isAttrValueChangedSurpassDelta::?relay`,0203H
        FUNCTION `??bdb_linkedListAttrAdd::?relay`,0203H
        FUNCTION ??bdb_repAttrBuildClusterEndPointArrayBasedOnCo,0203H
        FUNCTION `??bdb_repAttrCfgRecordsArrayAdd::?relay`,0203H
        FUNCTION `??bdb_repAttrCfgRecordsArrayConsolidateValues::`,0203H
        FUNCTION `??bdb_repAttrCfgRecordsArrayCreate::?relay`,0203H
        FUNCTION `??bdb_repAttrCfgRecordsArrayFreeAll::?relay`,0203H
        FUNCTION `??bdb_repAttrCfgRecordsArraySearch::?relay`,0203H
        FUNCTION `??bdb_repAttrDefaultCfgRecordsLinkedListSearch:`,0203H
        PUBWEAK __Constant_3e8
        PUBLIC attrDefaultCfgRecordLinkedList
        FUNCTION bdb_FindEpDesc,0203H
        ARGFRAME XSTACK, 34, STACK
        ARGFRAME IOVERLAY, 0, STATIC
        ARGFRAME DOVERLAY, 0, STATIC
        LOCFRAME ISTACK, 2, STACK
        FUNCTION bdb_InitReportAttrLiveValues,0203H
        ARGFRAME XSTACK, 30, STACK
        ARGFRAME IOVERLAY, 0, STATIC
        ARGFRAME DOVERLAY, 0, STATIC
        LOCFRAME ISTACK, 2, STACK
        PUBLIC bdb_ProcessInConfigReportCmd
        FUNCTION bdb_ProcessInConfigReportCmd,0a1203H
        ARGFRAME XSTACK, 0, STACK
        LOCFRAME ISTACK, 1, STACK
        LOCFRAME XSTACK, 39, STACK
        PUBLIC bdb_ProcessInReadReportCfgCmd
        FUNCTION bdb_ProcessInReadReportCfgCmd,0a1203H
        ARGFRAME XSTACK, 0, STACK
        LOCFRAME ISTACK, 1, STACK
        LOCFRAME XSTACK, 39, STACK
        PUBLIC bdb_RepAddAttrCfgRecordDefaultToList
        FUNCTION bdb_RepAddAttrCfgRecordDefaultToList,0a1203H
        ARGFRAME XSTACK, 6, STACK
        LOCFRAME ISTACK, 1, STACK
        LOCFRAME XSTACK, 19, STACK
        FUNCTION bdb_RepCalculateEventElapsedTime,080203H
        ARGFRAME XSTACK, 36, STACK
        ARGFRAME IOVERLAY, 0, STATIC
        ARGFRAME DOVERLAY, 0, STATIC
        LOCFRAME XSTACK, 20, STACK
        PUBLIC bdb_RepChangedAttrValue
        FUNCTION bdb_RepChangedAttrValue,0a1203H
        ARGFRAME XSTACK, 0, STACK
        LOCFRAME XSTACK, 36, STACK
        FUNCTION bdb_RepConstructAttrCfgArray,0a1203H
        ARGFRAME XSTACK, 10, STACK
        ARGFRAME IOVERLAY, 0, STATIC
        ARGFRAME DOVERLAY, 0, STATIC
        LOCFRAME ISTACK, 1, STACK
        LOCFRAME XSTACK, 52, STACK
        PUBLIC bdb_RepConstructReportingData
        FUNCTION bdb_RepConstructReportingData,021203H
        ARGFRAME XSTACK, 0, STACK
        LOCFRAME ISTACK, 2, STACK
        FUNCTION bdb_RepFindAttrEntry,0a1203H
        ARGFRAME XSTACK, 44, STACK
        ARGFRAME IOVERLAY, 0, STATIC
        ARGFRAME DOVERLAY, 0, STATIC
        LOCFRAME ISTACK, 1, STACK
        LOCFRAME XSTACK, 25, STACK
        PUBLIC bdb_RepInit
        FUNCTION bdb_RepInit,0203H
        ARGFRAME XSTACK, 0, STACK
        LOCFRAME ISTACK, 2, STACK
        FUNCTION bdb_RepInitAttrCfgRecords,0a1203H
        ARGFRAME XSTACK, 0, STACK
        ARGFRAME IOVERLAY, 0, STATIC
        ARGFRAME DOVERLAY, 0, STATIC
        LOCFRAME XSTACK, 14, STACK
        FUNCTION bdb_RepLoadCfgRecords,0a1203H
        ARGFRAME XSTACK, 34, STACK
        ARGFRAME IOVERLAY, 0, STATIC
        ARGFRAME DOVERLAY, 0, STATIC
        LOCFRAME XSTACK, 14, STACK
        PUBLIC bdb_RepMarkHasBindingInEndpointClusterArray
        FUNCTION bdb_RepMarkHasBindingInEndpointClusterArray,0a1203H
        ARGFRAME XSTACK, 16, STACK
        ARGFRAME IOVERLAY, 0, STATIC
        ARGFRAME DOVERLAY, 0, STATIC
        LOCFRAME XSTACK, 9, STACK
        PUBLIC bdb_RepProcessEvent
        FUNCTION bdb_RepProcessEvent,0a1203H
        ARGFRAME XSTACK, 0, STACK
        LOCFRAME ISTACK, 2, STACK
        LOCFRAME XSTACK, 9, STACK
        FUNCTION bdb_RepReport,0a1203H
        ARGFRAME XSTACK, 34, STACK
        ARGFRAME IOVERLAY, 0, STATIC
        ARGFRAME DOVERLAY, 0, STATIC
        LOCFRAME ISTACK, 1, STACK
        LOCFRAME XSTACK, 47, STACK
        FUNCTION bdb_RepRestartNextEventTimer,0a1203H
        ARGFRAME XSTACK, 9, STACK
        ARGFRAME IOVERLAY, 0, STATIC
        ARGFRAME DOVERLAY, 0, STATIC
        LOCFRAME XSTACK, 20, STACK
        FUNCTION bdb_RepSetupReporting,0a1203H
        ARGFRAME XSTACK, 34, STACK
        ARGFRAME IOVERLAY, 0, STATIC
        ARGFRAME DOVERLAY, 0, STATIC
        LOCFRAME ISTACK, 1, STACK
        LOCFRAME XSTACK, 13, STACK
        PUBLIC bdb_RepStartOrContinueReporting
        FUNCTION bdb_RepStartOrContinueReporting,0a1203H
        ARGFRAME XSTACK, 0, STACK
        LOCFRAME XSTACK, 14, STACK
        FUNCTION bdb_RepStartReporting,021203H
        ARGFRAME XSTACK, 34, STACK
        ARGFRAME IOVERLAY, 0, STATIC
        ARGFRAME DOVERLAY, 0, STATIC
        LOCFRAME ISTACK, 2, STACK
        FUNCTION bdb_RepStopEventTimer,021203H
        ARGFRAME XSTACK, 34, STACK
        ARGFRAME IOVERLAY, 0, STATIC
        ARGFRAME DOVERLAY, 0, STATIC
        LOCFRAME ISTACK, 2, STACK
        PUBLIC bdb_RepUpdateMarkBindings
        FUNCTION bdb_RepUpdateMarkBindings,0a1203H
        ARGFRAME XSTACK, 0, STACK
        LOCFRAME XSTACK, 16, STACK
        FUNCTION bdb_clusterEndpointArrayAdd,0203H
        ARGFRAME XSTACK, 34, STACK
        ARGFRAME IOVERLAY, 0, STATIC
        ARGFRAME DOVERLAY, 0, STATIC
        LOCFRAME ISTACK, 1, STACK
        LOCFRAME XSTACK, 9, STACK
        FUNCTION bdb_clusterEndpointArrayIncrementAll,080203H
        ARGFRAME XSTACK, 34, STACK
        ARGFRAME IOVERLAY, 0, STATIC
        ARGFRAME DOVERLAY, 0, STATIC
        LOCFRAME XSTACK, 14, STACK
        FUNCTION bdb_clusterEndpointArrayMoveTo,080203H
        ARGFRAME XSTACK, 13, STACK
        ARGFRAME IOVERLAY, 0, STATIC
        ARGFRAME DOVERLAY, 0, STATIC
        LOCFRAME ISTACK, 1, STACK
        LOCFRAME XSTACK, 10, STACK
        FUNCTION bdb_clusterEndpointArraySearch,0203H
        ARGFRAME XSTACK, 34, STACK
        ARGFRAME IOVERLAY, 0, STATIC
        ARGFRAME DOVERLAY, 0, STATIC
        LOCFRAME XSTACK, 9, STACK
        FUNCTION bdb_clusterEndpointArrayUpdateAt,0203H
        ARGFRAME XSTACK, 34, STACK
        ARGFRAME IOVERLAY, 0, STATIC
        ARGFRAME DOVERLAY, 0, STATIC
        LOCFRAME XSTACK, 9, STACK
        FUNCTION bdb_isAttrValueChangedSurpassDelta,080203H
        ARGFRAME XSTACK, 36, STACK
        ARGFRAME IOVERLAY, 0, STATIC
        ARGFRAME DOVERLAY, 0, STATIC
        LOCFRAME XSTACK, 20, STACK
        FUNCTION bdb_linkedListAttrAdd,0a1203H
        ARGFRAME XSTACK, 30, STACK
        ARGFRAME IOVERLAY, 0, STATIC
        ARGFRAME DOVERLAY, 0, STATIC
        LOCFRAME XSTACK, 12, STACK
        FUNCTION bdb_repAttrBuildClusterEndPointArrayBasedOnConfRecordsArray,0a1203H
        ARGFRAME XSTACK, 13, STACK
        ARGFRAME IOVERLAY, 0, STATIC
        ARGFRAME DOVERLAY, 0, STATIC
        LOCFRAME XSTACK, 34, STACK
        FUNCTION bdb_repAttrCfgRecordsArrayAdd,0a1203H
        ARGFRAME XSTACK, 51, STACK
        ARGFRAME IOVERLAY, 0, STATIC
        ARGFRAME DOVERLAY, 0, STATIC
        LOCFRAME ISTACK, 1, STACK
        LOCFRAME XSTACK, 14, STACK
        FUNCTION bdb_repAttrCfgRecordsArrayConsolidateValues,080203H
        ARGFRAME XSTACK, 32, STACK
        ARGFRAME IOVERLAY, 0, STATIC
        ARGFRAME DOVERLAY, 0, STATIC
        LOCFRAME XSTACK, 16, STACK
        FUNCTION bdb_repAttrCfgRecordsArrayCreate,021203H
        ARGFRAME XSTACK, 39, STACK
        ARGFRAME IOVERLAY, 0, STATIC
        ARGFRAME DOVERLAY, 0, STATIC
        LOCFRAME XSTACK, 9, STACK
        FUNCTION bdb_repAttrCfgRecordsArrayFreeAll,021203H
        ARGFRAME XSTACK, 39, STACK
        ARGFRAME IOVERLAY, 0, STATIC
        ARGFRAME DOVERLAY, 0, STATIC
        LOCFRAME ISTACK, 2, STACK
        FUNCTION bdb_repAttrCfgRecordsArraySearch,080203H
        ARGFRAME XSTACK, 34, STACK
        ARGFRAME IOVERLAY, 0, STATIC
        ARGFRAME DOVERLAY, 0, STATIC
        LOCFRAME XSTACK, 9, STACK
        FUNCTION bdb_repAttrDefaultCfgRecordsLinkedListSearch,0203H
        ARGFRAME XSTACK, 52, STACK
        ARGFRAME IOVERLAY, 0, STATIC
        ARGFRAME DOVERLAY, 0, STATIC
        LOCFRAME ISTACK, 2, STACK
        PUBLIC bdb_reportingAcceptDefaultConfs
        PUBLIC bdb_reportingAttrCfgRecordsArray
        PUBLIC bdb_reportingAttrCfgRecordsArrayCount
        PUBLIC bdb_reportingAttrCfgRecordsArrayMaxSize
        PUBLIC bdb_reportingClusterEndpointArray
        PUBLIC bdb_reportingClusterEndpointArrayCount
        PUBLIC bdb_reportingNextClusterEndpointIndex
        PUBLIC bdb_reportingNextEventTimeout
        PUBLIC gAttrDataValue
        
          CFI Names cfiNames0
          CFI StackFrame CFA_SP SP IDATA
          CFI StackFrame CFA_PSP16 PSP16 XDATA
          CFI StackFrame CFA_XSP16 XSP16 XDATA
          CFI StaticOverlayFrame CFA_IOVERLAY IOVERLAY
          CFI StaticOverlayFrame CFA_DOVERLAY DOVERLAY
          CFI Resource `PSW.CY`:1, `B.BR0`:1, `B.BR1`:1, `B.BR2`:1, `B.BR3`:1
          CFI Resource `B.BR4`:1, `B.BR5`:1, `B.BR6`:1, `B.BR7`:1, `VB.BR8`:1
          CFI Resource `VB.BR9`:1, `VB.BR10`:1, `VB.BR11`:1, `VB.BR12`:1
          CFI Resource `VB.BR13`:1, `VB.BR14`:1, `VB.BR15`:1, VB:8, B:8, A:8
          CFI Resource PSW:8, DPL0:8, DPH0:8, R0:8, R1:8, R2:8, R3:8, R4:8, R5:8
          CFI Resource R6:8, R7:8, V0:8, V1:8, V2:8, V3:8, V4:8, V5:8, V6:8, V7:8
          CFI Resource V8:8, V9:8, V10:8, V11:8, V12:8, V13:8, V14:8, V15:8, SP:8
          CFI Resource PSPH:8, PSPL:8, PSP16:16, XSPH:8, XSPL:8, XSP16:16
          CFI VirtualResource ?RET:24
          CFI Resource ?BRET_EXT:8
          CFI VirtualResource ?RET_HIGH:8, ?RET_LOW:8
          CFI ResourceParts PSP16 PSPH, PSPL
          CFI ResourceParts XSP16 XSPH, XSPL
          CFI ResourceParts ?RET ?BRET_EXT, ?RET_HIGH, ?RET_LOW
          CFI EndNames cfiNames0
        
          CFI Common cfiCommon0 Using cfiNames0
          CFI CodeAlign 1
          CFI DataAlign -1
          CFI ReturnAddress ?RET CODE
          CFI CFA_DOVERLAY Used
          CFI CFA_IOVERLAY Used
          CFI CFA_SP SP+-3
          CFI CFA_PSP16 PSP16+0
          CFI CFA_XSP16 XSP16+0
          CFI `PSW.CY` SameValue
          CFI `B.BR0` SameValue
          CFI `B.BR1` SameValue
          CFI `B.BR2` SameValue
          CFI `B.BR3` SameValue
          CFI `B.BR4` SameValue
          CFI `B.BR5` SameValue
          CFI `B.BR6` SameValue
          CFI `B.BR7` SameValue
          CFI `VB.BR8` SameValue
          CFI `VB.BR9` SameValue
          CFI `VB.BR10` SameValue
          CFI `VB.BR11` SameValue
          CFI `VB.BR12` SameValue
          CFI `VB.BR13` SameValue
          CFI `VB.BR14` SameValue
          CFI `VB.BR15` SameValue
          CFI VB SameValue
          CFI B Undefined
          CFI A Undefined
          CFI PSW SameValue
          CFI DPL0 SameValue
          CFI DPH0 SameValue
          CFI R0 Undefined
          CFI R1 Undefined
          CFI R2 Undefined
          CFI R3 Undefined
          CFI R4 Undefined
          CFI R5 Undefined
          CFI R6 SameValue
          CFI R7 SameValue
          CFI V0 SameValue
          CFI V1 SameValue
          CFI V2 SameValue
          CFI V3 SameValue
          CFI V4 SameValue
          CFI V5 SameValue
          CFI V6 SameValue
          CFI V7 SameValue
          CFI V8 SameValue
          CFI V9 SameValue
          CFI V10 SameValue
          CFI V11 SameValue
          CFI V12 SameValue
          CFI V13 SameValue
          CFI V14 SameValue
          CFI V15 SameValue
          CFI PSPH Undefined
          CFI PSPL Undefined
          CFI XSPH Undefined
          CFI XSPL Undefined
          CFI ?RET Concat
          CFI ?BRET_EXT Frame(CFA_SP, 3)
          CFI ?RET_HIGH Frame(CFA_SP, 2)
          CFI ?RET_LOW Frame(CFA_SP, 1)
          CFI EndCommon cfiCommon0
        
        
          CFI Common cfiCommon1 Using cfiNames0
          CFI CodeAlign 1
          CFI DataAlign -1
          CFI ReturnAddress ?RET CODE
          CFI CFA_DOVERLAY Used
          CFI CFA_IOVERLAY Used
          CFI CFA_SP SP+-2
          CFI CFA_PSP16 PSP16+0
          CFI CFA_XSP16 XSP16+0
          CFI `PSW.CY` SameValue
          CFI `B.BR0` SameValue
          CFI `B.BR1` SameValue
          CFI `B.BR2` SameValue
          CFI `B.BR3` SameValue
          CFI `B.BR4` SameValue
          CFI `B.BR5` SameValue
          CFI `B.BR6` SameValue
          CFI `B.BR7` SameValue
          CFI `VB.BR8` SameValue
          CFI `VB.BR9` SameValue
          CFI `VB.BR10` SameValue
          CFI `VB.BR11` SameValue
          CFI `VB.BR12` SameValue
          CFI `VB.BR13` SameValue
          CFI `VB.BR14` SameValue
          CFI `VB.BR15` SameValue
          CFI VB SameValue
          CFI B SameValue
          CFI A SameValue
          CFI PSW SameValue
          CFI DPL0 SameValue
          CFI DPH0 SameValue
          CFI R0 SameValue
          CFI R1 SameValue
          CFI R2 SameValue
          CFI R3 SameValue
          CFI R4 SameValue
          CFI R5 SameValue
          CFI R6 SameValue
          CFI R7 SameValue
          CFI V0 SameValue
          CFI V1 SameValue
          CFI V2 SameValue
          CFI V3 SameValue
          CFI V4 SameValue
          CFI V5 SameValue
          CFI V6 SameValue
          CFI V7 SameValue
          CFI V8 SameValue
          CFI V9 SameValue
          CFI V10 SameValue
          CFI V11 SameValue
          CFI V12 SameValue
          CFI V13 SameValue
          CFI V14 SameValue
          CFI V15 SameValue
          CFI PSPH Undefined
          CFI PSPL Undefined
          CFI XSPH Undefined
          CFI XSPL Undefined
          CFI ?RET Concat
          CFI ?BRET_EXT SameValue
          CFI ?RET_HIGH Frame(CFA_SP, 2)
          CFI ?RET_LOW Frame(CFA_SP, 1)
          CFI EndCommon cfiCommon1
        
bdb_getZCLFrameCounter SYMBOL "bdb_getZCLFrameCounter"
`??bdb_getZCLFrameCounter::?relay` SYMBOL "?relay", bdb_getZCLFrameCounter
bindFind            SYMBOL "bindFind"
`??bindFind::?relay` SYMBOL "?relay", bindFind
osal_get_timeoutEx  SYMBOL "osal_get_timeoutEx"
`??osal_get_timeoutEx::?relay` SYMBOL "?relay", osal_get_timeoutEx
osal_mem_alloc      SYMBOL "osal_mem_alloc"
`??osal_mem_alloc::?relay` SYMBOL "?relay", osal_mem_alloc
osal_mem_free       SYMBOL "osal_mem_free"
`??osal_mem_free::?relay` SYMBOL "?relay", osal_mem_free
osal_memcpy         SYMBOL "osal_memcpy"
`??osal_memcpy::?relay` SYMBOL "?relay", osal_memcpy
osal_memset         SYMBOL "osal_memset"
`??osal_memset::?relay` SYMBOL "?relay", osal_memset
osal_nv_item_init   SYMBOL "osal_nv_item_init"
`??osal_nv_item_init::?relay` SYMBOL "?relay", osal_nv_item_init
osal_nv_item_len    SYMBOL "osal_nv_item_len"
`??osal_nv_item_len::?relay` SYMBOL "?relay", osal_nv_item_len
osal_nv_read        SYMBOL "osal_nv_read"
`??osal_nv_read::?relay` SYMBOL "?relay", osal_nv_read
osal_nv_write       SYMBOL "osal_nv_write"
`??osal_nv_write::?relay` SYMBOL "?relay", osal_nv_write
osal_start_timerEx  SYMBOL "osal_start_timerEx"
`??osal_start_timerEx::?relay` SYMBOL "?relay", osal_start_timerEx
osal_stop_timerEx   SYMBOL "osal_stop_timerEx"
`??osal_stop_timerEx::?relay` SYMBOL "?relay", osal_stop_timerEx
zclAnalogDataType   SYMBOL "zclAnalogDataType"
`??zclAnalogDataType::?relay` SYMBOL "?relay", zclAnalogDataType
zclFindAttrRec      SYMBOL "zclFindAttrRec"
`??zclFindAttrRec::?relay` SYMBOL "?relay", zclFindAttrRec
zclFindAttrRecsList SYMBOL "zclFindAttrRecsList"
`??zclFindAttrRecsList::?relay` SYMBOL "?relay", zclFindAttrRecsList
zclGetDataTypeLength SYMBOL "zclGetDataTypeLength"
`??zclGetDataTypeLength::?relay` SYMBOL "?relay", zclGetDataTypeLength
zcl_ReadAttrData    SYMBOL "zcl_ReadAttrData"
`??zcl_ReadAttrData::?relay` SYMBOL "?relay", zcl_ReadAttrData
zcl_SendConfigReportRspCmd SYMBOL "zcl_SendConfigReportRspCmd"
`??zcl_SendConfigReportRspCmd::?relay` SYMBOL "?relay", zcl_SendConfigReportRspCmd
zcl_SendReadReportCfgRspCmd SYMBOL "zcl_SendReadReportCfgRspCmd"
`??zcl_SendReadReportCfgRspCmd::?relay` SYMBOL "?relay", zcl_SendReadReportCfgRspCmd
zcl_SendReportCmd   SYMBOL "zcl_SendReportCmd"
`??zcl_SendReportCmd::?relay` SYMBOL "?relay", zcl_SendReportCmd
bdb_ProcessInConfigReportCmd SYMBOL "bdb_ProcessInConfigReportCmd"
`??bdb_ProcessInConfigReportCmd::?relay` SYMBOL "?relay", bdb_ProcessInConfigReportCmd
bdb_ProcessInReadReportCfgCmd SYMBOL "bdb_ProcessInReadReportCfgCmd"
`??bdb_ProcessInReadReportCfgCmd::?relay` SYMBOL "?relay", bdb_ProcessInReadReportCfgCmd
bdb_RepAddAttrCfgRecordDefaultToList SYMBOL "bdb_RepAddAttrCfgRecordDefaultToList"
`??bdb_RepAddAttrCfgRecordDefaultToList::?relay` SYMBOL "?relay", bdb_RepAddAttrCfgRecordDefaultToList
bdb_RepChangedAttrValue SYMBOL "bdb_RepChangedAttrValue"
`??bdb_RepChangedAttrValue::?relay` SYMBOL "?relay", bdb_RepChangedAttrValue
bdb_RepConstructReportingData SYMBOL "bdb_RepConstructReportingData"
`??bdb_RepConstructReportingData::?relay` SYMBOL "?relay", bdb_RepConstructReportingData
bdb_RepInit         SYMBOL "bdb_RepInit"
`??bdb_RepInit::?relay` SYMBOL "?relay", bdb_RepInit
bdb_RepMarkHasBindingInEndpointClusterArray SYMBOL "bdb_RepMarkHasBindingInEndpointClusterArray"
`??bdb_RepMarkHasBindingInEndpointClusterArray::` SYMBOL "?relay", bdb_RepMarkHasBindingInEndpointClusterArray
bdb_RepProcessEvent SYMBOL "bdb_RepProcessEvent"
`??bdb_RepProcessEvent::?relay` SYMBOL "?relay", bdb_RepProcessEvent
bdb_RepStartOrContinueReporting SYMBOL "bdb_RepStartOrContinueReporting"
`??bdb_RepStartOrContinueReporting::?relay` SYMBOL "?relay", bdb_RepStartOrContinueReporting
bdb_RepUpdateMarkBindings SYMBOL "bdb_RepUpdateMarkBindings"
`??bdb_RepUpdateMarkBindings::?relay` SYMBOL "?relay", bdb_RepUpdateMarkBindings

        EXTERN `??bdb_getZCLFrameCounter::?relay`
        FUNCTION `??bdb_getZCLFrameCounter::?relay`,00H
        EXTERN `??bindFind::?relay`
        FUNCTION `??bindFind::?relay`,00H
        EXTERN `??osal_get_timeoutEx::?relay`
        FUNCTION `??osal_get_timeoutEx::?relay`,00H
        EXTERN `??osal_mem_alloc::?relay`
        FUNCTION `??osal_mem_alloc::?relay`,00H
        EXTERN `??osal_mem_free::?relay`
        FUNCTION `??osal_mem_free::?relay`,00H
        EXTERN `??osal_memcpy::?relay`
        FUNCTION `??osal_memcpy::?relay`,00H
        EXTERN `??osal_memset::?relay`
        FUNCTION `??osal_memset::?relay`,00H
        EXTERN `??osal_nv_item_init::?relay`
        FUNCTION `??osal_nv_item_init::?relay`,00H
        EXTERN `??osal_nv_item_len::?relay`
        FUNCTION `??osal_nv_item_len::?relay`,00H
        EXTERN `??osal_nv_read::?relay`
        FUNCTION `??osal_nv_read::?relay`,00H
        EXTERN `??osal_nv_write::?relay`
        FUNCTION `??osal_nv_write::?relay`,00H
        EXTERN `??osal_start_timerEx::?relay`
        FUNCTION `??osal_start_timerEx::?relay`,00H
        EXTERN `??osal_stop_timerEx::?relay`
        FUNCTION `??osal_stop_timerEx::?relay`,00H
        EXTERN `??zclAnalogDataType::?relay`
        FUNCTION `??zclAnalogDataType::?relay`,00H
        EXTERN `??zclFindAttrRec::?relay`
        FUNCTION `??zclFindAttrRec::?relay`,00H
        EXTERN `??zclFindAttrRecsList::?relay`
        FUNCTION `??zclFindAttrRecsList::?relay`,00H
        EXTERN `??zclGetDataTypeLength::?relay`
        FUNCTION `??zclGetDataTypeLength::?relay`,00H
        EXTERN `??zcl_ReadAttrData::?relay`
        FUNCTION `??zcl_ReadAttrData::?relay`,00H
        EXTERN `??zcl_SendConfigReportRspCmd::?relay`
        FUNCTION `??zcl_SendConfigReportRspCmd::?relay`,00H
        EXTERN `??zcl_SendReadReportCfgRspCmd::?relay`
        FUNCTION `??zcl_SendReadReportCfgRspCmd::?relay`,00H
        EXTERN `??zcl_SendReportCmd::?relay`
        FUNCTION `??zcl_SendReportCmd::?relay`,00H
        EXTERN _NIB
        EXTERN bdb_HeadEpDescriptorList
        EXTERN bdb_TaskID
        EXTERN bdb_getZCLFrameCounter
        FUNCTION bdb_getZCLFrameCounter,0202H
        ARGFRAME ISTACK, 0, STACK
        ARGFRAME PSTACK, 0, STACK
        ARGFRAME XSTACK, 42, STACK
        ARGFRAME IOVERLAY, 0, STATIC
        ARGFRAME DOVERLAY, 0, STATIC
        EXTERN bindFind
        FUNCTION bindFind,0202H
        ARGFRAME ISTACK, 0, STACK
        ARGFRAME PSTACK, 0, STACK
        ARGFRAME XSTACK, 16, STACK
        ARGFRAME IOVERLAY, 0, STATIC
        ARGFRAME DOVERLAY, 0, STATIC
        EXTERN epList
        EXTERN osal_get_timeoutEx
        FUNCTION osal_get_timeoutEx,0202H
        ARGFRAME ISTACK, 2, STACK
        ARGFRAME PSTACK, 0, STACK
        ARGFRAME XSTACK, 34, STACK
        ARGFRAME IOVERLAY, 0, STATIC
        ARGFRAME DOVERLAY, 0, STATIC
        EXTERN osal_mem_alloc
        FUNCTION osal_mem_alloc,0202H
        ARGFRAME ISTACK, 0, STACK
        ARGFRAME PSTACK, 0, STACK
        ARGFRAME XSTACK, 42, STACK
        ARGFRAME IOVERLAY, 0, STATIC
        ARGFRAME DOVERLAY, 0, STATIC
        EXTERN osal_mem_free
        FUNCTION osal_mem_free,0202H
        ARGFRAME ISTACK, 2, STACK
        ARGFRAME PSTACK, 0, STACK
        ARGFRAME XSTACK, 42, STACK
        ARGFRAME IOVERLAY, 0, STATIC
        ARGFRAME DOVERLAY, 0, STATIC
        EXTERN osal_memcpy
        FUNCTION osal_memcpy,0202H
        ARGFRAME ISTACK, 0, STACK
        ARGFRAME PSTACK, 0, STACK
        ARGFRAME XSTACK, 45, STACK
        ARGFRAME IOVERLAY, 0, STATIC
        ARGFRAME DOVERLAY, 0, STATIC
        EXTERN osal_memset
        FUNCTION osal_memset,0202H
        ARGFRAME ISTACK, 0, STACK
        ARGFRAME PSTACK, 0, STACK
        ARGFRAME XSTACK, 42, STACK
        ARGFRAME IOVERLAY, 0, STATIC
        ARGFRAME DOVERLAY, 0, STATIC
        EXTERN osal_nv_item_init
        FUNCTION osal_nv_item_init,0202H
        ARGFRAME ISTACK, 0, STACK
        ARGFRAME PSTACK, 0, STACK
        ARGFRAME XSTACK, 36, STACK
        ARGFRAME IOVERLAY, 0, STATIC
        ARGFRAME DOVERLAY, 0, STATIC
        EXTERN osal_nv_item_len
        FUNCTION osal_nv_item_len,0202H
        ARGFRAME ISTACK, 0, STACK
        ARGFRAME PSTACK, 0, STACK
        ARGFRAME XSTACK, 10, STACK
        ARGFRAME IOVERLAY, 0, STATIC
        ARGFRAME DOVERLAY, 0, STATIC
        EXTERN osal_nv_read
        FUNCTION osal_nv_read,0202H
        ARGFRAME ISTACK, 0, STACK
        ARGFRAME PSTACK, 0, STACK
        ARGFRAME XSTACK, 14, STACK
        ARGFRAME IOVERLAY, 0, STATIC
        ARGFRAME DOVERLAY, 0, STATIC
        EXTERN osal_nv_write
        FUNCTION osal_nv_write,0202H
        ARGFRAME ISTACK, 0, STACK
        ARGFRAME PSTACK, 0, STACK
        ARGFRAME XSTACK, 38, STACK
        ARGFRAME IOVERLAY, 0, STATIC
        ARGFRAME DOVERLAY, 0, STATIC
        EXTERN osal_start_timerEx
        FUNCTION osal_start_timerEx,0202H
        ARGFRAME ISTACK, 0, STACK
        ARGFRAME PSTACK, 0, STACK
        ARGFRAME XSTACK, 20, STACK
        ARGFRAME IOVERLAY, 0, STATIC
        ARGFRAME DOVERLAY, 0, STATIC
        EXTERN osal_stop_timerEx
        FUNCTION osal_stop_timerEx,0202H
        ARGFRAME ISTACK, 2, STACK
        ARGFRAME PSTACK, 0, STACK
        ARGFRAME XSTACK, 16, STACK
        ARGFRAME IOVERLAY, 0, STATIC
        ARGFRAME DOVERLAY, 0, STATIC
        EXTERN zclAnalogDataType
        FUNCTION zclAnalogDataType,0202H
        ARGFRAME ISTACK, 0, STACK
        ARGFRAME PSTACK, 0, STACK
        ARGFRAME XSTACK, 42, STACK
        ARGFRAME IOVERLAY, 0, STATIC
        ARGFRAME DOVERLAY, 0, STATIC
        EXTERN zclFindAttrRec
        FUNCTION zclFindAttrRec,0202H
        ARGFRAME ISTACK, 0, STACK
        ARGFRAME PSTACK, 0, STACK
        ARGFRAME XSTACK, 36, STACK
        ARGFRAME IOVERLAY, 0, STATIC
        ARGFRAME DOVERLAY, 0, STATIC
        EXTERN zclFindAttrRecsList
        FUNCTION zclFindAttrRecsList,0202H
        ARGFRAME ISTACK, 0, STACK
        ARGFRAME PSTACK, 0, STACK
        ARGFRAME XSTACK, 39, STACK
        ARGFRAME IOVERLAY, 0, STATIC
        ARGFRAME DOVERLAY, 0, STATIC
        EXTERN zclGetDataTypeLength
        FUNCTION zclGetDataTypeLength,0202H
        ARGFRAME ISTACK, 0, STACK
        ARGFRAME PSTACK, 0, STACK
        ARGFRAME XSTACK, 42, STACK
        ARGFRAME IOVERLAY, 0, STATIC
        ARGFRAME DOVERLAY, 0, STATIC
        EXTERN zcl_ReadAttrData
        FUNCTION zcl_ReadAttrData,0202H
        ARGFRAME ISTACK, 0, STACK
        ARGFRAME PSTACK, 0, STACK
        ARGFRAME XSTACK, 25, STACK
        ARGFRAME IOVERLAY, 0, STATIC
        ARGFRAME DOVERLAY, 0, STATIC
        EXTERN zcl_SendConfigReportRspCmd
        FUNCTION zcl_SendConfigReportRspCmd,0202H
        ARGFRAME ISTACK, 0, STACK
        ARGFRAME PSTACK, 0, STACK
        ARGFRAME XSTACK, 39, STACK
        ARGFRAME IOVERLAY, 0, STATIC
        ARGFRAME DOVERLAY, 0, STATIC
        EXTERN zcl_SendReadReportCfgRspCmd
        FUNCTION zcl_SendReadReportCfgRspCmd,0202H
        ARGFRAME ISTACK, 0, STACK
        ARGFRAME PSTACK, 0, STACK
        ARGFRAME XSTACK, 39, STACK
        ARGFRAME IOVERLAY, 0, STATIC
        ARGFRAME DOVERLAY, 0, STATIC
        EXTERN zcl_SendReportCmd
        FUNCTION zcl_SendReportCmd,0202H
        ARGFRAME ISTACK, 0, STACK
        ARGFRAME PSTACK, 0, STACK
        ARGFRAME XSTACK, 47, STACK
        ARGFRAME IOVERLAY, 0, STATIC
        ARGFRAME DOVERLAY, 0, STATIC

// C:\Users\ASUS\Desktop\work\graduration project\software\Z-Stack 3.0.2\Components\stack\bdb\bdb_Reporting.c
//    1 /**************************************************************************************************
//    2   Filename:       bdb_Reporting.c
//    3   Revised:        $Date: 2016-02-25 11:51:49 -0700 (Thu, 25 Feb 2016) $
//    4   Revision:       $Revision: - $
//    5 
//    6   Description:    This file contains the Reporting Attributes functions.
//    7 
//    8 
//    9   Copyright 2006-2015 Texas Instruments Incorporated. All rights reserved.
//   10 
//   11   IMPORTANT: Your use of this Software is limited to those specific rights
//   12   granted under the terms of a software license agreement between the user
//   13   who downloaded the software, his/her employer (which must be your employer)
//   14   and Texas Instruments Incorporated (the "License").  You may not use this
//   15   Software unless you agree to abide by the terms of the License. The License
//   16   limits your use, and you acknowledge, that the Software may not be modified,
//   17   copied or distributed unless embedded on a Texas Instruments microcontroller
//   18   or used solely and exclusively in conjunction with a Texas Instruments radio
//   19   frequency transceiver, which is integrated into your product.  Other than for
//   20   the foregoing purpose, you may not use, reproduce, copy, prepare derivative
//   21   works of, modify, distribute, perform, display or sell this Software and/or
//   22   its documentation for any purpose.
//   23 
//   24   YOU FURTHER ACKNOWLEDGE AND AGREE THAT THE SOFTWARE AND DOCUMENTATION ARE
//   25   PROVIDED "AS IS" WITHOUT WARRANTY OF ANY KIND, EITHER EXPRESS OR IMPLIED,
//   26   INCLUDING WITHOUT LIMITATION, ANY WARRANTY OF MERCHANTABILITY, TITLE,
//   27   NON-INFRINGEMENT AND FITNESS FOR A PARTICULAR PURPOSE. IN NO EVENT SHALL
//   28   TEXAS INSTRUMENTS OR ITS LICENSORS BE LIABLE OR OBLIGATED UNDER CONTRACT,
//   29   NEGLIGENCE, STRICT LIABILITY, CONTRIBUTION, BREACH OF WARRANTY, OR OTHER
//   30   LEGAL EQUITABLE THEORY ANY DIRECT OR INDIRECT DAMAGES OR EXPENSES
//   31   INCLUDING BUT NOT LIMITED TO ANY INCIDENTAL, SPECIAL, INDIRECT, PUNITIVE
//   32   OR CONSEQUENTIAL DAMAGES, LOST PROFITS OR LOST DATA, COST OF PROCUREMENT
//   33   OF SUBSTITUTE GOODS, TECHNOLOGY, SERVICES, OR ANY CLAIMS BY THIRD PARTIES
//   34   (INCLUDING BUT NOT LIMITED TO ANY DEFENSE THEREOF), OR OTHER SIMILAR COSTS.
//   35 
//   36   Should you have any questions regarding your right to use this Software,
//   37   contact Texas Instruments Incorporated at www.TI.com.
//   38 **************************************************************************************************/
//   39 
//   40 #ifdef BDB_REPORTING
//   41 /*********************************************************************
//   42  * INCLUDES
//   43  */
//   44  
//   45 #include "bdb.h"
//   46 #include "zcl.h"
//   47 #include "ZDObject.h"
//   48 #include "bdb_Reporting.h"
//   49 #include "OSAL.h"
//   50 #include "zcl_ms.h"
//   51 #include "bdb_interface.h"
//   52    
//   53 /*********************************************************************
//   54  * MACROS
//   55  */
//   56 #define EQUAL_LLISTITEMDATA( a, b ) ( a.attrID == b.attrID )
//   57 #define EQUAL_LLISTCFGATTRITEMDATA( a, b ) ( a.endpoint == b.endpoint &&  a.attrID == b.attrID && a.cluster == b.cluster )
//   58 #define FLAGS_TURNOFFALLFLAGS( flags ) ( flags = 0x00 )
//   59 #define FLAGS_TURNOFFFLAG( flags, flagMask ) ( flags &= ~flagMask )
//   60 #define FLAGS_TURNONFLAG( flags, flagMask ) ( flags |= flagMask )
//   61 #define FLAGS_CHECKFLAG( flags, flagMask ) ( (flags & flagMask) > 0? BDBREPORTING_TRUE: BDBREPORTING_FALSE )
//   62 
//   63  /*********************************************************************
//   64  * CONSTANTS
//   65  */
//   66 #define BDBREPORTING_HASBINDING_FLAG_MASK      0x01
//   67 #define BDBREPORTING_NONEXTINCREMENT_FLAG_MASK 0x02
//   68 
//   69    
//   70 #if BDBREPORTING_MAX_ANALOG_ATTR_SIZE == 8   
//   71 #define BDBREPORTING_DEFAULTCHANGEVALUE {0x00, 0x00, 0x00, 0x00, 0x00, 0x00, 0x00, 0x00}
//   72 #endif
//   73 #if BDBREPORTING_MAX_ANALOG_ATTR_SIZE == 4   
//   74 #define BDBREPORTING_DEFAULTCHANGEVALUE {0x00, 0x00, 0x00, 0x00}
//   75 #endif
//   76 #if BDBREPORTING_MAX_ANALOG_ATTR_SIZE == 2   
//   77 #define BDBREPORTING_DEFAULTCHANGEVALUE {0x00, 0x00}
//   78 #endif
//   79 
//   80 #define BDBREPORTING_MAXINTERVAL_DEFAULT 0x0000
//   81 #define BDBREPORTING_MININTERVAL_DEFAULT 0xFFFF
//   82    
//   83 /*********************************************************************
//   84  * TYPEDEFS
//   85  */
//   86 //Data to hold informaation about an attribute in a linked list thats inside
//   87 //the cluster-endpoint entry 
//   88 typedef struct
//   89 {
//   90   uint16 attrID;
//   91   uint8  lastValueReported[BDBREPORTING_MAX_ANALOG_ATTR_SIZE];
//   92   uint8  reportableChange[BDBREPORTING_MAX_ANALOG_ATTR_SIZE];
//   93 } bdbReportAttrLive_t;
//   94    
//   95    
//   96 //This structrue holds the data of a attribute reporting configiration that
//   97 //is used at runtime and it's saved in the NV
//   98 typedef struct
//   99 {
//  100   uint8 endpoint;
//  101   uint16 cluster;
//  102   uint16 attrID;
//  103   uint16 minReportInt;
//  104   uint16 maxReportInt;
//  105   uint16 defaultMinReportInt;
//  106   uint16 defaultMaxReportInt;
//  107   uint8  reportableChange[BDBREPORTING_MAX_ANALOG_ATTR_SIZE];
//  108   uint8  defaultReportableChange[BDBREPORTING_MAX_ANALOG_ATTR_SIZE];
//  109 } bdbReportAttrCfgData_t;   
//  110 
//  111 //This structure represents a node in the linked list of the attributes 
//  112 //data in the cluster-endpoint entry
//  113 typedef struct bdbLinkedListAttrItem
//  114 {
//  115   bdbReportAttrLive_t* data;
//  116   struct bdbLinkedListAttrItem *next;
//  117 } bdbLinkedListAttrItem_t;
//  118 
//  119 
//  120 //This structure represents a linked list of the attributes 
//  121 //data in the cluster-endpoint entry
//  122 typedef struct bdbAttrLinkedListAttr
//  123 {
//  124   uint8 numItems;
//  125   bdbLinkedListAttrItem_t *head;
//  126 } bdbAttrLinkedListAttr_t;
//  127    
//  128 // This structure is an entry of a cluster-endpoint table used by the reporting
//  129 //code (the consolidated values) to actually report periodically
//  130 typedef struct
//  131 {
//  132   uint8 flags;
//  133   uint8  endpoint;             // status field
//  134   uint16  cluster;          // to send or receive reports of the attribute
//  135   uint16  consolidatedMinReportInt;             // attribute ID
//  136   uint16  consolidatedMaxReportInt;           // attribute data type
//  137   uint16  timeSinceLastReport;
//  138   bdbAttrLinkedListAttr_t attrLinkedList;
//  139 } bdbReportAttrClusterEndpoint_t;   
//  140 
//  141 
//  142 //This structure serves to hold the flags data of a bdbReportAttrClusterEndpoint_t 
//  143 //with key =(endpoint,cluster) in instance of the bdb reporting where the table is regenerated
//  144 typedef struct
//  145 {
//  146   uint8 flags;
//  147   uint8  endpoint;            
//  148   uint16  cluster;
//  149 } bdbReportFlagsHolder_t;
//  150 
//  151 //This structure holds the data of a default attribute reporting configuration
//  152 //entered by the application
//  153 typedef struct
//  154 {
//  155   uint8 endpoint; 
//  156   uint16 cluster; 
//  157   uint16 attrID;
//  158   uint16 minReportInt;
//  159   uint16 maxReportInt;
//  160   uint8  reportableChange[BDBREPORTING_MAX_ANALOG_ATTR_SIZE];
//  161 } bdbReportAttrDefaultCfgData_t;
//  162    
//  163 //This structure represents a node in the linked list of the default attributes 
//  164 //configurations entered by the application
//  165 typedef struct bdbRepAttrDefaultCfgRecordLinkedListItem
//  166 {
//  167   bdbReportAttrDefaultCfgData_t* data;
//  168   struct bdbRepAttrDefaultCfgRecordLinkedListItem *next;
//  169 } bdbRepAttrDefaultCfgRecordLinkedListItem_t;
//  170 
//  171 //This structure represents the linked list of the default attributes 
//  172 //configurations entered by the application
//  173 typedef struct bdbRepAttrDefaultCfgRecordLinkedList
//  174 {
//  175   uint8 numItems;
//  176   bdbRepAttrDefaultCfgRecordLinkedListItem_t *head;
//  177 } bdbRepAttrDefaultCfgRecordLinkedList_t;
//  178 
//  179 
//  180 
//  181 /*********************************************************************
//  182  * GLOBAL VARIABLES
//  183  */

        RSEG XDATA_Z:XDATA:NOROOT(0)
        DATA32
//  184 uint8 gAttrDataValue[BDBREPORTING_MAX_ANALOG_ATTR_SIZE];
gAttrDataValue:
        DS 4
        REQUIRE __INIT_XDATA_Z
//  185 
//  186 /*********************************************************************
//  187  * EXTERNAL VARIABLES
//  188  */
//  189 
//  190 /*********************************************************************
//  191  * EXTERNAL FUNCTIONS
//  192  */
//  193 
//  194 /*********************************************************************
//  195  * LOCAL VARIABLES
//  196  */
//  197 
//  198 //Table of cluster-endpoint entries used to report periodically

        RSEG XDATA_Z:XDATA:NOROOT(0)
        DATA8
//  199 bdbReportAttrClusterEndpoint_t bdb_reportingClusterEndpointArray[BDB_MAX_CLUSTERENDPOINTS_REPORTING];
bdb_reportingClusterEndpointArray:
        DS 65
        REQUIRE __INIT_XDATA_Z
//  200 //Current size of the cluster-endpoint table  

        RSEG XDATA_Z:XDATA:NOROOT(0)
        DATA8
//  201 uint8 bdb_reportingClusterEndpointArrayCount;
bdb_reportingClusterEndpointArrayCount:
        DS 1
        REQUIRE __INIT_XDATA_Z
//  202 //This variable has the timeout value of the currrent timer use to report peridically

        RSEG XDATA_Z:XDATA:NOROOT(0)
        DATA16
//  203 uint16 bdb_reportingNextEventTimeout;
bdb_reportingNextEventTimeout:
        DS 2
        REQUIRE __INIT_XDATA_Z
//  204 //This variable hasthe index of the cluster-endpoint entry that trigger the current
//  205 //timer use to report periodically 

        RSEG XDATA_Z:XDATA:NOROOT(0)
        DATA8
//  206 uint8 bdb_reportingNextClusterEndpointIndex;
bdb_reportingNextClusterEndpointIndex:
        DS 1
        REQUIRE __INIT_XDATA_Z
//  207 //This is the table that holds in the memory the attribute reporting configurations (dynamic table)

        RSEG XDATA_Z:XDATA:NOROOT(0)
        DATA16
//  208 bdbReportAttrCfgData_t* bdb_reportingAttrCfgRecordsArray;
bdb_reportingAttrCfgRecordsArray:
        DS 2
        REQUIRE __INIT_XDATA_Z
//  209 //Current size of the attribute reporting configurations table

        RSEG XDATA_Z:XDATA:NOROOT(0)
        DATA8
//  210 uint8 bdb_reportingAttrCfgRecordsArrayCount;
bdb_reportingAttrCfgRecordsArrayCount:
        DS 1
        REQUIRE __INIT_XDATA_Z
//  211 //Max size of the attribute reporting configurations table

        RSEG XDATA_Z:XDATA:NOROOT(0)
        DATA8
//  212 uint8 bdb_reportingAttrCfgRecordsArrayMaxSize;
bdb_reportingAttrCfgRecordsArrayMaxSize:
        DS 1
        REQUIRE __INIT_XDATA_Z
//  213 //Linked list for holding the default attribute reporting configurations
//  214 //enteres by the application

        RSEG XDATA_Z:XDATA:NOROOT(0)
        DATA8
//  215 bdbRepAttrDefaultCfgRecordLinkedList_t attrDefaultCfgRecordLinkedList;
attrDefaultCfgRecordLinkedList:
        DS 3
        REQUIRE __INIT_XDATA_Z
//  216 //Flag used to signal when not to accept more default attribute reporting configurations

        RSEG XDATA_Z:XDATA:NOROOT(0)
        DATA8
//  217 uint8 bdb_reportingAcceptDefaultConfs;
bdb_reportingAcceptDefaultConfs:
        DS 1
        REQUIRE __INIT_XDATA_Z
//  218 
//  219 /*********************************************************************
//  220  * PUBLIC FUNCTIONS PROTOYPES
//  221  */
//  222 
//  223 /*********************************************************************
//  224  * LOCAL FUNCTIONS PROTOYPES
//  225  */
//  226 
//  227 //Begin: Single linked list for attributes in a cluster-endpoint live entry methods 
//  228 static void bdb_InitReportAttrLiveValues( bdbReportAttrLive_t* item );
//  229 static void bdb_linkedListAttrInit( bdbAttrLinkedListAttr_t *list );
//  230 static uint8 bdb_linkedListAttrAdd( bdbAttrLinkedListAttr_t *list, bdbReportAttrLive_t* data );
//  231 static bdbLinkedListAttrItem_t* bdb_linkedListAttrSearch( bdbAttrLinkedListAttr_t *list, bdbReportAttrLive_t* searchdata );
//  232 static bdbReportAttrLive_t* bdb_linkedListAttrRemove( bdbAttrLinkedListAttr_t *list );
//  233 static uint8 bdb_linkedListAttrFreeAll( bdbAttrLinkedListAttr_t *list );
//  234 static void bdb_linkedListAttrClearList( bdbAttrLinkedListAttr_t *list );
//  235 static bdbLinkedListAttrItem_t* bdb_linkedListAttrGetAtIndex( bdbAttrLinkedListAttr_t *list, uint8 index );
//  236 //End: Single Linked List methods
//  237 
//  238 //Begin: Cluster-endpoint array live methods
//  239 static void bdb_clusterEndpointArrayInit( void );
//  240 static uint8 bdb_clusterEndpointArrayAdd( uint8 endpoint, uint16 cluster, uint16 consolidatedMinReportInt, uint16 consolidatedMaxReportInt, uint16 timeSinceLastReport );
//  241 static uint8 bdb_clusterEndpointArrayGetMin( void );
//  242 static void bdb_clusterEndpointArrayMoveTo( uint8 indexSrc, uint8 indexDest );
//  243 static uint8 bdb_clusterEndpointArrayUpdateAt( uint8 index, uint16 newTimeSinceLastReport, uint8 markHasBinding, uint8 noNextIncrement );
//  244 static void bdb_clusterEndpointArrayFreeAll( void );
//  245 static uint8 bdb_clusterEndpointArraySearch( uint8 endpoint, uint16 cluster );
//  246 static uint8 bdb_clusterEndpointArrayRemoveAt( uint8 index );
//  247 static void bdb_clusterEndpointArrayIncrementAll( uint16 timeSinceLastReportIncrement, uint8 CheckNoIncrementFlag );
//  248 //End: Cluster-endpoint array live methods
//  249 
//  250 //Begin: Single linked list default attr cfg records methods
//  251 static void bdb_repAttrDefaultCfgRecordInitValues( bdbReportAttrDefaultCfgData_t* item );
//  252 static void bdb_repAttrDefaultCfgRecordsLinkedListInit( bdbRepAttrDefaultCfgRecordLinkedList_t *list );
//  253 static uint8 bdb_repAttrDefaultCfgRecordsLinkedListAdd( bdbRepAttrDefaultCfgRecordLinkedList_t *list, bdbReportAttrDefaultCfgData_t* data );
//  254 static bdbRepAttrDefaultCfgRecordLinkedListItem_t* bdb_repAttrDefaultCfgRecordsLinkedListSearch( bdbRepAttrDefaultCfgRecordLinkedList_t *list, 
//  255                                                                                                 bdbReportAttrDefaultCfgData_t searchdata );
//  256 static bdbReportAttrDefaultCfgData_t* bdb_repAttrDefaultCfgRecordsLinkedListRemove( bdbRepAttrDefaultCfgRecordLinkedList_t *list );
//  257 static uint8 bdb_repAttrDefaultCfgRecordsLinkedListFreeAll( bdbRepAttrDefaultCfgRecordLinkedList_t *list );
//  258 //End: Single linked list default attr cfg records methods
//  259 
//  260 //Begin: Reporting attr configuration array methods
//  261 static void bdb_repAttrCfgRecordsArrayInit( void );
//  262 static uint8 bdb_repAttrCfgRecordsArrayCreate( uint8 maxNumRepAttrConfRecords );
//  263 static uint8 bdb_repAttrCfgRecordsArrayAdd( uint8 endpoint, uint16 cluster, uint16 attrID, uint16 minReportInt, 
//  264                                            uint16 maxReportInt, uint8  reportableChange[], uint16 defMinReportInt, uint16 defMaxReportInt, uint8 defReportChange[] );
//  265 static void bdb_repAttrCfgRecordsArrayFreeAll( void );
//  266 static uint8 bdb_repAttrCfgRecordsArraySearch( uint8 endpoint, uint16 cluster, uint16 attrID );
//  267 static uint8 bdb_repAttrCfgRecordsArrayConsolidateValues( uint8 endpoint, uint16 cluster,  uint16* consolidatedMinReportInt, uint16* consolidatedMaxReportInt );
//  268 //End: Reporting attr configuration array methods
//  269 
//  270 
//  271 static uint8 bdb_repAttrBuildClusterEndPointArrayBasedOnConfRecordsArray( void );
//  272 static uint8 bdb_RepConstructAttrCfgArray( void );
//  273 static void bdb_RepInitAttrCfgRecords( void );
//  274 
//  275 static endPointDesc_t* bdb_FindEpDesc( uint8 endPoint );
//  276 static uint8 bdb_RepFindAttrEntry( uint8 endpoint, uint16 cluster, uint16 attrID, zclAttribute_t* attrRes );
//  277 static uint8 bdb_RepLoadCfgRecords( void );
//  278 static uint8 bdb_isAttrValueChangedSurpassDelta( uint8 datatype, uint8* delta, uint8* curValue, uint8* lastValue );
//  279 static uint16 bdb_RepCalculateEventElapsedTime( uint32 remainingTimeoutTimer, uint16 nextEventTimeout );
//  280 static void bdb_RepRestartNextEventTimer( void );
//  281 
//  282 static void bdb_RepStartReporting( void );
//  283 static void bdb_RepStopEventTimer( void );
//  284 static void bdb_RepSetupReporting( void );
//  285 static void bdb_RepReport( uint8 indexClusterEndpoint );
//  286 
//  287 extern zclAttrRecsList *zclFindAttrRecsList( uint8 endpoint ); //Definition is located in zcl.h
//  288 
//  289 /*********************************************************************
//  290  * PUBLIC FUNCTIONS DEFINITIONS
//  291  */
//  292 
//  293  /*********************************************************************
//  294  * @fn          bdb_RepInit
//  295  *
//  296  * @brief       Initiates the tables and linked list used in the reporting code.
//  297  *
//  298  * @param       none
//  299  *
//  300  * @return      none
//  301  */

        RSEG BANKED_CODE:HUGECODE:NOROOT(0)
//  302 void bdb_RepInit( void )
bdb_RepInit:
          CFI Block cfiBlock0 Using cfiCommon0
          CFI Function bdb_RepInit
        CODE
//  303 {
        PUSH      DPL
          CFI DPL0 Frame(CFA_SP, 4)
          CFI CFA_SP SP+-4
        PUSH      DPH
          CFI DPH0 Frame(CFA_SP, 5)
          CFI CFA_SP SP+-5
        ; Saved register size: 2
        ; Auto size: 0
//  304   bdb_reportingNextEventTimeout = 0;
        MOV       DPTR,#bdb_reportingNextEventTimeout
        CLR       A
        MOVX      @DPTR,A
        INC       DPTR
        MOVX      @DPTR,A
//  305   bdb_reportingAcceptDefaultConfs = BDBREPORTING_TRUE;
        MOV       DPTR,#bdb_reportingAcceptDefaultConfs
        INC       A
        MOVX      @DPTR,A
//  306   bdb_repAttrCfgRecordsArrayInit( );
        MOV       DPTR,#bdb_reportingAttrCfgRecordsArray
        CLR       A
        MOVX      @DPTR,A
        INC       DPTR
        MOVX      @DPTR,A
        MOV       DPTR,#bdb_reportingAttrCfgRecordsArrayCount
        MOVX      @DPTR,A
//  307   bdb_repAttrDefaultCfgRecordsLinkedListInit( &attrDefaultCfgRecordLinkedList );
        MOV       DPTR,#attrDefaultCfgRecordLinkedList + 1
        MOVX      @DPTR,A
        INC       DPTR
        MOVX      @DPTR,A
        MOV       DPTR,#attrDefaultCfgRecordLinkedList
        MOVX      @DPTR,A
//  308   bdb_clusterEndpointArrayInit( );
        MOV       DPTR,#bdb_reportingClusterEndpointArrayCount
        LJMP      ?Subroutine0 & 0xFFFF
//  309 }
          CFI EndBlock cfiBlock0
//  310 
//  311  /*********************************************************************
//  312  * @fn          bdb_RepConstructReportingData
//  313  *
//  314  * @brief       Creates the attr reporting configurations by looking at 
//  315  *              the app endpoints, cluster and attr definitions or loads 
//  316  *              from NV the previous configurations.
//  317  *
//  318  * @param       none
//  319  *
//  320  * @return      none
//  321  */

        RSEG BANKED_CODE:HUGECODE:NOROOT(0)
//  322 void bdb_RepConstructReportingData( void )
bdb_RepConstructReportingData:
          CFI Block cfiBlock1 Using cfiCommon0
          CFI Function bdb_RepConstructReportingData
        CODE
//  323 {
        FUNCALL bdb_RepConstructReportingData, bdb_RepInitAttrCfgRecords
        LOCFRAME ISTACK, 2, STACK
        LOCFRAME PSTACK, 0, STACK
        LOCFRAME XSTACK, 0, STACK
        LOCFRAME IOVERLAY, 0, STATIC
        LOCFRAME DOVERLAY, 0, STATIC
        ARGFRAME ISTACK, 2, STACK
        ARGFRAME PSTACK, 0, STACK
        ARGFRAME XSTACK, 0, STACK
        ARGFRAME IOVERLAY, 0, STATIC
        ARGFRAME DOVERLAY, 0, STATIC
        FUNCALL bdb_RepConstructReportingData, bdb_repAttrBuildClusterEndPointArrayBasedOnConfRecordsArray
        LOCFRAME ISTACK, 2, STACK
        LOCFRAME PSTACK, 0, STACK
        LOCFRAME XSTACK, 0, STACK
        LOCFRAME IOVERLAY, 0, STATIC
        LOCFRAME DOVERLAY, 0, STATIC
        ARGFRAME ISTACK, 2, STACK
        ARGFRAME PSTACK, 0, STACK
        ARGFRAME XSTACK, 0, STACK
        ARGFRAME IOVERLAY, 0, STATIC
        ARGFRAME DOVERLAY, 0, STATIC
        FUNCALL bdb_RepConstructReportingData, bdb_repAttrCfgRecordsArrayFreeAll
        LOCFRAME ISTACK, 2, STACK
        LOCFRAME PSTACK, 0, STACK
        LOCFRAME XSTACK, 0, STACK
        LOCFRAME IOVERLAY, 0, STATIC
        LOCFRAME DOVERLAY, 0, STATIC
        ARGFRAME ISTACK, 2, STACK
        ARGFRAME PSTACK, 0, STACK
        ARGFRAME XSTACK, 0, STACK
        ARGFRAME IOVERLAY, 0, STATIC
        ARGFRAME DOVERLAY, 0, STATIC
        PUSH      DPL
          CFI DPL0 Frame(CFA_SP, 4)
          CFI CFA_SP SP+-4
        PUSH      DPH
          CFI DPH0 Frame(CFA_SP, 5)
          CFI CFA_SP SP+-5
        ; Saved register size: 2
        ; Auto size: 0
//  324   //Don't accept anymore default attribute configurations entries
//  325   bdb_reportingAcceptDefaultConfs = BDBREPORTING_FALSE;
        MOV       DPTR,#bdb_reportingAcceptDefaultConfs
        CLR       A
        MOVX      @DPTR,A
//  326   //Construct the attr cfg records
//  327   bdb_RepInitAttrCfgRecords( );
        ; Setup parameters for call to function bdb_RepInitAttrCfgRecords
        LCALL     `??bdb_RepInitAttrCfgRecords::?relay`; Banked call to: bdb_RepInitAttrCfgRecords
//  328   //Construct the endpoint-cluster array
//  329   bdb_repAttrBuildClusterEndPointArrayBasedOnConfRecordsArray( );
        ; Setup parameters for call to function bdb_repAttrBuildClusterEndPointArrayBasedOnConfRecordsArray
        LCALL     ??bdb_repAttrBuildClusterEndPointArrayBasedOnCo; Banked call to: bdb_repAttrBuildClusterEndPointArrayBasedOnConfRecordsArray
//  330   //Delete reporting configuration array, it's saved in NV
//  331   bdb_repAttrCfgRecordsArrayFreeAll( ); 
        ; Setup parameters for call to function bdb_repAttrCfgRecordsArrayFreeAll
        LCALL     `??bdb_repAttrCfgRecordsArrayFreeAll::?relay`; Banked call to: bdb_repAttrCfgRecordsArrayFreeAll
//  332 }
        LJMP      ??Subroutine87_0 & 0xFFFF
          CFI EndBlock cfiBlock1
//  333 
//  334  /*********************************************************************
//  335  * @fn          bdb_RepMarkHasBindingInEndpointClusterArray
//  336  *
//  337  * @brief       Marks the binding flag as ON at the entry containig the 
//  338  *              cluster-endpoint pair.
//  339  *
//  340  * @param       endpoint - endpoint id of the entry to locate
//  341  * @param       cluster - cluster id of the entry to locate
//  342  *
//  343  * @return      none
//  344  */

        RSEG BANKED_CODE:HUGECODE:NOROOT(0)
//  345 void bdb_RepMarkHasBindingInEndpointClusterArray( uint8 endpoint, uint16 cluster, uint8 unMark, uint8 setNoNextIncrementFlag )
bdb_RepMarkHasBindingInEndpointClusterArray:
          CFI Block cfiBlock2 Using cfiCommon0
          CFI Function bdb_RepMarkHasBindingInEndpointClusterArray
        CODE
//  346 {
        FUNCALL bdb_RepMarkHasBindingInEndpointClusterArray, bdb_clusterEndpointArraySearch
        LOCFRAME ISTACK, 0, STACK
        LOCFRAME PSTACK, 0, STACK
        LOCFRAME XSTACK, 9, STACK
        LOCFRAME IOVERLAY, 0, STATIC
        LOCFRAME DOVERLAY, 0, STATIC
        ARGFRAME ISTACK, 0, STACK
        ARGFRAME PSTACK, 0, STACK
        ARGFRAME XSTACK, 9, STACK
        ARGFRAME IOVERLAY, 0, STATIC
        ARGFRAME DOVERLAY, 0, STATIC
        FUNCALL bdb_RepMarkHasBindingInEndpointClusterArray, bdb_clusterEndpointArrayUpdateAt
        LOCFRAME ISTACK, 0, STACK
        LOCFRAME PSTACK, 0, STACK
        LOCFRAME XSTACK, 9, STACK
        LOCFRAME IOVERLAY, 0, STATIC
        LOCFRAME DOVERLAY, 0, STATIC
        ARGFRAME ISTACK, 0, STACK
        ARGFRAME PSTACK, 0, STACK
        ARGFRAME XSTACK, 9, STACK
        ARGFRAME IOVERLAY, 0, STATIC
        ARGFRAME DOVERLAY, 0, STATIC
        FUNCALL bdb_RepMarkHasBindingInEndpointClusterArray, bdb_clusterEndpointArrayUpdateAt
        LOCFRAME ISTACK, 0, STACK
        LOCFRAME PSTACK, 0, STACK
        LOCFRAME XSTACK, 9, STACK
        LOCFRAME IOVERLAY, 0, STATIC
        LOCFRAME DOVERLAY, 0, STATIC
        ARGFRAME ISTACK, 0, STACK
        ARGFRAME PSTACK, 0, STACK
        ARGFRAME XSTACK, 9, STACK
        ARGFRAME IOVERLAY, 0, STATIC
        ARGFRAME DOVERLAY, 0, STATIC
        REQUIRE ?V0
        MOV       A,#-0x9
        LCALL     ?BANKED_ENTER_XDATA
          CFI DPH0 load(1, XDATA, add(CFA_XSP16, literal(-1)))
          CFI DPL0 load(1, XDATA, add(CFA_XSP16, literal(-2)))
          CFI ?BRET_EXT load(1, XDATA, add(CFA_XSP16, literal(-3)))
          CFI ?RET_HIGH load(1, XDATA, add(CFA_XSP16, literal(-4)))
          CFI ?RET_LOW load(1, XDATA, add(CFA_XSP16, literal(-5)))
          CFI R7 load(1, XDATA, add(CFA_XSP16, literal(-6)))
          CFI V0 load(1, XDATA, add(CFA_XSP16, literal(-7)))
          CFI VB load(1, XDATA, add(CFA_XSP16, literal(-8)))
          CFI R6 load(1, XDATA, add(CFA_XSP16, literal(-9)))
          CFI CFA_SP SP+0
          CFI CFA_XSP16 add(XSP16, 9)
        ; Saved register size: 9
        ; Auto size: 0
        MOV       ?V0,R4
        MOV       A,R5
        MOV       R6,A
//  347   uint8 foundIndex;
//  348   if( bdb_reportingClusterEndpointArrayCount > 0 )
        MOV       DPTR,#bdb_reportingClusterEndpointArrayCount
        MOVX      A,@DPTR
        JZ        ??bdb_RepMarkHasBindingInEndpointClusterArray_0
//  349   {
//  350     foundIndex = bdb_clusterEndpointArraySearch( endpoint, cluster );
        ; Setup parameters for call to function bdb_clusterEndpointArraySearch
        LCALL     `??bdb_clusterEndpointArraySearch::?relay`; Banked call to: bdb_clusterEndpointArraySearch
        MOV       A,R1
        MOV       R1,A
//  351     if( foundIndex != BDBREPORTING_INVALIDINDEX )
        MOV       A,#-0x1
        XRL       A,R1
        JZ        ??bdb_RepMarkHasBindingInEndpointClusterArray_0
//  352     {
//  353       if( unMark == BDBREPORTING_TRUE )
        MOV       A,#0x1
        XRL       A,?V0
        JNZ       ??bdb_RepMarkHasBindingInEndpointClusterArray_1
//  354       {
//  355         bdb_clusterEndpointArrayUpdateAt( foundIndex, 0, BDBREPORTING_FALSE, setNoNextIncrementFlag );
        ; Setup parameters for call to function bdb_clusterEndpointArrayUpdateAt
        MOV       A,R6
        MOV       R5,A
        MOV       R4,#0x0
        SJMP      ??bdb_RepMarkHasBindingInEndpointClusterArray_2
//  356       }
//  357       else
//  358       {
//  359         bdb_clusterEndpointArrayUpdateAt( foundIndex, 0, BDBREPORTING_TRUE, setNoNextIncrementFlag );
??bdb_RepMarkHasBindingInEndpointClusterArray_1:
        ; Setup parameters for call to function bdb_clusterEndpointArrayUpdateAt
        MOV       A,R6
        MOV       R5,A
        MOV       R4,#0x1
??bdb_RepMarkHasBindingInEndpointClusterArray_2:
        MOV       R2,#0x0
        MOV       R3,#0x0
        LCALL     `??bdb_clusterEndpointArrayUpdateAt::?relay`; Banked call to: bdb_clusterEndpointArrayUpdateAt
//  360       }
//  361     }
//  362   }
//  363 }
??bdb_RepMarkHasBindingInEndpointClusterArray_0:
        LJMP      ?Subroutine1 & 0xFFFF
          CFI EndBlock cfiBlock2
//  364 
//  365  /*********************************************************************
//  366  * @fn          bdb_RepStartReporting
//  367  *
//  368  * @brief       Restarts the periodic reporting timer, if the timer was already
//  369  *              running it stops it and to before starting timer sets some state 
//  370  *              variables.
//  371  *
//  372  * @return      none
//  373  */

        RSEG BANKED_CODE:HUGECODE:NOROOT(0)
//  374 static void bdb_RepStartReporting( void )
bdb_RepStartReporting:
          CFI Block cfiBlock3 Using cfiCommon0
          CFI Function bdb_RepStartReporting
        CODE
//  375 {
        FUNCALL bdb_RepStartReporting, osal_get_timeoutEx
        LOCFRAME ISTACK, 2, STACK
        LOCFRAME PSTACK, 0, STACK
        LOCFRAME XSTACK, 0, STACK
        LOCFRAME IOVERLAY, 0, STATIC
        LOCFRAME DOVERLAY, 0, STATIC
        ARGFRAME ISTACK, 2, STACK
        ARGFRAME PSTACK, 0, STACK
        ARGFRAME XSTACK, 0, STACK
        ARGFRAME IOVERLAY, 0, STATIC
        ARGFRAME DOVERLAY, 0, STATIC
        FUNCALL bdb_RepStartReporting, osal_stop_timerEx
        LOCFRAME ISTACK, 2, STACK
        LOCFRAME PSTACK, 0, STACK
        LOCFRAME XSTACK, 0, STACK
        LOCFRAME IOVERLAY, 0, STATIC
        LOCFRAME DOVERLAY, 0, STATIC
        ARGFRAME ISTACK, 2, STACK
        ARGFRAME PSTACK, 0, STACK
        ARGFRAME XSTACK, 0, STACK
        ARGFRAME IOVERLAY, 0, STATIC
        ARGFRAME DOVERLAY, 0, STATIC
        FUNCALL bdb_RepStartReporting, bdb_RepRestartNextEventTimer
        LOCFRAME ISTACK, 2, STACK
        LOCFRAME PSTACK, 0, STACK
        LOCFRAME XSTACK, 0, STACK
        LOCFRAME IOVERLAY, 0, STATIC
        LOCFRAME DOVERLAY, 0, STATIC
        ARGFRAME ISTACK, 2, STACK
        ARGFRAME PSTACK, 0, STACK
        ARGFRAME XSTACK, 0, STACK
        ARGFRAME IOVERLAY, 0, STATIC
        ARGFRAME DOVERLAY, 0, STATIC
        PUSH      DPL
          CFI DPL0 Frame(CFA_SP, 4)
          CFI CFA_SP SP+-4
        PUSH      DPH
          CFI DPH0 Frame(CFA_SP, 5)
          CFI CFA_SP SP+-5
        ; Saved register size: 2
        ; Auto size: 0
//  376   //Stop if reporting timer is active
//  377   if( !osal_get_timeoutEx( bdb_TaskID, BDB_REPORT_TIMEOUT ) )
        ; Setup parameters for call to function osal_get_timeoutEx
        MOV       R2,#-0x80
        MOV       R3,#0x0
        MOV       DPTR,#bdb_TaskID
        MOVX      A,@DPTR
        MOV       R1,A
        LCALL     `??osal_get_timeoutEx::?relay`; Banked call to: osal_get_timeoutEx
        MOV       A,R2
        ORL       A,R3
        ORL       A,R4
        ORL       A,R5
        JNZ       ??bdb_RepStartReporting_0
//  378   {
//  379     //timerElapsedTime is zero
//  380     osal_stop_timerEx( bdb_TaskID, BDB_REPORT_TIMEOUT );
        ; Setup parameters for call to function osal_stop_timerEx
        MOV       R2,#-0x80
        MOV       R3,#0x0
        MOV       DPTR,#bdb_TaskID
        MOVX      A,@DPTR
        MOV       R1,A
        LCALL     `??osal_stop_timerEx::?relay`; Banked call to: osal_stop_timerEx
//  381     bdb_reportingNextEventTimeout = 0;
        MOV       DPTR,#bdb_reportingNextEventTimeout
        CLR       A
        MOVX      @DPTR,A
        INC       DPTR
        MOVX      @DPTR,A
//  382     bdb_reportingNextClusterEndpointIndex = BDBREPORTING_INVALIDINDEX;
        MOV       DPTR,#bdb_reportingNextClusterEndpointIndex
        MOV       A,#-0x1
        MOVX      @DPTR,A
//  383     //Start Timer
//  384     bdb_RepRestartNextEventTimer( );
        ; Setup parameters for call to function bdb_RepRestartNextEventTimer
        LCALL     `??bdb_RepRestartNextEventTimer::?relay`; Banked call to: bdb_RepRestartNextEventTimer
//  385   }
//  386 }
??bdb_RepStartReporting_0:
        LJMP      ??Subroutine87_0 & 0xFFFF
          CFI EndBlock cfiBlock3
//  387 
//  388  /*********************************************************************
//  389  * @fn          bdb_RepStartOrContinueReporting
//  390  *
//  391  * @brief       Restarts the periodic reporting timer, if the timer was already
//  392  *              running it calculates the remaining time of timer before stopping it,
//  393  *              then sustracts this elapsed time from the next event endpoint-cluster 
//  394  *              table.
//  395  *
//  396  * @return      none
//  397  */

        RSEG BANKED_CODE:HUGECODE:NOROOT(0)
//  398 void bdb_RepStartOrContinueReporting( void )
bdb_RepStartOrContinueReporting:
          CFI Block cfiBlock4 Using cfiCommon0
          CFI Function bdb_RepStartOrContinueReporting
        CODE
//  399 {
        FUNCALL bdb_RepStartOrContinueReporting, osal_get_timeoutEx
        LOCFRAME ISTACK, 0, STACK
        LOCFRAME PSTACK, 0, STACK
        LOCFRAME XSTACK, 12, STACK
        LOCFRAME IOVERLAY, 0, STATIC
        LOCFRAME DOVERLAY, 0, STATIC
        ARGFRAME ISTACK, 0, STACK
        ARGFRAME PSTACK, 0, STACK
        ARGFRAME XSTACK, 12, STACK
        ARGFRAME IOVERLAY, 0, STATIC
        ARGFRAME DOVERLAY, 0, STATIC
        FUNCALL bdb_RepStartOrContinueReporting, bdb_RepStartReporting
        LOCFRAME ISTACK, 0, STACK
        LOCFRAME PSTACK, 0, STACK
        LOCFRAME XSTACK, 12, STACK
        LOCFRAME IOVERLAY, 0, STATIC
        LOCFRAME DOVERLAY, 0, STATIC
        ARGFRAME ISTACK, 0, STACK
        ARGFRAME PSTACK, 0, STACK
        ARGFRAME XSTACK, 12, STACK
        ARGFRAME IOVERLAY, 0, STATIC
        ARGFRAME DOVERLAY, 0, STATIC
        FUNCALL bdb_RepStartOrContinueReporting, bdb_RepCalculateEventElapsedTime
        LOCFRAME ISTACK, 0, STACK
        LOCFRAME PSTACK, 0, STACK
        LOCFRAME XSTACK, 14, STACK
        LOCFRAME IOVERLAY, 0, STATIC
        LOCFRAME DOVERLAY, 0, STATIC
        ARGFRAME ISTACK, 0, STACK
        ARGFRAME PSTACK, 0, STACK
        ARGFRAME XSTACK, 14, STACK
        ARGFRAME IOVERLAY, 0, STATIC
        ARGFRAME DOVERLAY, 0, STATIC
        FUNCALL bdb_RepStartOrContinueReporting, bdb_RepStopEventTimer
        LOCFRAME ISTACK, 0, STACK
        LOCFRAME PSTACK, 0, STACK
        LOCFRAME XSTACK, 12, STACK
        LOCFRAME IOVERLAY, 0, STATIC
        LOCFRAME DOVERLAY, 0, STATIC
        ARGFRAME ISTACK, 0, STACK
        ARGFRAME PSTACK, 0, STACK
        ARGFRAME XSTACK, 12, STACK
        ARGFRAME IOVERLAY, 0, STATIC
        ARGFRAME DOVERLAY, 0, STATIC
        FUNCALL bdb_RepStartOrContinueReporting, bdb_clusterEndpointArrayIncrementAll
        LOCFRAME ISTACK, 0, STACK
        LOCFRAME PSTACK, 0, STACK
        LOCFRAME XSTACK, 12, STACK
        LOCFRAME IOVERLAY, 0, STATIC
        LOCFRAME DOVERLAY, 0, STATIC
        ARGFRAME ISTACK, 0, STACK
        ARGFRAME PSTACK, 0, STACK
        ARGFRAME XSTACK, 12, STACK
        ARGFRAME IOVERLAY, 0, STATIC
        ARGFRAME DOVERLAY, 0, STATIC
        FUNCALL bdb_RepStartOrContinueReporting, bdb_RepStartReporting
        LOCFRAME ISTACK, 0, STACK
        LOCFRAME PSTACK, 0, STACK
        LOCFRAME XSTACK, 12, STACK
        LOCFRAME IOVERLAY, 0, STATIC
        LOCFRAME DOVERLAY, 0, STATIC
        ARGFRAME ISTACK, 0, STACK
        ARGFRAME PSTACK, 0, STACK
        ARGFRAME XSTACK, 12, STACK
        ARGFRAME IOVERLAY, 0, STATIC
        ARGFRAME DOVERLAY, 0, STATIC
        REQUIRE ?V0
        REQUIRE ?V1
        REQUIRE ?V2
        REQUIRE ?V3
        MOV       A,#-0xc
        LCALL     ?BANKED_ENTER_XDATA
          CFI DPH0 load(1, XDATA, add(CFA_XSP16, literal(-1)))
          CFI DPL0 load(1, XDATA, add(CFA_XSP16, literal(-2)))
          CFI ?BRET_EXT load(1, XDATA, add(CFA_XSP16, literal(-3)))
          CFI ?RET_HIGH load(1, XDATA, add(CFA_XSP16, literal(-4)))
          CFI ?RET_LOW load(1, XDATA, add(CFA_XSP16, literal(-5)))
          CFI R7 load(1, XDATA, add(CFA_XSP16, literal(-6)))
          CFI V3 load(1, XDATA, add(CFA_XSP16, literal(-7)))
          CFI V2 load(1, XDATA, add(CFA_XSP16, literal(-8)))
          CFI V1 load(1, XDATA, add(CFA_XSP16, literal(-9)))
          CFI V0 load(1, XDATA, add(CFA_XSP16, literal(-10)))
          CFI VB load(1, XDATA, add(CFA_XSP16, literal(-11)))
          CFI R6 load(1, XDATA, add(CFA_XSP16, literal(-12)))
          CFI CFA_SP SP+0
          CFI CFA_XSP16 add(XSP16, 12)
        ; Saved register size: 12
        ; Auto size: 0
//  400   //Stop if reporting timer is active
//  401   uint32 remainingTimeOfEvent = osal_get_timeoutEx( bdb_TaskID, BDB_REPORT_TIMEOUT );
        ; Setup parameters for call to function osal_get_timeoutEx
        MOV       R2,#-0x80
        MOV       R3,#0x0
        MOV       DPTR,#bdb_TaskID
        MOVX      A,@DPTR
        MOV       R1,A
        LCALL     `??osal_get_timeoutEx::?relay`; Banked call to: osal_get_timeoutEx
        MOV       ?V1,R3
        MOV       ?V2,R4
        MOV       ?V3,R5
//  402   if( remainingTimeOfEvent == 0 )
        MOV       A,R2
        ORL       A,?V1
        ORL       A,?V2
        ORL       A,?V3
        JZ        ??bdb_RepStartOrContinueReporting_0
//  403   {
//  404     //Timer was not running
//  405     bdb_RepStartReporting( );
        ; Setup parameters for call to function bdb_RepStartReporting
//  406   }
//  407   else
//  408   {
//  409     uint16 elapsedTime = bdb_RepCalculateEventElapsedTime( remainingTimeOfEvent, bdb_reportingNextEventTimeout );
        ; Setup parameters for call to function bdb_RepCalculateEventElapsedTime
        MOV       DPTR,#bdb_reportingNextEventTimeout
        LCALL     ?PUSH_XSTACK8_X_TWO
          CFI CFA_XSP16 add(XSP16, 14)
        LCALL     `??bdb_RepCalculateEventElapsedTime::?relay`; Banked call to: bdb_RepCalculateEventElapsedTime
        MOV       A,#0x2
        LCALL     ?DEALLOC_XSTACK8
          CFI CFA_XSP16 add(XSP16, 12)
        MOV       ?V0,R2
        MOV       ?V1,R3
//  410     bdb_RepStopEventTimer( );
        ; Setup parameters for call to function bdb_RepStopEventTimer
        LCALL     `??bdb_RepStopEventTimer::?relay`; Banked call to: bdb_RepStopEventTimer
//  411     
//  412     bdb_clusterEndpointArrayIncrementAll( elapsedTime, BDBREPORTING_TRUE );
        ; Setup parameters for call to function bdb_clusterEndpointArrayIncrementAll
        MOV       R1,#0x1
        MOV       R2,?V0
        MOV       R3,?V1
        LCALL     `??bdb_clusterEndpointArrayIncrementAll::?relay`; Banked call to: bdb_clusterEndpointArrayIncrementAll
//  413     bdb_RepStartReporting( );
        ; Setup parameters for call to function bdb_RepStartReporting
??bdb_RepStartOrContinueReporting_0:
        LCALL     `??bdb_RepStartReporting::?relay`; Banked call to: bdb_RepStartReporting
//  414   }
//  415   
//  416 }
          CFI EndBlock cfiBlock4
        REQUIRE ?Subroutine2
        ; // Fall through to label ?Subroutine2

        RSEG BANKED_CODE:HUGECODE:NOROOT(0)
?Subroutine2:
          CFI Block cfiBlock5 Using cfiCommon0
          CFI NoFunction
          CFI CFA_SP SP+0
          CFI CFA_XSP16 add(XSP16, 12)
          CFI VB load(1, XDATA, add(CFA_XSP16, literal(-11)))
          CFI DPL0 load(1, XDATA, add(CFA_XSP16, literal(-2)))
          CFI DPH0 load(1, XDATA, add(CFA_XSP16, literal(-1)))
          CFI R6 load(1, XDATA, add(CFA_XSP16, literal(-12)))
          CFI R7 load(1, XDATA, add(CFA_XSP16, literal(-6)))
          CFI V0 load(1, XDATA, add(CFA_XSP16, literal(-10)))
          CFI V1 load(1, XDATA, add(CFA_XSP16, literal(-9)))
          CFI V2 load(1, XDATA, add(CFA_XSP16, literal(-8)))
          CFI V3 load(1, XDATA, add(CFA_XSP16, literal(-7)))
          CFI ?BRET_EXT load(1, XDATA, add(CFA_XSP16, literal(-3)))
          CFI ?RET_HIGH load(1, XDATA, add(CFA_XSP16, literal(-4)))
          CFI ?RET_LOW load(1, XDATA, add(CFA_XSP16, literal(-5)))
        MOV       R7,#0x4
        LJMP      ?BANKED_LEAVE_XDATA
          CFI EndBlock cfiBlock5
//  417 
//  418  /*********************************************************************
//  419  * @fn          bdb_RepCalculateEventElapsedTime
//  420  *
//  421  * @brief       Calculate the elapsed time of the currently running timer, 
//  422  *              the remaining time is roundup.
//  423  *
//  424  * @param       remainingTimeoutTimer - timeout value from the osal_get_timeoutEx method, 
//  425  *              its in milliseconds units
//  426  * @param       nextEventTimeout - the timeout given to the timer when it started
//  427  *
//  428  * @return      the elapsed time in seconds
//  429  */

        RSEG BANKED_CODE:HUGECODE:NOROOT(0)
//  430 static uint16 bdb_RepCalculateEventElapsedTime( uint32 remainingTimeoutTimer, uint16 nextEventTimeout )
bdb_RepCalculateEventElapsedTime:
          CFI Block cfiBlock6 Using cfiCommon0
          CFI Function bdb_RepCalculateEventElapsedTime
        CODE
//  431 {
        REQUIRE ?V0
        REQUIRE ?V1
        REQUIRE ?V2
        REQUIRE ?V3
        REQUIRE ?V4
        REQUIRE ?V5
        REQUIRE ?V6
        REQUIRE ?V7
        REQUIRE ?V8
        REQUIRE ?V9
        REQUIRE ?V10
        REQUIRE ?V11
        MOV       A,#-0x14
        LCALL     ?BANKED_ENTER_XDATA
          CFI DPH0 load(1, XDATA, add(CFA_XSP16, literal(-1)))
          CFI DPL0 load(1, XDATA, add(CFA_XSP16, literal(-2)))
          CFI ?BRET_EXT load(1, XDATA, add(CFA_XSP16, literal(-3)))
          CFI ?RET_HIGH load(1, XDATA, add(CFA_XSP16, literal(-4)))
          CFI ?RET_LOW load(1, XDATA, add(CFA_XSP16, literal(-5)))
          CFI R7 load(1, XDATA, add(CFA_XSP16, literal(-6)))
          CFI V11 load(1, XDATA, add(CFA_XSP16, literal(-7)))
          CFI V10 load(1, XDATA, add(CFA_XSP16, literal(-8)))
          CFI V9 load(1, XDATA, add(CFA_XSP16, literal(-9)))
          CFI V8 load(1, XDATA, add(CFA_XSP16, literal(-10)))
          CFI V7 load(1, XDATA, add(CFA_XSP16, literal(-11)))
          CFI V6 load(1, XDATA, add(CFA_XSP16, literal(-12)))
          CFI V5 load(1, XDATA, add(CFA_XSP16, literal(-13)))
          CFI V4 load(1, XDATA, add(CFA_XSP16, literal(-14)))
          CFI V3 load(1, XDATA, add(CFA_XSP16, literal(-15)))
          CFI V2 load(1, XDATA, add(CFA_XSP16, literal(-16)))
          CFI V1 load(1, XDATA, add(CFA_XSP16, literal(-17)))
          CFI V0 load(1, XDATA, add(CFA_XSP16, literal(-18)))
          CFI VB load(1, XDATA, add(CFA_XSP16, literal(-19)))
          CFI R6 load(1, XDATA, add(CFA_XSP16, literal(-20)))
          CFI CFA_SP SP+0
          CFI CFA_XSP16 add(XSP16, 20)
        ; Saved register size: 20
        ; Auto size: 0
        MOV       ?V8,R2
        MOV       ?V9,R3
        MOV       ?V10,R4
        MOV       ?V11,R5
//  432   uint32 passTimeOfEvent = 0;
        MOV       ?V4,#0x0
        MOV       ?V5,#0x0
        MOV       ?V6,#0x0
        MOV       ?V7,#0x0
        MOV       A,#0x14
        LCALL     ?XSTACK_DISP0_8
        LCALL     ?Subroutine33 & 0xFFFF
//  433   passTimeOfEvent = nextEventTimeout*1000 >= remainingTimeoutTimer? nextEventTimeout*1000 - remainingTimeoutTimer: 0;
??CrossCallReturnLabel_42:
        MOV       A,?V0
        MOV       B,#-0x18
        MUL       AB
        XCH       A,?V0
        MOV       R0,B
        MOV       B,#0x3
        MUL       AB
        ADD       A,R0
        MOV       R0,A
        MOV       B,#-0x18
        MOV       A,?V1
        MUL       AB
        ADD       A,R0
        MOV       ?V1,A
        CLR       A
        MOV       ?V2,A
        MOV       ?V3,A
        MOV       R0,#?V8
        MOV       R1,#?V0
        LCALL     ?UL_GT
        JC        ??bdb_RepCalculateEventElapsedTime_0
        MOV       ?V4,?V0
        MOV       ?V5,?V1
        MOV       R0,#?V4
        MOV       R1,#?V8
        LCALL     ?L_SUB
//  434   uint16 elapsedTime = passTimeOfEvent / 1000;
??bdb_RepCalculateEventElapsedTime_0:
        MOV       ?V0,?V4
        MOV       ?V1,?V5
        MOV       ?V2,?V6
        MOV       ?V3,?V7
        MOV       DPTR,#__Constant_3e8
        MOV       R0,#?V8
        LCALL     ?L_MOV_X
        MOV       R0,#?V0
        MOV       R1,#?V8
        LCALL     ?UL_DIV_MOD
        MOV       R4,?V0
        MOV       R5,?V1
//  435   elapsedTime = elapsedTime + ((passTimeOfEvent % 1000) >0 ? 1:0); //roundup
        MOV       DPTR,#__Constant_3e8
        MOV       R0,#?V0
        LCALL     ?L_MOV_X
        MOV       R0,#?V4
        MOV       R1,#?V0
        LCALL     ?UL_DIV_MOD
        MOV       A,?V0
        ORL       A,?V1
        ORL       A,?V2
        ORL       A,?V3
        JZ        ??bdb_RepCalculateEventElapsedTime_1
        MOV       A,R4
        ADD       A,#0x1
        MOV       R2,A
        CLR       A
        ADDC      A,R5
        SJMP      ??bdb_RepCalculateEventElapsedTime_2
??bdb_RepCalculateEventElapsedTime_1:
        MOV       A,R4
        MOV       R2,A
        MOV       A,R5
??bdb_RepCalculateEventElapsedTime_2:
        MOV       R3,A
//  436   return elapsedTime;  
          CFI EndBlock cfiBlock6
        REQUIRE ?Subroutine3
        ; // Fall through to label ?Subroutine3
//  437 }

        RSEG BANKED_CODE:HUGECODE:NOROOT(0)
?Subroutine3:
          CFI Block cfiBlock7 Using cfiCommon0
          CFI NoFunction
          CFI CFA_SP SP+0
          CFI CFA_XSP16 add(XSP16, 20)
          CFI VB load(1, XDATA, add(CFA_XSP16, literal(-19)))
          CFI DPL0 load(1, XDATA, add(CFA_XSP16, literal(-2)))
          CFI DPH0 load(1, XDATA, add(CFA_XSP16, literal(-1)))
          CFI R6 load(1, XDATA, add(CFA_XSP16, literal(-20)))
          CFI R7 load(1, XDATA, add(CFA_XSP16, literal(-6)))
          CFI V0 load(1, XDATA, add(CFA_XSP16, literal(-18)))
          CFI V1 load(1, XDATA, add(CFA_XSP16, literal(-17)))
          CFI V2 load(1, XDATA, add(CFA_XSP16, literal(-16)))
          CFI V3 load(1, XDATA, add(CFA_XSP16, literal(-15)))
          CFI V4 load(1, XDATA, add(CFA_XSP16, literal(-14)))
          CFI V5 load(1, XDATA, add(CFA_XSP16, literal(-13)))
          CFI V6 load(1, XDATA, add(CFA_XSP16, literal(-12)))
          CFI V7 load(1, XDATA, add(CFA_XSP16, literal(-11)))
          CFI V8 load(1, XDATA, add(CFA_XSP16, literal(-10)))
          CFI V9 load(1, XDATA, add(CFA_XSP16, literal(-9)))
          CFI V10 load(1, XDATA, add(CFA_XSP16, literal(-8)))
          CFI V11 load(1, XDATA, add(CFA_XSP16, literal(-7)))
          CFI ?BRET_EXT load(1, XDATA, add(CFA_XSP16, literal(-3)))
          CFI ?RET_HIGH load(1, XDATA, add(CFA_XSP16, literal(-4)))
          CFI ?RET_LOW load(1, XDATA, add(CFA_XSP16, literal(-5)))
        MOV       R7,#0xc
        LJMP      ?BANKED_LEAVE_XDATA
          CFI EndBlock cfiBlock7
//  438 
//  439  /*********************************************************************
//  440  * @fn          bdb_RepProcessEvent
//  441  *
//  442  * @brief       Method that process the timer expired event in the reporting 
//  443  *              code, it calculate the next cluster-endpoint entry based 
//  444  *              on the minimum with consolidatedMaxReportInt - timeSinceLastReport,
//  445  *              updates timeSinceLastReport of all entries. If the minimum is zero,
//  446  *              report the cluster-endpoint attrs.
//  447  *
//  448  * @return      none
//  449  */

        RSEG BANKED_CODE:HUGECODE:NOROOT(0)
//  450 void bdb_RepProcessEvent( void )
bdb_RepProcessEvent:
          CFI Block cfiBlock8 Using cfiCommon0
          CFI Function bdb_RepProcessEvent
        CODE
//  451 {
        FUNCALL bdb_RepProcessEvent, bdb_clusterEndpointArrayIncrementAll
        LOCFRAME ISTACK, 0, STACK
        LOCFRAME PSTACK, 0, STACK
        LOCFRAME XSTACK, 9, STACK
        LOCFRAME IOVERLAY, 0, STATIC
        LOCFRAME DOVERLAY, 0, STATIC
        ARGFRAME ISTACK, 0, STACK
        ARGFRAME PSTACK, 0, STACK
        ARGFRAME XSTACK, 9, STACK
        ARGFRAME IOVERLAY, 0, STATIC
        ARGFRAME DOVERLAY, 0, STATIC
        FUNCALL bdb_RepProcessEvent, bdb_RepReport
        LOCFRAME ISTACK, 0, STACK
        LOCFRAME PSTACK, 0, STACK
        LOCFRAME XSTACK, 9, STACK
        LOCFRAME IOVERLAY, 0, STATIC
        LOCFRAME DOVERLAY, 0, STATIC
        ARGFRAME ISTACK, 0, STACK
        ARGFRAME PSTACK, 0, STACK
        ARGFRAME XSTACK, 9, STACK
        ARGFRAME IOVERLAY, 0, STATIC
        ARGFRAME DOVERLAY, 0, STATIC
        FUNCALL bdb_RepProcessEvent, bdb_clusterEndpointArrayUpdateAt
        LOCFRAME ISTACK, 0, STACK
        LOCFRAME PSTACK, 0, STACK
        LOCFRAME XSTACK, 9, STACK
        LOCFRAME IOVERLAY, 0, STATIC
        LOCFRAME DOVERLAY, 0, STATIC
        ARGFRAME ISTACK, 0, STACK
        ARGFRAME PSTACK, 0, STACK
        ARGFRAME XSTACK, 9, STACK
        ARGFRAME IOVERLAY, 0, STATIC
        ARGFRAME DOVERLAY, 0, STATIC
        FUNCALL bdb_RepProcessEvent, bdb_RepRestartNextEventTimer
        LOCFRAME ISTACK, 0, STACK
        LOCFRAME PSTACK, 0, STACK
        LOCFRAME XSTACK, 9, STACK
        LOCFRAME IOVERLAY, 0, STATIC
        LOCFRAME DOVERLAY, 0, STATIC
        ARGFRAME ISTACK, 0, STACK
        ARGFRAME PSTACK, 0, STACK
        ARGFRAME XSTACK, 9, STACK
        ARGFRAME IOVERLAY, 0, STATIC
        ARGFRAME DOVERLAY, 0, STATIC
        REQUIRE ?V0
        MOV       A,#-0x9
        LCALL     ?BANKED_ENTER_XDATA
          CFI DPH0 load(1, XDATA, add(CFA_XSP16, literal(-1)))
          CFI DPL0 load(1, XDATA, add(CFA_XSP16, literal(-2)))
          CFI ?BRET_EXT load(1, XDATA, add(CFA_XSP16, literal(-3)))
          CFI ?RET_HIGH load(1, XDATA, add(CFA_XSP16, literal(-4)))
          CFI ?RET_LOW load(1, XDATA, add(CFA_XSP16, literal(-5)))
          CFI R7 load(1, XDATA, add(CFA_XSP16, literal(-6)))
          CFI V0 load(1, XDATA, add(CFA_XSP16, literal(-7)))
          CFI VB load(1, XDATA, add(CFA_XSP16, literal(-8)))
          CFI R6 load(1, XDATA, add(CFA_XSP16, literal(-9)))
          CFI CFA_SP SP+0
          CFI CFA_XSP16 add(XSP16, 9)
        ; Saved register size: 9
        ; Auto size: 0
//  452   bdb_clusterEndpointArrayIncrementAll( bdb_reportingNextEventTimeout, BDBREPORTING_FALSE );
        ; Setup parameters for call to function bdb_clusterEndpointArrayIncrementAll
        MOV       R1,#0x0
        MOV       DPTR,#bdb_reportingNextEventTimeout
        LCALL     ?Subroutine41 & 0xFFFF
??CrossCallReturnLabel_58:
        LCALL     `??bdb_clusterEndpointArrayIncrementAll::?relay`; Banked call to: bdb_clusterEndpointArrayIncrementAll
//  453   uint8 minIndex =  bdb_clusterEndpointArrayGetMin( );
        MOV       R6,#-0x1
        MOV       R4,#-0x1
        MOV       R5,#-0x1
        MOV       R7,#0x0
        SJMP      ??bdb_RepProcessEvent_0
??bdb_RepProcessEvent_1:
        LCALL     ?Subroutine44 & 0xFFFF
??CrossCallReturnLabel_237:
        MOV       A,R2
        CLR       C
        SUBB      A,R0
        MOV       R0,A
        MOV       A,R3
        SUBB      A,R1
        MOV       R1,A
        CLR       C
        MOV       A,R0
        SUBB      A,R4
        MOV       A,R1
        SUBB      A,R5
        JNC       ??bdb_RepProcessEvent_2
        MOV       A,R7
        MOV       R6,A
        MOV       A,R0
        MOV       R4,A
        MOV       A,R1
        MOV       R5,A
??bdb_RepProcessEvent_2:
        INC       R7
??bdb_RepProcessEvent_0:
        MOV       DPTR,#bdb_reportingClusterEndpointArrayCount
        MOVX      A,@DPTR
        MOV       R0,A
        MOV       A,R7
        CLR       C
        SUBB      A,R0
        JNC       ??bdb_RepProcessEvent_3
        MOV       A,R7
        LCALL     ?Subroutine56 & 0xFFFF
??CrossCallReturnLabel_88:
        JNC       ??bdb_RepProcessEvent_2
        LCALL     ?Subroutine25 & 0xFFFF
??CrossCallReturnLabel_147:
        JZ        ??bdb_RepProcessEvent_2
        MOV       A,#-0x1
        XRL       A,R2
        JNZ       ??bdb_RepProcessEvent_4
        MOV       A,#-0x1
        XRL       A,R3
??bdb_RepProcessEvent_4:
        JZ        ??bdb_RepProcessEvent_2
        MOV       A,R4
        ORL       A,R5
        JNZ       ??bdb_RepProcessEvent_1
//  454   if( minIndex == BDBREPORTING_INVALIDINDEX )
??bdb_RepProcessEvent_3:
        MOV       A,#-0x1
        XRL       A,R6
        JZ        ??bdb_RepProcessEvent_5
//  455   {
//  456     return;
//  457   }
//  458    uint16 minVal = bdb_reportingClusterEndpointArray[minIndex].consolidatedMaxReportInt - bdb_reportingClusterEndpointArray[minIndex].timeSinceLastReport;
        MOV       A,R6
        LCALL     ?Subroutine57 & 0xFFFF
??CrossCallReturnLabel_90:
        MOV       DPL,R0
        MOV       DPH,R1
        INC       DPTR
        INC       DPTR
        INC       DPTR
        INC       DPTR
        INC       DPTR
        INC       DPTR
        PUSH      DPL
          CFI CFA_SP SP+-1
        PUSH      DPH
          CFI CFA_SP SP+-2
        LCALL     ?Subroutine44 & 0xFFFF
??CrossCallReturnLabel_238:
        POP       DPH
          CFI CFA_SP SP+-1
        POP       DPL
          CFI CFA_SP SP+0
        MOVX      A,@DPTR
        CLR       C
        SUBB      A,R0
        MOV       R0,A
        INC       DPTR
        MOVX      A,@DPTR
        SUBB      A,R1
        MOV       R1,A
//  459    if( minVal>0 )
        MOV       A,R0
        ORL       A,R1
        JZ        ??bdb_RepProcessEvent_6
//  460    { 
//  461      bdb_reportingNextEventTimeout = minVal;
        MOV       DPTR,#bdb_reportingNextEventTimeout
        MOV       A,R0
        MOVX      @DPTR,A
        INC       DPTR
        MOV       A,R1
        SJMP      ??bdb_RepProcessEvent_7
//  462    }
//  463    else
//  464    {
//  465      //Something was triggered, report clusterEndpoint with minIndex 
//  466      bdb_reportingNextClusterEndpointIndex = minIndex;
??bdb_RepProcessEvent_6:
        MOV       A,R6
        MOV       DPTR,#bdb_reportingNextClusterEndpointIndex
        MOVX      @DPTR,A
//  467      bdb_RepReport( BDBREPORTING_INVALIDINDEX );
        ; Setup parameters for call to function bdb_RepReport
        MOV       R1,#-0x1
        LCALL     `??bdb_RepReport::?relay`; Banked call to: bdb_RepReport
//  468      bdb_clusterEndpointArrayUpdateAt( minIndex, 0, BDBREPORTING_IGNORE, BDBREPORTING_IGNORE );
        ; Setup parameters for call to function bdb_clusterEndpointArrayUpdateAt
        MOV       R5,#-0x1
        MOV       R4,#-0x1
        MOV       R2,#0x0
        MOV       R3,#0x0
        MOV       A,R6
        MOV       R1,A
        LCALL     `??bdb_clusterEndpointArrayUpdateAt::?relay`; Banked call to: bdb_clusterEndpointArrayUpdateAt
//  469      bdb_reportingNextEventTimeout = 0;  
        MOV       DPTR,#bdb_reportingNextEventTimeout
        CLR       A
        MOVX      @DPTR,A
        INC       DPTR
??bdb_RepProcessEvent_7:
        MOVX      @DPTR,A
//  470    }
//  471    bdb_RepRestartNextEventTimer( );
        ; Setup parameters for call to function bdb_RepRestartNextEventTimer
        LCALL     `??bdb_RepRestartNextEventTimer::?relay`; Banked call to: bdb_RepRestartNextEventTimer
//  472 }
??bdb_RepProcessEvent_5:
        LJMP      ?Subroutine1 & 0xFFFF
          CFI EndBlock cfiBlock8
//  473 
//  474 /*********************************************************************
//  475  * @fn      bdb_ProcessInConfigReportCmd
//  476  *
//  477  * @brief   Process the "Profile" Configure Reporting Command
//  478  *
//  479  * @param   pInMsg - incoming message to process
//  480  *
//  481  * @return  TRUE if conditions are meet (attr found, memory available, etc.),
//  482  *          FALSE if not
//  483  */

        RSEG BANKED_CODE:HUGECODE:NOROOT(0)
//  484 uint8 bdb_ProcessInConfigReportCmd( zclIncomingMsg_t *pInMsg )
bdb_ProcessInConfigReportCmd:
          CFI Block cfiBlock9 Using cfiCommon0
          CFI Function bdb_ProcessInConfigReportCmd
        CODE
//  485 {
        FUNCALL bdb_ProcessInConfigReportCmd, bdb_FindEpDesc
        LOCFRAME ISTACK, 0, STACK
        LOCFRAME PSTACK, 0, STACK
        LOCFRAME XSTACK, 34, STACK
        LOCFRAME IOVERLAY, 0, STATIC
        LOCFRAME DOVERLAY, 0, STATIC
        ARGFRAME ISTACK, 0, STACK
        ARGFRAME PSTACK, 0, STACK
        ARGFRAME XSTACK, 34, STACK
        ARGFRAME IOVERLAY, 0, STATIC
        ARGFRAME DOVERLAY, 0, STATIC
        FUNCALL bdb_ProcessInConfigReportCmd, osal_mem_alloc
        LOCFRAME ISTACK, 0, STACK
        LOCFRAME PSTACK, 0, STACK
        LOCFRAME XSTACK, 34, STACK
        LOCFRAME IOVERLAY, 0, STATIC
        LOCFRAME DOVERLAY, 0, STATIC
        ARGFRAME ISTACK, 0, STACK
        ARGFRAME PSTACK, 0, STACK
        ARGFRAME XSTACK, 34, STACK
        ARGFRAME IOVERLAY, 0, STATIC
        ARGFRAME DOVERLAY, 0, STATIC
        FUNCALL bdb_ProcessInConfigReportCmd, bdb_RepStopEventTimer
        LOCFRAME ISTACK, 0, STACK
        LOCFRAME PSTACK, 0, STACK
        LOCFRAME XSTACK, 34, STACK
        LOCFRAME IOVERLAY, 0, STATIC
        LOCFRAME DOVERLAY, 0, STATIC
        ARGFRAME ISTACK, 0, STACK
        ARGFRAME PSTACK, 0, STACK
        ARGFRAME XSTACK, 34, STACK
        ARGFRAME IOVERLAY, 0, STATIC
        ARGFRAME DOVERLAY, 0, STATIC
        FUNCALL bdb_ProcessInConfigReportCmd, bdb_RepLoadCfgRecords
        LOCFRAME ISTACK, 0, STACK
        LOCFRAME PSTACK, 0, STACK
        LOCFRAME XSTACK, 34, STACK
        LOCFRAME IOVERLAY, 0, STATIC
        LOCFRAME DOVERLAY, 0, STATIC
        ARGFRAME ISTACK, 0, STACK
        ARGFRAME PSTACK, 0, STACK
        ARGFRAME XSTACK, 34, STACK
        ARGFRAME IOVERLAY, 0, STATIC
        ARGFRAME DOVERLAY, 0, STATIC
        FUNCALL bdb_ProcessInConfigReportCmd, osal_mem_free
        LOCFRAME ISTACK, 0, STACK
        LOCFRAME PSTACK, 0, STACK
        LOCFRAME XSTACK, 34, STACK
        LOCFRAME IOVERLAY, 0, STATIC
        LOCFRAME DOVERLAY, 0, STATIC
        ARGFRAME ISTACK, 0, STACK
        ARGFRAME PSTACK, 0, STACK
        ARGFRAME XSTACK, 34, STACK
        ARGFRAME IOVERLAY, 0, STATIC
        ARGFRAME DOVERLAY, 0, STATIC
        FUNCALL bdb_ProcessInConfigReportCmd, bdb_repAttrCfgRecordsArraySearch
        LOCFRAME ISTACK, 0, STACK
        LOCFRAME PSTACK, 0, STACK
        LOCFRAME XSTACK, 34, STACK
        LOCFRAME IOVERLAY, 0, STATIC
        LOCFRAME DOVERLAY, 0, STATIC
        ARGFRAME ISTACK, 0, STACK
        ARGFRAME PSTACK, 0, STACK
        ARGFRAME XSTACK, 34, STACK
        ARGFRAME IOVERLAY, 0, STATIC
        ARGFRAME DOVERLAY, 0, STATIC
        FUNCALL bdb_ProcessInConfigReportCmd, zclFindAttrRec
        LOCFRAME ISTACK, 0, STACK
        LOCFRAME PSTACK, 0, STACK
        LOCFRAME XSTACK, 36, STACK
        LOCFRAME IOVERLAY, 0, STATIC
        LOCFRAME DOVERLAY, 0, STATIC
        ARGFRAME ISTACK, 0, STACK
        ARGFRAME PSTACK, 0, STACK
        ARGFRAME XSTACK, 36, STACK
        ARGFRAME IOVERLAY, 0, STATIC
        ARGFRAME DOVERLAY, 0, STATIC
        FUNCALL bdb_ProcessInConfigReportCmd, osal_memset
        LOCFRAME ISTACK, 0, STACK
        LOCFRAME PSTACK, 0, STACK
        LOCFRAME XSTACK, 34, STACK
        LOCFRAME IOVERLAY, 0, STATIC
        LOCFRAME DOVERLAY, 0, STATIC
        ARGFRAME ISTACK, 0, STACK
        ARGFRAME PSTACK, 0, STACK
        ARGFRAME XSTACK, 34, STACK
        ARGFRAME IOVERLAY, 0, STATIC
        ARGFRAME DOVERLAY, 0, STATIC
        FUNCALL bdb_ProcessInConfigReportCmd, osal_memcpy
        LOCFRAME ISTACK, 0, STACK
        LOCFRAME PSTACK, 0, STACK
        LOCFRAME XSTACK, 37, STACK
        LOCFRAME IOVERLAY, 0, STATIC
        LOCFRAME DOVERLAY, 0, STATIC
        ARGFRAME ISTACK, 0, STACK
        ARGFRAME PSTACK, 0, STACK
        ARGFRAME XSTACK, 37, STACK
        ARGFRAME IOVERLAY, 0, STATIC
        ARGFRAME DOVERLAY, 0, STATIC
        FUNCALL bdb_ProcessInConfigReportCmd, zclAnalogDataType
        LOCFRAME ISTACK, 0, STACK
        LOCFRAME PSTACK, 0, STACK
        LOCFRAME XSTACK, 34, STACK
        LOCFRAME IOVERLAY, 0, STATIC
        LOCFRAME DOVERLAY, 0, STATIC
        ARGFRAME ISTACK, 0, STACK
        ARGFRAME PSTACK, 0, STACK
        ARGFRAME XSTACK, 34, STACK
        ARGFRAME IOVERLAY, 0, STATIC
        ARGFRAME DOVERLAY, 0, STATIC
        FUNCALL bdb_ProcessInConfigReportCmd, osal_memset
        LOCFRAME ISTACK, 0, STACK
        LOCFRAME PSTACK, 0, STACK
        LOCFRAME XSTACK, 34, STACK
        LOCFRAME IOVERLAY, 0, STATIC
        LOCFRAME DOVERLAY, 0, STATIC
        ARGFRAME ISTACK, 0, STACK
        ARGFRAME PSTACK, 0, STACK
        ARGFRAME XSTACK, 34, STACK
        ARGFRAME IOVERLAY, 0, STATIC
        ARGFRAME DOVERLAY, 0, STATIC
        FUNCALL bdb_ProcessInConfigReportCmd, zclGetDataTypeLength
        LOCFRAME ISTACK, 0, STACK
        LOCFRAME PSTACK, 0, STACK
        LOCFRAME XSTACK, 34, STACK
        LOCFRAME IOVERLAY, 0, STATIC
        LOCFRAME DOVERLAY, 0, STATIC
        ARGFRAME ISTACK, 0, STACK
        ARGFRAME PSTACK, 0, STACK
        ARGFRAME XSTACK, 34, STACK
        ARGFRAME IOVERLAY, 0, STATIC
        ARGFRAME DOVERLAY, 0, STATIC
        FUNCALL bdb_ProcessInConfigReportCmd, osal_memcpy
        LOCFRAME ISTACK, 0, STACK
        LOCFRAME PSTACK, 0, STACK
        LOCFRAME XSTACK, 37, STACK
        LOCFRAME IOVERLAY, 0, STATIC
        LOCFRAME DOVERLAY, 0, STATIC
        ARGFRAME ISTACK, 0, STACK
        ARGFRAME PSTACK, 0, STACK
        ARGFRAME XSTACK, 37, STACK
        ARGFRAME IOVERLAY, 0, STATIC
        ARGFRAME DOVERLAY, 0, STATIC
        FUNCALL bdb_ProcessInConfigReportCmd, osal_nv_item_init
        LOCFRAME ISTACK, 0, STACK
        LOCFRAME PSTACK, 0, STACK
        LOCFRAME XSTACK, 36, STACK
        LOCFRAME IOVERLAY, 0, STATIC
        LOCFRAME DOVERLAY, 0, STATIC
        ARGFRAME ISTACK, 0, STACK
        ARGFRAME PSTACK, 0, STACK
        ARGFRAME XSTACK, 36, STACK
        ARGFRAME IOVERLAY, 0, STATIC
        ARGFRAME DOVERLAY, 0, STATIC
        FUNCALL bdb_ProcessInConfigReportCmd, osal_nv_write
        LOCFRAME ISTACK, 0, STACK
        LOCFRAME PSTACK, 0, STACK
        LOCFRAME XSTACK, 38, STACK
        LOCFRAME IOVERLAY, 0, STATIC
        LOCFRAME DOVERLAY, 0, STATIC
        ARGFRAME ISTACK, 0, STACK
        ARGFRAME PSTACK, 0, STACK
        ARGFRAME XSTACK, 38, STACK
        ARGFRAME IOVERLAY, 0, STATIC
        ARGFRAME DOVERLAY, 0, STATIC
        FUNCALL bdb_ProcessInConfigReportCmd, bdb_RepSetupReporting
        LOCFRAME ISTACK, 0, STACK
        LOCFRAME PSTACK, 0, STACK
        LOCFRAME XSTACK, 34, STACK
        LOCFRAME IOVERLAY, 0, STATIC
        LOCFRAME DOVERLAY, 0, STATIC
        ARGFRAME ISTACK, 0, STACK
        ARGFRAME PSTACK, 0, STACK
        ARGFRAME XSTACK, 34, STACK
        ARGFRAME IOVERLAY, 0, STATIC
        ARGFRAME DOVERLAY, 0, STATIC
        FUNCALL bdb_ProcessInConfigReportCmd, zcl_SendConfigReportRspCmd
        LOCFRAME ISTACK, 0, STACK
        LOCFRAME PSTACK, 0, STACK
        LOCFRAME XSTACK, 39, STACK
        LOCFRAME IOVERLAY, 0, STATIC
        LOCFRAME DOVERLAY, 0, STATIC
        ARGFRAME ISTACK, 0, STACK
        ARGFRAME PSTACK, 0, STACK
        ARGFRAME XSTACK, 39, STACK
        ARGFRAME IOVERLAY, 0, STATIC
        ARGFRAME DOVERLAY, 0, STATIC
        FUNCALL bdb_ProcessInConfigReportCmd, osal_mem_free
        LOCFRAME ISTACK, 0, STACK
        LOCFRAME PSTACK, 0, STACK
        LOCFRAME XSTACK, 34, STACK
        LOCFRAME IOVERLAY, 0, STATIC
        LOCFRAME DOVERLAY, 0, STATIC
        ARGFRAME ISTACK, 0, STACK
        ARGFRAME PSTACK, 0, STACK
        ARGFRAME XSTACK, 34, STACK
        ARGFRAME IOVERLAY, 0, STATIC
        ARGFRAME DOVERLAY, 0, STATIC
        FUNCALL bdb_ProcessInConfigReportCmd, bdb_repAttrCfgRecordsArrayFreeAll
        LOCFRAME ISTACK, 0, STACK
        LOCFRAME PSTACK, 0, STACK
        LOCFRAME XSTACK, 34, STACK
        LOCFRAME IOVERLAY, 0, STATIC
        LOCFRAME DOVERLAY, 0, STATIC
        ARGFRAME ISTACK, 0, STACK
        ARGFRAME PSTACK, 0, STACK
        ARGFRAME XSTACK, 34, STACK
        ARGFRAME IOVERLAY, 0, STATIC
        ARGFRAME DOVERLAY, 0, STATIC
        FUNCALL bdb_ProcessInConfigReportCmd, bdb_RepStartReporting
        LOCFRAME ISTACK, 0, STACK
        LOCFRAME PSTACK, 0, STACK
        LOCFRAME XSTACK, 34, STACK
        LOCFRAME IOVERLAY, 0, STATIC
        LOCFRAME DOVERLAY, 0, STATIC
        ARGFRAME ISTACK, 0, STACK
        ARGFRAME PSTACK, 0, STACK
        ARGFRAME XSTACK, 34, STACK
        ARGFRAME IOVERLAY, 0, STATIC
        ARGFRAME DOVERLAY, 0, STATIC
        REQUIRE ?V0
        REQUIRE ?V1
        REQUIRE ?V2
        REQUIRE ?V3
        REQUIRE ?V4
        REQUIRE ?V5
        REQUIRE ?V6
        REQUIRE ?V7
        REQUIRE ?V8
        REQUIRE ?V9
        REQUIRE ?V10
        REQUIRE ?V11
        REQUIRE ?V12
        REQUIRE ?V13
        REQUIRE ?V14
        REQUIRE ?V15
        MOV       A,#-0x18
        LCALL     ?BANKED_ENTER_XDATA
          CFI DPH0 load(1, XDATA, add(CFA_XSP16, literal(-1)))
          CFI DPL0 load(1, XDATA, add(CFA_XSP16, literal(-2)))
          CFI ?BRET_EXT load(1, XDATA, add(CFA_XSP16, literal(-3)))
          CFI ?RET_HIGH load(1, XDATA, add(CFA_XSP16, literal(-4)))
          CFI ?RET_LOW load(1, XDATA, add(CFA_XSP16, literal(-5)))
          CFI R7 load(1, XDATA, add(CFA_XSP16, literal(-6)))
          CFI V15 load(1, XDATA, add(CFA_XSP16, literal(-7)))
          CFI V14 load(1, XDATA, add(CFA_XSP16, literal(-8)))
          CFI V13 load(1, XDATA, add(CFA_XSP16, literal(-9)))
          CFI V12 load(1, XDATA, add(CFA_XSP16, literal(-10)))
          CFI V11 load(1, XDATA, add(CFA_XSP16, literal(-11)))
          CFI V10 load(1, XDATA, add(CFA_XSP16, literal(-12)))
          CFI V9 load(1, XDATA, add(CFA_XSP16, literal(-13)))
          CFI V8 load(1, XDATA, add(CFA_XSP16, literal(-14)))
          CFI V7 load(1, XDATA, add(CFA_XSP16, literal(-15)))
          CFI V6 load(1, XDATA, add(CFA_XSP16, literal(-16)))
          CFI V5 load(1, XDATA, add(CFA_XSP16, literal(-17)))
          CFI V4 load(1, XDATA, add(CFA_XSP16, literal(-18)))
          CFI V3 load(1, XDATA, add(CFA_XSP16, literal(-19)))
          CFI V2 load(1, XDATA, add(CFA_XSP16, literal(-20)))
          CFI V1 load(1, XDATA, add(CFA_XSP16, literal(-21)))
          CFI V0 load(1, XDATA, add(CFA_XSP16, literal(-22)))
          CFI VB load(1, XDATA, add(CFA_XSP16, literal(-23)))
          CFI R6 load(1, XDATA, add(CFA_XSP16, literal(-24)))
          CFI CFA_SP SP+0
          CFI CFA_XSP16 add(XSP16, 24)
        ; Saved register size: 24
        ; Auto size: 10
        MOV       A,#-0xa
        LCALL     ?ALLOC_XSTACK8
          CFI CFA_XSP16 add(XSP16, 34)
        MOV       ?V2,R2
        MOV       ?V3,R3
        ; Setup parameters for call to function bdb_FindEpDesc
        MOV       A,R2
        LCALL     ?Subroutine59 & 0xFFFF
//  486   zclCfgReportCmd_t *cfgReportCmd;
//  487   zclCfgReportRec_t *reportRec;
//  488   zclCfgReportRspCmd_t *cfgReportRspCmd;
//  489   zclAttrRec_t attrRec;
//  490   uint8 status = ZCL_STATUS_SUCCESS;
//  491   uint8 i;
//  492   uint8 iNumRspRecords;
//  493 
//  494   // Find Ep Descriptor
//  495   endPointDesc_t* epDescriptor = bdb_FindEpDesc( pInMsg->endPoint );
//  496   if( epDescriptor == NULL )
??CrossCallReturnLabel_94:
        LCALL     `??bdb_FindEpDesc::?relay`; Banked call to: bdb_FindEpDesc
        MOV       ?V1,R3
        MOV       A,R2
        ORL       A,?V1
        JZ        ??bdb_ProcessInConfigReportCmd_0
//  497   {
//  498     return ( FALSE );
//  499   }
//  500   
//  501   // get a pointer to the report configuration record
//  502   cfgReportCmd = (zclCfgReportCmd_t *)pInMsg->attrCmd;
        MOV       A,?V2
        ADD       A,#0x17
        MOV       DPL,A
        CLR       A
        ADDC      A,?V3
        MOV       DPH,A
        LCALL     ??Subroutine107_0 & 0xFFFF
??CrossCallReturnLabel_226:
        MOV       DPL,?XSP + 0
        MOV       DPH,?XSP + 1
        MOV       A,R0
        MOVX      @DPTR,A
        INC       DPTR
        MOV       A,R1
        LCALL     ?Subroutine8 & 0xFFFF
//  503   
//  504   if( cfgReportCmd->numAttr == 0 )
??CrossCallReturnLabel_2:
        MOVX      A,@DPTR
        JZ        ??bdb_ProcessInConfigReportCmd_0
//  505   {
//  506     return ( FALSE );
//  507   }
//  508   
//  509   // Allocate space for the response command
//  510   cfgReportRspCmd = (zclCfgReportRspCmd_t *)osal_mem_alloc( sizeof ( zclCfgReportRspCmd_t ) + 
//  511                                                             ( cfgReportCmd->numAttr * sizeof ( zclCfgReportStatus_t) ) );
        ; Setup parameters for call to function osal_mem_alloc
        MOV       ?V0,A
        MOV       ?V1,#0x0
        MOV       A,#0x2
        MOV       R0,#?V0
        LCALL     ?S_SHL
        MOV       A,?V0
        ADD       A,#0x1
        MOV       R2,A
        CLR       A
        ADDC      A,?V1
        MOV       R3,A
        LCALL     `??osal_mem_alloc::?relay`; Banked call to: osal_mem_alloc
        MOV       ?V8,R2
        MOV       ?V9,R3
//  512   if ( cfgReportRspCmd == NULL )
        MOV       A,R2
        ORL       A,?V9
        JNZ       ??bdb_ProcessInConfigReportCmd_1
//  513   {
//  514     return ( FALSE );
??bdb_ProcessInConfigReportCmd_0:
        MOV       R1,#0x0
        LJMP      ??bdb_ProcessInConfigReportCmd_2 & 0xFFFF
//  515   }
//  516  
//  517   //stop any attribute reporting
//  518   bdb_RepStopEventTimer( );
??bdb_ProcessInConfigReportCmd_1:
        ; Setup parameters for call to function bdb_RepStopEventTimer
        LCALL     `??bdb_RepStopEventTimer::?relay`; Banked call to: bdb_RepStopEventTimer
//  519   
//  520   //Load cfg records from NV
//  521   status = bdb_RepLoadCfgRecords( );
//  522   if( status != BDBREPORTING_SUCCESS )
        ; Setup parameters for call to function bdb_RepLoadCfgRecords
        LCALL     `??bdb_RepLoadCfgRecords::?relay`; Banked call to: bdb_RepLoadCfgRecords
        MOV       A,R1
        JZ        ??bdb_ProcessInConfigReportCmd_3
//  523   {
//  524     osal_mem_free( cfgReportRspCmd );
        ; Setup parameters for call to function osal_mem_free
        MOV       R2,?V8
        MOV       R3,?V9
        LCALL     `??osal_mem_free::?relay`; Banked call to: osal_mem_free
        SJMP      ??bdb_ProcessInConfigReportCmd_0
//  525     return ( FALSE );
//  526   }
//  527  
//  528   // Process each Attribute Reporting Configuration record
//  529   uint8 confchanged = BDBREPORTING_FALSE;
??bdb_ProcessInConfigReportCmd_3:
        MOV       ?V0,#0x0
//  530   iNumRspRecords = 0;
        MOV       ?V10,#0x0
//  531   for ( i = 0; i < cfgReportCmd->numAttr; i++ )
        MOV       ?V1,#0x0
        SJMP      ??bdb_ProcessInConfigReportCmd_4
//  532   {
//  533     reportRec = &(cfgReportCmd->attrList[i]);
//  534 
//  535     status = ZCL_STATUS_SUCCESS;  // assume success for this rsp record
//  536     
//  537     uint8 atrrCfgRecordIndex =  bdb_repAttrCfgRecordsArraySearch( pInMsg->endPoint, pInMsg->clusterId, reportRec->attrID );
//  538     uint8 status2 = zclFindAttrRec( pInMsg->endPoint, pInMsg->clusterId, reportRec->attrID, &attrRec );
//  539     if( atrrCfgRecordIndex == BDBREPORTING_INVALIDINDEX || status2 == 0 )
//  540     {
//  541       //No cfg record found, 
//  542       status = ZCL_STATUS_INVALID_VALUE;
//  543     }
//  544     else
//  545     {
//  546       if ( reportRec->direction == ZCL_SEND_ATTR_REPORTS )
//  547       {
//  548         if ( reportRec->dataType == attrRec.attr.dataType )
//  549         {
//  550           // This the attribute that is to be reported, for now pass all attrs
//  551           if ( attrRec.attr.accessControl & ACCESS_REPORTABLE )
//  552           {
//  553             if ( reportRec->minReportInt == BDBREPORTING_MININTERVAL_DEFAULT && reportRec->maxReportInt == BDBREPORTING_MAXINTERVAL_DEFAULT )
//  554             {
//  555               //Set the saved default configuration
//  556               confchanged = BDBREPORTING_TRUE;
//  557               bdb_reportingAttrCfgRecordsArray[atrrCfgRecordIndex].minReportInt = bdb_reportingAttrCfgRecordsArray[atrrCfgRecordIndex].defaultMinReportInt;
//  558               bdb_reportingAttrCfgRecordsArray[atrrCfgRecordIndex].maxReportInt = bdb_reportingAttrCfgRecordsArray[atrrCfgRecordIndex].defaultMaxReportInt;
//  559               osal_memset( bdb_reportingAttrCfgRecordsArray[atrrCfgRecordIndex].reportableChange, 0x00, BDBREPORTING_MAX_ANALOG_ATTR_SIZE );
//  560               osal_memcpy( bdb_reportingAttrCfgRecordsArray[atrrCfgRecordIndex].reportableChange, bdb_reportingAttrCfgRecordsArray[atrrCfgRecordIndex].defaultReportableChange, BDBREPORTING_MAX_ANALOG_ATTR_SIZE );
//  561               status = ZCL_STATUS_SUCCESS;  
//  562             }
//  563             else
//  564             {
//  565               // valid configuration, change values
//  566               confchanged = BDBREPORTING_TRUE;
//  567               bdb_reportingAttrCfgRecordsArray[atrrCfgRecordIndex].minReportInt = reportRec->minReportInt;
//  568               bdb_reportingAttrCfgRecordsArray[atrrCfgRecordIndex].maxReportInt = reportRec->maxReportInt;
//  569               // For attributes of 'discrete' data types this field is omitted
//  570               if ( zclAnalogDataType( reportRec->dataType ) )
//  571               {
//  572                 osal_memset( bdb_reportingAttrCfgRecordsArray[atrrCfgRecordIndex].reportableChange, 0x00, BDBREPORTING_MAX_ANALOG_ATTR_SIZE );
//  573                 osal_memcpy( bdb_reportingAttrCfgRecordsArray[atrrCfgRecordIndex].reportableChange, reportRec->reportableChange, zclGetDataTypeLength( reportRec->dataType ) );
//  574               }
//  575               status = ZCL_STATUS_SUCCESS;             
//  576             }
//  577           }
//  578           else
//  579           {
//  580             // Attribute cannot be reported
//  581             status = ZCL_STATUS_UNREPORTABLE_ATTRIBUTE;
//  582           }
//  583         }
//  584         else
//  585         {
//  586           // Attribute data type is incorrect
//  587           status = ZCL_STATUS_INVALID_DATA_TYPE;
??bdb_ProcessInConfigReportCmd_5:
        MOV       R1,#-0x73
//  588         }
//  589       }
//  590       // receiving reports
//  591       else
//  592       {
//  593         status = ZCL_STATUS_SUCCESS;
//  594       }
//  595     
//  596     }
//  597 
//  598     // If not successful then record the status
//  599     if ( status != ZCL_STATUS_SUCCESS )
//  600     {
//  601       cfgReportRspCmd->attrList[iNumRspRecords].status = status;
??bdb_ProcessInConfigReportCmd_6:
        MOV       A,?V10
        MOV       ?V6,A
        MOV       ?V7,#0x0
        MOV       A,#0x2
        MOV       R0,#?V6
        LCALL     ?S_SHL
        MOV       A,?V8
        ADD       A,?V6
        MOV       R2,A
        MOV       A,?V9
        ADDC      A,?V7
        MOV       R3,A
        MOV       A,R1
        MOV       DPL,R2
        MOV       DPH,R3
        INC       DPTR
        MOVX      @DPTR,A
//  602       cfgReportRspCmd->attrList[iNumRspRecords].direction = reportRec->direction;
        MOV       DPL,?V4
        MOV       DPH,?V5
        LCALL     ?Subroutine50 & 0xFFFF
??CrossCallReturnLabel_73:
        INC       DPTR
        INC       DPTR
        MOVX      @DPTR,A
//  603       cfgReportRspCmd->attrList[iNumRspRecords].attrID = reportRec->attrID;
        MOV       DPL,?V12
        MOV       DPH,?V13
        LCALL     ??Subroutine84_0 & 0xFFFF
??CrossCallReturnLabel_134:
        LCALL     ??Subroutine95_0 & 0xFFFF
//  604       ++iNumRspRecords;
??CrossCallReturnLabel_186:
        INC       ?V10
//  605     }
??bdb_ProcessInConfigReportCmd_7:
        INC       ?V1
??bdb_ProcessInConfigReportCmd_4:
        MOV       DPL,?XSP + 0
        MOV       DPH,?XSP + 1
        LCALL     ?Subroutine48 & 0xFFFF
??CrossCallReturnLabel_71:
        MOV       R0,A
        MOV       A,?V1
        CLR       C
        SUBB      A,R0
        JC        $+5
        LJMP      ??bdb_ProcessInConfigReportCmd_8 & 0xFFFF
        MOV       A,?V1
        MOV       B,#0xc
        MUL       AB
        MOV       R0,A
        MOV       R1,B
        MOV       DPL,?XSP + 0
        MOV       DPH,?XSP + 1
        MOVX      A,@DPTR
        ADD       A,R0
        MOV       R2,A
        INC       DPTR
        MOVX      A,@DPTR
        ADDC      A,R1
        MOV       DPL,R2
        MOV       DPH,A
        INC       DPTR
        MOV       ?V4,DPL
        MOV       ?V5,DPH
        INC       DPTR
        MOV       ?V12,DPL
        MOV       ?V13,DPH
        ; Setup parameters for call to function bdb_repAttrCfgRecordsArraySearch
        LCALL     ?Subroutine19 & 0xFFFF
??CrossCallReturnLabel_16:
        LCALL     `??bdb_repAttrCfgRecordsArraySearch::?relay`; Banked call to: bdb_repAttrCfgRecordsArraySearch
        MOV       A,R1
        MOV       R6,A
        ; Setup parameters for call to function zclFindAttrRec
        MOV       A,#0x2
        LCALL     ?XSTACK_DISP100_8
        MOV       ?V6,R0
        MOV       ?V7,R1
        MOV       R0,#?V6
        LCALL     ?PUSH_XSTACK_I_TWO
          CFI CFA_XSP16 add(XSP16, 36)
        MOV       DPL,?V12
        MOV       DPH,?V13
        LCALL     ?Subroutine19 & 0xFFFF
??CrossCallReturnLabel_17:
        LCALL     `??zclFindAttrRec::?relay`; Banked call to: zclFindAttrRec
        MOV       A,#0x2
        LCALL     ?DEALLOC_XSTACK8
          CFI CFA_XSP16 add(XSP16, 34)
        MOV       A,R1
        MOV       R0,A
        MOV       A,#-0x1
        XRL       A,R6
        JZ        ??bdb_ProcessInConfigReportCmd_9
        MOV       A,R0
        JNZ       ??bdb_ProcessInConfigReportCmd_10
??bdb_ProcessInConfigReportCmd_9:
        MOV       R1,#-0x79
        LJMP      ??bdb_ProcessInConfigReportCmd_6 & 0xFFFF
??bdb_ProcessInConfigReportCmd_10:
        MOV       DPL,?V4
        MOV       DPH,?V5
        MOVX      A,@DPTR
        JNZ       ??bdb_ProcessInConfigReportCmd_7
        MOV       A,?V4
        ADD       A,#0x3
        MOV       ?V6,A
        CLR       A
        ADDC      A,?V5
        MOV       ?V7,A
        MOV       DPL,?V6
        MOV       DPH,A
        MOVX      A,@DPTR
        MOV       R0,A
        MOV       A,#0x6
        LCALL     ?XSTACK_DISP0_8
        MOVX      A,@DPTR
        XRL       A,R0
        JZ        $+5
        LJMP      ??bdb_ProcessInConfigReportCmd_5 & 0xFFFF
        MOV       A,#0x7
        LCALL     ?XSTACK_DISP0_8
        MOVX      A,@DPTR
        MOV       C,0xE0 /* A   */.2
        JC        $+5
        LJMP      ??bdb_ProcessInConfigReportCmd_11 & 0xFFFF
        MOV       A,R6
        MOV       B,#0x15
        MUL       AB
        MOV       R6,A
        MOV       R7,B
        LCALL     ?Subroutine38 & 0xFFFF
??CrossCallReturnLabel_51:
        ADD       A,#0x5
        MOV       R0,A
        CLR       A
        ADDC      A,R3
        MOV       R1,A
        MOV       DPL,?V4
        MOV       DPH,?V5
        INC       DPTR
        INC       DPTR
        INC       DPTR
        INC       DPTR
        MOVX      A,@DPTR
        MOV       ?V12,A
        INC       DPTR
        MOVX      A,@DPTR
        MOV       ?V13,A
        MOV       A,?V4
        ADD       A,#0x6
        MOV       R4,A
        CLR       A
        ADDC      A,?V5
        MOV       R5,A
        MOV       A,#-0x1
        XRL       A,?V12
        JNZ       ??bdb_ProcessInConfigReportCmd_12
        MOV       A,#-0x1
        XRL       A,?V13
??bdb_ProcessInConfigReportCmd_12:
        JNZ       ??bdb_ProcessInConfigReportCmd_13
        MOV       DPL,R4
        MOV       DPH,R5
        MOVX      A,@DPTR
        MOV       ?V14,A
        INC       DPTR
        MOVX      A,@DPTR
        MOV       ?V15,A
        MOV       A,?V14
        ORL       A,?V15
        JNZ       ??bdb_ProcessInConfigReportCmd_13
        MOV       ?V0,#0x1
        MOV       DPL,R2
        MOV       DPH,R3
        INC       DPTR
        INC       DPTR
        INC       DPTR
        INC       DPTR
        INC       DPTR
        INC       DPTR
        INC       DPTR
        INC       DPTR
        INC       DPTR
        LCALL     ?Subroutine17 & 0xFFFF
??CrossCallReturnLabel_153:
        LCALL     ?Subroutine60 & 0xFFFF
??CrossCallReturnLabel_96:
        LCALL     ?Subroutine14 & 0xFFFF
??CrossCallReturnLabel_190:
        ; Setup parameters for call to function osal_memset
        MOV       R4,#0x4
        MOV       R5,#0x0
        MOV       R1,#0x0
        MOV       A,R2
        ADD       A,#0xd
        MOV       R2,A
        JNC       ??bdb_ProcessInConfigReportCmd_14
        INC       R3
??bdb_ProcessInConfigReportCmd_14:
        LCALL     `??osal_memset::?relay`; Banked call to: osal_memset
        LCALL     ?Subroutine38 & 0xFFFF
??CrossCallReturnLabel_52:
        ADD       A,#0x11
        MOV       ?V4,A
        CLR       A
        ADDC      A,R3
        MOV       ?V5,A
        MOV       ?V6,#0x0
        MOV       R0,#?V4
        LCALL     ?PUSH_XSTACK_I_THREE
          CFI CFA_XSP16 add(XSP16, 37)
        MOV       R4,#0x4
        MOV       R5,#0x0
        MOV       A,R2
        ADD       A,#0xd
        MOV       R2,A
        JNC       ??bdb_ProcessInConfigReportCmd_15
        INC       R3
??bdb_ProcessInConfigReportCmd_15:
        LCALL     `??osal_memcpy::?relay`; Banked call to: osal_memcpy
        MOV       A,#0x3
        LCALL     ?DEALLOC_XSTACK8
          CFI CFA_XSP16 add(XSP16, 34)
        LJMP      ??bdb_ProcessInConfigReportCmd_7 & 0xFFFF
??bdb_ProcessInConfigReportCmd_13:
        MOV       ?V0,#0x1
        MOV       DPL,R0
        MOV       DPH,R1
        MOV       A,?V12
        MOVX      @DPTR,A
        INC       DPTR
        MOV       A,?V13
        MOVX      @DPTR,A
        MOV       DPL,R4
        MOV       DPH,R5
        LCALL     ?Subroutine14 & 0xFFFF
??CrossCallReturnLabel_191:
        ; Setup parameters for call to function zclAnalogDataType
        MOV       DPL,?V6
        MOV       DPH,?V7
        MOVX      A,@DPTR
        MOV       R1,A
        LCALL     `??zclAnalogDataType::?relay`; Banked call to: zclAnalogDataType
        MOV       A,R1
        JNZ       $+5
        LJMP      ??bdb_ProcessInConfigReportCmd_7 & 0xFFFF
        ; Setup parameters for call to function osal_memset
        MOV       R4,#0x4
        MOV       R5,#0x0
        MOV       R1,#0x0
        LCALL     ?Subroutine38 & 0xFFFF
??CrossCallReturnLabel_53:
        ADD       A,#0xd
        MOV       R2,A
        JNC       ??bdb_ProcessInConfigReportCmd_16
        INC       R3
??bdb_ProcessInConfigReportCmd_16:
        LCALL     `??osal_memset::?relay`; Banked call to: osal_memset
        ; Setup parameters for call to function zclGetDataTypeLength
        MOV       DPL,?V6
        MOV       DPH,?V7
        MOVX      A,@DPTR
        MOV       R1,A
        LCALL     `??zclGetDataTypeLength::?relay`; Banked call to: zclGetDataTypeLength
        MOV       A,R1
        MOV       R1,A
        ; Setup parameters for call to function osal_memcpy
        MOV       DPL,?V4
        MOV       DPH,?V5
        INC       DPTR
        INC       DPTR
        INC       DPTR
        INC       DPTR
        INC       DPTR
        INC       DPTR
        INC       DPTR
        INC       DPTR
        INC       DPTR
        INC       DPTR
        LCALL     ?Subroutine39 & 0xFFFF
??CrossCallReturnLabel_54:
        LCALL     ?PUSH_XSTACK_I_THREE
          CFI CFA_XSP16 add(XSP16, 37)
        MOV       A,R1
        MOV       R4,A
        MOV       R5,#0x0
        MOV       DPTR,#bdb_reportingAttrCfgRecordsArray
        MOVX      A,@DPTR
        ADD       A,R6
        MOV       R0,A
        INC       DPTR
        MOVX      A,@DPTR
        ADDC      A,R7
        MOV       R1,A
        MOV       A,R0
        ADD       A,#0xd
        MOV       R2,A
        CLR       A
        ADDC      A,R1
        MOV       R3,A
        SJMP      ??bdb_ProcessInConfigReportCmd_15
          CFI CFA_XSP16 add(XSP16, 34)
??bdb_ProcessInConfigReportCmd_11:
        MOV       R1,#-0x74
        LJMP      ??bdb_ProcessInConfigReportCmd_6 & 0xFFFF
//  606 
//  607   } // going through each attribute
//  608 
//  609   if( confchanged == BDBREPORTING_TRUE )
??bdb_ProcessInConfigReportCmd_8:
        MOV       A,?V0
        JZ        ??bdb_ProcessInConfigReportCmd_17
//  610   {
//  611    //Write new configs into NV
//  612    status = osal_nv_item_init( ZCD_NV_BDBREPORTINGCONFIG, sizeof(bdbReportAttrCfgData_t)*bdb_reportingAttrCfgRecordsArrayCount, bdb_reportingAttrCfgRecordsArray );
//  613    if( status == SUCCESS )
        ; Setup parameters for call to function osal_nv_item_init
        MOV       DPTR,#bdb_reportingAttrCfgRecordsArray
        LCALL     ?PUSH_XSTACK8_X_TWO
          CFI CFA_XSP16 add(XSP16, 36)
        LCALL     ?Subroutine28 & 0xFFFF
??CrossCallReturnLabel_35:
        LCALL     `??osal_nv_item_init::?relay`; Banked call to: osal_nv_item_init
        MOV       A,#0x2
        LCALL     ?DEALLOC_XSTACK8
          CFI CFA_XSP16 add(XSP16, 34)
        MOV       A,R1
        JNZ       ??bdb_ProcessInConfigReportCmd_18
//  614    {
//  615      //Overwrite values
//  616      osal_nv_write( ZCD_NV_BDBREPORTINGCONFIG,0, sizeof(bdbReportAttrCfgData_t)*bdb_reportingAttrCfgRecordsArrayCount, bdb_reportingAttrCfgRecordsArray );
        ; Setup parameters for call to function osal_nv_write
        MOV       DPTR,#bdb_reportingAttrCfgRecordsArray
        LCALL     ?PUSH_XSTACK8_X_TWO
          CFI CFA_XSP16 add(XSP16, 36)
        MOV       DPTR,#bdb_reportingAttrCfgRecordsArrayCount
        MOVX      A,@DPTR
        MOV       B,#0x15
        MUL       AB
        MOV       ?V0,A
        MOV       A,B
        MOV       ?V1,A
        MOV       R0,#?V0
        LCALL     ?PUSH_XSTACK_I_TWO
          CFI CFA_XSP16 add(XSP16, 38)
        MOV       R4,#0x0
        MOV       R5,#0x0
        MOV       R2,#0x56
        MOV       R3,#0x0
        LCALL     `??osal_nv_write::?relay`; Banked call to: osal_nv_write
        MOV       A,#0x4
        LCALL     ?DEALLOC_XSTACK8
          CFI CFA_XSP16 add(XSP16, 34)
//  617    }
//  618 
//  619     bdb_RepSetupReporting( );
??bdb_ProcessInConfigReportCmd_18:
        ; Setup parameters for call to function bdb_RepSetupReporting
        LCALL     `??bdb_RepSetupReporting::?relay`; Banked call to: bdb_RepSetupReporting
//  620   }
//  621   
//  622   // if no response records, then just say 1 with status of success
//  623   cfgReportRspCmd->numAttr = iNumRspRecords;
??bdb_ProcessInConfigReportCmd_17:
        MOV       DPL,?V8
        MOV       DPH,?V9
        MOV       A,?V10
        MOVX      @DPTR,A
//  624   if ( cfgReportRspCmd->numAttr == 0 )
        JNZ       ??bdb_ProcessInConfigReportCmd_19
//  625   {
//  626     // Since all attributes were configured successfully, include a single
//  627     // attribute status record in the response command with the status field
//  628     // set to SUCCESS and the attribute ID field and direction omitted.
//  629     cfgReportRspCmd->attrList[0].status = ZCL_STATUS_SUCCESS;
        INC       DPTR
        CLR       A
        MOVX      @DPTR,A
//  630     cfgReportRspCmd->numAttr = 1;
        MOV       DPL,?V8
        MOV       DPH,?V9
        INC       A
        MOVX      @DPTR,A
//  631   }
//  632 
//  633   // Send the response back
//  634   zcl_SendConfigReportRspCmd( pInMsg->endPoint, &(pInMsg->srcAddr),
//  635                               pInMsg->clusterId, cfgReportRspCmd, ZCL_FRAME_SERVER_CLIENT_DIR,
//  636                               true, pInMsg->zclHdr.transSeqNum );
??bdb_ProcessInConfigReportCmd_19:
        ; Setup parameters for call to function zcl_SendConfigReportRspCmd
        MOV       DPL,?V2
        MOV       DPH,?V3
        INC       DPTR
        INC       DPTR
        INC       DPTR
        INC       DPTR
        INC       DPTR
        INC       DPTR
        MOVX      A,@DPTR
        MOV       ?V0,A
        MOV       R0,#?V0
        LCALL     ?PUSH_XSTACK_I_ONE
          CFI CFA_XSP16 add(XSP16, 35)
        MOV       ?V0,#0x1
        MOV       R0,#?V0
        LCALL     ?PUSH_XSTACK_I_ONE
          CFI CFA_XSP16 add(XSP16, 36)
        MOV       R0,#?V0
        LCALL     ?PUSH_XSTACK_I_ONE
          CFI CFA_XSP16 add(XSP16, 37)
        MOV       R0,#?V8
        LCALL     ?PUSH_XSTACK_I_TWO
          CFI CFA_XSP16 add(XSP16, 39)
        MOV       DPL,?V2
        MOV       DPH,?V3
        INC       DPTR
        LCALL     ?Subroutine35 & 0xFFFF
??CrossCallReturnLabel_249:
        MOV       A,?V2
        ADD       A,#0xa
        MOV       R2,A
        CLR       A
        ADDC      A,?V3
        MOV       R3,A
        MOV       A,?V2
        LCALL     ?Subroutine59 & 0xFFFF
??CrossCallReturnLabel_95:
        LCALL     `??zcl_SendConfigReportRspCmd::?relay`; Banked call to: zcl_SendConfigReportRspCmd
        MOV       A,#0x5
        LCALL     ?DEALLOC_XSTACK8
          CFI CFA_XSP16 add(XSP16, 34)
//  637   osal_mem_free( cfgReportRspCmd );
        ; Setup parameters for call to function osal_mem_free
        MOV       R2,?V8
        MOV       R3,?V9
        LCALL     `??osal_mem_free::?relay`; Banked call to: osal_mem_free
//  638 
//  639   bdb_repAttrCfgRecordsArrayFreeAll( ); //Free reporting conf array from memory, its saved in NV
        ; Setup parameters for call to function bdb_repAttrCfgRecordsArrayFreeAll
        LCALL     `??bdb_repAttrCfgRecordsArrayFreeAll::?relay`; Banked call to: bdb_repAttrCfgRecordsArrayFreeAll
//  640 
//  641   bdb_RepStartReporting( );
        ; Setup parameters for call to function bdb_RepStartReporting
        LCALL     `??bdb_RepStartReporting::?relay`; Banked call to: bdb_RepStartReporting
//  642 
//  643   return ( TRUE ) ;
        MOV       R1,#0x1
??bdb_ProcessInConfigReportCmd_2:
          CFI EndBlock cfiBlock9
        REQUIRE ?Subroutine4
        ; // Fall through to label ?Subroutine4
//  644 }

        RSEG BANKED_CODE:HUGECODE:NOROOT(0)
?Subroutine4:
          CFI Block cfiBlock10 Using cfiCommon0
          CFI NoFunction
          CFI CFA_SP SP+0
          CFI CFA_XSP16 add(XSP16, 34)
          CFI VB load(1, XDATA, add(CFA_XSP16, literal(-23)))
          CFI DPL0 load(1, XDATA, add(CFA_XSP16, literal(-2)))
          CFI DPH0 load(1, XDATA, add(CFA_XSP16, literal(-1)))
          CFI R6 load(1, XDATA, add(CFA_XSP16, literal(-24)))
          CFI R7 load(1, XDATA, add(CFA_XSP16, literal(-6)))
          CFI V0 load(1, XDATA, add(CFA_XSP16, literal(-22)))
          CFI V1 load(1, XDATA, add(CFA_XSP16, literal(-21)))
          CFI V2 load(1, XDATA, add(CFA_XSP16, literal(-20)))
          CFI V3 load(1, XDATA, add(CFA_XSP16, literal(-19)))
          CFI V4 load(1, XDATA, add(CFA_XSP16, literal(-18)))
          CFI V5 load(1, XDATA, add(CFA_XSP16, literal(-17)))
          CFI V6 load(1, XDATA, add(CFA_XSP16, literal(-16)))
          CFI V7 load(1, XDATA, add(CFA_XSP16, literal(-15)))
          CFI V8 load(1, XDATA, add(CFA_XSP16, literal(-14)))
          CFI V9 load(1, XDATA, add(CFA_XSP16, literal(-13)))
          CFI V10 load(1, XDATA, add(CFA_XSP16, literal(-12)))
          CFI V11 load(1, XDATA, add(CFA_XSP16, literal(-11)))
          CFI V12 load(1, XDATA, add(CFA_XSP16, literal(-10)))
          CFI V13 load(1, XDATA, add(CFA_XSP16, literal(-9)))
          CFI V14 load(1, XDATA, add(CFA_XSP16, literal(-8)))
          CFI V15 load(1, XDATA, add(CFA_XSP16, literal(-7)))
          CFI ?BRET_EXT load(1, XDATA, add(CFA_XSP16, literal(-3)))
          CFI ?RET_HIGH load(1, XDATA, add(CFA_XSP16, literal(-4)))
          CFI ?RET_LOW load(1, XDATA, add(CFA_XSP16, literal(-5)))
        MOV       A,#0xa
          CFI EndBlock cfiBlock10
        REQUIRE ??Subroutine76_0
        ; // Fall through to label ??Subroutine76_0

        RSEG BANKED_CODE:HUGECODE:NOROOT(0)
??Subroutine76_0:
          CFI Block cfiBlock11 Using cfiCommon0
          CFI NoFunction
          CFI CFA_SP SP+0
          CFI CFA_XSP16 add(XSP16, 42)
          CFI VB load(1, XDATA, add(CFA_XSP16, literal(-23)))
          CFI DPL0 load(1, XDATA, add(CFA_XSP16, literal(-2)))
          CFI DPH0 load(1, XDATA, add(CFA_XSP16, literal(-1)))
          CFI R6 load(1, XDATA, add(CFA_XSP16, literal(-24)))
          CFI R7 load(1, XDATA, add(CFA_XSP16, literal(-6)))
          CFI V0 load(1, XDATA, add(CFA_XSP16, literal(-22)))
          CFI V1 load(1, XDATA, add(CFA_XSP16, literal(-21)))
          CFI V2 load(1, XDATA, add(CFA_XSP16, literal(-20)))
          CFI V3 load(1, XDATA, add(CFA_XSP16, literal(-19)))
          CFI V4 load(1, XDATA, add(CFA_XSP16, literal(-18)))
          CFI V5 load(1, XDATA, add(CFA_XSP16, literal(-17)))
          CFI V6 load(1, XDATA, add(CFA_XSP16, literal(-16)))
          CFI V7 load(1, XDATA, add(CFA_XSP16, literal(-15)))
          CFI V8 load(1, XDATA, add(CFA_XSP16, literal(-14)))
          CFI V9 load(1, XDATA, add(CFA_XSP16, literal(-13)))
          CFI V10 load(1, XDATA, add(CFA_XSP16, literal(-12)))
          CFI V11 load(1, XDATA, add(CFA_XSP16, literal(-11)))
          CFI V12 load(1, XDATA, add(CFA_XSP16, literal(-10)))
          CFI V13 load(1, XDATA, add(CFA_XSP16, literal(-9)))
          CFI V14 load(1, XDATA, add(CFA_XSP16, literal(-8)))
          CFI V15 load(1, XDATA, add(CFA_XSP16, literal(-7)))
          CFI ?BRET_EXT load(1, XDATA, add(CFA_XSP16, literal(-3)))
          CFI ?RET_HIGH load(1, XDATA, add(CFA_XSP16, literal(-4)))
          CFI ?RET_LOW load(1, XDATA, add(CFA_XSP16, literal(-5)))
          CFI Invalid
        LCALL     ?DEALLOC_XSTACK8
          CFI CFA_XSP16 add(XSP16, 24)
          CFI Valid
        MOV       R7,#0x10
        LJMP      ?BANKED_LEAVE_XDATA
          CFI EndBlock cfiBlock11

        RSEG BANKED_CODE:HUGECODE:NOROOT(0)
?Subroutine59:
          CFI Block cfiCond12 Using cfiCommon0
          CFI Function bdb_ProcessInConfigReportCmd
          CFI Conditional ??CrossCallReturnLabel_94
          CFI R6 load(1, XDATA, add(CFA_XSP16, literal(-24)))
          CFI VB load(1, XDATA, add(CFA_XSP16, literal(-23)))
          CFI V0 load(1, XDATA, add(CFA_XSP16, literal(-22)))
          CFI V1 load(1, XDATA, add(CFA_XSP16, literal(-21)))
          CFI V2 load(1, XDATA, add(CFA_XSP16, literal(-20)))
          CFI V3 load(1, XDATA, add(CFA_XSP16, literal(-19)))
          CFI V4 load(1, XDATA, add(CFA_XSP16, literal(-18)))
          CFI V5 load(1, XDATA, add(CFA_XSP16, literal(-17)))
          CFI V6 load(1, XDATA, add(CFA_XSP16, literal(-16)))
          CFI V7 load(1, XDATA, add(CFA_XSP16, literal(-15)))
          CFI V8 load(1, XDATA, add(CFA_XSP16, literal(-14)))
          CFI V9 load(1, XDATA, add(CFA_XSP16, literal(-13)))
          CFI V10 load(1, XDATA, add(CFA_XSP16, literal(-12)))
          CFI V11 load(1, XDATA, add(CFA_XSP16, literal(-11)))
          CFI V12 load(1, XDATA, add(CFA_XSP16, literal(-10)))
          CFI V13 load(1, XDATA, add(CFA_XSP16, literal(-9)))
          CFI V14 load(1, XDATA, add(CFA_XSP16, literal(-8)))
          CFI V15 load(1, XDATA, add(CFA_XSP16, literal(-7)))
          CFI R7 load(1, XDATA, add(CFA_XSP16, literal(-6)))
          CFI ?RET_LOW load(1, XDATA, add(CFA_XSP16, literal(-5)))
          CFI ?RET_HIGH load(1, XDATA, add(CFA_XSP16, literal(-4)))
          CFI ?BRET_EXT load(1, XDATA, add(CFA_XSP16, literal(-3)))
          CFI DPL0 load(1, XDATA, add(CFA_XSP16, literal(-2)))
          CFI DPH0 load(1, XDATA, add(CFA_XSP16, literal(-1)))
          CFI CFA_SP SP+-2
          CFI CFA_XSP16 add(XSP16, 34)
          CFI Block cfiCond13 Using cfiCommon0
          CFI (cfiCond13) Function bdb_ProcessInConfigReportCmd
          CFI (cfiCond13) Conditional ??CrossCallReturnLabel_95
          CFI (cfiCond13) R6 load(1, XDATA, add(CFA_XSP16, literal(-24)))
          CFI (cfiCond13) VB load(1, XDATA, add(CFA_XSP16, literal(-23)))
          CFI (cfiCond13) V0 load(1, XDATA, add(CFA_XSP16, literal(-22)))
          CFI (cfiCond13) V1 load(1, XDATA, add(CFA_XSP16, literal(-21)))
          CFI (cfiCond13) V2 load(1, XDATA, add(CFA_XSP16, literal(-20)))
          CFI (cfiCond13) V3 load(1, XDATA, add(CFA_XSP16, literal(-19)))
          CFI (cfiCond13) V4 load(1, XDATA, add(CFA_XSP16, literal(-18)))
          CFI (cfiCond13) V5 load(1, XDATA, add(CFA_XSP16, literal(-17)))
          CFI (cfiCond13) V6 load(1, XDATA, add(CFA_XSP16, literal(-16)))
          CFI (cfiCond13) V7 load(1, XDATA, add(CFA_XSP16, literal(-15)))
          CFI (cfiCond13) V8 load(1, XDATA, add(CFA_XSP16, literal(-14)))
          CFI (cfiCond13) V9 load(1, XDATA, add(CFA_XSP16, literal(-13)))
          CFI (cfiCond13) V10 load(1, XDATA, add(CFA_XSP16, literal(-12)))
          CFI (cfiCond13) V11 load(1, XDATA, add(CFA_XSP16, literal(-11)))
          CFI (cfiCond13) V12 load(1, XDATA, add(CFA_XSP16, literal(-10)))
          CFI (cfiCond13) V13 load(1, XDATA, add(CFA_XSP16, literal(-9)))
          CFI (cfiCond13) V14 load(1, XDATA, add(CFA_XSP16, literal(-8)))
          CFI (cfiCond13) V15 load(1, XDATA, add(CFA_XSP16, literal(-7)))
          CFI (cfiCond13) R7 load(1, XDATA, add(CFA_XSP16, literal(-6)))
          CFI (cfiCond13) ?RET_LOW load(1, XDATA, add(CFA_XSP16, literal(-5)))
          CFI (cfiCond13) ?RET_HIGH load(1, XDATA, add(CFA_XSP16, literal(-4)))
          CFI (cfiCond13) ?BRET_EXT load(1, XDATA, add(CFA_XSP16, literal(-3)))
          CFI (cfiCond13) DPL0 load(1, XDATA, add(CFA_XSP16, literal(-2)))
          CFI (cfiCond13) DPH0 load(1, XDATA, add(CFA_XSP16, literal(-1)))
          CFI (cfiCond13) CFA_SP SP+-2
          CFI (cfiCond13) CFA_XSP16 add(XSP16, 39)
          CFI Block cfiPicker14 Using cfiCommon1
          CFI (cfiPicker14) NoFunction
          CFI (cfiPicker14) Picker
        LCALL     ?Subroutine73 & 0xFFFF
??CrossCallReturnLabel_118:
        RET
          CFI EndBlock cfiCond12
          CFI EndBlock cfiCond13
          CFI EndBlock cfiPicker14

        RSEG BANKED_CODE:HUGECODE:NOROOT(0)
?Subroutine38:
          CFI Block cfiCond15 Using cfiCommon0
          CFI Function bdb_ProcessInConfigReportCmd
          CFI Conditional ??CrossCallReturnLabel_51
          CFI R6 load(1, XDATA, add(CFA_XSP16, literal(-24)))
          CFI VB load(1, XDATA, add(CFA_XSP16, literal(-23)))
          CFI V0 load(1, XDATA, add(CFA_XSP16, literal(-22)))
          CFI V1 load(1, XDATA, add(CFA_XSP16, literal(-21)))
          CFI V2 load(1, XDATA, add(CFA_XSP16, literal(-20)))
          CFI V3 load(1, XDATA, add(CFA_XSP16, literal(-19)))
          CFI V4 load(1, XDATA, add(CFA_XSP16, literal(-18)))
          CFI V5 load(1, XDATA, add(CFA_XSP16, literal(-17)))
          CFI V6 load(1, XDATA, add(CFA_XSP16, literal(-16)))
          CFI V7 load(1, XDATA, add(CFA_XSP16, literal(-15)))
          CFI V8 load(1, XDATA, add(CFA_XSP16, literal(-14)))
          CFI V9 load(1, XDATA, add(CFA_XSP16, literal(-13)))
          CFI V10 load(1, XDATA, add(CFA_XSP16, literal(-12)))
          CFI V11 load(1, XDATA, add(CFA_XSP16, literal(-11)))
          CFI V12 load(1, XDATA, add(CFA_XSP16, literal(-10)))
          CFI V13 load(1, XDATA, add(CFA_XSP16, literal(-9)))
          CFI V14 load(1, XDATA, add(CFA_XSP16, literal(-8)))
          CFI V15 load(1, XDATA, add(CFA_XSP16, literal(-7)))
          CFI R7 load(1, XDATA, add(CFA_XSP16, literal(-6)))
          CFI ?RET_LOW load(1, XDATA, add(CFA_XSP16, literal(-5)))
          CFI ?RET_HIGH load(1, XDATA, add(CFA_XSP16, literal(-4)))
          CFI ?BRET_EXT load(1, XDATA, add(CFA_XSP16, literal(-3)))
          CFI DPL0 load(1, XDATA, add(CFA_XSP16, literal(-2)))
          CFI DPH0 load(1, XDATA, add(CFA_XSP16, literal(-1)))
          CFI CFA_SP SP+-2
          CFI CFA_XSP16 add(XSP16, 34)
          CFI Block cfiCond16 Using cfiCommon0
          CFI (cfiCond16) Function bdb_ProcessInConfigReportCmd
          CFI (cfiCond16) Conditional ??CrossCallReturnLabel_52
          CFI (cfiCond16) R6 load(1, XDATA, add(CFA_XSP16, literal(-24)))
          CFI (cfiCond16) VB load(1, XDATA, add(CFA_XSP16, literal(-23)))
          CFI (cfiCond16) V0 load(1, XDATA, add(CFA_XSP16, literal(-22)))
          CFI (cfiCond16) V1 load(1, XDATA, add(CFA_XSP16, literal(-21)))
          CFI (cfiCond16) V2 load(1, XDATA, add(CFA_XSP16, literal(-20)))
          CFI (cfiCond16) V3 load(1, XDATA, add(CFA_XSP16, literal(-19)))
          CFI (cfiCond16) V4 load(1, XDATA, add(CFA_XSP16, literal(-18)))
          CFI (cfiCond16) V5 load(1, XDATA, add(CFA_XSP16, literal(-17)))
          CFI (cfiCond16) V6 load(1, XDATA, add(CFA_XSP16, literal(-16)))
          CFI (cfiCond16) V7 load(1, XDATA, add(CFA_XSP16, literal(-15)))
          CFI (cfiCond16) V8 load(1, XDATA, add(CFA_XSP16, literal(-14)))
          CFI (cfiCond16) V9 load(1, XDATA, add(CFA_XSP16, literal(-13)))
          CFI (cfiCond16) V10 load(1, XDATA, add(CFA_XSP16, literal(-12)))
          CFI (cfiCond16) V11 load(1, XDATA, add(CFA_XSP16, literal(-11)))
          CFI (cfiCond16) V12 load(1, XDATA, add(CFA_XSP16, literal(-10)))
          CFI (cfiCond16) V13 load(1, XDATA, add(CFA_XSP16, literal(-9)))
          CFI (cfiCond16) V14 load(1, XDATA, add(CFA_XSP16, literal(-8)))
          CFI (cfiCond16) V15 load(1, XDATA, add(CFA_XSP16, literal(-7)))
          CFI (cfiCond16) R7 load(1, XDATA, add(CFA_XSP16, literal(-6)))
          CFI (cfiCond16) ?RET_LOW load(1, XDATA, add(CFA_XSP16, literal(-5)))
          CFI (cfiCond16) ?RET_HIGH load(1, XDATA, add(CFA_XSP16, literal(-4)))
          CFI (cfiCond16) ?BRET_EXT load(1, XDATA, add(CFA_XSP16, literal(-3)))
          CFI (cfiCond16) DPL0 load(1, XDATA, add(CFA_XSP16, literal(-2)))
          CFI (cfiCond16) DPH0 load(1, XDATA, add(CFA_XSP16, literal(-1)))
          CFI (cfiCond16) CFA_SP SP+-2
          CFI (cfiCond16) CFA_XSP16 add(XSP16, 34)
          CFI Block cfiCond17 Using cfiCommon0
          CFI (cfiCond17) Function bdb_ProcessInConfigReportCmd
          CFI (cfiCond17) Conditional ??CrossCallReturnLabel_53
          CFI (cfiCond17) R6 load(1, XDATA, add(CFA_XSP16, literal(-24)))
          CFI (cfiCond17) VB load(1, XDATA, add(CFA_XSP16, literal(-23)))
          CFI (cfiCond17) V0 load(1, XDATA, add(CFA_XSP16, literal(-22)))
          CFI (cfiCond17) V1 load(1, XDATA, add(CFA_XSP16, literal(-21)))
          CFI (cfiCond17) V2 load(1, XDATA, add(CFA_XSP16, literal(-20)))
          CFI (cfiCond17) V3 load(1, XDATA, add(CFA_XSP16, literal(-19)))
          CFI (cfiCond17) V4 load(1, XDATA, add(CFA_XSP16, literal(-18)))
          CFI (cfiCond17) V5 load(1, XDATA, add(CFA_XSP16, literal(-17)))
          CFI (cfiCond17) V6 load(1, XDATA, add(CFA_XSP16, literal(-16)))
          CFI (cfiCond17) V7 load(1, XDATA, add(CFA_XSP16, literal(-15)))
          CFI (cfiCond17) V8 load(1, XDATA, add(CFA_XSP16, literal(-14)))
          CFI (cfiCond17) V9 load(1, XDATA, add(CFA_XSP16, literal(-13)))
          CFI (cfiCond17) V10 load(1, XDATA, add(CFA_XSP16, literal(-12)))
          CFI (cfiCond17) V11 load(1, XDATA, add(CFA_XSP16, literal(-11)))
          CFI (cfiCond17) V12 load(1, XDATA, add(CFA_XSP16, literal(-10)))
          CFI (cfiCond17) V13 load(1, XDATA, add(CFA_XSP16, literal(-9)))
          CFI (cfiCond17) V14 load(1, XDATA, add(CFA_XSP16, literal(-8)))
          CFI (cfiCond17) V15 load(1, XDATA, add(CFA_XSP16, literal(-7)))
          CFI (cfiCond17) R7 load(1, XDATA, add(CFA_XSP16, literal(-6)))
          CFI (cfiCond17) ?RET_LOW load(1, XDATA, add(CFA_XSP16, literal(-5)))
          CFI (cfiCond17) ?RET_HIGH load(1, XDATA, add(CFA_XSP16, literal(-4)))
          CFI (cfiCond17) ?BRET_EXT load(1, XDATA, add(CFA_XSP16, literal(-3)))
          CFI (cfiCond17) DPL0 load(1, XDATA, add(CFA_XSP16, literal(-2)))
          CFI (cfiCond17) DPH0 load(1, XDATA, add(CFA_XSP16, literal(-1)))
          CFI (cfiCond17) CFA_SP SP+-2
          CFI (cfiCond17) CFA_XSP16 add(XSP16, 34)
          CFI Block cfiPicker18 Using cfiCommon1
          CFI (cfiPicker18) NoFunction
          CFI (cfiPicker18) Picker
        MOV       DPTR,#bdb_reportingAttrCfgRecordsArray
        MOVX      A,@DPTR
        ADD       A,R6
        MOV       R2,A
        INC       DPTR
        MOVX      A,@DPTR
        ADDC      A,R7
        MOV       R3,A
        ; Setup parameters for call to function osal_memcpy
        MOV       A,R2
        RET
          CFI EndBlock cfiCond15
          CFI EndBlock cfiCond16
          CFI EndBlock cfiCond17
          CFI EndBlock cfiPicker18

        RSEG BANKED_CODE:HUGECODE:NOROOT(0)
?Subroutine19:
          CFI Block cfiCond19 Using cfiCommon0
          CFI Function bdb_ProcessInConfigReportCmd
          CFI Conditional ??CrossCallReturnLabel_16
          CFI R6 load(1, XDATA, add(CFA_XSP16, literal(-24)))
          CFI VB load(1, XDATA, add(CFA_XSP16, literal(-23)))
          CFI V0 load(1, XDATA, add(CFA_XSP16, literal(-22)))
          CFI V1 load(1, XDATA, add(CFA_XSP16, literal(-21)))
          CFI V2 load(1, XDATA, add(CFA_XSP16, literal(-20)))
          CFI V3 load(1, XDATA, add(CFA_XSP16, literal(-19)))
          CFI V4 load(1, XDATA, add(CFA_XSP16, literal(-18)))
          CFI V5 load(1, XDATA, add(CFA_XSP16, literal(-17)))
          CFI V6 load(1, XDATA, add(CFA_XSP16, literal(-16)))
          CFI V7 load(1, XDATA, add(CFA_XSP16, literal(-15)))
          CFI V8 load(1, XDATA, add(CFA_XSP16, literal(-14)))
          CFI V9 load(1, XDATA, add(CFA_XSP16, literal(-13)))
          CFI V10 load(1, XDATA, add(CFA_XSP16, literal(-12)))
          CFI V11 load(1, XDATA, add(CFA_XSP16, literal(-11)))
          CFI V12 load(1, XDATA, add(CFA_XSP16, literal(-10)))
          CFI V13 load(1, XDATA, add(CFA_XSP16, literal(-9)))
          CFI V14 load(1, XDATA, add(CFA_XSP16, literal(-8)))
          CFI V15 load(1, XDATA, add(CFA_XSP16, literal(-7)))
          CFI R7 load(1, XDATA, add(CFA_XSP16, literal(-6)))
          CFI ?RET_LOW load(1, XDATA, add(CFA_XSP16, literal(-5)))
          CFI ?RET_HIGH load(1, XDATA, add(CFA_XSP16, literal(-4)))
          CFI ?BRET_EXT load(1, XDATA, add(CFA_XSP16, literal(-3)))
          CFI DPL0 load(1, XDATA, add(CFA_XSP16, literal(-2)))
          CFI DPH0 load(1, XDATA, add(CFA_XSP16, literal(-1)))
          CFI CFA_SP SP+-2
          CFI CFA_XSP16 add(XSP16, 34)
          CFI Block cfiCond20 Using cfiCommon0
          CFI (cfiCond20) Function bdb_ProcessInConfigReportCmd
          CFI (cfiCond20) Conditional ??CrossCallReturnLabel_17
          CFI (cfiCond20) R6 load(1, XDATA, add(CFA_XSP16, literal(-24)))
          CFI (cfiCond20) VB load(1, XDATA, add(CFA_XSP16, literal(-23)))
          CFI (cfiCond20) V0 load(1, XDATA, add(CFA_XSP16, literal(-22)))
          CFI (cfiCond20) V1 load(1, XDATA, add(CFA_XSP16, literal(-21)))
          CFI (cfiCond20) V2 load(1, XDATA, add(CFA_XSP16, literal(-20)))
          CFI (cfiCond20) V3 load(1, XDATA, add(CFA_XSP16, literal(-19)))
          CFI (cfiCond20) V4 load(1, XDATA, add(CFA_XSP16, literal(-18)))
          CFI (cfiCond20) V5 load(1, XDATA, add(CFA_XSP16, literal(-17)))
          CFI (cfiCond20) V6 load(1, XDATA, add(CFA_XSP16, literal(-16)))
          CFI (cfiCond20) V7 load(1, XDATA, add(CFA_XSP16, literal(-15)))
          CFI (cfiCond20) V8 load(1, XDATA, add(CFA_XSP16, literal(-14)))
          CFI (cfiCond20) V9 load(1, XDATA, add(CFA_XSP16, literal(-13)))
          CFI (cfiCond20) V10 load(1, XDATA, add(CFA_XSP16, literal(-12)))
          CFI (cfiCond20) V11 load(1, XDATA, add(CFA_XSP16, literal(-11)))
          CFI (cfiCond20) V12 load(1, XDATA, add(CFA_XSP16, literal(-10)))
          CFI (cfiCond20) V13 load(1, XDATA, add(CFA_XSP16, literal(-9)))
          CFI (cfiCond20) V14 load(1, XDATA, add(CFA_XSP16, literal(-8)))
          CFI (cfiCond20) V15 load(1, XDATA, add(CFA_XSP16, literal(-7)))
          CFI (cfiCond20) R7 load(1, XDATA, add(CFA_XSP16, literal(-6)))
          CFI (cfiCond20) ?RET_LOW load(1, XDATA, add(CFA_XSP16, literal(-5)))
          CFI (cfiCond20) ?RET_HIGH load(1, XDATA, add(CFA_XSP16, literal(-4)))
          CFI (cfiCond20) ?BRET_EXT load(1, XDATA, add(CFA_XSP16, literal(-3)))
          CFI (cfiCond20) DPL0 load(1, XDATA, add(CFA_XSP16, literal(-2)))
          CFI (cfiCond20) DPH0 load(1, XDATA, add(CFA_XSP16, literal(-1)))
          CFI (cfiCond20) CFA_SP SP+-2
          CFI (cfiCond20) CFA_XSP16 add(XSP16, 36)
          CFI Block cfiPicker21 Using cfiCommon1
          CFI (cfiPicker21) NoFunction
          CFI (cfiPicker21) Picker
        LCALL     ?Subroutine69 & 0xFFFF
??CrossCallReturnLabel_251:
        MOV       DPL,?V2
        MOV       DPH,?V3
        INC       DPTR
        INC       DPTR
        INC       DPTR
        INC       DPTR
        INC       DPTR
        LCALL     ?Subroutine64 & 0xFFFF
??CrossCallReturnLabel_198:
        MOV       A,?V2
        LCALL     ?Subroutine73 & 0xFFFF
??CrossCallReturnLabel_117:
        RET
          CFI EndBlock cfiCond19
          CFI EndBlock cfiCond20
          CFI EndBlock cfiPicker21

        RSEG BANKED_CODE:HUGECODE:NOROOT(0)
?Subroutine73:
          CFI Block cfiCond22 Using cfiCommon0
          CFI Function bdb_ProcessInConfigReportCmd
          CFI Conditional ??CrossCallReturnLabel_118, ??CrossCallReturnLabel_94
          CFI R6 load(1, XDATA, add(CFA_XSP16, literal(-24)))
          CFI VB load(1, XDATA, add(CFA_XSP16, literal(-23)))
          CFI V0 load(1, XDATA, add(CFA_XSP16, literal(-22)))
          CFI V1 load(1, XDATA, add(CFA_XSP16, literal(-21)))
          CFI V2 load(1, XDATA, add(CFA_XSP16, literal(-20)))
          CFI V3 load(1, XDATA, add(CFA_XSP16, literal(-19)))
          CFI V4 load(1, XDATA, add(CFA_XSP16, literal(-18)))
          CFI V5 load(1, XDATA, add(CFA_XSP16, literal(-17)))
          CFI V6 load(1, XDATA, add(CFA_XSP16, literal(-16)))
          CFI V7 load(1, XDATA, add(CFA_XSP16, literal(-15)))
          CFI V8 load(1, XDATA, add(CFA_XSP16, literal(-14)))
          CFI V9 load(1, XDATA, add(CFA_XSP16, literal(-13)))
          CFI V10 load(1, XDATA, add(CFA_XSP16, literal(-12)))
          CFI V11 load(1, XDATA, add(CFA_XSP16, literal(-11)))
          CFI V12 load(1, XDATA, add(CFA_XSP16, literal(-10)))
          CFI V13 load(1, XDATA, add(CFA_XSP16, literal(-9)))
          CFI V14 load(1, XDATA, add(CFA_XSP16, literal(-8)))
          CFI V15 load(1, XDATA, add(CFA_XSP16, literal(-7)))
          CFI R7 load(1, XDATA, add(CFA_XSP16, literal(-6)))
          CFI ?RET_LOW load(1, XDATA, add(CFA_XSP16, literal(-5)))
          CFI ?RET_HIGH load(1, XDATA, add(CFA_XSP16, literal(-4)))
          CFI ?BRET_EXT load(1, XDATA, add(CFA_XSP16, literal(-3)))
          CFI DPL0 load(1, XDATA, add(CFA_XSP16, literal(-2)))
          CFI DPH0 load(1, XDATA, add(CFA_XSP16, literal(-1)))
          CFI CFA_SP SP+-4
          CFI CFA_XSP16 add(XSP16, 34)
          CFI Block cfiCond23 Using cfiCommon0
          CFI (cfiCond23) Function bdb_ProcessInConfigReportCmd
          CFI (cfiCond23) Conditional ??CrossCallReturnLabel_118, ??CrossCallReturnLabel_95
          CFI (cfiCond23) R6 load(1, XDATA, add(CFA_XSP16, literal(-24)))
          CFI (cfiCond23) VB load(1, XDATA, add(CFA_XSP16, literal(-23)))
          CFI (cfiCond23) V0 load(1, XDATA, add(CFA_XSP16, literal(-22)))
          CFI (cfiCond23) V1 load(1, XDATA, add(CFA_XSP16, literal(-21)))
          CFI (cfiCond23) V2 load(1, XDATA, add(CFA_XSP16, literal(-20)))
          CFI (cfiCond23) V3 load(1, XDATA, add(CFA_XSP16, literal(-19)))
          CFI (cfiCond23) V4 load(1, XDATA, add(CFA_XSP16, literal(-18)))
          CFI (cfiCond23) V5 load(1, XDATA, add(CFA_XSP16, literal(-17)))
          CFI (cfiCond23) V6 load(1, XDATA, add(CFA_XSP16, literal(-16)))
          CFI (cfiCond23) V7 load(1, XDATA, add(CFA_XSP16, literal(-15)))
          CFI (cfiCond23) V8 load(1, XDATA, add(CFA_XSP16, literal(-14)))
          CFI (cfiCond23) V9 load(1, XDATA, add(CFA_XSP16, literal(-13)))
          CFI (cfiCond23) V10 load(1, XDATA, add(CFA_XSP16, literal(-12)))
          CFI (cfiCond23) V11 load(1, XDATA, add(CFA_XSP16, literal(-11)))
          CFI (cfiCond23) V12 load(1, XDATA, add(CFA_XSP16, literal(-10)))
          CFI (cfiCond23) V13 load(1, XDATA, add(CFA_XSP16, literal(-9)))
          CFI (cfiCond23) V14 load(1, XDATA, add(CFA_XSP16, literal(-8)))
          CFI (cfiCond23) V15 load(1, XDATA, add(CFA_XSP16, literal(-7)))
          CFI (cfiCond23) R7 load(1, XDATA, add(CFA_XSP16, literal(-6)))
          CFI (cfiCond23) ?RET_LOW load(1, XDATA, add(CFA_XSP16, literal(-5)))
          CFI (cfiCond23) ?RET_HIGH load(1, XDATA, add(CFA_XSP16, literal(-4)))
          CFI (cfiCond23) ?BRET_EXT load(1, XDATA, add(CFA_XSP16, literal(-3)))
          CFI (cfiCond23) DPL0 load(1, XDATA, add(CFA_XSP16, literal(-2)))
          CFI (cfiCond23) DPH0 load(1, XDATA, add(CFA_XSP16, literal(-1)))
          CFI (cfiCond23) CFA_SP SP+-4
          CFI (cfiCond23) CFA_XSP16 add(XSP16, 39)
          CFI Block cfiCond24 Using cfiCommon0
          CFI (cfiCond24) Function bdb_ProcessInConfigReportCmd
          CFI (cfiCond24) Conditional ??CrossCallReturnLabel_117, ??CrossCallReturnLabel_16
          CFI (cfiCond24) R6 load(1, XDATA, add(CFA_XSP16, literal(-24)))
          CFI (cfiCond24) VB load(1, XDATA, add(CFA_XSP16, literal(-23)))
          CFI (cfiCond24) V0 load(1, XDATA, add(CFA_XSP16, literal(-22)))
          CFI (cfiCond24) V1 load(1, XDATA, add(CFA_XSP16, literal(-21)))
          CFI (cfiCond24) V2 load(1, XDATA, add(CFA_XSP16, literal(-20)))
          CFI (cfiCond24) V3 load(1, XDATA, add(CFA_XSP16, literal(-19)))
          CFI (cfiCond24) V4 load(1, XDATA, add(CFA_XSP16, literal(-18)))
          CFI (cfiCond24) V5 load(1, XDATA, add(CFA_XSP16, literal(-17)))
          CFI (cfiCond24) V6 load(1, XDATA, add(CFA_XSP16, literal(-16)))
          CFI (cfiCond24) V7 load(1, XDATA, add(CFA_XSP16, literal(-15)))
          CFI (cfiCond24) V8 load(1, XDATA, add(CFA_XSP16, literal(-14)))
          CFI (cfiCond24) V9 load(1, XDATA, add(CFA_XSP16, literal(-13)))
          CFI (cfiCond24) V10 load(1, XDATA, add(CFA_XSP16, literal(-12)))
          CFI (cfiCond24) V11 load(1, XDATA, add(CFA_XSP16, literal(-11)))
          CFI (cfiCond24) V12 load(1, XDATA, add(CFA_XSP16, literal(-10)))
          CFI (cfiCond24) V13 load(1, XDATA, add(CFA_XSP16, literal(-9)))
          CFI (cfiCond24) V14 load(1, XDATA, add(CFA_XSP16, literal(-8)))
          CFI (cfiCond24) V15 load(1, XDATA, add(CFA_XSP16, literal(-7)))
          CFI (cfiCond24) R7 load(1, XDATA, add(CFA_XSP16, literal(-6)))
          CFI (cfiCond24) ?RET_LOW load(1, XDATA, add(CFA_XSP16, literal(-5)))
          CFI (cfiCond24) ?RET_HIGH load(1, XDATA, add(CFA_XSP16, literal(-4)))
          CFI (cfiCond24) ?BRET_EXT load(1, XDATA, add(CFA_XSP16, literal(-3)))
          CFI (cfiCond24) DPL0 load(1, XDATA, add(CFA_XSP16, literal(-2)))
          CFI (cfiCond24) DPH0 load(1, XDATA, add(CFA_XSP16, literal(-1)))
          CFI (cfiCond24) CFA_SP SP+-4
          CFI (cfiCond24) CFA_XSP16 add(XSP16, 34)
          CFI Block cfiCond25 Using cfiCommon0
          CFI (cfiCond25) Function bdb_ProcessInConfigReportCmd
          CFI (cfiCond25) Conditional ??CrossCallReturnLabel_117, ??CrossCallReturnLabel_17
          CFI (cfiCond25) R6 load(1, XDATA, add(CFA_XSP16, literal(-24)))
          CFI (cfiCond25) VB load(1, XDATA, add(CFA_XSP16, literal(-23)))
          CFI (cfiCond25) V0 load(1, XDATA, add(CFA_XSP16, literal(-22)))
          CFI (cfiCond25) V1 load(1, XDATA, add(CFA_XSP16, literal(-21)))
          CFI (cfiCond25) V2 load(1, XDATA, add(CFA_XSP16, literal(-20)))
          CFI (cfiCond25) V3 load(1, XDATA, add(CFA_XSP16, literal(-19)))
          CFI (cfiCond25) V4 load(1, XDATA, add(CFA_XSP16, literal(-18)))
          CFI (cfiCond25) V5 load(1, XDATA, add(CFA_XSP16, literal(-17)))
          CFI (cfiCond25) V6 load(1, XDATA, add(CFA_XSP16, literal(-16)))
          CFI (cfiCond25) V7 load(1, XDATA, add(CFA_XSP16, literal(-15)))
          CFI (cfiCond25) V8 load(1, XDATA, add(CFA_XSP16, literal(-14)))
          CFI (cfiCond25) V9 load(1, XDATA, add(CFA_XSP16, literal(-13)))
          CFI (cfiCond25) V10 load(1, XDATA, add(CFA_XSP16, literal(-12)))
          CFI (cfiCond25) V11 load(1, XDATA, add(CFA_XSP16, literal(-11)))
          CFI (cfiCond25) V12 load(1, XDATA, add(CFA_XSP16, literal(-10)))
          CFI (cfiCond25) V13 load(1, XDATA, add(CFA_XSP16, literal(-9)))
          CFI (cfiCond25) V14 load(1, XDATA, add(CFA_XSP16, literal(-8)))
          CFI (cfiCond25) V15 load(1, XDATA, add(CFA_XSP16, literal(-7)))
          CFI (cfiCond25) R7 load(1, XDATA, add(CFA_XSP16, literal(-6)))
          CFI (cfiCond25) ?RET_LOW load(1, XDATA, add(CFA_XSP16, literal(-5)))
          CFI (cfiCond25) ?RET_HIGH load(1, XDATA, add(CFA_XSP16, literal(-4)))
          CFI (cfiCond25) ?BRET_EXT load(1, XDATA, add(CFA_XSP16, literal(-3)))
          CFI (cfiCond25) DPL0 load(1, XDATA, add(CFA_XSP16, literal(-2)))
          CFI (cfiCond25) DPH0 load(1, XDATA, add(CFA_XSP16, literal(-1)))
          CFI (cfiCond25) CFA_SP SP+-4
          CFI (cfiCond25) CFA_XSP16 add(XSP16, 36)
          CFI Block cfiPicker26 Using cfiCommon1
          CFI (cfiPicker26) NoFunction
          CFI (cfiPicker26) Picker
        ADD       A,#0x16
        MOV       DPL,A
        CLR       A
        ADDC      A,?V3
        MOV       DPH,A
        MOVX      A,@DPTR
        MOV       R1,A
        RET
          CFI EndBlock cfiCond22
          CFI EndBlock cfiCond23
          CFI EndBlock cfiCond24
          CFI EndBlock cfiCond25
          CFI EndBlock cfiPicker26
//  645 
//  646 
//  647 /*********************************************************************
//  648  * @fn      bdb_ProcessInReadReportCfgCmd
//  649  *
//  650  * @brief   Process the "Profile" Read Reporting Configuration Command
//  651  *
//  652  * @param   pInMsg - incoming message to process
//  653  *
//  654  * @return  TRUE if conditions are meet (attr found, memory available, etc.) or FALSE
//  655  */

        RSEG BANKED_CODE:HUGECODE:NOROOT(0)
//  656 uint8 bdb_ProcessInReadReportCfgCmd( zclIncomingMsg_t *pInMsg )
bdb_ProcessInReadReportCfgCmd:
          CFI Block cfiBlock27 Using cfiCommon0
          CFI Function bdb_ProcessInReadReportCfgCmd
        CODE
//  657 {
        FUNCALL bdb_ProcessInReadReportCfgCmd, bdb_FindEpDesc
        LOCFRAME ISTACK, 0, STACK
        LOCFRAME PSTACK, 0, STACK
        LOCFRAME XSTACK, 34, STACK
        LOCFRAME IOVERLAY, 0, STATIC
        LOCFRAME DOVERLAY, 0, STATIC
        ARGFRAME ISTACK, 0, STACK
        ARGFRAME PSTACK, 0, STACK
        ARGFRAME XSTACK, 34, STACK
        ARGFRAME IOVERLAY, 0, STATIC
        ARGFRAME DOVERLAY, 0, STATIC
        FUNCALL bdb_ProcessInReadReportCfgCmd, zclFindAttrRec
        LOCFRAME ISTACK, 0, STACK
        LOCFRAME PSTACK, 0, STACK
        LOCFRAME XSTACK, 36, STACK
        LOCFRAME IOVERLAY, 0, STATIC
        LOCFRAME DOVERLAY, 0, STATIC
        ARGFRAME ISTACK, 0, STACK
        ARGFRAME PSTACK, 0, STACK
        ARGFRAME XSTACK, 36, STACK
        ARGFRAME IOVERLAY, 0, STATIC
        ARGFRAME DOVERLAY, 0, STATIC
        FUNCALL bdb_ProcessInReadReportCfgCmd, zclAnalogDataType
        LOCFRAME ISTACK, 0, STACK
        LOCFRAME PSTACK, 0, STACK
        LOCFRAME XSTACK, 34, STACK
        LOCFRAME IOVERLAY, 0, STATIC
        LOCFRAME DOVERLAY, 0, STATIC
        ARGFRAME ISTACK, 0, STACK
        ARGFRAME PSTACK, 0, STACK
        ARGFRAME XSTACK, 34, STACK
        ARGFRAME IOVERLAY, 0, STATIC
        ARGFRAME DOVERLAY, 0, STATIC
        FUNCALL bdb_ProcessInReadReportCfgCmd, zclGetDataTypeLength
        LOCFRAME ISTACK, 0, STACK
        LOCFRAME PSTACK, 0, STACK
        LOCFRAME XSTACK, 34, STACK
        LOCFRAME IOVERLAY, 0, STATIC
        LOCFRAME DOVERLAY, 0, STATIC
        ARGFRAME ISTACK, 0, STACK
        ARGFRAME PSTACK, 0, STACK
        ARGFRAME XSTACK, 34, STACK
        ARGFRAME IOVERLAY, 0, STATIC
        ARGFRAME DOVERLAY, 0, STATIC
        FUNCALL bdb_ProcessInReadReportCfgCmd, osal_mem_alloc
        LOCFRAME ISTACK, 0, STACK
        LOCFRAME PSTACK, 0, STACK
        LOCFRAME XSTACK, 34, STACK
        LOCFRAME IOVERLAY, 0, STATIC
        LOCFRAME DOVERLAY, 0, STATIC
        ARGFRAME ISTACK, 0, STACK
        ARGFRAME PSTACK, 0, STACK
        ARGFRAME XSTACK, 34, STACK
        ARGFRAME IOVERLAY, 0, STATIC
        ARGFRAME DOVERLAY, 0, STATIC
        FUNCALL bdb_ProcessInReadReportCfgCmd, bdb_RepLoadCfgRecords
        LOCFRAME ISTACK, 0, STACK
        LOCFRAME PSTACK, 0, STACK
        LOCFRAME XSTACK, 34, STACK
        LOCFRAME IOVERLAY, 0, STATIC
        LOCFRAME DOVERLAY, 0, STATIC
        ARGFRAME ISTACK, 0, STACK
        ARGFRAME PSTACK, 0, STACK
        ARGFRAME XSTACK, 34, STACK
        ARGFRAME IOVERLAY, 0, STATIC
        ARGFRAME DOVERLAY, 0, STATIC
        FUNCALL bdb_ProcessInReadReportCfgCmd, osal_mem_free
        LOCFRAME ISTACK, 0, STACK
        LOCFRAME PSTACK, 0, STACK
        LOCFRAME XSTACK, 34, STACK
        LOCFRAME IOVERLAY, 0, STATIC
        LOCFRAME DOVERLAY, 0, STATIC
        ARGFRAME ISTACK, 0, STACK
        ARGFRAME PSTACK, 0, STACK
        ARGFRAME XSTACK, 34, STACK
        ARGFRAME IOVERLAY, 0, STATIC
        ARGFRAME DOVERLAY, 0, STATIC
        FUNCALL bdb_ProcessInReadReportCfgCmd, bdb_repAttrCfgRecordsArraySearch
        LOCFRAME ISTACK, 0, STACK
        LOCFRAME PSTACK, 0, STACK
        LOCFRAME XSTACK, 34, STACK
        LOCFRAME IOVERLAY, 0, STATIC
        LOCFRAME DOVERLAY, 0, STATIC
        ARGFRAME ISTACK, 0, STACK
        ARGFRAME PSTACK, 0, STACK
        ARGFRAME XSTACK, 34, STACK
        ARGFRAME IOVERLAY, 0, STATIC
        ARGFRAME DOVERLAY, 0, STATIC
        FUNCALL bdb_ProcessInReadReportCfgCmd, zclFindAttrRec
        LOCFRAME ISTACK, 0, STACK
        LOCFRAME PSTACK, 0, STACK
        LOCFRAME XSTACK, 36, STACK
        LOCFRAME IOVERLAY, 0, STATIC
        LOCFRAME DOVERLAY, 0, STATIC
        ARGFRAME ISTACK, 0, STACK
        ARGFRAME PSTACK, 0, STACK
        ARGFRAME XSTACK, 36, STACK
        ARGFRAME IOVERLAY, 0, STATIC
        ARGFRAME DOVERLAY, 0, STATIC
        FUNCALL bdb_ProcessInReadReportCfgCmd, zcl_SendReadReportCfgRspCmd
        LOCFRAME ISTACK, 0, STACK
        LOCFRAME PSTACK, 0, STACK
        LOCFRAME XSTACK, 39, STACK
        LOCFRAME IOVERLAY, 0, STATIC
        LOCFRAME DOVERLAY, 0, STATIC
        ARGFRAME ISTACK, 0, STACK
        ARGFRAME PSTACK, 0, STACK
        ARGFRAME XSTACK, 39, STACK
        ARGFRAME IOVERLAY, 0, STATIC
        ARGFRAME DOVERLAY, 0, STATIC
        FUNCALL bdb_ProcessInReadReportCfgCmd, osal_mem_free
        LOCFRAME ISTACK, 0, STACK
        LOCFRAME PSTACK, 0, STACK
        LOCFRAME XSTACK, 34, STACK
        LOCFRAME IOVERLAY, 0, STATIC
        LOCFRAME DOVERLAY, 0, STATIC
        ARGFRAME ISTACK, 0, STACK
        ARGFRAME PSTACK, 0, STACK
        ARGFRAME XSTACK, 34, STACK
        ARGFRAME IOVERLAY, 0, STATIC
        ARGFRAME DOVERLAY, 0, STATIC
        FUNCALL bdb_ProcessInReadReportCfgCmd, bdb_repAttrCfgRecordsArrayFreeAll
        LOCFRAME ISTACK, 0, STACK
        LOCFRAME PSTACK, 0, STACK
        LOCFRAME XSTACK, 34, STACK
        LOCFRAME IOVERLAY, 0, STATIC
        LOCFRAME DOVERLAY, 0, STATIC
        ARGFRAME ISTACK, 0, STACK
        ARGFRAME PSTACK, 0, STACK
        ARGFRAME XSTACK, 34, STACK
        ARGFRAME IOVERLAY, 0, STATIC
        ARGFRAME DOVERLAY, 0, STATIC
        REQUIRE ?V0
        REQUIRE ?V1
        REQUIRE ?V2
        REQUIRE ?V3
        REQUIRE ?V4
        REQUIRE ?V5
        REQUIRE ?V6
        REQUIRE ?V8
        REQUIRE ?V9
        REQUIRE ?V10
        REQUIRE ?V11
        REQUIRE ?V12
        REQUIRE ?V13
        REQUIRE ?V14
        REQUIRE ?V15
        MOV       A,#-0x18
        LCALL     ?BANKED_ENTER_XDATA
          CFI DPH0 load(1, XDATA, add(CFA_XSP16, literal(-1)))
          CFI DPL0 load(1, XDATA, add(CFA_XSP16, literal(-2)))
          CFI ?BRET_EXT load(1, XDATA, add(CFA_XSP16, literal(-3)))
          CFI ?RET_HIGH load(1, XDATA, add(CFA_XSP16, literal(-4)))
          CFI ?RET_LOW load(1, XDATA, add(CFA_XSP16, literal(-5)))
          CFI R7 load(1, XDATA, add(CFA_XSP16, literal(-6)))
          CFI V15 load(1, XDATA, add(CFA_XSP16, literal(-7)))
          CFI V14 load(1, XDATA, add(CFA_XSP16, literal(-8)))
          CFI V13 load(1, XDATA, add(CFA_XSP16, literal(-9)))
          CFI V12 load(1, XDATA, add(CFA_XSP16, literal(-10)))
          CFI V11 load(1, XDATA, add(CFA_XSP16, literal(-11)))
          CFI V10 load(1, XDATA, add(CFA_XSP16, literal(-12)))
          CFI V9 load(1, XDATA, add(CFA_XSP16, literal(-13)))
          CFI V8 load(1, XDATA, add(CFA_XSP16, literal(-14)))
          CFI V7 load(1, XDATA, add(CFA_XSP16, literal(-15)))
          CFI V6 load(1, XDATA, add(CFA_XSP16, literal(-16)))
          CFI V5 load(1, XDATA, add(CFA_XSP16, literal(-17)))
          CFI V4 load(1, XDATA, add(CFA_XSP16, literal(-18)))
          CFI V3 load(1, XDATA, add(CFA_XSP16, literal(-19)))
          CFI V2 load(1, XDATA, add(CFA_XSP16, literal(-20)))
          CFI V1 load(1, XDATA, add(CFA_XSP16, literal(-21)))
          CFI V0 load(1, XDATA, add(CFA_XSP16, literal(-22)))
          CFI VB load(1, XDATA, add(CFA_XSP16, literal(-23)))
          CFI R6 load(1, XDATA, add(CFA_XSP16, literal(-24)))
          CFI CFA_SP SP+0
          CFI CFA_XSP16 add(XSP16, 24)
        ; Saved register size: 24
        ; Auto size: 10
        MOV       A,#-0xa
        LCALL     ?ALLOC_XSTACK8
          CFI CFA_XSP16 add(XSP16, 34)
        MOV       ?V4,R2
        MOV       ?V5,R3
//  658   zclReadReportCfgCmd_t *readReportCfgCmd;
//  659   zclReadReportCfgRspCmd_t *readReportCfgRspCmd;
//  660   zclReportCfgRspRec_t *reportRspRec;
//  661   uint8 hdrLen;
//  662   uint8 dataLen = 0;
        MOV       R7,#0x0
        ; Setup parameters for call to function bdb_FindEpDesc
        MOV       A,R2
        LCALL     ??Subroutine77_0 & 0xFFFF
//  663   zclAttrRec_t attrRec;
//  664   uint8 i;
//  665   uint8 reportChangeLen;
//  666   uint8 status;
//  667   
//  668   // Find Ep Descriptor
//  669   endPointDesc_t* epDescriptor = bdb_FindEpDesc( pInMsg->endPoint );
??CrossCallReturnLabel_119:
        LCALL     `??bdb_FindEpDesc::?relay`; Banked call to: bdb_FindEpDesc
        MOV       ?V0,R2
        MOV       ?V1,R3
//  670   if( epDescriptor==NULL )
        MOV       A,R2
        ORL       A,?V1
        JNZ       $+5
        LJMP      ??bdb_ProcessInReadReportCfgCmd_0 & 0xFFFF
//  671   {
//  672     return ( FALSE ); // EMBEDDED RETURN
//  673   }
//  674   
//  675   readReportCfgCmd = (zclReadReportCfgCmd_t *)pInMsg->attrCmd;
        MOV       A,?V4
        ADD       A,#0x17
        MOV       DPL,A
        CLR       A
        ADDC      A,?V5
        MOV       DPH,A
        MOVX      A,@DPTR
        MOV       ?V12,A
        INC       DPTR
        MOVX      A,@DPTR
        MOV       ?V13,A
//  676   
//  677   // Find out the response length (Reportable Change field is of variable length)
//  678   for ( i = 0; i < readReportCfgCmd->numAttr; i++ )
        MOV       R6,#0x0
        MOV       A,?V4
        ADD       A,#0x8
        MOV       ?V14,A
        CLR       A
        ADDC      A,?V5
        MOV       ?V15,A
        SJMP      ??bdb_ProcessInReadReportCfgCmd_1
//  679   {
//  680     // For supported attributes with 'analog' data type, find out the length of
//  681     // the Reportable Change field
//  682     if ( zclFindAttrRec( epDescriptor->endPoint, pInMsg->clusterId,
//  683                          readReportCfgCmd->attrList[i].attrID, &attrRec ) )
??bdb_ProcessInReadReportCfgCmd_2:
        ; Setup parameters for call to function zclFindAttrRec
        MOV       A,#0x2
        LCALL     ?XSTACK_DISP100_8
        MOV       ?V2,R0
        MOV       ?V3,R1
        MOV       R0,#?V2
        LCALL     ?PUSH_XSTACK_I_TWO
          CFI CFA_XSP16 add(XSP16, 36)
        MOV       A,R6
        MOV       B,#0x3
        MUL       AB
        MOV       R0,A
        MOV       R1,B
        MOV       A,?V12
        ADD       A,R0
        MOV       DPL,A
        MOV       A,?V13
        ADDC      A,R1
        MOV       DPH,A
        INC       DPTR
        INC       DPTR
        LCALL     ?Subroutine24 & 0xFFFF
??CrossCallReturnLabel_25:
        MOV       DPL,?V0
        MOV       DPH,?V1
        MOVX      A,@DPTR
        MOV       R1,A
        LCALL     `??zclFindAttrRec::?relay`; Banked call to: zclFindAttrRec
        MOV       A,#0x2
        LCALL     ?DEALLOC_XSTACK8
          CFI CFA_XSP16 add(XSP16, 34)
        MOV       A,R1
        JZ        ??bdb_ProcessInReadReportCfgCmd_3
//  684     {
//  685       if ( zclAnalogDataType( attrRec.attr.dataType ) )
        ; Setup parameters for call to function zclAnalogDataType
        MOV       A,#0x6
        LCALL     ?XSTACK_DISP0_8
        MOVX      A,@DPTR
        MOV       R1,A
        LCALL     `??zclAnalogDataType::?relay`; Banked call to: zclAnalogDataType
        MOV       A,R1
        JZ        ??bdb_ProcessInReadReportCfgCmd_3
//  686       {
//  687          reportChangeLen = zclGetDataTypeLength( attrRec.attr.dataType );
        ; Setup parameters for call to function zclGetDataTypeLength
        MOV       A,#0x6
        LCALL     ?XSTACK_DISP0_8
        MOVX      A,@DPTR
        MOV       R1,A
        LCALL     `??zclGetDataTypeLength::?relay`; Banked call to: zclGetDataTypeLength
        MOV       A,R1
        MOV       R0,A
//  688 
//  689          // add padding if needed
//  690          if ( PADDING_NEEDED( reportChangeLen ) )
        MOV       C,0xE0 /* A   */.0
        JNC       ??bdb_ProcessInReadReportCfgCmd_4
//  691          {
//  692            reportChangeLen++;
        INC       R0
//  693          }
//  694          dataLen += reportChangeLen;
??bdb_ProcessInReadReportCfgCmd_4:
        MOV       A,R0
        ADD       A,R7
        MOV       R7,A
//  695       }
//  696     }
//  697   }
??bdb_ProcessInReadReportCfgCmd_3:
        INC       R6
??bdb_ProcessInReadReportCfgCmd_1:
        LCALL     ?Subroutine49 & 0xFFFF
??CrossCallReturnLabel_169:
        JC        ??bdb_ProcessInReadReportCfgCmd_2
//  698 
//  699   hdrLen = sizeof( zclReadReportCfgRspCmd_t ) + ( readReportCfgCmd->numAttr * sizeof( zclReportCfgRspRec_t ) );
//  700 
//  701   // Allocate space for the response command
//  702   readReportCfgRspCmd = (zclReadReportCfgRspCmd_t *)osal_mem_alloc( hdrLen + dataLen );
        ; Setup parameters for call to function osal_mem_alloc
        MOV       B,#0xd
        MOV       A,R0
        MUL       AB
        INC       A
        MOV       R0,A
        MOV       A,R7
        MOV       R2,A
        MOV       A,R0
        ADD       A,R2
        MOV       R2,A
        CLR       A
        ADDC      A,#0x0
        MOV       R3,A
        LCALL     `??osal_mem_alloc::?relay`; Banked call to: osal_mem_alloc
        MOV       ?V2,R2
        MOV       ?V3,R3
//  703   if ( readReportCfgRspCmd == NULL )
        MOV       A,R2
        ORL       A,?V3
        JNZ       ??bdb_ProcessInReadReportCfgCmd_5
//  704   {
//  705     return ( FALSE ); // Out of memory
??bdb_ProcessInReadReportCfgCmd_0:
        MOV       R1,#0x0
        LJMP      ??bdb_ProcessInReadReportCfgCmd_6 & 0xFFFF
//  706   }
//  707   
//  708   //Load cfg records from NV
//  709   status = bdb_RepLoadCfgRecords( );
//  710   if( status != BDBREPORTING_SUCCESS )
??bdb_ProcessInReadReportCfgCmd_5:
        ; Setup parameters for call to function bdb_RepLoadCfgRecords
        LCALL     `??bdb_RepLoadCfgRecords::?relay`; Banked call to: bdb_RepLoadCfgRecords
        MOV       A,R1
        JZ        ??bdb_ProcessInReadReportCfgCmd_7
//  711   {
//  712     osal_mem_free(readReportCfgRspCmd);
        ; Setup parameters for call to function osal_mem_free
        MOV       R2,?V2
        MOV       R3,?V3
        LCALL     `??osal_mem_free::?relay`; Banked call to: osal_mem_free
        SJMP      ??bdb_ProcessInReadReportCfgCmd_0
//  713     return ( FALSE ); //Out of memory
//  714   }
//  715 
//  716   readReportCfgRspCmd->numAttr=0;
??bdb_ProcessInReadReportCfgCmd_7:
        MOV       DPL,?V2
        MOV       DPH,?V3
        CLR       A
        MOVX      @DPTR,A
//  717   for ( i = 0; i < readReportCfgCmd->numAttr; i++ )
        MOV       R6,#0x0
        SJMP      ??bdb_ProcessInReadReportCfgCmd_8
//  718   {
//  719     reportRspRec = &(readReportCfgRspCmd->attrList[i]);
//  720     status = ZCL_STATUS_SUCCESS;  // assume success for this rsp record
//  721     
//  722     uint8 atrrCfgRecordIndex =  bdb_repAttrCfgRecordsArraySearch( pInMsg->endPoint, pInMsg->clusterId, readReportCfgCmd->attrList[i].attrID );
//  723     uint8 status2 = zclFindAttrRec( pInMsg->endPoint, pInMsg->clusterId, readReportCfgCmd->attrList[i].attrID, &attrRec );
//  724     if( atrrCfgRecordIndex != BDBREPORTING_INVALIDINDEX && status2 )
//  725     {
//  726       if ( attrRec.attr.accessControl & ACCESS_REPORTABLE )
//  727       {
//  728         // Get the Reporting Configuration
//  729         reportRspRec->dataType = attrRec.attr.dataType;
//  730         reportRspRec->minReportInt = bdb_reportingAttrCfgRecordsArray[atrrCfgRecordIndex].minReportInt;
//  731         reportRspRec->maxReportInt = bdb_reportingAttrCfgRecordsArray[atrrCfgRecordIndex].maxReportInt;
//  732         reportRspRec->reportableChange = bdb_reportingAttrCfgRecordsArray[atrrCfgRecordIndex].reportableChange;
//  733       }
//  734       else
//  735       {
//  736         // Attribute not in the Mandatory Reportable Attribute list
//  737         status = ZCL_STATUS_UNREPORTABLE_ATTRIBUTE;
//  738       }      
//  739     }
//  740     else
//  741     {
//  742       // Attribute not found
//  743       status = ZCL_STATUS_UNSUPPORTED_ATTRIBUTE;
??bdb_ProcessInReadReportCfgCmd_9:
        MOV       R7,#-0x7a
//  744     }
//  745     reportRspRec->status = status;
??bdb_ProcessInReadReportCfgCmd_10:
        MOV       A,R7
        MOV       DPL,?V0
        MOV       DPH,?V1
        LCALL     ?Subroutine8 & 0xFFFF
//  746     reportRspRec->direction = readReportCfgCmd->attrList[i].direction;
??CrossCallReturnLabel_3:
        INC       DPTR
        MOVX      A,@DPTR
        MOV       DPL,?V0
        MOV       DPH,?V1
        LCALL     ?Subroutine9 & 0xFFFF
//  747     reportRspRec->attrID = readReportCfgCmd->attrList[i].attrID;
??CrossCallReturnLabel_122:
        MOV       R0,A
        INC       DPTR
        MOVX      A,@DPTR
        MOV       R1,A
        MOV       DPL,?V0
        MOV       DPH,?V1
        LCALL     ??Subroutine96_0 & 0xFFFF
//  748     readReportCfgRspCmd->numAttr++;
??CrossCallReturnLabel_184:
        MOV       DPL,?V2
        MOV       DPH,?V3
        MOVX      A,@DPTR
        INC       A
        MOVX      @DPTR,A
        INC       R6
??bdb_ProcessInReadReportCfgCmd_8:
        LCALL     ?Subroutine58 & 0xFFFF
??CrossCallReturnLabel_120:
        MOV       DPL,?V14
        MOV       DPH,?V15
        LCALL     ?Subroutine41 & 0xFFFF
??CrossCallReturnLabel_59:
        LCALL     ?Subroutine49 & 0xFFFF
??CrossCallReturnLabel_170:
        JC        $+5
        LJMP      ??bdb_ProcessInReadReportCfgCmd_11 & 0xFFFF
        MOV       A,R6
        MOV       R4,A
        MOV       B,#0xd
        MUL       AB
        MOV       ?V0,A
        MOV       A,B
        MOV       ?V1,A
        MOV       A,?V2
        ADD       A,?V0
        MOV       DPL,A
        MOV       A,?V3
        ADDC      A,?V1
        MOV       DPH,A
        INC       DPTR
        MOV       ?V0,DPL
        MOV       ?V1,DPH
        MOV       R7,#0x0
        MOV       A,R4
        MOV       B,#0x3
        MUL       AB
        MOV       R4,A
        MOV       R5,B
        MOV       A,?V12
        ADD       A,R4
        MOV       R4,A
        MOV       A,?V13
        ADDC      A,R5
        MOV       R5,A
        MOV       DPL,?XSP + 0
        MOV       DPH,?XSP + 1
        LCALL     ??Subroutine88_0 & 0xFFFF
??CrossCallReturnLabel_149:
        MOV       DPL,?XSP + 0
        MOV       DPH,?XSP + 1
        MOVX      A,@DPTR
        ADD       A,#0x2
        MOV       ?V8,A
        INC       DPTR
        MOVX      A,@DPTR
        ADDC      A,#0x0
        MOV       ?V9,A
        ; Setup parameters for call to function bdb_repAttrCfgRecordsArraySearch
        MOV       DPL,?V8
        MOV       DPH,A
        LCALL     ??Subroutine109_0 & 0xFFFF
??CrossCallReturnLabel_243:
        LCALL     `??bdb_repAttrCfgRecordsArraySearch::?relay`; Banked call to: bdb_repAttrCfgRecordsArraySearch
        MOV       A,R1
        MOV       ?V6,A
        ; Setup parameters for call to function zclFindAttrRec
        MOV       A,#0x2
        LCALL     ?XSTACK_DISP100_8
        MOV       ?V10,R0
        MOV       ?V11,R1
        MOV       R0,#?V10
        LCALL     ?PUSH_XSTACK_I_TWO
          CFI CFA_XSP16 add(XSP16, 36)
        MOV       DPL,?V8
        MOV       DPH,?V9
        LCALL     ?Subroutine24 & 0xFFFF
??CrossCallReturnLabel_26:
        LCALL     ?Subroutine58 & 0xFFFF
??CrossCallReturnLabel_121:
        LCALL     `??zclFindAttrRec::?relay`; Banked call to: zclFindAttrRec
        MOV       A,#0x2
        LCALL     ?DEALLOC_XSTACK8
          CFI CFA_XSP16 add(XSP16, 34)
        MOV       A,R1
        MOV       R0,A
        MOV       A,#-0x1
        XRL       A,?V6
        JNZ       $+5
        LJMP      ??bdb_ProcessInReadReportCfgCmd_9 & 0xFFFF
        MOV       A,R0
        JNZ       $+5
        LJMP      ??bdb_ProcessInReadReportCfgCmd_9 & 0xFFFF
        MOV       A,#0x7
        LCALL     ?XSTACK_DISP0_8
        MOVX      A,@DPTR
        MOV       C,0xE0 /* A   */.2
        JNC       ??bdb_ProcessInReadReportCfgCmd_12
        MOV       A,#0x6
        LCALL     ?XSTACK_DISP0_8
        MOVX      A,@DPTR
        MOV       DPL,?V0
        MOV       DPH,?V1
        INC       DPTR
        INC       DPTR
        INC       DPTR
        INC       DPTR
        MOVX      @DPTR,A
        MOV       A,?V6
        LCALL     ?Subroutine45 & 0xFFFF
??CrossCallReturnLabel_65:
        INC       DPTR
        INC       DPTR
        LCALL     ?Subroutine40 & 0xFFFF
??CrossCallReturnLabel_56:
        INC       DPTR
        INC       DPTR
        INC       DPTR
        LCALL     ?Subroutine11 & 0xFFFF
??CrossCallReturnLabel_6:
        LCALL     ?Subroutine40 & 0xFFFF
??CrossCallReturnLabel_57:
        LCALL     ??Subroutine80_0 & 0xFFFF
??CrossCallReturnLabel_131:
        MOV       A,R0
        ADD       A,#0xd
        MOV       R0,A
        JNC       ??bdb_ProcessInReadReportCfgCmd_13
        INC       R1
??bdb_ProcessInReadReportCfgCmd_13:
        MOV       A,?V0
        ADD       A,#0xb
        MOV       DPL,A
        CLR       A
        ADDC      A,?V1
        MOV       DPH,A
        LCALL     ??Subroutine97_0 & 0xFFFF
??CrossCallReturnLabel_175:
        LJMP      ??bdb_ProcessInReadReportCfgCmd_10 & 0xFFFF
??bdb_ProcessInReadReportCfgCmd_12:
        MOV       R7,#-0x74
        LJMP      ??bdb_ProcessInReadReportCfgCmd_10 & 0xFFFF
//  749   }
//  750   
//  751   // Send the response back
//  752   zcl_SendReadReportCfgRspCmd( pInMsg->endPoint, &(pInMsg->srcAddr),
//  753                                pInMsg->clusterId, readReportCfgRspCmd, ZCL_FRAME_SERVER_CLIENT_DIR,
//  754                                true, pInMsg->zclHdr.transSeqNum );
??bdb_ProcessInReadReportCfgCmd_11:
        ; Setup parameters for call to function zcl_SendReadReportCfgRspCmd
        MOV       DPL,?V4
        MOV       DPH,?V5
        INC       DPTR
        INC       DPTR
        INC       DPTR
        INC       DPTR
        INC       DPTR
        INC       DPTR
        MOVX      A,@DPTR
        MOV       ?V0,A
        MOV       R0,#?V0
        LCALL     ?PUSH_XSTACK_I_ONE
          CFI CFA_XSP16 add(XSP16, 35)
        MOV       ?V0,#0x1
        MOV       R0,#?V0
        LCALL     ?PUSH_XSTACK_I_ONE
          CFI CFA_XSP16 add(XSP16, 36)
        MOV       R0,#?V0
        LCALL     ?PUSH_XSTACK_I_ONE
          CFI CFA_XSP16 add(XSP16, 37)
        MOV       R0,#?V2
        LCALL     ?PUSH_XSTACK_I_TWO
          CFI CFA_XSP16 add(XSP16, 39)
        MOV       A,R2
        MOV       R4,A
        MOV       A,R3
        MOV       R5,A
        MOV       A,?V4
        ADD       A,#0xa
        MOV       R2,A
        CLR       A
        ADDC      A,?V5
        MOV       R3,A
        LCALL     `??zcl_SendReadReportCfgRspCmd::?relay`; Banked call to: zcl_SendReadReportCfgRspCmd
        MOV       A,#0x5
        LCALL     ?DEALLOC_XSTACK8
          CFI CFA_XSP16 add(XSP16, 34)
//  755   osal_mem_free( readReportCfgRspCmd );
        ; Setup parameters for call to function osal_mem_free
        MOV       R2,?V2
        MOV       R3,?V3
        LCALL     `??osal_mem_free::?relay`; Banked call to: osal_mem_free
//  756   
//  757   bdb_repAttrCfgRecordsArrayFreeAll( );//Free reporting cfg array from memory, its saved in NV
        ; Setup parameters for call to function bdb_repAttrCfgRecordsArrayFreeAll
        LCALL     `??bdb_repAttrCfgRecordsArrayFreeAll::?relay`; Banked call to: bdb_repAttrCfgRecordsArrayFreeAll
//  758 
//  759   return ( TRUE );
        MOV       R1,#0x1
??bdb_ProcessInReadReportCfgCmd_6:
        LJMP      ?Subroutine4 & 0xFFFF
//  760 }
          CFI EndBlock cfiBlock27

        RSEG BANKED_CODE:HUGECODE:NOROOT(0)
?Subroutine58:
          CFI Block cfiCond28 Using cfiCommon0
          CFI Function bdb_ProcessInReadReportCfgCmd
          CFI Conditional ??CrossCallReturnLabel_120
          CFI R6 load(1, XDATA, add(CFA_XSP16, literal(-24)))
          CFI VB load(1, XDATA, add(CFA_XSP16, literal(-23)))
          CFI V0 load(1, XDATA, add(CFA_XSP16, literal(-22)))
          CFI V1 load(1, XDATA, add(CFA_XSP16, literal(-21)))
          CFI V2 load(1, XDATA, add(CFA_XSP16, literal(-20)))
          CFI V3 load(1, XDATA, add(CFA_XSP16, literal(-19)))
          CFI V4 load(1, XDATA, add(CFA_XSP16, literal(-18)))
          CFI V5 load(1, XDATA, add(CFA_XSP16, literal(-17)))
          CFI V6 load(1, XDATA, add(CFA_XSP16, literal(-16)))
          CFI V7 load(1, XDATA, add(CFA_XSP16, literal(-15)))
          CFI V8 load(1, XDATA, add(CFA_XSP16, literal(-14)))
          CFI V9 load(1, XDATA, add(CFA_XSP16, literal(-13)))
          CFI V10 load(1, XDATA, add(CFA_XSP16, literal(-12)))
          CFI V11 load(1, XDATA, add(CFA_XSP16, literal(-11)))
          CFI V12 load(1, XDATA, add(CFA_XSP16, literal(-10)))
          CFI V13 load(1, XDATA, add(CFA_XSP16, literal(-9)))
          CFI V14 load(1, XDATA, add(CFA_XSP16, literal(-8)))
          CFI V15 load(1, XDATA, add(CFA_XSP16, literal(-7)))
          CFI R7 load(1, XDATA, add(CFA_XSP16, literal(-6)))
          CFI ?RET_LOW load(1, XDATA, add(CFA_XSP16, literal(-5)))
          CFI ?RET_HIGH load(1, XDATA, add(CFA_XSP16, literal(-4)))
          CFI ?BRET_EXT load(1, XDATA, add(CFA_XSP16, literal(-3)))
          CFI DPL0 load(1, XDATA, add(CFA_XSP16, literal(-2)))
          CFI DPH0 load(1, XDATA, add(CFA_XSP16, literal(-1)))
          CFI CFA_SP SP+-2
          CFI CFA_XSP16 add(XSP16, 34)
          CFI Block cfiCond29 Using cfiCommon0
          CFI (cfiCond29) Function bdb_ProcessInReadReportCfgCmd
          CFI (cfiCond29) Conditional ??CrossCallReturnLabel_121
          CFI (cfiCond29) R6 load(1, XDATA, add(CFA_XSP16, literal(-24)))
          CFI (cfiCond29) VB load(1, XDATA, add(CFA_XSP16, literal(-23)))
          CFI (cfiCond29) V0 load(1, XDATA, add(CFA_XSP16, literal(-22)))
          CFI (cfiCond29) V1 load(1, XDATA, add(CFA_XSP16, literal(-21)))
          CFI (cfiCond29) V2 load(1, XDATA, add(CFA_XSP16, literal(-20)))
          CFI (cfiCond29) V3 load(1, XDATA, add(CFA_XSP16, literal(-19)))
          CFI (cfiCond29) V4 load(1, XDATA, add(CFA_XSP16, literal(-18)))
          CFI (cfiCond29) V5 load(1, XDATA, add(CFA_XSP16, literal(-17)))
          CFI (cfiCond29) V6 load(1, XDATA, add(CFA_XSP16, literal(-16)))
          CFI (cfiCond29) V7 load(1, XDATA, add(CFA_XSP16, literal(-15)))
          CFI (cfiCond29) V8 load(1, XDATA, add(CFA_XSP16, literal(-14)))
          CFI (cfiCond29) V9 load(1, XDATA, add(CFA_XSP16, literal(-13)))
          CFI (cfiCond29) V10 load(1, XDATA, add(CFA_XSP16, literal(-12)))
          CFI (cfiCond29) V11 load(1, XDATA, add(CFA_XSP16, literal(-11)))
          CFI (cfiCond29) V12 load(1, XDATA, add(CFA_XSP16, literal(-10)))
          CFI (cfiCond29) V13 load(1, XDATA, add(CFA_XSP16, literal(-9)))
          CFI (cfiCond29) V14 load(1, XDATA, add(CFA_XSP16, literal(-8)))
          CFI (cfiCond29) V15 load(1, XDATA, add(CFA_XSP16, literal(-7)))
          CFI (cfiCond29) R7 load(1, XDATA, add(CFA_XSP16, literal(-6)))
          CFI (cfiCond29) ?RET_LOW load(1, XDATA, add(CFA_XSP16, literal(-5)))
          CFI (cfiCond29) ?RET_HIGH load(1, XDATA, add(CFA_XSP16, literal(-4)))
          CFI (cfiCond29) ?BRET_EXT load(1, XDATA, add(CFA_XSP16, literal(-3)))
          CFI (cfiCond29) DPL0 load(1, XDATA, add(CFA_XSP16, literal(-2)))
          CFI (cfiCond29) DPH0 load(1, XDATA, add(CFA_XSP16, literal(-1)))
          CFI (cfiCond29) CFA_SP SP+-2
          CFI (cfiCond29) CFA_XSP16 add(XSP16, 36)
          CFI Block cfiPicker30 Using cfiCommon1
          CFI (cfiPicker30) NoFunction
          CFI (cfiPicker30) Picker
        MOV       A,?V4
          CFI EndBlock cfiCond28
          CFI EndBlock cfiCond29
          CFI EndBlock cfiPicker30
        REQUIRE ??Subroutine77_0
        ; // Fall through to label ??Subroutine77_0

        RSEG BANKED_CODE:HUGECODE:NOROOT(0)
??Subroutine77_0:
          CFI Block cfiCond31 Using cfiCommon0
          CFI Function bdb_ProcessInReadReportCfgCmd
          CFI Conditional ??CrossCallReturnLabel_119
          CFI R6 load(1, XDATA, add(CFA_XSP16, literal(-24)))
          CFI VB load(1, XDATA, add(CFA_XSP16, literal(-23)))
          CFI V0 load(1, XDATA, add(CFA_XSP16, literal(-22)))
          CFI V1 load(1, XDATA, add(CFA_XSP16, literal(-21)))
          CFI V2 load(1, XDATA, add(CFA_XSP16, literal(-20)))
          CFI V3 load(1, XDATA, add(CFA_XSP16, literal(-19)))
          CFI V4 load(1, XDATA, add(CFA_XSP16, literal(-18)))
          CFI V5 load(1, XDATA, add(CFA_XSP16, literal(-17)))
          CFI V6 load(1, XDATA, add(CFA_XSP16, literal(-16)))
          CFI V7 load(1, XDATA, add(CFA_XSP16, literal(-15)))
          CFI V8 load(1, XDATA, add(CFA_XSP16, literal(-14)))
          CFI V9 load(1, XDATA, add(CFA_XSP16, literal(-13)))
          CFI V10 load(1, XDATA, add(CFA_XSP16, literal(-12)))
          CFI V11 load(1, XDATA, add(CFA_XSP16, literal(-11)))
          CFI V12 load(1, XDATA, add(CFA_XSP16, literal(-10)))
          CFI V13 load(1, XDATA, add(CFA_XSP16, literal(-9)))
          CFI V14 load(1, XDATA, add(CFA_XSP16, literal(-8)))
          CFI V15 load(1, XDATA, add(CFA_XSP16, literal(-7)))
          CFI R7 load(1, XDATA, add(CFA_XSP16, literal(-6)))
          CFI ?RET_LOW load(1, XDATA, add(CFA_XSP16, literal(-5)))
          CFI ?RET_HIGH load(1, XDATA, add(CFA_XSP16, literal(-4)))
          CFI ?BRET_EXT load(1, XDATA, add(CFA_XSP16, literal(-3)))
          CFI DPL0 load(1, XDATA, add(CFA_XSP16, literal(-2)))
          CFI DPH0 load(1, XDATA, add(CFA_XSP16, literal(-1)))
          CFI CFA_SP SP+-2
          CFI CFA_XSP16 add(XSP16, 34)
          CFI Block cfiCond32 Using cfiCommon0
          CFI (cfiCond32) Function bdb_ProcessInReadReportCfgCmd
          CFI (cfiCond32) Conditional ??CrossCallReturnLabel_120
          CFI (cfiCond32) R6 load(1, XDATA, add(CFA_XSP16, literal(-24)))
          CFI (cfiCond32) VB load(1, XDATA, add(CFA_XSP16, literal(-23)))
          CFI (cfiCond32) V0 load(1, XDATA, add(CFA_XSP16, literal(-22)))
          CFI (cfiCond32) V1 load(1, XDATA, add(CFA_XSP16, literal(-21)))
          CFI (cfiCond32) V2 load(1, XDATA, add(CFA_XSP16, literal(-20)))
          CFI (cfiCond32) V3 load(1, XDATA, add(CFA_XSP16, literal(-19)))
          CFI (cfiCond32) V4 load(1, XDATA, add(CFA_XSP16, literal(-18)))
          CFI (cfiCond32) V5 load(1, XDATA, add(CFA_XSP16, literal(-17)))
          CFI (cfiCond32) V6 load(1, XDATA, add(CFA_XSP16, literal(-16)))
          CFI (cfiCond32) V7 load(1, XDATA, add(CFA_XSP16, literal(-15)))
          CFI (cfiCond32) V8 load(1, XDATA, add(CFA_XSP16, literal(-14)))
          CFI (cfiCond32) V9 load(1, XDATA, add(CFA_XSP16, literal(-13)))
          CFI (cfiCond32) V10 load(1, XDATA, add(CFA_XSP16, literal(-12)))
          CFI (cfiCond32) V11 load(1, XDATA, add(CFA_XSP16, literal(-11)))
          CFI (cfiCond32) V12 load(1, XDATA, add(CFA_XSP16, literal(-10)))
          CFI (cfiCond32) V13 load(1, XDATA, add(CFA_XSP16, literal(-9)))
          CFI (cfiCond32) V14 load(1, XDATA, add(CFA_XSP16, literal(-8)))
          CFI (cfiCond32) V15 load(1, XDATA, add(CFA_XSP16, literal(-7)))
          CFI (cfiCond32) R7 load(1, XDATA, add(CFA_XSP16, literal(-6)))
          CFI (cfiCond32) ?RET_LOW load(1, XDATA, add(CFA_XSP16, literal(-5)))
          CFI (cfiCond32) ?RET_HIGH load(1, XDATA, add(CFA_XSP16, literal(-4)))
          CFI (cfiCond32) ?BRET_EXT load(1, XDATA, add(CFA_XSP16, literal(-3)))
          CFI (cfiCond32) DPL0 load(1, XDATA, add(CFA_XSP16, literal(-2)))
          CFI (cfiCond32) DPH0 load(1, XDATA, add(CFA_XSP16, literal(-1)))
          CFI (cfiCond32) CFA_SP SP+-2
          CFI (cfiCond32) CFA_XSP16 add(XSP16, 34)
          CFI Block cfiCond33 Using cfiCommon0
          CFI (cfiCond33) Function bdb_ProcessInReadReportCfgCmd
          CFI (cfiCond33) Conditional ??CrossCallReturnLabel_121
          CFI (cfiCond33) R6 load(1, XDATA, add(CFA_XSP16, literal(-24)))
          CFI (cfiCond33) VB load(1, XDATA, add(CFA_XSP16, literal(-23)))
          CFI (cfiCond33) V0 load(1, XDATA, add(CFA_XSP16, literal(-22)))
          CFI (cfiCond33) V1 load(1, XDATA, add(CFA_XSP16, literal(-21)))
          CFI (cfiCond33) V2 load(1, XDATA, add(CFA_XSP16, literal(-20)))
          CFI (cfiCond33) V3 load(1, XDATA, add(CFA_XSP16, literal(-19)))
          CFI (cfiCond33) V4 load(1, XDATA, add(CFA_XSP16, literal(-18)))
          CFI (cfiCond33) V5 load(1, XDATA, add(CFA_XSP16, literal(-17)))
          CFI (cfiCond33) V6 load(1, XDATA, add(CFA_XSP16, literal(-16)))
          CFI (cfiCond33) V7 load(1, XDATA, add(CFA_XSP16, literal(-15)))
          CFI (cfiCond33) V8 load(1, XDATA, add(CFA_XSP16, literal(-14)))
          CFI (cfiCond33) V9 load(1, XDATA, add(CFA_XSP16, literal(-13)))
          CFI (cfiCond33) V10 load(1, XDATA, add(CFA_XSP16, literal(-12)))
          CFI (cfiCond33) V11 load(1, XDATA, add(CFA_XSP16, literal(-11)))
          CFI (cfiCond33) V12 load(1, XDATA, add(CFA_XSP16, literal(-10)))
          CFI (cfiCond33) V13 load(1, XDATA, add(CFA_XSP16, literal(-9)))
          CFI (cfiCond33) V14 load(1, XDATA, add(CFA_XSP16, literal(-8)))
          CFI (cfiCond33) V15 load(1, XDATA, add(CFA_XSP16, literal(-7)))
          CFI (cfiCond33) R7 load(1, XDATA, add(CFA_XSP16, literal(-6)))
          CFI (cfiCond33) ?RET_LOW load(1, XDATA, add(CFA_XSP16, literal(-5)))
          CFI (cfiCond33) ?RET_HIGH load(1, XDATA, add(CFA_XSP16, literal(-4)))
          CFI (cfiCond33) ?BRET_EXT load(1, XDATA, add(CFA_XSP16, literal(-3)))
          CFI (cfiCond33) DPL0 load(1, XDATA, add(CFA_XSP16, literal(-2)))
          CFI (cfiCond33) DPH0 load(1, XDATA, add(CFA_XSP16, literal(-1)))
          CFI (cfiCond33) CFA_SP SP+-2
          CFI (cfiCond33) CFA_XSP16 add(XSP16, 36)
          CFI Block cfiPicker34 Using cfiCommon1
          CFI (cfiPicker34) NoFunction
          CFI (cfiPicker34) Picker
        ADD       A,#0x16
        MOV       DPL,A
        CLR       A
        ADDC      A,?V5
        MOV       DPH,A
        MOVX      A,@DPTR
        MOV       R1,A
        RET
          CFI EndBlock cfiCond31
          CFI EndBlock cfiCond32
          CFI EndBlock cfiCond33
          CFI EndBlock cfiPicker34

        RSEG BANKED_CODE:HUGECODE:NOROOT(0)
?Subroutine40:
          CFI Block cfiCond35 Using cfiCommon0
          CFI Function bdb_ProcessInReadReportCfgCmd
          CFI Conditional ??CrossCallReturnLabel_56
          CFI R6 load(1, XDATA, add(CFA_XSP16, literal(-24)))
          CFI VB load(1, XDATA, add(CFA_XSP16, literal(-23)))
          CFI V0 load(1, XDATA, add(CFA_XSP16, literal(-22)))
          CFI V1 load(1, XDATA, add(CFA_XSP16, literal(-21)))
          CFI V2 load(1, XDATA, add(CFA_XSP16, literal(-20)))
          CFI V3 load(1, XDATA, add(CFA_XSP16, literal(-19)))
          CFI V4 load(1, XDATA, add(CFA_XSP16, literal(-18)))
          CFI V5 load(1, XDATA, add(CFA_XSP16, literal(-17)))
          CFI V6 load(1, XDATA, add(CFA_XSP16, literal(-16)))
          CFI V7 load(1, XDATA, add(CFA_XSP16, literal(-15)))
          CFI V8 load(1, XDATA, add(CFA_XSP16, literal(-14)))
          CFI V9 load(1, XDATA, add(CFA_XSP16, literal(-13)))
          CFI V10 load(1, XDATA, add(CFA_XSP16, literal(-12)))
          CFI V11 load(1, XDATA, add(CFA_XSP16, literal(-11)))
          CFI V12 load(1, XDATA, add(CFA_XSP16, literal(-10)))
          CFI V13 load(1, XDATA, add(CFA_XSP16, literal(-9)))
          CFI V14 load(1, XDATA, add(CFA_XSP16, literal(-8)))
          CFI V15 load(1, XDATA, add(CFA_XSP16, literal(-7)))
          CFI R7 load(1, XDATA, add(CFA_XSP16, literal(-6)))
          CFI ?RET_LOW load(1, XDATA, add(CFA_XSP16, literal(-5)))
          CFI ?RET_HIGH load(1, XDATA, add(CFA_XSP16, literal(-4)))
          CFI ?BRET_EXT load(1, XDATA, add(CFA_XSP16, literal(-3)))
          CFI DPL0 load(1, XDATA, add(CFA_XSP16, literal(-2)))
          CFI DPH0 load(1, XDATA, add(CFA_XSP16, literal(-1)))
          CFI CFA_SP SP+-2
          CFI CFA_XSP16 add(XSP16, 34)
          CFI Block cfiCond36 Using cfiCommon0
          CFI (cfiCond36) Function bdb_ProcessInReadReportCfgCmd
          CFI (cfiCond36) Conditional ??CrossCallReturnLabel_57
          CFI (cfiCond36) R6 load(1, XDATA, add(CFA_XSP16, literal(-24)))
          CFI (cfiCond36) VB load(1, XDATA, add(CFA_XSP16, literal(-23)))
          CFI (cfiCond36) V0 load(1, XDATA, add(CFA_XSP16, literal(-22)))
          CFI (cfiCond36) V1 load(1, XDATA, add(CFA_XSP16, literal(-21)))
          CFI (cfiCond36) V2 load(1, XDATA, add(CFA_XSP16, literal(-20)))
          CFI (cfiCond36) V3 load(1, XDATA, add(CFA_XSP16, literal(-19)))
          CFI (cfiCond36) V4 load(1, XDATA, add(CFA_XSP16, literal(-18)))
          CFI (cfiCond36) V5 load(1, XDATA, add(CFA_XSP16, literal(-17)))
          CFI (cfiCond36) V6 load(1, XDATA, add(CFA_XSP16, literal(-16)))
          CFI (cfiCond36) V7 load(1, XDATA, add(CFA_XSP16, literal(-15)))
          CFI (cfiCond36) V8 load(1, XDATA, add(CFA_XSP16, literal(-14)))
          CFI (cfiCond36) V9 load(1, XDATA, add(CFA_XSP16, literal(-13)))
          CFI (cfiCond36) V10 load(1, XDATA, add(CFA_XSP16, literal(-12)))
          CFI (cfiCond36) V11 load(1, XDATA, add(CFA_XSP16, literal(-11)))
          CFI (cfiCond36) V12 load(1, XDATA, add(CFA_XSP16, literal(-10)))
          CFI (cfiCond36) V13 load(1, XDATA, add(CFA_XSP16, literal(-9)))
          CFI (cfiCond36) V14 load(1, XDATA, add(CFA_XSP16, literal(-8)))
          CFI (cfiCond36) V15 load(1, XDATA, add(CFA_XSP16, literal(-7)))
          CFI (cfiCond36) R7 load(1, XDATA, add(CFA_XSP16, literal(-6)))
          CFI (cfiCond36) ?RET_LOW load(1, XDATA, add(CFA_XSP16, literal(-5)))
          CFI (cfiCond36) ?RET_HIGH load(1, XDATA, add(CFA_XSP16, literal(-4)))
          CFI (cfiCond36) ?BRET_EXT load(1, XDATA, add(CFA_XSP16, literal(-3)))
          CFI (cfiCond36) DPL0 load(1, XDATA, add(CFA_XSP16, literal(-2)))
          CFI (cfiCond36) DPH0 load(1, XDATA, add(CFA_XSP16, literal(-1)))
          CFI (cfiCond36) CFA_SP SP+-2
          CFI (cfiCond36) CFA_XSP16 add(XSP16, 34)
          CFI Block cfiPicker37 Using cfiCommon1
          CFI (cfiPicker37) NoFunction
          CFI (cfiPicker37) Picker
        LCALL     ?Subroutine64 & 0xFFFF
??CrossCallReturnLabel_199:
        MOV       DPL,?V0
        MOV       DPH,?V1
        RET
          CFI EndBlock cfiCond35
          CFI EndBlock cfiCond36
          CFI EndBlock cfiPicker37

        RSEG BANKED_CODE:HUGECODE:NOROOT(0)
?Subroutine9:
          CFI Block cfiCond38 Using cfiCommon0
          CFI Function bdb_ProcessInReadReportCfgCmd
          CFI Conditional ??CrossCallReturnLabel_122
          CFI R6 load(1, XDATA, add(CFA_XSP16, literal(-24)))
          CFI VB load(1, XDATA, add(CFA_XSP16, literal(-23)))
          CFI V0 load(1, XDATA, add(CFA_XSP16, literal(-22)))
          CFI V1 load(1, XDATA, add(CFA_XSP16, literal(-21)))
          CFI V2 load(1, XDATA, add(CFA_XSP16, literal(-20)))
          CFI V3 load(1, XDATA, add(CFA_XSP16, literal(-19)))
          CFI V4 load(1, XDATA, add(CFA_XSP16, literal(-18)))
          CFI V5 load(1, XDATA, add(CFA_XSP16, literal(-17)))
          CFI V6 load(1, XDATA, add(CFA_XSP16, literal(-16)))
          CFI V7 load(1, XDATA, add(CFA_XSP16, literal(-15)))
          CFI V8 load(1, XDATA, add(CFA_XSP16, literal(-14)))
          CFI V9 load(1, XDATA, add(CFA_XSP16, literal(-13)))
          CFI V10 load(1, XDATA, add(CFA_XSP16, literal(-12)))
          CFI V11 load(1, XDATA, add(CFA_XSP16, literal(-11)))
          CFI V12 load(1, XDATA, add(CFA_XSP16, literal(-10)))
          CFI V13 load(1, XDATA, add(CFA_XSP16, literal(-9)))
          CFI V14 load(1, XDATA, add(CFA_XSP16, literal(-8)))
          CFI V15 load(1, XDATA, add(CFA_XSP16, literal(-7)))
          CFI R7 load(1, XDATA, add(CFA_XSP16, literal(-6)))
          CFI ?RET_LOW load(1, XDATA, add(CFA_XSP16, literal(-5)))
          CFI ?RET_HIGH load(1, XDATA, add(CFA_XSP16, literal(-4)))
          CFI ?BRET_EXT load(1, XDATA, add(CFA_XSP16, literal(-3)))
          CFI DPL0 load(1, XDATA, add(CFA_XSP16, literal(-2)))
          CFI DPH0 load(1, XDATA, add(CFA_XSP16, literal(-1)))
          CFI CFA_SP SP+-2
          CFI CFA_XSP16 add(XSP16, 34)
          CFI Block cfiCond39 Using cfiCommon0
          CFI (cfiCond39) Function bdb_RepReport
          CFI (cfiCond39) Conditional ??CrossCallReturnLabel_123
          CFI (cfiCond39) R6 load(1, XDATA, add(CFA_XSP16, literal(-24)))
          CFI (cfiCond39) VB load(1, XDATA, add(CFA_XSP16, literal(-23)))
          CFI (cfiCond39) V0 load(1, XDATA, add(CFA_XSP16, literal(-22)))
          CFI (cfiCond39) V1 load(1, XDATA, add(CFA_XSP16, literal(-21)))
          CFI (cfiCond39) V2 load(1, XDATA, add(CFA_XSP16, literal(-20)))
          CFI (cfiCond39) V3 load(1, XDATA, add(CFA_XSP16, literal(-19)))
          CFI (cfiCond39) V4 load(1, XDATA, add(CFA_XSP16, literal(-18)))
          CFI (cfiCond39) V5 load(1, XDATA, add(CFA_XSP16, literal(-17)))
          CFI (cfiCond39) V6 load(1, XDATA, add(CFA_XSP16, literal(-16)))
          CFI (cfiCond39) V7 load(1, XDATA, add(CFA_XSP16, literal(-15)))
          CFI (cfiCond39) V8 load(1, XDATA, add(CFA_XSP16, literal(-14)))
          CFI (cfiCond39) V9 load(1, XDATA, add(CFA_XSP16, literal(-13)))
          CFI (cfiCond39) V10 load(1, XDATA, add(CFA_XSP16, literal(-12)))
          CFI (cfiCond39) V11 load(1, XDATA, add(CFA_XSP16, literal(-11)))
          CFI (cfiCond39) V12 load(1, XDATA, add(CFA_XSP16, literal(-10)))
          CFI (cfiCond39) V13 load(1, XDATA, add(CFA_XSP16, literal(-9)))
          CFI (cfiCond39) V14 load(1, XDATA, add(CFA_XSP16, literal(-8)))
          CFI (cfiCond39) V15 load(1, XDATA, add(CFA_XSP16, literal(-7)))
          CFI (cfiCond39) R7 load(1, XDATA, add(CFA_XSP16, literal(-6)))
          CFI (cfiCond39) ?RET_LOW load(1, XDATA, add(CFA_XSP16, literal(-5)))
          CFI (cfiCond39) ?RET_HIGH load(1, XDATA, add(CFA_XSP16, literal(-4)))
          CFI (cfiCond39) ?BRET_EXT load(1, XDATA, add(CFA_XSP16, literal(-3)))
          CFI (cfiCond39) DPL0 load(1, XDATA, add(CFA_XSP16, literal(-2)))
          CFI (cfiCond39) DPH0 load(1, XDATA, add(CFA_XSP16, literal(-1)))
          CFI (cfiCond39) CFA_SP SP+-2
          CFI (cfiCond39) CFA_XSP16 add(XSP16, 42)
          CFI Block cfiPicker40 Using cfiCommon1
          CFI (cfiPicker40) NoFunction
          CFI (cfiPicker40) Picker
        INC       DPTR
          CFI EndBlock cfiCond38
          CFI EndBlock cfiCond39
          CFI EndBlock cfiPicker40
        REQUIRE ??Subroutine78_0
        ; // Fall through to label ??Subroutine78_0

        RSEG BANKED_CODE:HUGECODE:NOROOT(0)
??Subroutine78_0:
          CFI Block cfiCond41 Using cfiCommon0
          CFI Function bdb_RepReport
          CFI Conditional ??CrossCallReturnLabel_124
          CFI R6 load(1, XDATA, add(CFA_XSP16, literal(-24)))
          CFI VB load(1, XDATA, add(CFA_XSP16, literal(-23)))
          CFI V0 load(1, XDATA, add(CFA_XSP16, literal(-22)))
          CFI V1 load(1, XDATA, add(CFA_XSP16, literal(-21)))
          CFI V2 load(1, XDATA, add(CFA_XSP16, literal(-20)))
          CFI V3 load(1, XDATA, add(CFA_XSP16, literal(-19)))
          CFI V4 load(1, XDATA, add(CFA_XSP16, literal(-18)))
          CFI V5 load(1, XDATA, add(CFA_XSP16, literal(-17)))
          CFI V6 load(1, XDATA, add(CFA_XSP16, literal(-16)))
          CFI V7 load(1, XDATA, add(CFA_XSP16, literal(-15)))
          CFI V8 load(1, XDATA, add(CFA_XSP16, literal(-14)))
          CFI V9 load(1, XDATA, add(CFA_XSP16, literal(-13)))
          CFI V10 load(1, XDATA, add(CFA_XSP16, literal(-12)))
          CFI V11 load(1, XDATA, add(CFA_XSP16, literal(-11)))
          CFI V12 load(1, XDATA, add(CFA_XSP16, literal(-10)))
          CFI V13 load(1, XDATA, add(CFA_XSP16, literal(-9)))
          CFI V14 load(1, XDATA, add(CFA_XSP16, literal(-8)))
          CFI V15 load(1, XDATA, add(CFA_XSP16, literal(-7)))
          CFI R7 load(1, XDATA, add(CFA_XSP16, literal(-6)))
          CFI ?RET_LOW load(1, XDATA, add(CFA_XSP16, literal(-5)))
          CFI ?RET_HIGH load(1, XDATA, add(CFA_XSP16, literal(-4)))
          CFI ?BRET_EXT load(1, XDATA, add(CFA_XSP16, literal(-3)))
          CFI DPL0 load(1, XDATA, add(CFA_XSP16, literal(-2)))
          CFI DPH0 load(1, XDATA, add(CFA_XSP16, literal(-1)))
          CFI CFA_SP SP+-2
          CFI CFA_XSP16 add(XSP16, 42)
          CFI Block cfiCond42 Using cfiCommon0
          CFI (cfiCond42) Function bdb_ProcessInReadReportCfgCmd
          CFI (cfiCond42) Conditional ??CrossCallReturnLabel_122
          CFI (cfiCond42) R6 load(1, XDATA, add(CFA_XSP16, literal(-24)))
          CFI (cfiCond42) VB load(1, XDATA, add(CFA_XSP16, literal(-23)))
          CFI (cfiCond42) V0 load(1, XDATA, add(CFA_XSP16, literal(-22)))
          CFI (cfiCond42) V1 load(1, XDATA, add(CFA_XSP16, literal(-21)))
          CFI (cfiCond42) V2 load(1, XDATA, add(CFA_XSP16, literal(-20)))
          CFI (cfiCond42) V3 load(1, XDATA, add(CFA_XSP16, literal(-19)))
          CFI (cfiCond42) V4 load(1, XDATA, add(CFA_XSP16, literal(-18)))
          CFI (cfiCond42) V5 load(1, XDATA, add(CFA_XSP16, literal(-17)))
          CFI (cfiCond42) V6 load(1, XDATA, add(CFA_XSP16, literal(-16)))
          CFI (cfiCond42) V7 load(1, XDATA, add(CFA_XSP16, literal(-15)))
          CFI (cfiCond42) V8 load(1, XDATA, add(CFA_XSP16, literal(-14)))
          CFI (cfiCond42) V9 load(1, XDATA, add(CFA_XSP16, literal(-13)))
          CFI (cfiCond42) V10 load(1, XDATA, add(CFA_XSP16, literal(-12)))
          CFI (cfiCond42) V11 load(1, XDATA, add(CFA_XSP16, literal(-11)))
          CFI (cfiCond42) V12 load(1, XDATA, add(CFA_XSP16, literal(-10)))
          CFI (cfiCond42) V13 load(1, XDATA, add(CFA_XSP16, literal(-9)))
          CFI (cfiCond42) V14 load(1, XDATA, add(CFA_XSP16, literal(-8)))
          CFI (cfiCond42) V15 load(1, XDATA, add(CFA_XSP16, literal(-7)))
          CFI (cfiCond42) R7 load(1, XDATA, add(CFA_XSP16, literal(-6)))
          CFI (cfiCond42) ?RET_LOW load(1, XDATA, add(CFA_XSP16, literal(-5)))
          CFI (cfiCond42) ?RET_HIGH load(1, XDATA, add(CFA_XSP16, literal(-4)))
          CFI (cfiCond42) ?BRET_EXT load(1, XDATA, add(CFA_XSP16, literal(-3)))
          CFI (cfiCond42) DPL0 load(1, XDATA, add(CFA_XSP16, literal(-2)))
          CFI (cfiCond42) DPH0 load(1, XDATA, add(CFA_XSP16, literal(-1)))
          CFI (cfiCond42) CFA_SP SP+-2
          CFI (cfiCond42) CFA_XSP16 add(XSP16, 34)
          CFI Block cfiCond43 Using cfiCommon0
          CFI (cfiCond43) Function bdb_RepReport
          CFI (cfiCond43) Conditional ??CrossCallReturnLabel_123
          CFI (cfiCond43) R6 load(1, XDATA, add(CFA_XSP16, literal(-24)))
          CFI (cfiCond43) VB load(1, XDATA, add(CFA_XSP16, literal(-23)))
          CFI (cfiCond43) V0 load(1, XDATA, add(CFA_XSP16, literal(-22)))
          CFI (cfiCond43) V1 load(1, XDATA, add(CFA_XSP16, literal(-21)))
          CFI (cfiCond43) V2 load(1, XDATA, add(CFA_XSP16, literal(-20)))
          CFI (cfiCond43) V3 load(1, XDATA, add(CFA_XSP16, literal(-19)))
          CFI (cfiCond43) V4 load(1, XDATA, add(CFA_XSP16, literal(-18)))
          CFI (cfiCond43) V5 load(1, XDATA, add(CFA_XSP16, literal(-17)))
          CFI (cfiCond43) V6 load(1, XDATA, add(CFA_XSP16, literal(-16)))
          CFI (cfiCond43) V7 load(1, XDATA, add(CFA_XSP16, literal(-15)))
          CFI (cfiCond43) V8 load(1, XDATA, add(CFA_XSP16, literal(-14)))
          CFI (cfiCond43) V9 load(1, XDATA, add(CFA_XSP16, literal(-13)))
          CFI (cfiCond43) V10 load(1, XDATA, add(CFA_XSP16, literal(-12)))
          CFI (cfiCond43) V11 load(1, XDATA, add(CFA_XSP16, literal(-11)))
          CFI (cfiCond43) V12 load(1, XDATA, add(CFA_XSP16, literal(-10)))
          CFI (cfiCond43) V13 load(1, XDATA, add(CFA_XSP16, literal(-9)))
          CFI (cfiCond43) V14 load(1, XDATA, add(CFA_XSP16, literal(-8)))
          CFI (cfiCond43) V15 load(1, XDATA, add(CFA_XSP16, literal(-7)))
          CFI (cfiCond43) R7 load(1, XDATA, add(CFA_XSP16, literal(-6)))
          CFI (cfiCond43) ?RET_LOW load(1, XDATA, add(CFA_XSP16, literal(-5)))
          CFI (cfiCond43) ?RET_HIGH load(1, XDATA, add(CFA_XSP16, literal(-4)))
          CFI (cfiCond43) ?BRET_EXT load(1, XDATA, add(CFA_XSP16, literal(-3)))
          CFI (cfiCond43) DPL0 load(1, XDATA, add(CFA_XSP16, literal(-2)))
          CFI (cfiCond43) DPH0 load(1, XDATA, add(CFA_XSP16, literal(-1)))
          CFI (cfiCond43) CFA_SP SP+-2
          CFI (cfiCond43) CFA_XSP16 add(XSP16, 42)
          CFI Block cfiPicker44 Using cfiCommon1
          CFI (cfiPicker44) NoFunction
          CFI (cfiPicker44) Picker
        MOVX      @DPTR,A
        ; Setup parameters for call to function osal_mem_alloc
        MOV       DPL,?V8
        MOV       DPH,?V9
        MOVX      A,@DPTR
        RET
          CFI EndBlock cfiCond41
          CFI EndBlock cfiCond42
          CFI EndBlock cfiCond43
          CFI EndBlock cfiPicker44

        RSEG BANKED_CODE:HUGECODE:NOROOT(0)
?Subroutine8:
          CFI Block cfiCond45 Using cfiCommon0
          CFI Function bdb_ProcessInConfigReportCmd
          CFI Conditional ??CrossCallReturnLabel_2
          CFI R6 load(1, XDATA, add(CFA_XSP16, literal(-24)))
          CFI VB load(1, XDATA, add(CFA_XSP16, literal(-23)))
          CFI V0 load(1, XDATA, add(CFA_XSP16, literal(-22)))
          CFI V1 load(1, XDATA, add(CFA_XSP16, literal(-21)))
          CFI V2 load(1, XDATA, add(CFA_XSP16, literal(-20)))
          CFI V3 load(1, XDATA, add(CFA_XSP16, literal(-19)))
          CFI V4 load(1, XDATA, add(CFA_XSP16, literal(-18)))
          CFI V5 load(1, XDATA, add(CFA_XSP16, literal(-17)))
          CFI V6 load(1, XDATA, add(CFA_XSP16, literal(-16)))
          CFI V7 load(1, XDATA, add(CFA_XSP16, literal(-15)))
          CFI V8 load(1, XDATA, add(CFA_XSP16, literal(-14)))
          CFI V9 load(1, XDATA, add(CFA_XSP16, literal(-13)))
          CFI V10 load(1, XDATA, add(CFA_XSP16, literal(-12)))
          CFI V11 load(1, XDATA, add(CFA_XSP16, literal(-11)))
          CFI V12 load(1, XDATA, add(CFA_XSP16, literal(-10)))
          CFI V13 load(1, XDATA, add(CFA_XSP16, literal(-9)))
          CFI V14 load(1, XDATA, add(CFA_XSP16, literal(-8)))
          CFI V15 load(1, XDATA, add(CFA_XSP16, literal(-7)))
          CFI R7 load(1, XDATA, add(CFA_XSP16, literal(-6)))
          CFI ?RET_LOW load(1, XDATA, add(CFA_XSP16, literal(-5)))
          CFI ?RET_HIGH load(1, XDATA, add(CFA_XSP16, literal(-4)))
          CFI ?BRET_EXT load(1, XDATA, add(CFA_XSP16, literal(-3)))
          CFI DPL0 load(1, XDATA, add(CFA_XSP16, literal(-2)))
          CFI DPH0 load(1, XDATA, add(CFA_XSP16, literal(-1)))
          CFI CFA_SP SP+-2
          CFI CFA_XSP16 add(XSP16, 34)
          CFI Block cfiCond46 Using cfiCommon0
          CFI (cfiCond46) Function bdb_ProcessInReadReportCfgCmd
          CFI (cfiCond46) Conditional ??CrossCallReturnLabel_3
          CFI (cfiCond46) R6 load(1, XDATA, add(CFA_XSP16, literal(-24)))
          CFI (cfiCond46) VB load(1, XDATA, add(CFA_XSP16, literal(-23)))
          CFI (cfiCond46) V0 load(1, XDATA, add(CFA_XSP16, literal(-22)))
          CFI (cfiCond46) V1 load(1, XDATA, add(CFA_XSP16, literal(-21)))
          CFI (cfiCond46) V2 load(1, XDATA, add(CFA_XSP16, literal(-20)))
          CFI (cfiCond46) V3 load(1, XDATA, add(CFA_XSP16, literal(-19)))
          CFI (cfiCond46) V4 load(1, XDATA, add(CFA_XSP16, literal(-18)))
          CFI (cfiCond46) V5 load(1, XDATA, add(CFA_XSP16, literal(-17)))
          CFI (cfiCond46) V6 load(1, XDATA, add(CFA_XSP16, literal(-16)))
          CFI (cfiCond46) V7 load(1, XDATA, add(CFA_XSP16, literal(-15)))
          CFI (cfiCond46) V8 load(1, XDATA, add(CFA_XSP16, literal(-14)))
          CFI (cfiCond46) V9 load(1, XDATA, add(CFA_XSP16, literal(-13)))
          CFI (cfiCond46) V10 load(1, XDATA, add(CFA_XSP16, literal(-12)))
          CFI (cfiCond46) V11 load(1, XDATA, add(CFA_XSP16, literal(-11)))
          CFI (cfiCond46) V12 load(1, XDATA, add(CFA_XSP16, literal(-10)))
          CFI (cfiCond46) V13 load(1, XDATA, add(CFA_XSP16, literal(-9)))
          CFI (cfiCond46) V14 load(1, XDATA, add(CFA_XSP16, literal(-8)))
          CFI (cfiCond46) V15 load(1, XDATA, add(CFA_XSP16, literal(-7)))
          CFI (cfiCond46) R7 load(1, XDATA, add(CFA_XSP16, literal(-6)))
          CFI (cfiCond46) ?RET_LOW load(1, XDATA, add(CFA_XSP16, literal(-5)))
          CFI (cfiCond46) ?RET_HIGH load(1, XDATA, add(CFA_XSP16, literal(-4)))
          CFI (cfiCond46) ?BRET_EXT load(1, XDATA, add(CFA_XSP16, literal(-3)))
          CFI (cfiCond46) DPL0 load(1, XDATA, add(CFA_XSP16, literal(-2)))
          CFI (cfiCond46) DPH0 load(1, XDATA, add(CFA_XSP16, literal(-1)))
          CFI (cfiCond46) CFA_SP SP+-2
          CFI (cfiCond46) CFA_XSP16 add(XSP16, 34)
          CFI Block cfiPicker47 Using cfiCommon1
          CFI (cfiPicker47) NoFunction
          CFI (cfiPicker47) Picker
        MOVX      @DPTR,A
        MOV       DPL,?XSP + 0
        MOV       DPH,?XSP + 1
        LCALL     ?Subroutine70 & 0xFFFF
??CrossCallReturnLabel_112:
        RET
          CFI EndBlock cfiCond45
          CFI EndBlock cfiCond46
          CFI EndBlock cfiPicker47

        RSEG BANKED_CODE:HUGECODE:NOROOT(0)
?Subroutine70:
          CFI Block cfiCond48 Using cfiCommon0
          CFI Function bdb_ProcessInConfigReportCmd
          CFI Conditional ??CrossCallReturnLabel_112, ??CrossCallReturnLabel_2
          CFI R6 load(1, XDATA, add(CFA_XSP16, literal(-24)))
          CFI VB load(1, XDATA, add(CFA_XSP16, literal(-23)))
          CFI V0 load(1, XDATA, add(CFA_XSP16, literal(-22)))
          CFI V1 load(1, XDATA, add(CFA_XSP16, literal(-21)))
          CFI V2 load(1, XDATA, add(CFA_XSP16, literal(-20)))
          CFI V3 load(1, XDATA, add(CFA_XSP16, literal(-19)))
          CFI V4 load(1, XDATA, add(CFA_XSP16, literal(-18)))
          CFI V5 load(1, XDATA, add(CFA_XSP16, literal(-17)))
          CFI V6 load(1, XDATA, add(CFA_XSP16, literal(-16)))
          CFI V7 load(1, XDATA, add(CFA_XSP16, literal(-15)))
          CFI V8 load(1, XDATA, add(CFA_XSP16, literal(-14)))
          CFI V9 load(1, XDATA, add(CFA_XSP16, literal(-13)))
          CFI V10 load(1, XDATA, add(CFA_XSP16, literal(-12)))
          CFI V11 load(1, XDATA, add(CFA_XSP16, literal(-11)))
          CFI V12 load(1, XDATA, add(CFA_XSP16, literal(-10)))
          CFI V13 load(1, XDATA, add(CFA_XSP16, literal(-9)))
          CFI V14 load(1, XDATA, add(CFA_XSP16, literal(-8)))
          CFI V15 load(1, XDATA, add(CFA_XSP16, literal(-7)))
          CFI R7 load(1, XDATA, add(CFA_XSP16, literal(-6)))
          CFI ?RET_LOW load(1, XDATA, add(CFA_XSP16, literal(-5)))
          CFI ?RET_HIGH load(1, XDATA, add(CFA_XSP16, literal(-4)))
          CFI ?BRET_EXT load(1, XDATA, add(CFA_XSP16, literal(-3)))
          CFI DPL0 load(1, XDATA, add(CFA_XSP16, literal(-2)))
          CFI DPH0 load(1, XDATA, add(CFA_XSP16, literal(-1)))
          CFI CFA_SP SP+-4
          CFI CFA_XSP16 add(XSP16, 34)
          CFI Block cfiCond49 Using cfiCommon0
          CFI (cfiCond49) Function bdb_ProcessInReadReportCfgCmd
          CFI (cfiCond49) Conditional ??CrossCallReturnLabel_112, ??CrossCallReturnLabel_3
          CFI (cfiCond49) R6 load(1, XDATA, add(CFA_XSP16, literal(-24)))
          CFI (cfiCond49) VB load(1, XDATA, add(CFA_XSP16, literal(-23)))
          CFI (cfiCond49) V0 load(1, XDATA, add(CFA_XSP16, literal(-22)))
          CFI (cfiCond49) V1 load(1, XDATA, add(CFA_XSP16, literal(-21)))
          CFI (cfiCond49) V2 load(1, XDATA, add(CFA_XSP16, literal(-20)))
          CFI (cfiCond49) V3 load(1, XDATA, add(CFA_XSP16, literal(-19)))
          CFI (cfiCond49) V4 load(1, XDATA, add(CFA_XSP16, literal(-18)))
          CFI (cfiCond49) V5 load(1, XDATA, add(CFA_XSP16, literal(-17)))
          CFI (cfiCond49) V6 load(1, XDATA, add(CFA_XSP16, literal(-16)))
          CFI (cfiCond49) V7 load(1, XDATA, add(CFA_XSP16, literal(-15)))
          CFI (cfiCond49) V8 load(1, XDATA, add(CFA_XSP16, literal(-14)))
          CFI (cfiCond49) V9 load(1, XDATA, add(CFA_XSP16, literal(-13)))
          CFI (cfiCond49) V10 load(1, XDATA, add(CFA_XSP16, literal(-12)))
          CFI (cfiCond49) V11 load(1, XDATA, add(CFA_XSP16, literal(-11)))
          CFI (cfiCond49) V12 load(1, XDATA, add(CFA_XSP16, literal(-10)))
          CFI (cfiCond49) V13 load(1, XDATA, add(CFA_XSP16, literal(-9)))
          CFI (cfiCond49) V14 load(1, XDATA, add(CFA_XSP16, literal(-8)))
          CFI (cfiCond49) V15 load(1, XDATA, add(CFA_XSP16, literal(-7)))
          CFI (cfiCond49) R7 load(1, XDATA, add(CFA_XSP16, literal(-6)))
          CFI (cfiCond49) ?RET_LOW load(1, XDATA, add(CFA_XSP16, literal(-5)))
          CFI (cfiCond49) ?RET_HIGH load(1, XDATA, add(CFA_XSP16, literal(-4)))
          CFI (cfiCond49) ?BRET_EXT load(1, XDATA, add(CFA_XSP16, literal(-3)))
          CFI (cfiCond49) DPL0 load(1, XDATA, add(CFA_XSP16, literal(-2)))
          CFI (cfiCond49) DPH0 load(1, XDATA, add(CFA_XSP16, literal(-1)))
          CFI (cfiCond49) CFA_SP SP+-4
          CFI (cfiCond49) CFA_XSP16 add(XSP16, 34)
          CFI Block cfiCond50 Using cfiCommon0
          CFI (cfiCond50) Function bdb_RepChangedAttrValue
          CFI (cfiCond50) Conditional ??CrossCallReturnLabel_111
          CFI (cfiCond50) R6 load(1, XDATA, add(CFA_XSP16, literal(-18)))
          CFI (cfiCond50) VB load(1, XDATA, add(CFA_XSP16, literal(-17)))
          CFI (cfiCond50) V0 load(1, XDATA, add(CFA_XSP16, literal(-16)))
          CFI (cfiCond50) V1 load(1, XDATA, add(CFA_XSP16, literal(-15)))
          CFI (cfiCond50) V2 load(1, XDATA, add(CFA_XSP16, literal(-14)))
          CFI (cfiCond50) V3 load(1, XDATA, add(CFA_XSP16, literal(-13)))
          CFI (cfiCond50) V4 load(1, XDATA, add(CFA_XSP16, literal(-12)))
          CFI (cfiCond50) V5 load(1, XDATA, add(CFA_XSP16, literal(-11)))
          CFI (cfiCond50) V6 load(1, XDATA, add(CFA_XSP16, literal(-10)))
          CFI (cfiCond50) V7 load(1, XDATA, add(CFA_XSP16, literal(-9)))
          CFI (cfiCond50) V8 load(1, XDATA, add(CFA_XSP16, literal(-8)))
          CFI (cfiCond50) V9 load(1, XDATA, add(CFA_XSP16, literal(-7)))
          CFI (cfiCond50) R7 load(1, XDATA, add(CFA_XSP16, literal(-6)))
          CFI (cfiCond50) ?RET_LOW load(1, XDATA, add(CFA_XSP16, literal(-5)))
          CFI (cfiCond50) ?RET_HIGH load(1, XDATA, add(CFA_XSP16, literal(-4)))
          CFI (cfiCond50) ?BRET_EXT load(1, XDATA, add(CFA_XSP16, literal(-3)))
          CFI (cfiCond50) DPL0 load(1, XDATA, add(CFA_XSP16, literal(-2)))
          CFI (cfiCond50) DPH0 load(1, XDATA, add(CFA_XSP16, literal(-1)))
          CFI (cfiCond50) CFA_SP SP+-2
          CFI (cfiCond50) CFA_XSP16 add(XSP16, 34)
          CFI Block cfiPicker51 Using cfiCommon1
          CFI (cfiPicker51) NoFunction
          CFI (cfiPicker51) Picker
        LCALL     ?Subroutine75 & 0xFFFF
??CrossCallReturnLabel_214:
        RET
          CFI EndBlock cfiCond48
          CFI EndBlock cfiCond49
          CFI EndBlock cfiCond50
          CFI EndBlock cfiPicker51

        RSEG BANKED_CODE:HUGECODE:NOROOT(0)
?Subroutine75:
          CFI Block cfiCond52 Using cfiCommon0
          CFI Function bdb_ProcessInConfigReportCmd
          CFI Conditional ??CrossCallReturnLabel_214, ??CrossCallReturnLabel_112, ??CrossCallReturnLabel_2
          CFI R6 load(1, XDATA, add(CFA_XSP16, literal(-24)))
          CFI VB load(1, XDATA, add(CFA_XSP16, literal(-23)))
          CFI V0 load(1, XDATA, add(CFA_XSP16, literal(-22)))
          CFI V1 load(1, XDATA, add(CFA_XSP16, literal(-21)))
          CFI V2 load(1, XDATA, add(CFA_XSP16, literal(-20)))
          CFI V3 load(1, XDATA, add(CFA_XSP16, literal(-19)))
          CFI V4 load(1, XDATA, add(CFA_XSP16, literal(-18)))
          CFI V5 load(1, XDATA, add(CFA_XSP16, literal(-17)))
          CFI V6 load(1, XDATA, add(CFA_XSP16, literal(-16)))
          CFI V7 load(1, XDATA, add(CFA_XSP16, literal(-15)))
          CFI V8 load(1, XDATA, add(CFA_XSP16, literal(-14)))
          CFI V9 load(1, XDATA, add(CFA_XSP16, literal(-13)))
          CFI V10 load(1, XDATA, add(CFA_XSP16, literal(-12)))
          CFI V11 load(1, XDATA, add(CFA_XSP16, literal(-11)))
          CFI V12 load(1, XDATA, add(CFA_XSP16, literal(-10)))
          CFI V13 load(1, XDATA, add(CFA_XSP16, literal(-9)))
          CFI V14 load(1, XDATA, add(CFA_XSP16, literal(-8)))
          CFI V15 load(1, XDATA, add(CFA_XSP16, literal(-7)))
          CFI R7 load(1, XDATA, add(CFA_XSP16, literal(-6)))
          CFI ?RET_LOW load(1, XDATA, add(CFA_XSP16, literal(-5)))
          CFI ?RET_HIGH load(1, XDATA, add(CFA_XSP16, literal(-4)))
          CFI ?BRET_EXT load(1, XDATA, add(CFA_XSP16, literal(-3)))
          CFI DPL0 load(1, XDATA, add(CFA_XSP16, literal(-2)))
          CFI DPH0 load(1, XDATA, add(CFA_XSP16, literal(-1)))
          CFI CFA_SP SP+-6
          CFI CFA_XSP16 add(XSP16, 34)
          CFI Block cfiCond53 Using cfiCommon0
          CFI (cfiCond53) Function bdb_ProcessInReadReportCfgCmd
          CFI (cfiCond53) Conditional ??CrossCallReturnLabel_214, ??CrossCallReturnLabel_112, ??CrossCallReturnLabel_3
          CFI (cfiCond53) R6 load(1, XDATA, add(CFA_XSP16, literal(-24)))
          CFI (cfiCond53) VB load(1, XDATA, add(CFA_XSP16, literal(-23)))
          CFI (cfiCond53) V0 load(1, XDATA, add(CFA_XSP16, literal(-22)))
          CFI (cfiCond53) V1 load(1, XDATA, add(CFA_XSP16, literal(-21)))
          CFI (cfiCond53) V2 load(1, XDATA, add(CFA_XSP16, literal(-20)))
          CFI (cfiCond53) V3 load(1, XDATA, add(CFA_XSP16, literal(-19)))
          CFI (cfiCond53) V4 load(1, XDATA, add(CFA_XSP16, literal(-18)))
          CFI (cfiCond53) V5 load(1, XDATA, add(CFA_XSP16, literal(-17)))
          CFI (cfiCond53) V6 load(1, XDATA, add(CFA_XSP16, literal(-16)))
          CFI (cfiCond53) V7 load(1, XDATA, add(CFA_XSP16, literal(-15)))
          CFI (cfiCond53) V8 load(1, XDATA, add(CFA_XSP16, literal(-14)))
          CFI (cfiCond53) V9 load(1, XDATA, add(CFA_XSP16, literal(-13)))
          CFI (cfiCond53) V10 load(1, XDATA, add(CFA_XSP16, literal(-12)))
          CFI (cfiCond53) V11 load(1, XDATA, add(CFA_XSP16, literal(-11)))
          CFI (cfiCond53) V12 load(1, XDATA, add(CFA_XSP16, literal(-10)))
          CFI (cfiCond53) V13 load(1, XDATA, add(CFA_XSP16, literal(-9)))
          CFI (cfiCond53) V14 load(1, XDATA, add(CFA_XSP16, literal(-8)))
          CFI (cfiCond53) V15 load(1, XDATA, add(CFA_XSP16, literal(-7)))
          CFI (cfiCond53) R7 load(1, XDATA, add(CFA_XSP16, literal(-6)))
          CFI (cfiCond53) ?RET_LOW load(1, XDATA, add(CFA_XSP16, literal(-5)))
          CFI (cfiCond53) ?RET_HIGH load(1, XDATA, add(CFA_XSP16, literal(-4)))
          CFI (cfiCond53) ?BRET_EXT load(1, XDATA, add(CFA_XSP16, literal(-3)))
          CFI (cfiCond53) DPL0 load(1, XDATA, add(CFA_XSP16, literal(-2)))
          CFI (cfiCond53) DPH0 load(1, XDATA, add(CFA_XSP16, literal(-1)))
          CFI (cfiCond53) CFA_SP SP+-6
          CFI (cfiCond53) CFA_XSP16 add(XSP16, 34)
          CFI Block cfiCond54 Using cfiCommon0
          CFI (cfiCond54) Function bdb_RepChangedAttrValue
          CFI (cfiCond54) Conditional ??CrossCallReturnLabel_214, ??CrossCallReturnLabel_111
          CFI (cfiCond54) R6 load(1, XDATA, add(CFA_XSP16, literal(-18)))
          CFI (cfiCond54) VB load(1, XDATA, add(CFA_XSP16, literal(-17)))
          CFI (cfiCond54) V0 load(1, XDATA, add(CFA_XSP16, literal(-16)))
          CFI (cfiCond54) V1 load(1, XDATA, add(CFA_XSP16, literal(-15)))
          CFI (cfiCond54) V2 load(1, XDATA, add(CFA_XSP16, literal(-14)))
          CFI (cfiCond54) V3 load(1, XDATA, add(CFA_XSP16, literal(-13)))
          CFI (cfiCond54) V4 load(1, XDATA, add(CFA_XSP16, literal(-12)))
          CFI (cfiCond54) V5 load(1, XDATA, add(CFA_XSP16, literal(-11)))
          CFI (cfiCond54) V6 load(1, XDATA, add(CFA_XSP16, literal(-10)))
          CFI (cfiCond54) V7 load(1, XDATA, add(CFA_XSP16, literal(-9)))
          CFI (cfiCond54) V8 load(1, XDATA, add(CFA_XSP16, literal(-8)))
          CFI (cfiCond54) V9 load(1, XDATA, add(CFA_XSP16, literal(-7)))
          CFI (cfiCond54) R7 load(1, XDATA, add(CFA_XSP16, literal(-6)))
          CFI (cfiCond54) ?RET_LOW load(1, XDATA, add(CFA_XSP16, literal(-5)))
          CFI (cfiCond54) ?RET_HIGH load(1, XDATA, add(CFA_XSP16, literal(-4)))
          CFI (cfiCond54) ?BRET_EXT load(1, XDATA, add(CFA_XSP16, literal(-3)))
          CFI (cfiCond54) DPL0 load(1, XDATA, add(CFA_XSP16, literal(-2)))
          CFI (cfiCond54) DPH0 load(1, XDATA, add(CFA_XSP16, literal(-1)))
          CFI (cfiCond54) CFA_SP SP+-4
          CFI (cfiCond54) CFA_XSP16 add(XSP16, 34)
          CFI Block cfiCond55 Using cfiCommon0
          CFI (cfiCond55) Function bdb_ProcessInConfigReportCmd
          CFI (cfiCond55) Conditional ??CrossCallReturnLabel_215, ??CrossCallReturnLabel_212, ??CrossCallReturnLabel_71
          CFI (cfiCond55) R6 load(1, XDATA, add(CFA_XSP16, literal(-24)))
          CFI (cfiCond55) VB load(1, XDATA, add(CFA_XSP16, literal(-23)))
          CFI (cfiCond55) V0 load(1, XDATA, add(CFA_XSP16, literal(-22)))
          CFI (cfiCond55) V1 load(1, XDATA, add(CFA_XSP16, literal(-21)))
          CFI (cfiCond55) V2 load(1, XDATA, add(CFA_XSP16, literal(-20)))
          CFI (cfiCond55) V3 load(1, XDATA, add(CFA_XSP16, literal(-19)))
          CFI (cfiCond55) V4 load(1, XDATA, add(CFA_XSP16, literal(-18)))
          CFI (cfiCond55) V5 load(1, XDATA, add(CFA_XSP16, literal(-17)))
          CFI (cfiCond55) V6 load(1, XDATA, add(CFA_XSP16, literal(-16)))
          CFI (cfiCond55) V7 load(1, XDATA, add(CFA_XSP16, literal(-15)))
          CFI (cfiCond55) V8 load(1, XDATA, add(CFA_XSP16, literal(-14)))
          CFI (cfiCond55) V9 load(1, XDATA, add(CFA_XSP16, literal(-13)))
          CFI (cfiCond55) V10 load(1, XDATA, add(CFA_XSP16, literal(-12)))
          CFI (cfiCond55) V11 load(1, XDATA, add(CFA_XSP16, literal(-11)))
          CFI (cfiCond55) V12 load(1, XDATA, add(CFA_XSP16, literal(-10)))
          CFI (cfiCond55) V13 load(1, XDATA, add(CFA_XSP16, literal(-9)))
          CFI (cfiCond55) V14 load(1, XDATA, add(CFA_XSP16, literal(-8)))
          CFI (cfiCond55) V15 load(1, XDATA, add(CFA_XSP16, literal(-7)))
          CFI (cfiCond55) R7 load(1, XDATA, add(CFA_XSP16, literal(-6)))
          CFI (cfiCond55) ?RET_LOW load(1, XDATA, add(CFA_XSP16, literal(-5)))
          CFI (cfiCond55) ?RET_HIGH load(1, XDATA, add(CFA_XSP16, literal(-4)))
          CFI (cfiCond55) ?BRET_EXT load(1, XDATA, add(CFA_XSP16, literal(-3)))
          CFI (cfiCond55) DPL0 load(1, XDATA, add(CFA_XSP16, literal(-2)))
          CFI (cfiCond55) DPH0 load(1, XDATA, add(CFA_XSP16, literal(-1)))
          CFI (cfiCond55) CFA_SP SP+-6
          CFI (cfiCond55) CFA_XSP16 add(XSP16, 34)
          CFI Block cfiCond56 Using cfiCommon0
          CFI (cfiCond56) Function bdb_RepConstructAttrCfgArray
          CFI (cfiCond56) Conditional ??CrossCallReturnLabel_215, ??CrossCallReturnLabel_212, ??CrossCallReturnLabel_72
          CFI (cfiCond56) R6 load(1, XDATA, add(CFA_XSP16, literal(-22)))
          CFI (cfiCond56) VB load(1, XDATA, add(CFA_XSP16, literal(-21)))
          CFI (cfiCond56) V0 load(1, XDATA, add(CFA_XSP16, literal(-20)))
          CFI (cfiCond56) V1 load(1, XDATA, add(CFA_XSP16, literal(-19)))
          CFI (cfiCond56) V2 load(1, XDATA, add(CFA_XSP16, literal(-18)))
          CFI (cfiCond56) V3 load(1, XDATA, add(CFA_XSP16, literal(-17)))
          CFI (cfiCond56) V4 load(1, XDATA, add(CFA_XSP16, literal(-16)))
          CFI (cfiCond56) V5 load(1, XDATA, add(CFA_XSP16, literal(-15)))
          CFI (cfiCond56) V6 load(1, XDATA, add(CFA_XSP16, literal(-14)))
          CFI (cfiCond56) V7 load(1, XDATA, add(CFA_XSP16, literal(-13)))
          CFI (cfiCond56) V8 load(1, XDATA, add(CFA_XSP16, literal(-12)))
          CFI (cfiCond56) V9 load(1, XDATA, add(CFA_XSP16, literal(-11)))
          CFI (cfiCond56) V10 load(1, XDATA, add(CFA_XSP16, literal(-10)))
          CFI (cfiCond56) V11 load(1, XDATA, add(CFA_XSP16, literal(-9)))
          CFI (cfiCond56) V12 load(1, XDATA, add(CFA_XSP16, literal(-8)))
          CFI (cfiCond56) V13 load(1, XDATA, add(CFA_XSP16, literal(-7)))
          CFI (cfiCond56) R7 load(1, XDATA, add(CFA_XSP16, literal(-6)))
          CFI (cfiCond56) ?RET_LOW load(1, XDATA, add(CFA_XSP16, literal(-5)))
          CFI (cfiCond56) ?RET_HIGH load(1, XDATA, add(CFA_XSP16, literal(-4)))
          CFI (cfiCond56) ?BRET_EXT load(1, XDATA, add(CFA_XSP16, literal(-3)))
          CFI (cfiCond56) DPL0 load(1, XDATA, add(CFA_XSP16, literal(-2)))
          CFI (cfiCond56) DPH0 load(1, XDATA, add(CFA_XSP16, literal(-1)))
          CFI (cfiCond56) CFA_SP SP+-6
          CFI (cfiCond56) CFA_XSP16 add(XSP16, 39)
          CFI Block cfiCond57 Using cfiCommon0
          CFI (cfiCond57) Function bdb_RepFindAttrEntry
          CFI (cfiCond57) Conditional ??CrossCallReturnLabel_215, ??CrossCallReturnLabel_213, ??CrossCallReturnLabel_210
          CFI (cfiCond57) R6 load(1, XDATA, add(CFA_XSP16, literal(-19)))
          CFI (cfiCond57) VB load(1, XDATA, add(CFA_XSP16, literal(-18)))
          CFI (cfiCond57) V0 load(1, XDATA, add(CFA_XSP16, literal(-17)))
          CFI (cfiCond57) V1 load(1, XDATA, add(CFA_XSP16, literal(-16)))
          CFI (cfiCond57) V2 load(1, XDATA, add(CFA_XSP16, literal(-15)))
          CFI (cfiCond57) V3 load(1, XDATA, add(CFA_XSP16, literal(-14)))
          CFI (cfiCond57) V4 load(1, XDATA, add(CFA_XSP16, literal(-13)))
          CFI (cfiCond57) V5 load(1, XDATA, add(CFA_XSP16, literal(-12)))
          CFI (cfiCond57) V6 load(1, XDATA, add(CFA_XSP16, literal(-11)))
          CFI (cfiCond57) V7 load(1, XDATA, add(CFA_XSP16, literal(-10)))
          CFI (cfiCond57) V8 load(1, XDATA, add(CFA_XSP16, literal(-9)))
          CFI (cfiCond57) V9 load(1, XDATA, add(CFA_XSP16, literal(-8)))
          CFI (cfiCond57) V10 load(1, XDATA, add(CFA_XSP16, literal(-7)))
          CFI (cfiCond57) R7 load(1, XDATA, add(CFA_XSP16, literal(-6)))
          CFI (cfiCond57) ?RET_LOW load(1, XDATA, add(CFA_XSP16, literal(-5)))
          CFI (cfiCond57) ?RET_HIGH load(1, XDATA, add(CFA_XSP16, literal(-4)))
          CFI (cfiCond57) ?BRET_EXT load(1, XDATA, add(CFA_XSP16, literal(-3)))
          CFI (cfiCond57) DPL0 load(1, XDATA, add(CFA_XSP16, literal(-2)))
          CFI (cfiCond57) DPH0 load(1, XDATA, add(CFA_XSP16, literal(-1)))
          CFI (cfiCond57) CFA_SP SP+-6
          CFI (cfiCond57) CFA_XSP16 add(XSP16, 21)
          CFI Block cfiCond58 Using cfiCommon0
          CFI (cfiCond58) Function bdb_RepAddAttrCfgRecordDefaultToList
          CFI (cfiCond58) Conditional ??CrossCallReturnLabel_215, ??CrossCallReturnLabel_213, ??CrossCallReturnLabel_211
          CFI (cfiCond58) R6 load(1, XDATA, add(CFA_XSP16, literal(-16)))
          CFI (cfiCond58) VB load(1, XDATA, add(CFA_XSP16, literal(-15)))
          CFI (cfiCond58) V0 load(1, XDATA, add(CFA_XSP16, literal(-14)))
          CFI (cfiCond58) V1 load(1, XDATA, add(CFA_XSP16, literal(-13)))
          CFI (cfiCond58) V2 load(1, XDATA, add(CFA_XSP16, literal(-12)))
          CFI (cfiCond58) V3 load(1, XDATA, add(CFA_XSP16, literal(-11)))
          CFI (cfiCond58) V4 load(1, XDATA, add(CFA_XSP16, literal(-10)))
          CFI (cfiCond58) V5 load(1, XDATA, add(CFA_XSP16, literal(-9)))
          CFI (cfiCond58) V6 load(1, XDATA, add(CFA_XSP16, literal(-8)))
          CFI (cfiCond58) V7 load(1, XDATA, add(CFA_XSP16, literal(-7)))
          CFI (cfiCond58) R7 load(1, XDATA, add(CFA_XSP16, literal(-6)))
          CFI (cfiCond58) ?RET_LOW load(1, XDATA, add(CFA_XSP16, literal(-5)))
          CFI (cfiCond58) ?RET_HIGH load(1, XDATA, add(CFA_XSP16, literal(-4)))
          CFI (cfiCond58) ?BRET_EXT load(1, XDATA, add(CFA_XSP16, literal(-3)))
          CFI (cfiCond58) DPL0 load(1, XDATA, add(CFA_XSP16, literal(-2)))
          CFI (cfiCond58) DPH0 load(1, XDATA, add(CFA_XSP16, literal(-1)))
          CFI (cfiCond58) CFA_SP SP+-6
          CFI (cfiCond58) CFA_XSP16 add(XSP16, 16)
          CFI Block cfiCond59 Using cfiCommon0
          CFI (cfiCond59) Function bdb_RepConstructAttrCfgArray
          CFI (cfiCond59) Conditional ??CrossCallReturnLabel_215, ??CrossCallReturnLabel_213, ??CrossCallReturnLabel_209
          CFI (cfiCond59) R6 load(1, XDATA, add(CFA_XSP16, literal(-22)))
          CFI (cfiCond59) VB load(1, XDATA, add(CFA_XSP16, literal(-21)))
          CFI (cfiCond59) V0 load(1, XDATA, add(CFA_XSP16, literal(-20)))
          CFI (cfiCond59) V1 load(1, XDATA, add(CFA_XSP16, literal(-19)))
          CFI (cfiCond59) V2 load(1, XDATA, add(CFA_XSP16, literal(-18)))
          CFI (cfiCond59) V3 load(1, XDATA, add(CFA_XSP16, literal(-17)))
          CFI (cfiCond59) V4 load(1, XDATA, add(CFA_XSP16, literal(-16)))
          CFI (cfiCond59) V5 load(1, XDATA, add(CFA_XSP16, literal(-15)))
          CFI (cfiCond59) V6 load(1, XDATA, add(CFA_XSP16, literal(-14)))
          CFI (cfiCond59) V7 load(1, XDATA, add(CFA_XSP16, literal(-13)))
          CFI (cfiCond59) V8 load(1, XDATA, add(CFA_XSP16, literal(-12)))
          CFI (cfiCond59) V9 load(1, XDATA, add(CFA_XSP16, literal(-11)))
          CFI (cfiCond59) V10 load(1, XDATA, add(CFA_XSP16, literal(-10)))
          CFI (cfiCond59) V11 load(1, XDATA, add(CFA_XSP16, literal(-9)))
          CFI (cfiCond59) V12 load(1, XDATA, add(CFA_XSP16, literal(-8)))
          CFI (cfiCond59) V13 load(1, XDATA, add(CFA_XSP16, literal(-7)))
          CFI (cfiCond59) R7 load(1, XDATA, add(CFA_XSP16, literal(-6)))
          CFI (cfiCond59) ?RET_LOW load(1, XDATA, add(CFA_XSP16, literal(-5)))
          CFI (cfiCond59) ?RET_HIGH load(1, XDATA, add(CFA_XSP16, literal(-4)))
          CFI (cfiCond59) ?BRET_EXT load(1, XDATA, add(CFA_XSP16, literal(-3)))
          CFI (cfiCond59) DPL0 load(1, XDATA, add(CFA_XSP16, literal(-2)))
          CFI (cfiCond59) DPH0 load(1, XDATA, add(CFA_XSP16, literal(-1)))
          CFI (cfiCond59) CFA_SP SP+-6
          CFI (cfiCond59) CFA_XSP16 add(XSP16, 39)
          CFI Block cfiCond60 Using cfiCommon0
          CFI (cfiCond60) Function bdb_RepConstructAttrCfgArray
          CFI (cfiCond60) Conditional ??CrossCallReturnLabel_215, ??CrossCallReturnLabel_213, ??CrossCallReturnLabel_207
          CFI (cfiCond60) R6 load(1, XDATA, add(CFA_XSP16, literal(-22)))
          CFI (cfiCond60) VB load(1, XDATA, add(CFA_XSP16, literal(-21)))
          CFI (cfiCond60) V0 load(1, XDATA, add(CFA_XSP16, literal(-20)))
          CFI (cfiCond60) V1 load(1, XDATA, add(CFA_XSP16, literal(-19)))
          CFI (cfiCond60) V2 load(1, XDATA, add(CFA_XSP16, literal(-18)))
          CFI (cfiCond60) V3 load(1, XDATA, add(CFA_XSP16, literal(-17)))
          CFI (cfiCond60) V4 load(1, XDATA, add(CFA_XSP16, literal(-16)))
          CFI (cfiCond60) V5 load(1, XDATA, add(CFA_XSP16, literal(-15)))
          CFI (cfiCond60) V6 load(1, XDATA, add(CFA_XSP16, literal(-14)))
          CFI (cfiCond60) V7 load(1, XDATA, add(CFA_XSP16, literal(-13)))
          CFI (cfiCond60) V8 load(1, XDATA, add(CFA_XSP16, literal(-12)))
          CFI (cfiCond60) V9 load(1, XDATA, add(CFA_XSP16, literal(-11)))
          CFI (cfiCond60) V10 load(1, XDATA, add(CFA_XSP16, literal(-10)))
          CFI (cfiCond60) V11 load(1, XDATA, add(CFA_XSP16, literal(-9)))
          CFI (cfiCond60) V12 load(1, XDATA, add(CFA_XSP16, literal(-8)))
          CFI (cfiCond60) V13 load(1, XDATA, add(CFA_XSP16, literal(-7)))
          CFI (cfiCond60) R7 load(1, XDATA, add(CFA_XSP16, literal(-6)))
          CFI (cfiCond60) ?RET_LOW load(1, XDATA, add(CFA_XSP16, literal(-5)))
          CFI (cfiCond60) ?RET_HIGH load(1, XDATA, add(CFA_XSP16, literal(-4)))
          CFI (cfiCond60) ?BRET_EXT load(1, XDATA, add(CFA_XSP16, literal(-3)))
          CFI (cfiCond60) DPL0 load(1, XDATA, add(CFA_XSP16, literal(-2)))
          CFI (cfiCond60) DPH0 load(1, XDATA, add(CFA_XSP16, literal(-1)))
          CFI (cfiCond60) CFA_SP SP+-6
          CFI (cfiCond60) CFA_XSP16 add(XSP16, 39)
          CFI Block cfiCond61 Using cfiCommon0
          CFI (cfiCond61) Function bdb_RepConstructAttrCfgArray
          CFI (cfiCond61) Conditional ??CrossCallReturnLabel_215, ??CrossCallReturnLabel_213, ??CrossCallReturnLabel_208
          CFI (cfiCond61) R6 load(1, XDATA, add(CFA_XSP16, literal(-22)))
          CFI (cfiCond61) VB load(1, XDATA, add(CFA_XSP16, literal(-21)))
          CFI (cfiCond61) V0 load(1, XDATA, add(CFA_XSP16, literal(-20)))
          CFI (cfiCond61) V1 load(1, XDATA, add(CFA_XSP16, literal(-19)))
          CFI (cfiCond61) V2 load(1, XDATA, add(CFA_XSP16, literal(-18)))
          CFI (cfiCond61) V3 load(1, XDATA, add(CFA_XSP16, literal(-17)))
          CFI (cfiCond61) V4 load(1, XDATA, add(CFA_XSP16, literal(-16)))
          CFI (cfiCond61) V5 load(1, XDATA, add(CFA_XSP16, literal(-15)))
          CFI (cfiCond61) V6 load(1, XDATA, add(CFA_XSP16, literal(-14)))
          CFI (cfiCond61) V7 load(1, XDATA, add(CFA_XSP16, literal(-13)))
          CFI (cfiCond61) V8 load(1, XDATA, add(CFA_XSP16, literal(-12)))
          CFI (cfiCond61) V9 load(1, XDATA, add(CFA_XSP16, literal(-11)))
          CFI (cfiCond61) V10 load(1, XDATA, add(CFA_XSP16, literal(-10)))
          CFI (cfiCond61) V11 load(1, XDATA, add(CFA_XSP16, literal(-9)))
          CFI (cfiCond61) V12 load(1, XDATA, add(CFA_XSP16, literal(-8)))
          CFI (cfiCond61) V13 load(1, XDATA, add(CFA_XSP16, literal(-7)))
          CFI (cfiCond61) R7 load(1, XDATA, add(CFA_XSP16, literal(-6)))
          CFI (cfiCond61) ?RET_LOW load(1, XDATA, add(CFA_XSP16, literal(-5)))
          CFI (cfiCond61) ?RET_HIGH load(1, XDATA, add(CFA_XSP16, literal(-4)))
          CFI (cfiCond61) ?BRET_EXT load(1, XDATA, add(CFA_XSP16, literal(-3)))
          CFI (cfiCond61) DPL0 load(1, XDATA, add(CFA_XSP16, literal(-2)))
          CFI (cfiCond61) DPH0 load(1, XDATA, add(CFA_XSP16, literal(-1)))
          CFI (cfiCond61) CFA_SP SP+-6
          CFI (cfiCond61) CFA_XSP16 add(XSP16, 51)
          CFI Block cfiPicker62 Using cfiCommon1
          CFI (cfiPicker62) NoFunction
          CFI (cfiPicker62) Picker
        MOVX      A,@DPTR
        MOV       R0,A
        INC       DPTR
        MOVX      A,@DPTR
        MOV       DPH,A
        MOV       DPL,R0
        RET
          CFI EndBlock cfiCond52
          CFI EndBlock cfiCond53
          CFI EndBlock cfiCond54
          CFI EndBlock cfiCond55
          CFI EndBlock cfiCond56
          CFI EndBlock cfiCond57
          CFI EndBlock cfiCond58
          CFI EndBlock cfiCond59
          CFI EndBlock cfiCond60
          CFI EndBlock cfiCond61
          CFI EndBlock cfiPicker62
//  761 
//  762 

        RSEG BANKED_CODE:HUGECODE:NOROOT(0)
//  763 void bdb_RepUpdateMarkBindings( void )
bdb_RepUpdateMarkBindings:
          CFI Block cfiBlock63 Using cfiCommon0
          CFI Function bdb_RepUpdateMarkBindings
        CODE
//  764 {
        FUNCALL bdb_RepUpdateMarkBindings, bdb_RepMarkHasBindingInEndpointClusterArray
        LOCFRAME ISTACK, 0, STACK
        LOCFRAME PSTACK, 0, STACK
        LOCFRAME XSTACK, 16, STACK
        LOCFRAME IOVERLAY, 0, STATIC
        LOCFRAME DOVERLAY, 0, STATIC
        ARGFRAME ISTACK, 0, STACK
        ARGFRAME PSTACK, 0, STACK
        ARGFRAME XSTACK, 16, STACK
        ARGFRAME IOVERLAY, 0, STATIC
        ARGFRAME DOVERLAY, 0, STATIC
        FUNCALL bdb_RepUpdateMarkBindings, bindFind
        LOCFRAME ISTACK, 0, STACK
        LOCFRAME PSTACK, 0, STACK
        LOCFRAME XSTACK, 16, STACK
        LOCFRAME IOVERLAY, 0, STATIC
        LOCFRAME DOVERLAY, 0, STATIC
        ARGFRAME ISTACK, 0, STACK
        ARGFRAME PSTACK, 0, STACK
        ARGFRAME XSTACK, 16, STACK
        ARGFRAME IOVERLAY, 0, STATIC
        ARGFRAME DOVERLAY, 0, STATIC
        FUNCALL bdb_RepUpdateMarkBindings, bdb_RepMarkHasBindingInEndpointClusterArray
        LOCFRAME ISTACK, 0, STACK
        LOCFRAME PSTACK, 0, STACK
        LOCFRAME XSTACK, 16, STACK
        LOCFRAME IOVERLAY, 0, STATIC
        LOCFRAME DOVERLAY, 0, STATIC
        ARGFRAME ISTACK, 0, STACK
        ARGFRAME PSTACK, 0, STACK
        ARGFRAME XSTACK, 16, STACK
        ARGFRAME IOVERLAY, 0, STATIC
        ARGFRAME DOVERLAY, 0, STATIC
        FUNCALL bdb_RepUpdateMarkBindings, osal_get_timeoutEx
        LOCFRAME ISTACK, 0, STACK
        LOCFRAME PSTACK, 0, STACK
        LOCFRAME XSTACK, 16, STACK
        LOCFRAME IOVERLAY, 0, STATIC
        LOCFRAME DOVERLAY, 0, STATIC
        ARGFRAME ISTACK, 0, STACK
        ARGFRAME PSTACK, 0, STACK
        ARGFRAME XSTACK, 16, STACK
        ARGFRAME IOVERLAY, 0, STATIC
        ARGFRAME DOVERLAY, 0, STATIC
        FUNCALL bdb_RepUpdateMarkBindings, osal_stop_timerEx
        LOCFRAME ISTACK, 0, STACK
        LOCFRAME PSTACK, 0, STACK
        LOCFRAME XSTACK, 16, STACK
        LOCFRAME IOVERLAY, 0, STATIC
        LOCFRAME DOVERLAY, 0, STATIC
        ARGFRAME ISTACK, 0, STACK
        ARGFRAME PSTACK, 0, STACK
        ARGFRAME XSTACK, 16, STACK
        ARGFRAME IOVERLAY, 0, STATIC
        ARGFRAME DOVERLAY, 0, STATIC
        FUNCALL bdb_RepUpdateMarkBindings, bdb_RepStartReporting
        LOCFRAME ISTACK, 0, STACK
        LOCFRAME PSTACK, 0, STACK
        LOCFRAME XSTACK, 16, STACK
        LOCFRAME IOVERLAY, 0, STATIC
        LOCFRAME DOVERLAY, 0, STATIC
        ARGFRAME ISTACK, 0, STACK
        ARGFRAME PSTACK, 0, STACK
        ARGFRAME XSTACK, 16, STACK
        ARGFRAME IOVERLAY, 0, STATIC
        ARGFRAME DOVERLAY, 0, STATIC
        REQUIRE ?V0
        REQUIRE ?V1
        REQUIRE ?V2
        REQUIRE ?V3
        REQUIRE ?V4
        REQUIRE ?V5
        REQUIRE ?V6
        REQUIRE ?V7
        MOV       A,#-0x10
        LCALL     ?BANKED_ENTER_XDATA
          CFI DPH0 load(1, XDATA, add(CFA_XSP16, literal(-1)))
          CFI DPL0 load(1, XDATA, add(CFA_XSP16, literal(-2)))
          CFI ?BRET_EXT load(1, XDATA, add(CFA_XSP16, literal(-3)))
          CFI ?RET_HIGH load(1, XDATA, add(CFA_XSP16, literal(-4)))
          CFI ?RET_LOW load(1, XDATA, add(CFA_XSP16, literal(-5)))
          CFI R7 load(1, XDATA, add(CFA_XSP16, literal(-6)))
          CFI V7 load(1, XDATA, add(CFA_XSP16, literal(-7)))
          CFI V6 load(1, XDATA, add(CFA_XSP16, literal(-8)))
          CFI V5 load(1, XDATA, add(CFA_XSP16, literal(-9)))
          CFI V4 load(1, XDATA, add(CFA_XSP16, literal(-10)))
          CFI V3 load(1, XDATA, add(CFA_XSP16, literal(-11)))
          CFI V2 load(1, XDATA, add(CFA_XSP16, literal(-12)))
          CFI V1 load(1, XDATA, add(CFA_XSP16, literal(-13)))
          CFI V0 load(1, XDATA, add(CFA_XSP16, literal(-14)))
          CFI VB load(1, XDATA, add(CFA_XSP16, literal(-15)))
          CFI R6 load(1, XDATA, add(CFA_XSP16, literal(-16)))
          CFI CFA_SP SP+0
          CFI CFA_XSP16 add(XSP16, 16)
        ; Saved register size: 16
        ; Auto size: 0
//  765   uint8 numMarkedEntries = 0;
        MOV       ?V4,#0x0
//  766   uint8 i;
//  767   for(i=0; i<bdb_reportingClusterEndpointArrayCount; i++)
        MOV       ?V5,#0x0
        SJMP      ??bdb_RepUpdateMarkBindings_0
//  768   {
//  769     BindingEntry_t* bEntry = bindFind( bdb_reportingClusterEndpointArray[i].endpoint,bdb_reportingClusterEndpointArray[i].cluster,0 ); 
//  770     if(bEntry !=  NULL)
//  771     { //Found a binding with the given cluster and endpoint, mark the Endpoint-cluster entry (this activates reporting)
//  772       if( FLAGS_CHECKFLAG( bdb_reportingClusterEndpointArray[i].flags, BDBREPORTING_HASBINDING_FLAG_MASK ) == BDBREPORTING_FALSE )
//  773       {
//  774         bdb_RepMarkHasBindingInEndpointClusterArray( bdb_reportingClusterEndpointArray[i].endpoint, bdb_reportingClusterEndpointArray[i].cluster, BDBREPORTING_FALSE, BDBREPORTING_IGNORE );
//  775       }
//  776       numMarkedEntries++;
//  777     }
//  778     else
//  779     {
//  780       if( FLAGS_CHECKFLAG( bdb_reportingClusterEndpointArray[i].flags, BDBREPORTING_HASBINDING_FLAG_MASK) == BDBREPORTING_TRUE )
??bdb_RepUpdateMarkBindings_1:
        MOVX      A,@DPTR
        MOV       C,0xE0 /* A   */.0
        JNC       ??bdb_RepUpdateMarkBindings_2
//  781       {
//  782         bdb_RepMarkHasBindingInEndpointClusterArray( bdb_reportingClusterEndpointArray[i].endpoint, bdb_reportingClusterEndpointArray[i].cluster, BDBREPORTING_TRUE, BDBREPORTING_IGNORE );
        ; Setup parameters for call to function bdb_RepMarkHasBindingInEndpointClusterArray
        MOV       R5,#-0x1
        MOV       R4,#0x1
        LCALL     ?Subroutine29 & 0xFFFF
//  783       }
//  784     }
??CrossCallReturnLabel_126:
        LCALL     `??bdb_RepMarkHasBindingInEndpointClusterArray::`; Banked call to: bdb_RepMarkHasBindingInEndpointClusterArray
??bdb_RepUpdateMarkBindings_2:
        INC       ?V5
??bdb_RepUpdateMarkBindings_0:
        MOV       DPTR,#bdb_reportingClusterEndpointArrayCount
        MOVX      A,@DPTR
        MOV       R0,A
        MOV       A,?V5
        CLR       C
        SUBB      A,R0
        JNC       ??bdb_RepUpdateMarkBindings_3
        MOV       A,?V5
        MOV       B,#0xd
        MUL       AB
        MOV       R0,A
        MOV       R1,B
        MOV       A,#bdb_reportingClusterEndpointArray & 0xff
        ADD       A,R0
        MOV       ?V2,A
        MOV       A,#(bdb_reportingClusterEndpointArray >> 8) & 0xff
        ADDC      A,R1
        MOV       ?V3,A
        MOV       DPL,?V2
        MOV       DPH,A
        INC       DPTR
        MOV       R6,DPL
        MOV       R7,DPH
        MOV       A,?V2
        ADD       A,#0x2
        MOV       ?V0,A
        CLR       A
        ADDC      A,?V3
        MOV       ?V1,A
        ; Setup parameters for call to function bindFind
        MOV       R4,#0x0
        MOV       DPL,?V0
        MOV       DPH,A
        LCALL     ??Subroutine79_0 & 0xFFFF
??CrossCallReturnLabel_125:
        LCALL     `??bindFind::?relay`; Banked call to: bindFind
        MOV       ?V7,R3
        MOV       A,R2
        ORL       A,?V7
        MOV       DPL,?V2
        MOV       DPH,?V3
        JZ        ??bdb_RepUpdateMarkBindings_1
        MOVX      A,@DPTR
        MOV       C,0xE0 /* A   */.0
        JC        ??bdb_RepUpdateMarkBindings_4
        ; Setup parameters for call to function bdb_RepMarkHasBindingInEndpointClusterArray
        MOV       R5,#-0x1
        MOV       R4,#0x0
        LCALL     ?Subroutine29 & 0xFFFF
??CrossCallReturnLabel_127:
        LCALL     `??bdb_RepMarkHasBindingInEndpointClusterArray::`; Banked call to: bdb_RepMarkHasBindingInEndpointClusterArray
??bdb_RepUpdateMarkBindings_4:
        INC       ?V4
        SJMP      ??bdb_RepUpdateMarkBindings_2
//  785   }
//  786   
//  787   //Checking is bdb_reporting timer is active
//  788   if( osal_get_timeoutEx( bdb_TaskID, BDB_REPORT_TIMEOUT) > 0 )
??bdb_RepUpdateMarkBindings_3:
        ; Setup parameters for call to function osal_get_timeoutEx
        MOV       R2,#-0x80
        MOV       R3,#0x0
        MOV       DPTR,#bdb_TaskID
        MOVX      A,@DPTR
        MOV       R1,A
        LCALL     `??osal_get_timeoutEx::?relay`; Banked call to: osal_get_timeoutEx
        MOV       A,R2
        ORL       A,R3
        ORL       A,R4
        ORL       A,R5
        JZ        ??bdb_RepUpdateMarkBindings_5
//  789   {
//  790     //If timer is active
//  791     if( numMarkedEntries == 0 ) //No entries
        MOV       A,?V4
        JNZ       ??bdb_RepUpdateMarkBindings_6
//  792     {
//  793       //Stop Timer
//  794       osal_stop_timerEx( bdb_TaskID, BDB_REPORT_TIMEOUT );
        ; Setup parameters for call to function osal_stop_timerEx
        MOV       R2,#-0x80
        MOV       R3,#0x0
        MOV       DPTR,#bdb_TaskID
        MOVX      A,@DPTR
        MOV       R1,A
        LCALL     `??osal_stop_timerEx::?relay`; Banked call to: osal_stop_timerEx
        SJMP      ??bdb_RepUpdateMarkBindings_6
//  795     }
//  796   }
//  797   else
//  798   {
//  799     if( numMarkedEntries > 0 )
??bdb_RepUpdateMarkBindings_5:
        MOV       A,?V4
        JZ        ??bdb_RepUpdateMarkBindings_6
//  800     {
//  801       //Start timer
//  802       bdb_RepStartReporting( );      
        ; Setup parameters for call to function bdb_RepStartReporting
        LCALL     `??bdb_RepStartReporting::?relay`; Banked call to: bdb_RepStartReporting
//  803     }
//  804   }
//  805 }
??bdb_RepUpdateMarkBindings_6:
        LJMP      ?Subroutine5 & 0xFFFF
          CFI EndBlock cfiBlock63

        RSEG BANKED_CODE:HUGECODE:NOROOT(0)
?Subroutine29:
          CFI Block cfiCond64 Using cfiCommon0
          CFI Function bdb_RepUpdateMarkBindings
          CFI Conditional ??CrossCallReturnLabel_126
          CFI R6 load(1, XDATA, add(CFA_XSP16, literal(-16)))
          CFI VB load(1, XDATA, add(CFA_XSP16, literal(-15)))
          CFI V0 load(1, XDATA, add(CFA_XSP16, literal(-14)))
          CFI V1 load(1, XDATA, add(CFA_XSP16, literal(-13)))
          CFI V2 load(1, XDATA, add(CFA_XSP16, literal(-12)))
          CFI V3 load(1, XDATA, add(CFA_XSP16, literal(-11)))
          CFI V4 load(1, XDATA, add(CFA_XSP16, literal(-10)))
          CFI V5 load(1, XDATA, add(CFA_XSP16, literal(-9)))
          CFI V6 load(1, XDATA, add(CFA_XSP16, literal(-8)))
          CFI V7 load(1, XDATA, add(CFA_XSP16, literal(-7)))
          CFI R7 load(1, XDATA, add(CFA_XSP16, literal(-6)))
          CFI ?RET_LOW load(1, XDATA, add(CFA_XSP16, literal(-5)))
          CFI ?RET_HIGH load(1, XDATA, add(CFA_XSP16, literal(-4)))
          CFI ?BRET_EXT load(1, XDATA, add(CFA_XSP16, literal(-3)))
          CFI DPL0 load(1, XDATA, add(CFA_XSP16, literal(-2)))
          CFI DPH0 load(1, XDATA, add(CFA_XSP16, literal(-1)))
          CFI CFA_SP SP+-2
          CFI CFA_XSP16 add(XSP16, 16)
          CFI Block cfiCond65 Using cfiCommon0
          CFI (cfiCond65) Function bdb_RepUpdateMarkBindings
          CFI (cfiCond65) Conditional ??CrossCallReturnLabel_127
          CFI (cfiCond65) R6 load(1, XDATA, add(CFA_XSP16, literal(-16)))
          CFI (cfiCond65) VB load(1, XDATA, add(CFA_XSP16, literal(-15)))
          CFI (cfiCond65) V0 load(1, XDATA, add(CFA_XSP16, literal(-14)))
          CFI (cfiCond65) V1 load(1, XDATA, add(CFA_XSP16, literal(-13)))
          CFI (cfiCond65) V2 load(1, XDATA, add(CFA_XSP16, literal(-12)))
          CFI (cfiCond65) V3 load(1, XDATA, add(CFA_XSP16, literal(-11)))
          CFI (cfiCond65) V4 load(1, XDATA, add(CFA_XSP16, literal(-10)))
          CFI (cfiCond65) V5 load(1, XDATA, add(CFA_XSP16, literal(-9)))
          CFI (cfiCond65) V6 load(1, XDATA, add(CFA_XSP16, literal(-8)))
          CFI (cfiCond65) V7 load(1, XDATA, add(CFA_XSP16, literal(-7)))
          CFI (cfiCond65) R7 load(1, XDATA, add(CFA_XSP16, literal(-6)))
          CFI (cfiCond65) ?RET_LOW load(1, XDATA, add(CFA_XSP16, literal(-5)))
          CFI (cfiCond65) ?RET_HIGH load(1, XDATA, add(CFA_XSP16, literal(-4)))
          CFI (cfiCond65) ?BRET_EXT load(1, XDATA, add(CFA_XSP16, literal(-3)))
          CFI (cfiCond65) DPL0 load(1, XDATA, add(CFA_XSP16, literal(-2)))
          CFI (cfiCond65) DPH0 load(1, XDATA, add(CFA_XSP16, literal(-1)))
          CFI (cfiCond65) CFA_SP SP+-2
          CFI (cfiCond65) CFA_XSP16 add(XSP16, 16)
          CFI Block cfiPicker66 Using cfiCommon1
          CFI (cfiPicker66) NoFunction
          CFI (cfiPicker66) Picker
        MOV       DPL,?V0
        MOV       DPH,?V1
          CFI EndBlock cfiCond64
          CFI EndBlock cfiCond65
          CFI EndBlock cfiPicker66
        REQUIRE ??Subroutine79_0
        ; // Fall through to label ??Subroutine79_0

        RSEG BANKED_CODE:HUGECODE:NOROOT(0)
??Subroutine79_0:
          CFI Block cfiCond67 Using cfiCommon0
          CFI Function bdb_RepUpdateMarkBindings
          CFI Conditional ??CrossCallReturnLabel_125
          CFI R6 load(1, XDATA, add(CFA_XSP16, literal(-16)))
          CFI VB load(1, XDATA, add(CFA_XSP16, literal(-15)))
          CFI V0 load(1, XDATA, add(CFA_XSP16, literal(-14)))
          CFI V1 load(1, XDATA, add(CFA_XSP16, literal(-13)))
          CFI V2 load(1, XDATA, add(CFA_XSP16, literal(-12)))
          CFI V3 load(1, XDATA, add(CFA_XSP16, literal(-11)))
          CFI V4 load(1, XDATA, add(CFA_XSP16, literal(-10)))
          CFI V5 load(1, XDATA, add(CFA_XSP16, literal(-9)))
          CFI V6 load(1, XDATA, add(CFA_XSP16, literal(-8)))
          CFI V7 load(1, XDATA, add(CFA_XSP16, literal(-7)))
          CFI R7 load(1, XDATA, add(CFA_XSP16, literal(-6)))
          CFI ?RET_LOW load(1, XDATA, add(CFA_XSP16, literal(-5)))
          CFI ?RET_HIGH load(1, XDATA, add(CFA_XSP16, literal(-4)))
          CFI ?BRET_EXT load(1, XDATA, add(CFA_XSP16, literal(-3)))
          CFI DPL0 load(1, XDATA, add(CFA_XSP16, literal(-2)))
          CFI DPH0 load(1, XDATA, add(CFA_XSP16, literal(-1)))
          CFI CFA_SP SP+-2
          CFI CFA_XSP16 add(XSP16, 16)
          CFI Block cfiCond68 Using cfiCommon0
          CFI (cfiCond68) Function bdb_RepUpdateMarkBindings
          CFI (cfiCond68) Conditional ??CrossCallReturnLabel_126
          CFI (cfiCond68) R6 load(1, XDATA, add(CFA_XSP16, literal(-16)))
          CFI (cfiCond68) VB load(1, XDATA, add(CFA_XSP16, literal(-15)))
          CFI (cfiCond68) V0 load(1, XDATA, add(CFA_XSP16, literal(-14)))
          CFI (cfiCond68) V1 load(1, XDATA, add(CFA_XSP16, literal(-13)))
          CFI (cfiCond68) V2 load(1, XDATA, add(CFA_XSP16, literal(-12)))
          CFI (cfiCond68) V3 load(1, XDATA, add(CFA_XSP16, literal(-11)))
          CFI (cfiCond68) V4 load(1, XDATA, add(CFA_XSP16, literal(-10)))
          CFI (cfiCond68) V5 load(1, XDATA, add(CFA_XSP16, literal(-9)))
          CFI (cfiCond68) V6 load(1, XDATA, add(CFA_XSP16, literal(-8)))
          CFI (cfiCond68) V7 load(1, XDATA, add(CFA_XSP16, literal(-7)))
          CFI (cfiCond68) R7 load(1, XDATA, add(CFA_XSP16, literal(-6)))
          CFI (cfiCond68) ?RET_LOW load(1, XDATA, add(CFA_XSP16, literal(-5)))
          CFI (cfiCond68) ?RET_HIGH load(1, XDATA, add(CFA_XSP16, literal(-4)))
          CFI (cfiCond68) ?BRET_EXT load(1, XDATA, add(CFA_XSP16, literal(-3)))
          CFI (cfiCond68) DPL0 load(1, XDATA, add(CFA_XSP16, literal(-2)))
          CFI (cfiCond68) DPH0 load(1, XDATA, add(CFA_XSP16, literal(-1)))
          CFI (cfiCond68) CFA_SP SP+-2
          CFI (cfiCond68) CFA_XSP16 add(XSP16, 16)
          CFI Block cfiCond69 Using cfiCommon0
          CFI (cfiCond69) Function bdb_RepUpdateMarkBindings
          CFI (cfiCond69) Conditional ??CrossCallReturnLabel_127
          CFI (cfiCond69) R6 load(1, XDATA, add(CFA_XSP16, literal(-16)))
          CFI (cfiCond69) VB load(1, XDATA, add(CFA_XSP16, literal(-15)))
          CFI (cfiCond69) V0 load(1, XDATA, add(CFA_XSP16, literal(-14)))
          CFI (cfiCond69) V1 load(1, XDATA, add(CFA_XSP16, literal(-13)))
          CFI (cfiCond69) V2 load(1, XDATA, add(CFA_XSP16, literal(-12)))
          CFI (cfiCond69) V3 load(1, XDATA, add(CFA_XSP16, literal(-11)))
          CFI (cfiCond69) V4 load(1, XDATA, add(CFA_XSP16, literal(-10)))
          CFI (cfiCond69) V5 load(1, XDATA, add(CFA_XSP16, literal(-9)))
          CFI (cfiCond69) V6 load(1, XDATA, add(CFA_XSP16, literal(-8)))
          CFI (cfiCond69) V7 load(1, XDATA, add(CFA_XSP16, literal(-7)))
          CFI (cfiCond69) R7 load(1, XDATA, add(CFA_XSP16, literal(-6)))
          CFI (cfiCond69) ?RET_LOW load(1, XDATA, add(CFA_XSP16, literal(-5)))
          CFI (cfiCond69) ?RET_HIGH load(1, XDATA, add(CFA_XSP16, literal(-4)))
          CFI (cfiCond69) ?BRET_EXT load(1, XDATA, add(CFA_XSP16, literal(-3)))
          CFI (cfiCond69) DPL0 load(1, XDATA, add(CFA_XSP16, literal(-2)))
          CFI (cfiCond69) DPH0 load(1, XDATA, add(CFA_XSP16, literal(-1)))
          CFI (cfiCond69) CFA_SP SP+-2
          CFI (cfiCond69) CFA_XSP16 add(XSP16, 16)
          CFI Block cfiPicker70 Using cfiCommon1
          CFI (cfiPicker70) NoFunction
          CFI (cfiPicker70) Picker
        LCALL     ??Subroutine98_0 & 0xFFFF
??CrossCallReturnLabel_200:
        MOV       DPL,R6
        MOV       DPH,R7
        MOVX      A,@DPTR
        MOV       R1,A
        RET
          CFI EndBlock cfiCond67
          CFI EndBlock cfiCond68
          CFI EndBlock cfiCond69
          CFI EndBlock cfiPicker70
//  806 
//  807 /*********************************************************************
//  808  * LOCAL FUNCTIONS DEFINITIONS
//  809  */
//  810 
//  811 /*
//  812 * Begin: Single linked list for attributes in a cluster-endpoint live entry methods 
//  813 */
//  814 
//  815 /*********************************************************************
//  816  * @fn      bdb_InitReportAttrLiveValues
//  817  *
//  818  * @brief   Set the bdbReportAttrLive_t fields to initiation values
//  819  *
//  820  * @param   item - Data to initiate
//  821  *
//  822  * @return 
//  823  */

