///////////////////////////////////////////////////////////////////////////////
//
// IAR C/C++ Compiler V10.10.1.4655 for 8051              04/Feb/2026  18:19:26
// Copyright 2004-2017 IAR Systems AB.
// Standalone license - IAR Embedded Workbench for 8051
//
//    Core               =  plain
//    Code model         =  banked
//    Data model         =  large
//    Calling convention =  xdata reentrant
//    Constant location  =  data_rom
//    Dptr setup         =  1,16
//                          
//    Source file        =  
//        D:\project\Z-Stack
//        3.0.2\Projects\zstack\HomeAutomation\ZEM\Source\zcl_ZEM.c
//    Command line       =  
//        -f C:\Users\KLF\AppData\Local\Temp\EWC3CB.tmp ("D:\project\Z-Stack
//        3.0.2\Projects\zstack\HomeAutomation\ZEM\Source\zcl_ZEM.c" -D
//        BDB_REPORTING -D SECURE=1 -D TC_LINKKEY_JOIN -D NV_INIT -D NV_RESTORE
//        -D xZTOOL_P1 -D xMT_TASK -D xMT_APP_FUNC -D xMT_SYS_FUNC -D
//        xMT_ZDO_FUNC -D xMT_APP_CNF_FUNC -D LCD_SUPPORTED=DEBUG -D
//        MULTICAST_ENABLED=FALSE -D ZCL_READ -D ZCL_DISCOVER -D ZCL_WRITE -D
//        ZCL_BASIC -D ZCL_IDENTIFY -D ZCL_TEMPERATURE_MEASUREMENT -D
//        ZCL_GROUPS -D HAL_LED=TRUE -D HAL_UART=TRUE -D INT_HEAP_LEN=2048 -lC
//        "D:\project\Z-Stack
//        3.0.2\Projects\zstack\HomeAutomation\ZEM\CC2530DB\CoordinatorEB\List"
//        -lA "D:\project\Z-Stack
//        3.0.2\Projects\zstack\HomeAutomation\ZEM\CC2530DB\CoordinatorEB\List"
//        --diag_suppress Pe001,Pa010 -o "D:\project\Z-Stack
//        3.0.2\Projects\zstack\HomeAutomation\ZEM\CC2530DB\CoordinatorEB\Obj"
//        -e --debug --core=plain --dptr=16,1 --data_model=large
//        --code_model=banked --calling_convention=xdata_reentrant
//        --place_constants=data_rom --nr_virtual_regs 16 -f
//        "D:\project\Z-Stack
//        3.0.2\Projects\zstack\HomeAutomation\ZEM\CC2530DB\..\..\..\Tools\CC2530DB\f8wCoord.cfg"
//        (-DCPU32MHZ -DROOT=__near_func -DMAC_CFG_APP_PENDING_QUEUE=TRUE
//        -DMAC_CFG_TX_DATA_MAX=5 -DMAC_CFG_TX_MAX=8 -DMAC_CFG_RX_MAX=5
//        -DZDO_COORDINATOR -DRTR_NWK) -f "D:\project\Z-Stack
//        3.0.2\Projects\zstack\HomeAutomation\ZEM\CC2530DB\..\..\..\Tools\CC2530DB\f8wConfig.cfg"
//        (-DZIGBEEPRO -DSECURE=1 -DZG_SECURE_DYNAMIC=0 -DREFLECTOR
//        -DDEFAULT_CHANLIST=0x00100000 -DZDAPP_CONFIG_PAN_ID=0x1234
//        -DNWK_START_DELAY=100 -DEXTENDED_JOINING_RANDOM_MASK=0x007F
//        -DBEACON_REQUEST_DELAY=100 -DBEACON_REQ_DELAY_MASK=0x00FF
//        -DLINK_STATUS_JITTER_MASK=0x007F -DROUTE_EXPIRY_TIME=30
//        -DAPSC_ACK_WAIT_DURATION_POLLED=3000 -DNWK_INDIRECT_MSG_TIMEOUT=7
//        -DMAX_RREQ_ENTRIES=8 -DAPSC_MAX_FRAME_RETRIES=3
//        -DNWK_MAX_DATA_RETRIES=2 -DMAX_POLL_FAILURE_RETRIES=2 -DMAX_BCAST=9
//        -DAPS_MAX_GROUPS=16 -DMAX_RTG_ENTRIES=40 -DNWK_MAX_BINDING_ENTRIES=4
//        -DMAX_BINDING_CLUSTER_IDS=4 -DDEFAULT_KEY={0}
//        -DMAC_MAX_FRAME_SIZE=116 -DZDNWKMGR_MIN_TRANSMISSIONS=20
//        "-DCONST=const __code" -DGENERIC=__generic -DRFD_RCVC_ALWAYS_ON=FALSE
//        -DPOLL_RATE=1000 -DQUEUED_POLL_RATE=100 -DRESPONSE_POLL_RATE=100
//        -DREJOIN_POLL_RATE=440 -DREJOIN_BACKOFF=900000 -DREJOIN_SCAN=900000
//        -DENABLE_LED4_DISABLE_S1) -f "D:\project\Z-Stack
//        3.0.2\Projects\zstack\HomeAutomation\ZEM\CC2530DB\..\..\..\Tools\CC2530DB\f8wZCL.cfg"
//        -I "D:\project\Z-Stack
//        3.0.2\Projects\zstack\HomeAutomation\ZEM\CC2530DB\" -I
//        "D:\project\Z-Stack
//        3.0.2\Projects\zstack\HomeAutomation\ZEM\CC2530DB\..\Source\" -I
//        "D:\project\Z-Stack
//        3.0.2\Projects\zstack\HomeAutomation\ZEM\CC2530DB\..\..\Source\" -I
//        "D:\project\Z-Stack
//        3.0.2\Projects\zstack\HomeAutomation\ZEM\CC2530DB\..\..\..\ZMain\TI2530DB\"
//        -I "D:\project\Z-Stack
//        3.0.2\Projects\zstack\HomeAutomation\ZEM\CC2530DB\..\..\..\..\..\Components\hal\include\"
//        -I "D:\project\Z-Stack
//        3.0.2\Projects\zstack\HomeAutomation\ZEM\CC2530DB\..\..\..\..\..\Components\hal\target\CC2530EB\"
//        -I "D:\project\Z-Stack
//        3.0.2\Projects\zstack\HomeAutomation\ZEM\CC2530DB\..\..\..\..\..\Components\mac\include\"
//        -I "D:\project\Z-Stack
//        3.0.2\Projects\zstack\HomeAutomation\ZEM\CC2530DB\..\..\..\..\..\Components\mac\high_level\"
//        -I "D:\project\Z-Stack
//        3.0.2\Projects\zstack\HomeAutomation\ZEM\CC2530DB\..\..\..\..\..\Components\mac\low_level\srf04\"
//        -I "D:\project\Z-Stack
//        3.0.2\Projects\zstack\HomeAutomation\ZEM\CC2530DB\..\..\..\..\..\Components\mac\low_level\srf04\single_chip\"
//        -I "D:\project\Z-Stack
//        3.0.2\Projects\zstack\HomeAutomation\ZEM\CC2530DB\..\..\..\..\..\Components\mt\"
//        -I "D:\project\Z-Stack
//        3.0.2\Projects\zstack\HomeAutomation\ZEM\CC2530DB\..\..\..\..\..\Components\osal\include\"
//        -I "D:\project\Z-Stack
//        3.0.2\Projects\zstack\HomeAutomation\ZEM\CC2530DB\..\..\..\..\..\Components\services\saddr\"
//        -I "D:\project\Z-Stack
//        3.0.2\Projects\zstack\HomeAutomation\ZEM\CC2530DB\..\..\..\..\..\Components\services\sdata\"
//        -I "D:\project\Z-Stack
//        3.0.2\Projects\zstack\HomeAutomation\ZEM\CC2530DB\..\..\..\..\..\Components\stack\af\"
//        -I "D:\project\Z-Stack
//        3.0.2\Projects\zstack\HomeAutomation\ZEM\CC2530DB\..\..\..\..\..\Components\stack\bdb\"
//        -I "D:\project\Z-Stack
//        3.0.2\Projects\zstack\HomeAutomation\ZEM\CC2530DB\..\..\..\..\..\Components\stack\gp\"
//        -I "D:\project\Z-Stack
//        3.0.2\Projects\zstack\HomeAutomation\ZEM\CC2530DB\..\..\..\..\..\Components\stack\nwk\"
//        -I "D:\project\Z-Stack
//        3.0.2\Projects\zstack\HomeAutomation\ZEM\CC2530DB\..\..\..\..\..\Components\stack\sapi\"
//        -I "D:\project\Z-Stack
//        3.0.2\Projects\zstack\HomeAutomation\ZEM\CC2530DB\..\..\..\..\..\Components\stack\sec\"
//        -I "D:\project\Z-Stack
//        3.0.2\Projects\zstack\HomeAutomation\ZEM\CC2530DB\..\..\..\..\..\Components\stack\sys\"
//        -I "D:\project\Z-Stack
//        3.0.2\Projects\zstack\HomeAutomation\ZEM\CC2530DB\..\..\..\..\..\Components\stack\zcl\"
//        -I "D:\project\Z-Stack
//        3.0.2\Projects\zstack\HomeAutomation\ZEM\CC2530DB\..\..\..\..\..\Components\stack\zdo\"
//        -I "D:\project\Z-Stack
//        3.0.2\Projects\zstack\HomeAutomation\ZEM\CC2530DB\..\..\..\..\..\Components\zmac\"
//        -I "D:\project\Z-Stack
//        3.0.2\Projects\zstack\HomeAutomation\ZEM\CC2530DB\..\..\..\..\..\Components\zmac\f8w\"
//        -Ohz --require_prototypes)
//    Locale             =  Chinese (Simplified)_China.936
//    List file          =  
//        D:\project\Z-Stack
//        3.0.2\Projects\zstack\HomeAutomation\ZEM\CC2530DB\CoordinatorEB\List\zcl_ZEM.s51
//
///////////////////////////////////////////////////////////////////////////////

        NAME zcl_ZEM

        RTMODEL "__SystemLibrary", "CLib"
        RTMODEL "__calling_convention", "xdata_reentrant"
        RTMODEL "__code_model", "banked"
        RTMODEL "__core", "plain"
        RTMODEL "__data_model", "large"
        RTMODEL "__dptr_size", "16"
        RTMODEL "__extended_stack", "disabled"
        RTMODEL "__location_for_constants", "data"
        RTMODEL "__number_of_dptrs", "1"
        RTMODEL "__register_banks", "*"
        RTMODEL "__rt_version", "1"

        RSEG DOVERLAY:DATA:NOROOT(0)
        RSEG IOVERLAY:IDATA:NOROOT(0)
        RSEG ISTACK:IDATA:NOROOT(0)
        RSEG PSTACK:XDATA:NOROOT(0)
        RSEG XSTACK:XDATA:NOROOT(0)

        EXTERN ?V0
        EXTERN ?V1
        EXTERN ?V2
        EXTERN ?V3
        EXTERN ?V4
        EXTERN ?V5
        EXTERN ?V6
        EXTERN ?V8
        EXTERN ?V9
        EXTERN ?V10
        EXTERN ?ALLOC_XSTACK8
        EXTERN ?BANKED_ENTER_XDATA
        EXTERN ?BANKED_LEAVE_XDATA
        EXTERN ?BDISPATCH
        EXTERN ?BRET
        EXTERN ?DEALLOC_XSTACK8
        EXTERN ?MOVE_LONG8_XDATA_XDATA
        EXTERN ?PUSH_XSTACK8_X_FOUR
        EXTERN ?PUSH_XSTACK_I_ONE
        EXTERN ?PUSH_XSTACK_I_THREE
        EXTERN ?PUSH_XSTACK_I_TWO
        EXTERN ?US_SWITCH_DENSE
        EXTERN ?XSP
        EXTERN ?XSTACK_DISP0_8
        EXTERN ?XSTACK_DISP100_8
        EXTERN ?XSTACK_DISP101_8
        EXTERN ?XSTACK_DISP102_8
        EXTERN __INIT_XDATA_I
        EXTERN __INIT_XDATA_Z

        FUNCTION `??zclSampleApp_BatteryWarningCB::?relay`,0203H
        FUNCTION `??zclZEM_AF_RxProc::?relay`,0203H
        FUNCTION `??zclZEM_BasicResetCB::?relay`,0203H
        PUBLIC `??zclZEM_Init::?relay`
        FUNCTION `??zclZEM_Init::?relay`,0203H
        FUNCTION `??zclZEM_ProcessCommissioningStatus::?relay`,0203H
        FUNCTION `??zclZEM_ProcessInDiscCmdsRspCmd::?relay`,0203H
        FUNCTION `??zclZEM_ProcessIncomingMsg::?relay`,0203H
        FUNCTION `??zclZEM_ReadAndSendMAC::?relay`,0203H
        FUNCTION `??zclZEM_UartCB::?relay`,0203H
        PUBLIC `??zclZEM_event_loop::?relay`
        FUNCTION `??zclZEM_event_loop::?relay`,0203H
        PUBWEAK P1DIR
        PUBWEAK P1SEL
        PUBWEAK PERCFG
        PUBWEAK __Constant_2710
        PUBWEAK __Constant_3e8
        PUBWEAK __Constant_bb8
        PUBLIC reportableChange
        FUNCTION zclSampleApp_BatteryWarningCB,0603H
        ARGFRAME XSTACK, 0, STACK
        FUNCTION zclZEM_AF_RxProc,0a1203H
        ARGFRAME XSTACK, 38, STACK
        ARGFRAME IOVERLAY, 0, STATIC
        ARGFRAME DOVERLAY, 0, STATIC
        LOCFRAME ISTACK, 1, STACK
        LOCFRAME XSTACK, 86, STACK
        FUNCTION zclZEM_BasicResetCB,021603H
        ARGFRAME XSTACK, 0, STACK
        LOCFRAME ISTACK, 2, STACK
        PUBLIC zclZEM_Init
        FUNCTION zclZEM_Init,0a1203H
        ARGFRAME XSTACK, 0, STACK
        LOCFRAME XSTACK, 45, STACK
        PUBLIC zclZEM_NwkState
        FUNCTION zclZEM_ProcessCommissioningStatus,0a1603H
        ARGFRAME XSTACK, 0, STACK
        LOCFRAME XSTACK, 179, STACK
        FUNCTION zclZEM_ProcessInDiscCmdsRspCmd,0203H
        ARGFRAME XSTACK, 9, STACK
        ARGFRAME IOVERLAY, 0, STATIC
        ARGFRAME DOVERLAY, 0, STATIC
        LOCFRAME ISTACK, 2, STACK
        FUNCTION zclZEM_ProcessIncomingMsg,021203H
        ARGFRAME XSTACK, 38, STACK
        ARGFRAME IOVERLAY, 0, STATIC
        ARGFRAME DOVERLAY, 0, STATIC
        LOCFRAME XSTACK, 9, STACK
        FUNCTION zclZEM_ReadAndSendMAC,0a1203H
        ARGFRAME XSTACK, 39, STACK
        ARGFRAME IOVERLAY, 0, STATIC
        ARGFRAME DOVERLAY, 0, STATIC
        LOCFRAME ISTACK, 1, STACK
        LOCFRAME XSTACK, 71, STACK
        PUBLIC zclZEM_TaskID
        FUNCTION zclZEM_UartCB,021603H
        ARGFRAME XSTACK, 0, STACK
        LOCFRAME XSTACK, 9, STACK
        PUBLIC zclZEM_event_loop
        FUNCTION zclZEM_event_loop,0a1203H
        ARGFRAME XSTACK, 0, STACK
        LOCFRAME XSTACK, 47, STACK
        
          CFI Names cfiNames0
          CFI StackFrame CFA_SP SP IDATA
          CFI StackFrame CFA_PSP16 PSP16 XDATA
          CFI StackFrame CFA_XSP16 XSP16 XDATA
          CFI StaticOverlayFrame CFA_IOVERLAY IOVERLAY
          CFI StaticOverlayFrame CFA_DOVERLAY DOVERLAY
          CFI Resource `PSW.CY`:1, `B.BR0`:1, `B.BR1`:1, `B.BR2`:1, `B.BR3`:1
          CFI Resource `B.BR4`:1, `B.BR5`:1, `B.BR6`:1, `B.BR7`:1, `VB.BR8`:1
          CFI Resource `VB.BR9`:1, `VB.BR10`:1, `VB.BR11`:1, `VB.BR12`:1
          CFI Resource `VB.BR13`:1, `VB.BR14`:1, `VB.BR15`:1, VB:8, B:8, A:8
          CFI Resource PSW:8, DPL0:8, DPH0:8, R0:8, R1:8, R2:8, R3:8, R4:8, R5:8
          CFI Resource R6:8, R7:8, V0:8, V1:8, V2:8, V3:8, V4:8, V5:8, V6:8, V7:8
          CFI Resource V8:8, V9:8, V10:8, V11:8, V12:8, V13:8, V14:8, V15:8, SP:8
          CFI Resource PSPH:8, PSPL:8, PSP16:16, XSPH:8, XSPL:8, XSP16:16
          CFI VirtualResource ?RET:24
          CFI Resource ?BRET_EXT:8
          CFI VirtualResource ?RET_HIGH:8, ?RET_LOW:8
          CFI ResourceParts PSP16 PSPH, PSPL
          CFI ResourceParts XSP16 XSPH, XSPL
          CFI ResourceParts ?RET ?BRET_EXT, ?RET_HIGH, ?RET_LOW
          CFI EndNames cfiNames0
        
          CFI Common cfiCommon0 Using cfiNames0
          CFI CodeAlign 1
          CFI DataAlign -1
          CFI ReturnAddress ?RET CODE
          CFI CFA_DOVERLAY Used
          CFI CFA_IOVERLAY Used
          CFI CFA_SP SP+-3
          CFI CFA_PSP16 PSP16+0
          CFI CFA_XSP16 XSP16+0
          CFI `PSW.CY` SameValue
          CFI `B.BR0` SameValue
          CFI `B.BR1` SameValue
          CFI `B.BR2` SameValue
          CFI `B.BR3` SameValue
          CFI `B.BR4` SameValue
          CFI `B.BR5` SameValue
          CFI `B.BR6` SameValue
          CFI `B.BR7` SameValue
          CFI `VB.BR8` SameValue
          CFI `VB.BR9` SameValue
          CFI `VB.BR10` SameValue
          CFI `VB.BR11` SameValue
          CFI `VB.BR12` SameValue
          CFI `VB.BR13` SameValue
          CFI `VB.BR14` SameValue
          CFI `VB.BR15` SameValue
          CFI VB SameValue
          CFI B Undefined
          CFI A Undefined
          CFI PSW SameValue
          CFI DPL0 SameValue
          CFI DPH0 SameValue
          CFI R0 Undefined
          CFI R1 Undefined
          CFI R2 Undefined
          CFI R3 Undefined
          CFI R4 Undefined
          CFI R5 Undefined
          CFI R6 SameValue
          CFI R7 SameValue
          CFI V0 SameValue
          CFI V1 SameValue
          CFI V2 SameValue
          CFI V3 SameValue
          CFI V4 SameValue
          CFI V5 SameValue
          CFI V6 SameValue
          CFI V7 SameValue
          CFI V8 SameValue
          CFI V9 SameValue
          CFI V10 SameValue
          CFI V11 SameValue
          CFI V12 SameValue
          CFI V13 SameValue
          CFI V14 SameValue
          CFI V15 SameValue
          CFI PSPH Undefined
          CFI PSPL Undefined
          CFI XSPH Undefined
          CFI XSPL Undefined
          CFI ?RET Concat
          CFI ?BRET_EXT Frame(CFA_SP, 3)
          CFI ?RET_HIGH Frame(CFA_SP, 2)
          CFI ?RET_LOW Frame(CFA_SP, 1)
          CFI EndCommon cfiCommon0
        
        
          CFI Common cfiCommon1 Using cfiNames0
          CFI CodeAlign 1
          CFI DataAlign -1
          CFI ReturnAddress ?RET CODE
          CFI CFA_DOVERLAY Used
          CFI CFA_IOVERLAY Used
          CFI CFA_SP SP+-2
          CFI CFA_PSP16 PSP16+0
          CFI CFA_XSP16 XSP16+0
          CFI `PSW.CY` SameValue
          CFI `B.BR0` SameValue
          CFI `B.BR1` SameValue
          CFI `B.BR2` SameValue
          CFI `B.BR3` SameValue
          CFI `B.BR4` SameValue
          CFI `B.BR5` SameValue
          CFI `B.BR6` SameValue
          CFI `B.BR7` SameValue
          CFI `VB.BR8` SameValue
          CFI `VB.BR9` SameValue
          CFI `VB.BR10` SameValue
          CFI `VB.BR11` SameValue
          CFI `VB.BR12` SameValue
          CFI `VB.BR13` SameValue
          CFI `VB.BR14` SameValue
          CFI `VB.BR15` SameValue
          CFI VB SameValue
          CFI B SameValue
          CFI A SameValue
          CFI PSW SameValue
          CFI DPL0 SameValue
          CFI DPH0 SameValue
          CFI R0 SameValue
          CFI R1 SameValue
          CFI R2 SameValue
          CFI R3 SameValue
          CFI R4 SameValue
          CFI R5 SameValue
          CFI R6 SameValue
          CFI R7 SameValue
          CFI V0 SameValue
          CFI V1 SameValue
          CFI V2 SameValue
          CFI V3 SameValue
          CFI V4 SameValue
          CFI V5 SameValue
          CFI V6 SameValue
          CFI V7 SameValue
          CFI V8 SameValue
          CFI V9 SameValue
          CFI V10 SameValue
          CFI V11 SameValue
          CFI V12 SameValue
          CFI V13 SameValue
          CFI V14 SameValue
          CFI V15 SameValue
          CFI PSPH Undefined
          CFI PSPL Undefined
          CFI XSPH Undefined
          CFI XSPL Undefined
          CFI ?RET Concat
          CFI ?BRET_EXT SameValue
          CFI ?RET_HIGH Frame(CFA_SP, 2)
          CFI ?RET_LOW Frame(CFA_SP, 1)
          CFI EndCommon cfiCommon1
        
AF_DataRequest      SYMBOL "AF_DataRequest"
`??AF_DataRequest::?relay` SYMBOL "?relay", AF_DataRequest
HalLedBlink         SYMBOL "HalLedBlink"
`??HalLedBlink::?relay` SYMBOL "?relay", HalLedBlink
HalUARTOpen         SYMBOL "HalUARTOpen"
`??HalUARTOpen::?relay` SYMBOL "?relay", HalUARTOpen
HalUARTRead         SYMBOL "HalUARTRead"
`??HalUARTRead::?relay` SYMBOL "?relay", HalUARTRead
HalUARTWrite        SYMBOL "HalUARTWrite"
`??HalUARTWrite::?relay` SYMBOL "?relay", HalUARTWrite
Hal_UART_RxBufLen   SYMBOL "Hal_UART_RxBufLen"
`??Hal_UART_RxBufLen::?relay` SYMBOL "?relay", Hal_UART_RxBufLen
NLME_GetExtAddr     SYMBOL "NLME_GetExtAddr"
`??NLME_GetExtAddr::?relay` SYMBOL "?relay", NLME_GetExtAddr
NLME_PermitJoiningRequest SYMBOL "NLME_PermitJoiningRequest"
`??NLME_PermitJoiningRequest::?relay` SYMBOL "?relay", NLME_PermitJoiningRequest
RegisterForKeys     SYMBOL "RegisterForKeys"
`??RegisterForKeys::?relay` SYMBOL "?relay", RegisterForKeys
RegisterVoltageWarningCB SYMBOL "RegisterVoltageWarningCB"
`??RegisterVoltageWarningCB::?relay` SYMBOL "?relay", RegisterVoltageWarningCB
bdb_RegisterCommissioningStatusCB SYMBOL "bdb_RegisterCommissioningStatusCB"
`??bdb_RegisterCommissioningStatusCB::?relay` SYMBOL "?relay", bdb_RegisterCommissioningStatusCB
bdb_RegisterSimpleDescriptor SYMBOL "bdb_RegisterSimpleDescriptor"
`??bdb_RegisterSimpleDescriptor::?relay` SYMBOL "?relay", bdb_RegisterSimpleDescriptor
bdb_RepAddAttrCfgRecordDefaultToList SYMBOL "bdb_RepAddAttrCfgRecordDefaultToList"
`??bdb_RepAddAttrCfgRecordDefaultToList::?relay` SYMBOL "?relay", bdb_RepAddAttrCfgRecordDefaultToList
bdb_StartCommissioning SYMBOL "bdb_StartCommissioning"
`??bdb_StartCommissioning::?relay` SYMBOL "?relay", bdb_StartCommissioning
osal_mem_free       SYMBOL "osal_mem_free"
`??osal_mem_free::?relay` SYMBOL "?relay", osal_mem_free
osal_memcpy         SYMBOL "osal_memcpy"
`??osal_memcpy::?relay` SYMBOL "?relay", osal_memcpy
osal_msg_deallocate SYMBOL "osal_msg_deallocate"
`??osal_msg_deallocate::?relay` SYMBOL "?relay", osal_msg_deallocate
osal_msg_receive    SYMBOL "osal_msg_receive"
`??osal_msg_receive::?relay` SYMBOL "?relay", osal_msg_receive
osal_start_timerEx  SYMBOL "osal_start_timerEx"
`??osal_start_timerEx::?relay` SYMBOL "?relay", osal_start_timerEx
zclGeneral_RegisterCmdCallbacks SYMBOL "zclGeneral_RegisterCmdCallbacks"
`??zclGeneral_RegisterCmdCallbacks::?relay` SYMBOL "?relay", zclGeneral_RegisterCmdCallbacks
zclZEM_ResetAttributesToDefaultValues SYMBOL "zclZEM_ResetAttributesToDefaultValues"
`??zclZEM_ResetAttributesToDefaultValues::?relay` SYMBOL "?relay", zclZEM_ResetAttributesToDefaultValues
zcl_registerAttrList SYMBOL "zcl_registerAttrList"
`??zcl_registerAttrList::?relay` SYMBOL "?relay", zcl_registerAttrList
zcl_registerForMsg  SYMBOL "zcl_registerForMsg"
`??zcl_registerForMsg::?relay` SYMBOL "?relay", zcl_registerForMsg
zgWriteStartupOptions SYMBOL "zgWriteStartupOptions"
`??zgWriteStartupOptions::?relay` SYMBOL "?relay", zgWriteStartupOptions
zclZEM_Init         SYMBOL "zclZEM_Init"
`??zclZEM_Init::?relay` SYMBOL "?relay", zclZEM_Init
zclZEM_event_loop   SYMBOL "zclZEM_event_loop"
`??zclZEM_event_loop::?relay` SYMBOL "?relay", zclZEM_event_loop

        EXTERN `??AF_DataRequest::?relay`
        FUNCTION `??AF_DataRequest::?relay`,00H
        EXTERN `??HalLedBlink::?relay`
        FUNCTION `??HalLedBlink::?relay`,00H
        EXTERN `??HalUARTOpen::?relay`
        FUNCTION `??HalUARTOpen::?relay`,00H
        EXTERN `??HalUARTRead::?relay`
        FUNCTION `??HalUARTRead::?relay`,00H
        EXTERN `??HalUARTWrite::?relay`
        FUNCTION `??HalUARTWrite::?relay`,00H
        EXTERN `??Hal_UART_RxBufLen::?relay`
        FUNCTION `??Hal_UART_RxBufLen::?relay`,00H
        EXTERN `??NLME_GetExtAddr::?relay`
        FUNCTION `??NLME_GetExtAddr::?relay`,00H
        EXTERN `??NLME_PermitJoiningRequest::?relay`
        FUNCTION `??NLME_PermitJoiningRequest::?relay`,00H
        EXTERN `??RegisterForKeys::?relay`
        FUNCTION `??RegisterForKeys::?relay`,00H
        EXTERN `??RegisterVoltageWarningCB::?relay`
        FUNCTION `??RegisterVoltageWarningCB::?relay`,00H
        EXTERN `??bdb_RegisterCommissioningStatusCB::?relay`
        FUNCTION `??bdb_RegisterCommissioningStatusCB::?relay`,00H
        EXTERN `??bdb_RegisterSimpleDescriptor::?relay`
        FUNCTION `??bdb_RegisterSimpleDescriptor::?relay`,00H
        EXTERN `??bdb_RepAddAttrCfgRecordDefaultToList::?relay`
        FUNCTION `??bdb_RepAddAttrCfgRecordDefaultToList::?relay`,00H
        EXTERN `??bdb_StartCommissioning::?relay`
        FUNCTION `??bdb_StartCommissioning::?relay`,00H
        EXTERN `??osal_mem_free::?relay`
        FUNCTION `??osal_mem_free::?relay`,00H
        EXTERN `??osal_memcpy::?relay`
        FUNCTION `??osal_memcpy::?relay`,00H
        EXTERN `??osal_msg_deallocate::?relay`
        FUNCTION `??osal_msg_deallocate::?relay`,00H
        EXTERN `??osal_msg_receive::?relay`
        FUNCTION `??osal_msg_receive::?relay`,00H
        EXTERN `??osal_start_timerEx::?relay`
        FUNCTION `??osal_start_timerEx::?relay`,00H
        EXTERN `??zclGeneral_RegisterCmdCallbacks::?relay`
        FUNCTION `??zclGeneral_RegisterCmdCallbacks::?relay`,00H
        EXTERN `??zclZEM_ResetAttributesToDefaultValues::?relay`
        FUNCTION `??zclZEM_ResetAttributesToDefaultValues::?relay`,00H
        EXTERN `??zcl_registerAttrList::?relay`
        FUNCTION `??zcl_registerAttrList::?relay`,00H
        EXTERN `??zcl_registerForMsg::?relay`
        FUNCTION `??zcl_registerForMsg::?relay`,00H
        EXTERN `??zgWriteStartupOptions::?relay`
        FUNCTION `??zgWriteStartupOptions::?relay`,00H
        EXTERN AF_DataRequest
        FUNCTION AF_DataRequest,0202H
        ARGFRAME ISTACK, 0, STACK
        ARGFRAME PSTACK, 0, STACK
        ARGFRAME XSTACK, 47, STACK
        ARGFRAME IOVERLAY, 0, STATIC
        ARGFRAME DOVERLAY, 0, STATIC
        EXTERN HalLedBlink
        FUNCTION HalLedBlink,0202H
        ARGFRAME ISTACK, 0, STACK
        ARGFRAME PSTACK, 0, STACK
        ARGFRAME XSTACK, 38, STACK
        ARGFRAME IOVERLAY, 0, STATIC
        ARGFRAME DOVERLAY, 0, STATIC
        EXTERN HalUARTOpen
        FUNCTION HalUARTOpen,0202H
        ARGFRAME ISTACK, 0, STACK
        ARGFRAME PSTACK, 0, STACK
        ARGFRAME XSTACK, 39, STACK
        ARGFRAME IOVERLAY, 0, STATIC
        ARGFRAME DOVERLAY, 0, STATIC
        EXTERN HalUARTRead
        FUNCTION HalUARTRead,0202H
        ARGFRAME ISTACK, 0, STACK
        ARGFRAME PSTACK, 0, STACK
        ARGFRAME XSTACK, 9, STACK
        ARGFRAME IOVERLAY, 0, STATIC
        ARGFRAME DOVERLAY, 0, STATIC
        EXTERN HalUARTWrite
        FUNCTION HalUARTWrite,0202H
        ARGFRAME ISTACK, 0, STACK
        ARGFRAME PSTACK, 0, STACK
        ARGFRAME XSTACK, 176, STACK
        ARGFRAME IOVERLAY, 0, STATIC
        ARGFRAME DOVERLAY, 0, STATIC
        EXTERN Hal_UART_RxBufLen
        FUNCTION Hal_UART_RxBufLen,0202H
        ARGFRAME ISTACK, 0, STACK
        ARGFRAME PSTACK, 0, STACK
        ARGFRAME XSTACK, 9, STACK
        ARGFRAME IOVERLAY, 0, STATIC
        ARGFRAME DOVERLAY, 0, STATIC
        EXTERN NLME_GetExtAddr
        FUNCTION NLME_GetExtAddr,0202H
        ARGFRAME ISTACK, 0, STACK
        ARGFRAME PSTACK, 0, STACK
        ARGFRAME XSTACK, 68, STACK
        ARGFRAME IOVERLAY, 0, STATIC
        ARGFRAME DOVERLAY, 0, STATIC
        EXTERN NLME_PermitJoiningRequest
        FUNCTION NLME_PermitJoiningRequest,0202H
        ARGFRAME ISTACK, 0, STACK
        ARGFRAME PSTACK, 0, STACK
        ARGFRAME XSTACK, 39, STACK
        ARGFRAME IOVERLAY, 0, STATIC
        ARGFRAME DOVERLAY, 0, STATIC
        EXTERN RegisterForKeys
        FUNCTION RegisterForKeys,0202H
        ARGFRAME ISTACK, 0, STACK
        ARGFRAME PSTACK, 0, STACK
        ARGFRAME XSTACK, 39, STACK
        ARGFRAME IOVERLAY, 0, STATIC
        ARGFRAME DOVERLAY, 0, STATIC
        EXTERN RegisterVoltageWarningCB
        FUNCTION RegisterVoltageWarningCB,0202H
        ARGFRAME ISTACK, 0, STACK
        ARGFRAME PSTACK, 0, STACK
        ARGFRAME XSTACK, 39, STACK
        ARGFRAME IOVERLAY, 0, STATIC
        ARGFRAME DOVERLAY, 0, STATIC
        EXTERN bdb_RegisterCommissioningStatusCB
        FUNCTION bdb_RegisterCommissioningStatusCB,0202H
        ARGFRAME ISTACK, 0, STACK
        ARGFRAME PSTACK, 0, STACK
        ARGFRAME XSTACK, 39, STACK
        ARGFRAME IOVERLAY, 0, STATIC
        ARGFRAME DOVERLAY, 0, STATIC
        EXTERN bdb_RegisterSimpleDescriptor
        FUNCTION bdb_RegisterSimpleDescriptor,0202H
        ARGFRAME ISTACK, 0, STACK
        ARGFRAME PSTACK, 0, STACK
        ARGFRAME XSTACK, 39, STACK
        ARGFRAME IOVERLAY, 0, STATIC
        ARGFRAME DOVERLAY, 0, STATIC
        EXTERN bdb_RepAddAttrCfgRecordDefaultToList
        FUNCTION bdb_RepAddAttrCfgRecordDefaultToList,0202H
        ARGFRAME ISTACK, 0, STACK
        ARGFRAME PSTACK, 0, STACK
        ARGFRAME XSTACK, 45, STACK
        ARGFRAME IOVERLAY, 0, STATIC
        ARGFRAME DOVERLAY, 0, STATIC
        EXTERN bdb_StartCommissioning
        FUNCTION bdb_StartCommissioning,0202H
        ARGFRAME ISTACK, 0, STACK
        ARGFRAME PSTACK, 0, STACK
        ARGFRAME XSTACK, 176, STACK
        ARGFRAME IOVERLAY, 0, STATIC
        ARGFRAME DOVERLAY, 0, STATIC
        EXTERN osal_mem_free
        FUNCTION osal_mem_free,0202H
        ARGFRAME ISTACK, 0, STACK
        ARGFRAME PSTACK, 0, STACK
        ARGFRAME XSTACK, 9, STACK
        ARGFRAME IOVERLAY, 0, STATIC
        ARGFRAME DOVERLAY, 0, STATIC
        EXTERN osal_memcpy
        FUNCTION osal_memcpy,0202H
        ARGFRAME ISTACK, 0, STACK
        ARGFRAME PSTACK, 0, STACK
        ARGFRAME XSTACK, 179, STACK
        ARGFRAME IOVERLAY, 0, STATIC
        ARGFRAME DOVERLAY, 0, STATIC
        EXTERN osal_msg_deallocate
        FUNCTION osal_msg_deallocate,0202H
        ARGFRAME ISTACK, 0, STACK
        ARGFRAME PSTACK, 0, STACK
        ARGFRAME XSTACK, 38, STACK
        ARGFRAME IOVERLAY, 0, STATIC
        ARGFRAME DOVERLAY, 0, STATIC
        EXTERN osal_msg_receive
        FUNCTION osal_msg_receive,0202H
        ARGFRAME ISTACK, 0, STACK
        ARGFRAME PSTACK, 0, STACK
        ARGFRAME XSTACK, 38, STACK
        ARGFRAME IOVERLAY, 0, STATIC
        ARGFRAME DOVERLAY, 0, STATIC
        EXTERN osal_start_timerEx
        FUNCTION osal_start_timerEx,0202H
        ARGFRAME ISTACK, 0, STACK
        ARGFRAME PSTACK, 0, STACK
        ARGFRAME XSTACK, 43, STACK
        ARGFRAME IOVERLAY, 0, STATIC
        ARGFRAME DOVERLAY, 0, STATIC
        EXTERN zclGeneral_RegisterCmdCallbacks
        FUNCTION zclGeneral_RegisterCmdCallbacks,0202H
        ARGFRAME ISTACK, 0, STACK
        ARGFRAME PSTACK, 0, STACK
        ARGFRAME XSTACK, 39, STACK
        ARGFRAME IOVERLAY, 0, STATIC
        ARGFRAME DOVERLAY, 0, STATIC
        EXTERN zclZEM_Attrs
        EXTERN zclZEM_NumAttributes
        EXTERN zclZEM_ResetAttributesToDefaultValues
        FUNCTION zclZEM_ResetAttributesToDefaultValues,0202H
        ARGFRAME ISTACK, 2, STACK
        ARGFRAME PSTACK, 0, STACK
        ARGFRAME XSTACK, 39, STACK
        ARGFRAME IOVERLAY, 0, STATIC
        ARGFRAME DOVERLAY, 0, STATIC
        EXTERN zclZEM_SimpleDesc
        EXTERN zcl_registerAttrList
        FUNCTION zcl_registerAttrList,0202H
        ARGFRAME ISTACK, 0, STACK
        ARGFRAME PSTACK, 0, STACK
        ARGFRAME XSTACK, 39, STACK
        ARGFRAME IOVERLAY, 0, STATIC
        ARGFRAME DOVERLAY, 0, STATIC
        EXTERN zcl_registerForMsg
        FUNCTION zcl_registerForMsg,0202H
        ARGFRAME ISTACK, 0, STACK
        ARGFRAME PSTACK, 0, STACK
        ARGFRAME XSTACK, 39, STACK
        ARGFRAME IOVERLAY, 0, STATIC
        ARGFRAME DOVERLAY, 0, STATIC
        EXTERN zdpExternalStateTaskID
        EXTERN zgWriteStartupOptions
        FUNCTION zgWriteStartupOptions,0202H
        ARGFRAME ISTACK, 0, STACK
        ARGFRAME PSTACK, 0, STACK
        ARGFRAME XSTACK, 39, STACK
        ARGFRAME IOVERLAY, 0, STATIC
        ARGFRAME DOVERLAY, 0, STATIC

// D:\project\Z-Stack 3.0.2\Projects\zstack\HomeAutomation\ZEM\Source\zcl_ZEM.c
//    1 /*********************************************************************
//    2  * INCLUDES
//    3  */
//    4 #include "ZComDef.h"
//    5 #include "OSAL.h"
//    6 #include "AF.h"
//    7 #include "ZDApp.h"
//    8 #include "ZDObject.h"
//    9 #include "ZDProfile.h"
//   10 #include "MT_SYS.h"
//   11 
//   12 #include "zcl.h"
//   13 #include "zcl_general.h"
//   14 #include "zcl_ha.h"
//   15 #include "zcl_ms.h"
//   16 
//   17 #include "zcl_ZEM.h"
//   18 
//   19 #include "onboard.h"

        ASEGN SFR_AN:DATA:NOROOT,0f1H
// unsigned char volatile __sfr PERCFG
PERCFG:
        DATA8
        DS 1

        ASEGN SFR_AN:DATA:NOROOT,0f4H
// unsigned char volatile __sfr P1SEL
P1SEL:
        DATA8
        DS 1

        ASEGN SFR_AN:DATA:NOROOT,0feH
// unsigned char volatile __sfr P1DIR
P1DIR:
        DATA8
        DS 1
//   20 
//   21 /* HAL */
//   22 #include "hal_lcd.h"
//   23 #include "hal_led.h"
//   24 #include "hal_key.h"
//   25 #include "hal_uart.h"
//   26 
//   27 #include "bdb_interface.h"
//   28 #include "bdb_Reporting.h"
//   29    
//   30 /*********************************************************************
//   31  * MACROS
//   32  */
//   33 
//   34 // how often to report temperature
//   35 #define ZEM_REPORT_INTERVAL   10000
//   36 
//   37 #define GUI_LOCAL_TEMP    1
//   38 
//   39 #define APP_TITLE "   Temp Sensor  "
//   40 
//   41 /*********************************************************************
//   42  * CONSTANTS
//   43  */
//   44 
//   45 /*********************************************************************
//   46  * TYPEDEFS
//   47  */
//   48 
//   49 /*********************************************************************
//   50  * GLOBAL VARIABLES
//   51  */

        RSEG XDATA_Z:XDATA:NOROOT(0)
        DATA8
//   52 byte zclZEM_TaskID;
zclZEM_TaskID:
        DS 1
        REQUIRE __INIT_XDATA_Z
//   53 
//   54 extern int16 zdpExternalStateTaskID;
//   55 
//   56 // UART Buffer

        RSEG XDATA_Z:XDATA:NOROOT(0)
        DATA8
//   57 static uint8 zclZEM_UartBuf[ZCLZEM_UART_BUF_LEN];
zclZEM_UartBuf:
        DS 64
        REQUIRE __INIT_XDATA_Z
//   58 
//   59 /*********************************************************************
//   60  * GLOBAL FUNCTIONS
//   61  */
//   62 
//   63 /*********************************************************************
//   64  * LOCAL VARIABLES
//   65  */
//   66 

        RSEG XDATA_Z:XDATA:NOROOT(0)
        DATA8
//   67 uint8 zclZEM_NwkState = 0; // DEV_INIT
zclZEM_NwkState:
        DS 1
        REQUIRE __INIT_XDATA_Z
//   68 
//   69 //static uint8 aProcessCmd[] = { 1, 0, 0, 0 }; // used for reset command, { length + cmd0 + cmd1 + data }
//   70 
//   71 // Application Endpoint for data communication

        RSEG XDATA_I:XDATA:NOROOT(0)
//   72 static endPointDesc_t ZEM_AppEp =
ZEM_AppEp:
        DATA8
        DS 7
        REQUIRE `?<Initializer for ZEM_AppEp>`
        REQUIRE __INIT_XDATA_I
//   73 {
//   74   ZEM_ENDPOINT,                       // Application endpoint
//   75   0,
//   76   &zclZEM_TaskID,
//   77   &zclZEM_SimpleDesc,                 // Simple description for this application
//   78   (afNetworkLatencyReq_t)0            // No Network Latency req
//   79 };
//   80 #ifdef BDB_REPORTING
//   81 #if BDBREPORTING_MAX_ANALOG_ATTR_SIZE == 8
//   82   uint8 reportableChange[] = {0x2C, 0x01, 0x00, 0x00, 0x00, 0x00, 0x00, 0x00}; // 0x2C01 is 300 in int16
//   83 #endif
//   84 #if BDBREPORTING_MAX_ANALOG_ATTR_SIZE == 4

        RSEG XDATA_I:XDATA:NOROOT(0)
//   85   uint8 reportableChange[] = {0x2C, 0x01, 0x00, 0x00}; // 0x2C01 is 300 in int16
reportableChange:
        DATA32
        DS 4
        REQUIRE `?<Initializer for reportableChange>`
        REQUIRE __INIT_XDATA_I
//   86 #endif 
//   87 #if BDBREPORTING_MAX_ANALOG_ATTR_SIZE == 2
//   88   uint8 reportableChange[] = {0x2C, 0x01}; // 0x2C01 is 300 in int16
//   89 #endif 
//   90 #endif
//   91 
//   92 /*********************************************************************
//   93  * LOCAL FUNCTIONS
//   94  */
//   95 static void zclZEM_HandleKeys( byte shift, byte keys );
//   96 static void zclZEM_BasicResetCB( void );
//   97 
//   98 static void zclZEM_ProcessCommissioningStatus(bdbCommissioningModeMsg_t* bdbCommissioningModeMsg);
//   99 
//  100 // Functions to process ZCL Foundation incoming Command/Response messages
//  101 static void zclZEM_ProcessIncomingMsg( zclIncomingMsg_t *msg );
//  102 #ifdef ZCL_READ
//  103 static uint8 zclZEM_ProcessInReadRspCmd( zclIncomingMsg_t *pInMsg );
//  104 #endif
//  105 #ifdef ZCL_WRITE
//  106 static uint8 zclZEM_ProcessInWriteRspCmd( zclIncomingMsg_t *pInMsg );
//  107 #endif
//  108 static uint8 zclZEM_ProcessInDefaultRspCmd( zclIncomingMsg_t *pInMsg );
//  109 #ifdef ZCL_DISCOVER
//  110 static uint8 zclZEM_ProcessInDiscCmdsRspCmd( zclIncomingMsg_t *pInMsg );
//  111 static uint8 zclZEM_ProcessInDiscAttrsRspCmd( zclIncomingMsg_t *pInMsg );
//  112 static uint8 zclZEM_ProcessInDiscAttrsExtRspCmd( zclIncomingMsg_t *pInMsg );
//  113 #endif // ZCL_DISCOVER
//  114 
//  115 static void zclSampleApp_BatteryWarningCB( uint8 voltLevel);
//  116 
//  117 /*********************************************************************
//  118  * STATUS STRINGS
//  119  */
//  120 
//  121 /*********************************************************************
//  122  * CONSTANTS
//  123  */
//  124 
//  125 
//  126 /*********************************************************************
//  127  * ZCL General Profile Callback table
//  128  */

        RSEG XDATA_I:XDATA:NOROOT(0)
//  129 static zclGeneral_AppCallbacks_t zclZEM_CmdCallbacks =
zclZEM_CmdCallbacks:
        DATA8
        DS 18
        REQUIRE `?<Initializer for zclZEM_CmdCallbacks>`
        REQUIRE __INIT_XDATA_I
//  130 {
//  131   zclZEM_BasicResetCB,        // Basic Cluster Reset command
//  132   NULL,                                           // Identify Trigger Effect command
//  133   NULL,             				                      // On/Off cluster command
//  134   NULL,                                           // On/Off cluster enhanced command Off with Effect
//  135   NULL,                                           // On/Off cluster enhanced command On with Recall Global Scene
//  136   NULL,                                           // On/Off cluster enhanced command On with Timed Off
//  137 #ifdef ZCL_LEVEL_CTRL
//  138   NULL,                                           // Level Control Move to Level command
//  139   NULL,                                           // Level Control Move command
//  140   NULL,                                           // Level Control Step command
//  141   NULL,                                           // Level Control Stop command
//  142 #endif
//  143 #ifdef ZCL_GROUPS
//  144   NULL,                                           // Group Response commands
//  145 #endif
//  146 #ifdef ZCL_SCENES
//  147   NULL,                                           // Scene Store Request command
//  148   NULL,                                           // Scene Recall Request command
//  149   NULL,                                           // Scene Response command
//  150 #endif
//  151 #ifdef ZCL_ALARMS
//  152   NULL,                                           // Alarm (Response) commands
//  153 #endif
//  154 #ifdef SE_UK_EXT
//  155   NULL,                                           // Get Event Log command
//  156   NULL,                                           // Publish Event Log command
//  157 #endif
//  158   NULL,                                           // RSSI Location command
//  159   NULL                                            // RSSI Location Response command
//  160 };
//  161 
//  162 /*********************************************************************
//  163  * @fn          zclZEM_Init
//  164  *
//  165  * @brief       Initialization function for the zclGeneral layer.
//  166  *
//  167  * @param       none
//  168  *
//  169  * @return      none
//  170  */

        RSEG BANKED_CODE:HUGECODE:NOROOT(0)
//  171 void zclZEM_Init( byte task_id )
zclZEM_Init:
          CFI Block cfiBlock0 Using cfiCommon0
          CFI Function zclZEM_Init
        CODE
//  172 {
        FUNCALL zclZEM_Init, bdb_RegisterSimpleDescriptor
        LOCFRAME ISTACK, 0, STACK
        LOCFRAME PSTACK, 0, STACK
        LOCFRAME XSTACK, 39, STACK
        LOCFRAME IOVERLAY, 0, STATIC
        LOCFRAME DOVERLAY, 0, STATIC
        ARGFRAME ISTACK, 0, STACK
        ARGFRAME PSTACK, 0, STACK
        ARGFRAME XSTACK, 39, STACK
        ARGFRAME IOVERLAY, 0, STATIC
        ARGFRAME DOVERLAY, 0, STATIC
        FUNCALL zclZEM_Init, zclGeneral_RegisterCmdCallbacks
        LOCFRAME ISTACK, 0, STACK
        LOCFRAME PSTACK, 0, STACK
        LOCFRAME XSTACK, 39, STACK
        LOCFRAME IOVERLAY, 0, STATIC
        LOCFRAME DOVERLAY, 0, STATIC
        ARGFRAME ISTACK, 0, STACK
        ARGFRAME PSTACK, 0, STACK
        ARGFRAME XSTACK, 39, STACK
        ARGFRAME IOVERLAY, 0, STATIC
        ARGFRAME DOVERLAY, 0, STATIC
        FUNCALL zclZEM_Init, zclZEM_ResetAttributesToDefaultValues
        LOCFRAME ISTACK, 0, STACK
        LOCFRAME PSTACK, 0, STACK
        LOCFRAME XSTACK, 39, STACK
        LOCFRAME IOVERLAY, 0, STATIC
        LOCFRAME DOVERLAY, 0, STATIC
        ARGFRAME ISTACK, 0, STACK
        ARGFRAME PSTACK, 0, STACK
        ARGFRAME XSTACK, 39, STACK
        ARGFRAME IOVERLAY, 0, STATIC
        ARGFRAME DOVERLAY, 0, STATIC
        FUNCALL zclZEM_Init, zcl_registerAttrList
        LOCFRAME ISTACK, 0, STACK
        LOCFRAME PSTACK, 0, STACK
        LOCFRAME XSTACK, 39, STACK
        LOCFRAME IOVERLAY, 0, STATIC
        LOCFRAME DOVERLAY, 0, STATIC
        ARGFRAME ISTACK, 0, STACK
        ARGFRAME PSTACK, 0, STACK
        ARGFRAME XSTACK, 39, STACK
        ARGFRAME IOVERLAY, 0, STATIC
        ARGFRAME DOVERLAY, 0, STATIC
        FUNCALL zclZEM_Init, zcl_registerForMsg
        LOCFRAME ISTACK, 0, STACK
        LOCFRAME PSTACK, 0, STACK
        LOCFRAME XSTACK, 39, STACK
        LOCFRAME IOVERLAY, 0, STATIC
        LOCFRAME DOVERLAY, 0, STATIC
        ARGFRAME ISTACK, 0, STACK
        ARGFRAME PSTACK, 0, STACK
        ARGFRAME XSTACK, 39, STACK
        ARGFRAME IOVERLAY, 0, STATIC
        ARGFRAME DOVERLAY, 0, STATIC
        FUNCALL zclZEM_Init, RegisterVoltageWarningCB
        LOCFRAME ISTACK, 0, STACK
        LOCFRAME PSTACK, 0, STACK
        LOCFRAME XSTACK, 39, STACK
        LOCFRAME IOVERLAY, 0, STATIC
        LOCFRAME DOVERLAY, 0, STATIC
        ARGFRAME ISTACK, 0, STACK
        ARGFRAME PSTACK, 0, STACK
        ARGFRAME XSTACK, 39, STACK
        ARGFRAME IOVERLAY, 0, STATIC
        ARGFRAME DOVERLAY, 0, STATIC
        FUNCALL zclZEM_Init, RegisterForKeys
        LOCFRAME ISTACK, 0, STACK
        LOCFRAME PSTACK, 0, STACK
        LOCFRAME XSTACK, 39, STACK
        LOCFRAME IOVERLAY, 0, STATIC
        LOCFRAME DOVERLAY, 0, STATIC
        ARGFRAME ISTACK, 0, STACK
        ARGFRAME PSTACK, 0, STACK
        ARGFRAME XSTACK, 39, STACK
        ARGFRAME IOVERLAY, 0, STATIC
        ARGFRAME DOVERLAY, 0, STATIC
        FUNCALL zclZEM_Init, bdb_RegisterCommissioningStatusCB
        LOCFRAME ISTACK, 0, STACK
        LOCFRAME PSTACK, 0, STACK
        LOCFRAME XSTACK, 39, STACK
        LOCFRAME IOVERLAY, 0, STATIC
        LOCFRAME DOVERLAY, 0, STATIC
        ARGFRAME ISTACK, 0, STACK
        ARGFRAME PSTACK, 0, STACK
        ARGFRAME XSTACK, 39, STACK
        ARGFRAME IOVERLAY, 0, STATIC
        ARGFRAME DOVERLAY, 0, STATIC
        FUNCALL zclZEM_Init, zgWriteStartupOptions
        LOCFRAME ISTACK, 0, STACK
        LOCFRAME PSTACK, 0, STACK
        LOCFRAME XSTACK, 39, STACK
        LOCFRAME IOVERLAY, 0, STATIC
        LOCFRAME DOVERLAY, 0, STATIC
        ARGFRAME ISTACK, 0, STACK
        ARGFRAME PSTACK, 0, STACK
        ARGFRAME XSTACK, 39, STACK
        ARGFRAME IOVERLAY, 0, STATIC
        ARGFRAME DOVERLAY, 0, STATIC
        FUNCALL zclZEM_Init, bdb_StartCommissioning
        LOCFRAME ISTACK, 0, STACK
        LOCFRAME PSTACK, 0, STACK
        LOCFRAME XSTACK, 39, STACK
        LOCFRAME IOVERLAY, 0, STATIC
        LOCFRAME DOVERLAY, 0, STATIC
        ARGFRAME ISTACK, 0, STACK
        ARGFRAME PSTACK, 0, STACK
        ARGFRAME XSTACK, 39, STACK
        ARGFRAME IOVERLAY, 0, STATIC
        ARGFRAME DOVERLAY, 0, STATIC
        FUNCALL zclZEM_Init, NLME_PermitJoiningRequest
        LOCFRAME ISTACK, 0, STACK
        LOCFRAME PSTACK, 0, STACK
        LOCFRAME XSTACK, 39, STACK
        LOCFRAME IOVERLAY, 0, STATIC
        LOCFRAME DOVERLAY, 0, STATIC
        ARGFRAME ISTACK, 0, STACK
        ARGFRAME PSTACK, 0, STACK
        ARGFRAME XSTACK, 39, STACK
        ARGFRAME IOVERLAY, 0, STATIC
        ARGFRAME DOVERLAY, 0, STATIC
        FUNCALL zclZEM_Init, osal_start_timerEx
        LOCFRAME ISTACK, 0, STACK
        LOCFRAME PSTACK, 0, STACK
        LOCFRAME XSTACK, 43, STACK
        LOCFRAME IOVERLAY, 0, STATIC
        LOCFRAME DOVERLAY, 0, STATIC
        ARGFRAME ISTACK, 0, STACK
        ARGFRAME PSTACK, 0, STACK
        ARGFRAME XSTACK, 43, STACK
        ARGFRAME IOVERLAY, 0, STATIC
        ARGFRAME DOVERLAY, 0, STATIC
        FUNCALL zclZEM_Init, osal_start_timerEx
        LOCFRAME ISTACK, 0, STACK
        LOCFRAME PSTACK, 0, STACK
        LOCFRAME XSTACK, 43, STACK
        LOCFRAME IOVERLAY, 0, STATIC
        LOCFRAME DOVERLAY, 0, STATIC
        ARGFRAME ISTACK, 0, STACK
        ARGFRAME PSTACK, 0, STACK
        ARGFRAME XSTACK, 43, STACK
        ARGFRAME IOVERLAY, 0, STATIC
        ARGFRAME DOVERLAY, 0, STATIC
        FUNCALL zclZEM_Init, HalUARTOpen
        LOCFRAME ISTACK, 0, STACK
        LOCFRAME PSTACK, 0, STACK
        LOCFRAME XSTACK, 39, STACK
        LOCFRAME IOVERLAY, 0, STATIC
        LOCFRAME DOVERLAY, 0, STATIC
        ARGFRAME ISTACK, 0, STACK
        ARGFRAME PSTACK, 0, STACK
        ARGFRAME XSTACK, 39, STACK
        ARGFRAME IOVERLAY, 0, STATIC
        ARGFRAME DOVERLAY, 0, STATIC
        FUNCALL zclZEM_Init, zclZEM_ReadAndSendMAC
        LOCFRAME ISTACK, 0, STACK
        LOCFRAME PSTACK, 0, STACK
        LOCFRAME XSTACK, 39, STACK
        LOCFRAME IOVERLAY, 0, STATIC
        LOCFRAME DOVERLAY, 0, STATIC
        ARGFRAME ISTACK, 0, STACK
        ARGFRAME PSTACK, 0, STACK
        ARGFRAME XSTACK, 39, STACK
        ARGFRAME IOVERLAY, 0, STATIC
        ARGFRAME DOVERLAY, 0, STATIC
        FUNCALL zclZEM_Init, bdb_RepAddAttrCfgRecordDefaultToList
        LOCFRAME ISTACK, 0, STACK
        LOCFRAME PSTACK, 0, STACK
        LOCFRAME XSTACK, 45, STACK
        LOCFRAME IOVERLAY, 0, STATIC
        LOCFRAME DOVERLAY, 0, STATIC
        ARGFRAME ISTACK, 0, STACK
        ARGFRAME PSTACK, 0, STACK
        ARGFRAME XSTACK, 45, STACK
        ARGFRAME IOVERLAY, 0, STATIC
        ARGFRAME DOVERLAY, 0, STATIC
        FUNCALL zclZEM_Init, osal_start_timerEx
        LOCFRAME ISTACK, 0, STACK
        LOCFRAME PSTACK, 0, STACK
        LOCFRAME XSTACK, 43, STACK
        LOCFRAME IOVERLAY, 0, STATIC
        LOCFRAME DOVERLAY, 0, STATIC
        ARGFRAME ISTACK, 0, STACK
        ARGFRAME PSTACK, 0, STACK
        ARGFRAME XSTACK, 43, STACK
        ARGFRAME IOVERLAY, 0, STATIC
        ARGFRAME DOVERLAY, 0, STATIC
        REQUIRE ?V0
        REQUIRE ?V1
        MOV       A,#-0xa
        LCALL     ?BANKED_ENTER_XDATA
          CFI DPH0 load(1, XDATA, add(CFA_XSP16, literal(-1)))
          CFI DPL0 load(1, XDATA, add(CFA_XSP16, literal(-2)))
          CFI ?BRET_EXT load(1, XDATA, add(CFA_XSP16, literal(-3)))
          CFI ?RET_HIGH load(1, XDATA, add(CFA_XSP16, literal(-4)))
          CFI ?RET_LOW load(1, XDATA, add(CFA_XSP16, literal(-5)))
          CFI R7 load(1, XDATA, add(CFA_XSP16, literal(-6)))
          CFI V1 load(1, XDATA, add(CFA_XSP16, literal(-7)))
          CFI V0 load(1, XDATA, add(CFA_XSP16, literal(-8)))
          CFI VB load(1, XDATA, add(CFA_XSP16, literal(-9)))
          CFI R6 load(1, XDATA, add(CFA_XSP16, literal(-10)))
          CFI CFA_SP SP+0
          CFI CFA_XSP16 add(XSP16, 10)
        ; Saved register size: 10
        ; Auto size: 29
        MOV       A,#-0x1d
        LCALL     ?ALLOC_XSTACK8
          CFI CFA_XSP16 add(XSP16, 39)
        MOV       A,R1
//  173   zclZEM_TaskID = task_id;
        MOV       DPTR,#zclZEM_TaskID
        MOVX      @DPTR,A
//  174 
//  175   // Register the Simple Descriptor for this application
//  176   bdb_RegisterSimpleDescriptor( &zclZEM_SimpleDesc ); 
        ; Setup parameters for call to function bdb_RegisterSimpleDescriptor
        MOV       R2,#zclZEM_SimpleDesc & 0xff
        MOV       R3,#(zclZEM_SimpleDesc >> 8) & 0xff
        LCALL     `??bdb_RegisterSimpleDescriptor::?relay`; Banked call to: bdb_RegisterSimpleDescriptor
//  177   
//  178   // Register the ZCL General Cluster Library callback functions
//  179   zclGeneral_RegisterCmdCallbacks( ZEM_ENDPOINT, &zclZEM_CmdCallbacks );
        ; Setup parameters for call to function zclGeneral_RegisterCmdCallbacks
        MOV       R2,#zclZEM_CmdCallbacks & 0xff
        MOV       R3,#(zclZEM_CmdCallbacks >> 8) & 0xff
        MOV       R1,#0x8
        LCALL     `??zclGeneral_RegisterCmdCallbacks::?relay`; Banked call to: zclGeneral_RegisterCmdCallbacks
//  180 
//  181   // Register the application's attribute list
//  182   zclZEM_ResetAttributesToDefaultValues();
        ; Setup parameters for call to function zclZEM_ResetAttributesToDefaultValues
        LCALL     `??zclZEM_ResetAttributesToDefaultValues::?relay`; Banked call to: zclZEM_ResetAttributesToDefaultValues
//  183   zcl_registerAttrList( ZEM_ENDPOINT, zclZEM_NumAttributes, zclZEM_Attrs );
        ; Setup parameters for call to function zcl_registerAttrList
        MOV       R4,#zclZEM_Attrs & 0xff
        MOV       R5,#(zclZEM_Attrs >> 8) & 0xff
        MOV       DPTR,#zclZEM_NumAttributes
        CLR       A
        MOVC      A,@A+DPTR
        MOV       R2,A
        MOV       R1,#0x8
        LCALL     `??zcl_registerAttrList::?relay`; Banked call to: zcl_registerAttrList
//  184 
//  185   // Register the Application to receive the unprocessed Foundation command/response messages
//  186   zcl_registerForMsg( zclZEM_TaskID );
        ; Setup parameters for call to function zcl_registerForMsg
        MOV       DPTR,#zclZEM_TaskID
        MOVX      A,@DPTR
        MOV       R1,A
        LCALL     `??zcl_registerForMsg::?relay`; Banked call to: zcl_registerForMsg
//  187 
//  188   // Register low voltage NV memory protection application callback
//  189   RegisterVoltageWarningCB( zclSampleApp_BatteryWarningCB );
        ; Setup parameters for call to function RegisterVoltageWarningCB
        MOV       R2,#`??zclSampleApp_BatteryWarningCB::?relay` & 0xff
        MOV       R3,#(`??zclSampleApp_BatteryWarningCB::?relay` >> 8) & 0xff
        LCALL     `??RegisterVoltageWarningCB::?relay`; Banked call to: RegisterVoltageWarningCB
//  190 
//  191   // Register for all key events - This app will handle all key events
//  192   RegisterForKeys( zclZEM_TaskID );
        ; Setup parameters for call to function RegisterForKeys
        MOV       DPTR,#zclZEM_TaskID
        MOVX      A,@DPTR
        MOV       R1,A
        LCALL     `??RegisterForKeys::?relay`; Banked call to: RegisterForKeys
//  193 
//  194   bdb_RegisterCommissioningStatusCB( zclZEM_ProcessCommissioningStatus );
        ; Setup parameters for call to function bdb_RegisterCommissioningStatusCB
        MOV       R2,#`??zclZEM_ProcessCommissioningStatus::?relay` & 0xff
        MOV       R3,#(`??zclZEM_ProcessCommissioningStatus::?relay` >> 8) & 0xff
        LCALL     `??bdb_RegisterCommissioningStatusCB::?relay`; Banked call to: bdb_RegisterCommissioningStatusCB
//  195 
//  196 #ifdef ZDO_COORDINATOR
//  197   // 重置网络状态，强制每次都重新初始化网络
//  198   // 设置ZCD_STARTOPT_DEFAULT_NETWORK_STATE位，使设备每次都重新组网
//  199   extern uint8 zgWriteStartupOptions( uint8 action, uint8 bitOptions );
//  200   
//  201   // 设置默认网络状态选项
//  202   zgWriteStartupOptions( 1, 0x01 );
        ; Setup parameters for call to function zgWriteStartupOptions
        MOV       R2,#0x1
        MOV       R1,#0x1
        LCALL     `??zgWriteStartupOptions::?relay`; Banked call to: zgWriteStartupOptions
//  203   
//  204   // 执行网络形成
//  205   bdb_StartCommissioning( BDB_COMMISSIONING_MODE_NWK_FORMATION |
//  206                           BDB_COMMISSIONING_MODE_FINDING_BINDING );
        ; Setup parameters for call to function bdb_StartCommissioning
        MOV       R1,#0xc
        LCALL     `??bdb_StartCommissioning::?relay`; Banked call to: bdb_StartCommissioning
//  207   NLME_PermitJoiningRequest(255);
        ; Setup parameters for call to function NLME_PermitJoiningRequest
        MOV       R1,#-0x1
        LCALL     `??NLME_PermitJoiningRequest::?relay`; Banked call to: NLME_PermitJoiningRequest
//  208   // Broadcast
//  209   osal_start_timerEx(zclZEM_TaskID,
//  210                      ZEM_BROADCAST_EVT,
//  211                      ZEM_BROADCAST_PERIOD);
        ; Setup parameters for call to function osal_start_timerEx
        MOV       DPTR,#__Constant_3e8
        LCALL     ?PUSH_XSTACK8_X_FOUR
          CFI CFA_XSP16 add(XSP16, 43)
        MOV       R2,#-0x80
        MOV       R3,#0x0
        MOV       DPTR,#zclZEM_TaskID
        MOVX      A,@DPTR
        MOV       R1,A
        LCALL     `??osal_start_timerEx::?relay`; Banked call to: osal_start_timerEx
        MOV       A,#0x4
        LCALL     ?DEALLOC_XSTACK8
          CFI CFA_XSP16 add(XSP16, 39)
//  212   // groupcast
//  213   osal_start_timerEx(zclZEM_TaskID,
//  214                      ZEM_GROUPCAST_EVT,
//  215                      ZEM_GROUPCAST_PERIOD);
        ; Setup parameters for call to function osal_start_timerEx
        MOV       DPTR,#__Constant_3e8
        LCALL     ?PUSH_XSTACK8_X_FOUR
          CFI CFA_XSP16 add(XSP16, 43)
        MOV       R2,#0x0
        MOV       R3,#0x1
        MOV       DPTR,#zclZEM_TaskID
        MOVX      A,@DPTR
        MOV       R1,A
        LCALL     `??osal_start_timerEx::?relay`; Banked call to: osal_start_timerEx
        MOV       A,#0x4
        LCALL     ?DEALLOC_XSTACK8
          CFI CFA_XSP16 add(XSP16, 39)
//  216 #else
//  217   bdb_StartCommissioning( BDB_COMMISSIONING_MODE_NWK_STEERING |
//  218                           BDB_COMMISSIONING_MODE_FINDING_BINDING );
//  219   // Add group
//  220   aps_Group_t group = {
//  221     .ID = GROUP_ID,
//  222     .name = "",
//  223   };
//  224   aps_AddGroup(ZEM_ENDPOINT, &group);
//  225   // P2P
//  226   osal_start_timerEx(zclZEM_TaskID,
//  227                      ZEM_P2P_EVT,
//  228                      ZEM_P2P_PERIOD);
//  229 #endif
//  230 
//  231   // Initialize UART communication
//  232   zclZEM_InitUart();
        ORL       0xf1,#0x1
        ORL       0xf4,#0x30
        ORL       0xfe,#0x10
        ANL       0xfe,#0xdf
        MOV       DPL,?XSP + 0
        MOV       DPH,?XSP + 1
        MOV       A,#0x1
        MOVX      @DPTR,A
        LCALL     ?XSTACK_DISP0_8
        MOV       A,#0x4
        MOVX      @DPTR,A
        MOV       A,#0x2
        LCALL     ?XSTACK_DISP0_8
        CLR       A
        MOVX      @DPTR,A
        MOV       A,#0x3
        LCALL     ?XSTACK_DISP0_8
        CLR       A
        MOVX      @DPTR,A
        INC       DPTR
        MOVX      @DPTR,A
        MOV       A,#0xa
        LCALL     ?XSTACK_DISP0_8
        MOV       A,#0x40
        MOVX      @DPTR,A
        INC       DPTR
        CLR       A
        MOVX      @DPTR,A
        MOV       A,#0x12
        LCALL     ?XSTACK_DISP0_8
        CLR       A
        MOVX      @DPTR,A
        INC       DPTR
        MOVX      @DPTR,A
        MOV       A,#0x5
        LCALL     ?XSTACK_DISP0_8
        MOV       A,#0x6
        MOVX      @DPTR,A
        MOV       A,#0x16
        LCALL     ?XSTACK_DISP0_8
        MOV       A,#0x1
        MOVX      @DPTR,A
        MOV       A,#0x1b
        LCALL     ?XSTACK_DISP0_8
        MOV       A,#`??zclZEM_UartCB::?relay` & 0xff
        MOVX      @DPTR,A
        INC       DPTR
        MOV       A,#(`??zclZEM_UartCB::?relay` >> 8) & 0xff
        MOVX      @DPTR,A
        ; Setup parameters for call to function HalUARTOpen
        MOV       R2,?XSP + 0
        MOV       R3,?XSP + 1
        MOV       R1,#0x0
        LCALL     `??HalUARTOpen::?relay`; Banked call to: HalUARTOpen
//  233   
//  234   // Read and send MAC address
//  235   zclZEM_ReadAndSendMAC();
        ; Setup parameters for call to function zclZEM_ReadAndSendMAC
        LCALL     `??zclZEM_ReadAndSendMAC::?relay`; Banked call to: zclZEM_ReadAndSendMAC
//  236 
//  237 #ifdef BDB_REPORTING
//  238   //Adds the default configuration values for the temperature attribute of the ZCL_CLUSTER_ID_MS_TEMPERATURE_MEASUREMENT cluster, for endpoint ZEM_ENDPOINT
//  239   //Default maxReportingInterval value is 10 seconds
//  240   //Default minReportingInterval value is 3 seconds
//  241   //Default reportChange value is 300 (3 degrees)
//  242   bdb_RepAddAttrCfgRecordDefaultToList(ZEM_ENDPOINT, ZCL_CLUSTER_ID_MS_TEMPERATURE_MEASUREMENT, ATTRID_MS_TEMPERATURE_MEASURED_VALUE, 0, 10, reportableChange);
        ; Setup parameters for call to function bdb_RepAddAttrCfgRecordDefaultToList
        MOV       ?V0,#reportableChange & 0xff
        MOV       ?V1,#(reportableChange >> 8) & 0xff
        MOV       R0,#?V0
        LCALL     ?PUSH_XSTACK_I_TWO
          CFI CFA_XSP16 add(XSP16, 41)
        MOV       ?V0,#0xa
        MOV       ?V1,#0x0
        MOV       R0,#?V0
        LCALL     ?PUSH_XSTACK_I_TWO
          CFI CFA_XSP16 add(XSP16, 43)
        CLR       A
        MOV       ?V0,A
        MOV       R0,#?V0
        LCALL     ?PUSH_XSTACK_I_TWO
          CFI CFA_XSP16 add(XSP16, 45)
        MOV       R4,#0x0
        MOV       R5,#0x0
        MOV       R2,#0x2
        MOV       R3,#0x4
        MOV       R1,#0x8
        LCALL     `??bdb_RepAddAttrCfgRecordDefaultToList::?relay`; Banked call to: bdb_RepAddAttrCfgRecordDefaultToList
        MOV       A,#0x6
        LCALL     ?DEALLOC_XSTACK8
          CFI CFA_XSP16 add(XSP16, 39)
//  243 #endif
//  244   
//  245   zdpExternalStateTaskID = zclZEM_TaskID;
        MOV       DPTR,#zclZEM_TaskID
        MOVX      A,@DPTR
        MOV       DPTR,#zdpExternalStateTaskID
        MOVX      @DPTR,A
        INC       DPTR
        CLR       A
        MOVX      @DPTR,A
//  246    osal_start_timerEx(
//  247       zclZEM_TaskID,
//  248       ZEMAPP_EVT,
//  249       3000);
        ; Setup parameters for call to function osal_start_timerEx
        MOV       DPTR,#__Constant_bb8
        LCALL     ?PUSH_XSTACK8_X_FOUR
          CFI CFA_XSP16 add(XSP16, 43)
        MOV       R2,#-0x80
        MOV       R3,#0x0
        MOV       DPTR,#zclZEM_TaskID
        MOVX      A,@DPTR
        MOV       R1,A
        LCALL     `??osal_start_timerEx::?relay`; Banked call to: osal_start_timerEx
        MOV       A,#0x4
        LCALL     ?DEALLOC_XSTACK8
          CFI CFA_XSP16 add(XSP16, 39)
//  250 }
        MOV       A,#0x1d
        LCALL     ?DEALLOC_XSTACK8
          CFI CFA_XSP16 add(XSP16, 10)
        MOV       R7,#0x2
        LJMP      ?BANKED_LEAVE_XDATA
          CFI EndBlock cfiBlock0
        REQUIRE PERCFG
        REQUIRE P1SEL
        REQUIRE P1DIR
//  251 
//  252 /*********************************************************************
//  253  * @fn          zclSample_event_loop
//  254  *
//  255  * @brief       Event Loop Processor for zclGeneral.
//  256  *
//  257  * @param       none
//  258  *
//  259  * @return      none
//  260  */

        RSEG BANKED_CODE:HUGECODE:NOROOT(0)
//  261 uint16 zclZEM_event_loop( uint8 task_id, uint16 events )
zclZEM_event_loop:
          CFI Block cfiBlock1 Using cfiCommon0
          CFI Function zclZEM_event_loop
        CODE
//  262 {
        FUNCALL zclZEM_event_loop, HalLedBlink
        LOCFRAME ISTACK, 0, STACK
        LOCFRAME PSTACK, 0, STACK
        LOCFRAME XSTACK, 38, STACK
        LOCFRAME IOVERLAY, 0, STATIC
        LOCFRAME DOVERLAY, 0, STATIC
        ARGFRAME ISTACK, 0, STACK
        ARGFRAME PSTACK, 0, STACK
        ARGFRAME XSTACK, 38, STACK
        ARGFRAME IOVERLAY, 0, STATIC
        ARGFRAME DOVERLAY, 0, STATIC
        FUNCALL zclZEM_event_loop, osal_start_timerEx
        LOCFRAME ISTACK, 0, STACK
        LOCFRAME PSTACK, 0, STACK
        LOCFRAME XSTACK, 42, STACK
        LOCFRAME IOVERLAY, 0, STATIC
        LOCFRAME DOVERLAY, 0, STATIC
        ARGFRAME ISTACK, 0, STACK
        ARGFRAME PSTACK, 0, STACK
        ARGFRAME XSTACK, 42, STACK
        ARGFRAME IOVERLAY, 0, STATIC
        ARGFRAME DOVERLAY, 0, STATIC
        FUNCALL zclZEM_event_loop, osal_msg_deallocate
        LOCFRAME ISTACK, 0, STACK
        LOCFRAME PSTACK, 0, STACK
        LOCFRAME XSTACK, 38, STACK
        LOCFRAME IOVERLAY, 0, STATIC
        LOCFRAME DOVERLAY, 0, STATIC
        ARGFRAME ISTACK, 0, STACK
        ARGFRAME PSTACK, 0, STACK
        ARGFRAME XSTACK, 38, STACK
        ARGFRAME IOVERLAY, 0, STATIC
        ARGFRAME DOVERLAY, 0, STATIC
        FUNCALL zclZEM_event_loop, osal_msg_receive
        LOCFRAME ISTACK, 0, STACK
        LOCFRAME PSTACK, 0, STACK
        LOCFRAME XSTACK, 38, STACK
        LOCFRAME IOVERLAY, 0, STATIC
        LOCFRAME DOVERLAY, 0, STATIC
        ARGFRAME ISTACK, 0, STACK
        ARGFRAME PSTACK, 0, STACK
        ARGFRAME XSTACK, 38, STACK
        ARGFRAME IOVERLAY, 0, STATIC
        ARGFRAME DOVERLAY, 0, STATIC
        FUNCALL zclZEM_event_loop, zclZEM_ProcessIncomingMsg
        LOCFRAME ISTACK, 0, STACK
        LOCFRAME PSTACK, 0, STACK
        LOCFRAME XSTACK, 38, STACK
        LOCFRAME IOVERLAY, 0, STATIC
        LOCFRAME DOVERLAY, 0, STATIC
        ARGFRAME ISTACK, 0, STACK
        ARGFRAME PSTACK, 0, STACK
        ARGFRAME XSTACK, 38, STACK
        ARGFRAME IOVERLAY, 0, STATIC
        ARGFRAME DOVERLAY, 0, STATIC
        FUNCALL zclZEM_event_loop, zclZEM_AF_RxProc
        LOCFRAME ISTACK, 0, STACK
        LOCFRAME PSTACK, 0, STACK
        LOCFRAME XSTACK, 38, STACK
        LOCFRAME IOVERLAY, 0, STATIC
        LOCFRAME DOVERLAY, 0, STATIC
        ARGFRAME ISTACK, 0, STACK
        ARGFRAME PSTACK, 0, STACK
        ARGFRAME XSTACK, 38, STACK
        ARGFRAME IOVERLAY, 0, STATIC
        ARGFRAME DOVERLAY, 0, STATIC
        FUNCALL zclZEM_event_loop, AF_DataRequest
        LOCFRAME ISTACK, 0, STACK
        LOCFRAME PSTACK, 0, STACK
        LOCFRAME XSTACK, 47, STACK
        LOCFRAME IOVERLAY, 0, STATIC
        LOCFRAME DOVERLAY, 0, STATIC
        ARGFRAME ISTACK, 0, STACK
        ARGFRAME PSTACK, 0, STACK
        ARGFRAME XSTACK, 47, STACK
        ARGFRAME IOVERLAY, 0, STATIC
        ARGFRAME DOVERLAY, 0, STATIC
        FUNCALL zclZEM_event_loop, osal_start_timerEx
        LOCFRAME ISTACK, 0, STACK
        LOCFRAME PSTACK, 0, STACK
        LOCFRAME XSTACK, 42, STACK
        LOCFRAME IOVERLAY, 0, STATIC
        LOCFRAME DOVERLAY, 0, STATIC
        ARGFRAME ISTACK, 0, STACK
        ARGFRAME PSTACK, 0, STACK
        ARGFRAME XSTACK, 42, STACK
        ARGFRAME IOVERLAY, 0, STATIC
        ARGFRAME DOVERLAY, 0, STATIC
        FUNCALL zclZEM_event_loop, AF_DataRequest
        LOCFRAME ISTACK, 0, STACK
        LOCFRAME PSTACK, 0, STACK
        LOCFRAME XSTACK, 47, STACK
        LOCFRAME IOVERLAY, 0, STATIC
        LOCFRAME DOVERLAY, 0, STATIC
        ARGFRAME ISTACK, 0, STACK
        ARGFRAME PSTACK, 0, STACK
        ARGFRAME XSTACK, 47, STACK
        ARGFRAME IOVERLAY, 0, STATIC
        ARGFRAME DOVERLAY, 0, STATIC
        FUNCALL zclZEM_event_loop, osal_start_timerEx
        LOCFRAME ISTACK, 0, STACK
        LOCFRAME PSTACK, 0, STACK
        LOCFRAME XSTACK, 42, STACK
        LOCFRAME IOVERLAY, 0, STATIC
        LOCFRAME DOVERLAY, 0, STATIC
        ARGFRAME ISTACK, 0, STACK
        ARGFRAME PSTACK, 0, STACK
        ARGFRAME XSTACK, 42, STACK
        ARGFRAME IOVERLAY, 0, STATIC
        ARGFRAME DOVERLAY, 0, STATIC
        REQUIRE ?V0
        REQUIRE ?V1
        REQUIRE ?V2
        REQUIRE ?V3
        MOV       A,#-0xc
        LCALL     ?BANKED_ENTER_XDATA
          CFI DPH0 load(1, XDATA, add(CFA_XSP16, literal(-1)))
          CFI DPL0 load(1, XDATA, add(CFA_XSP16, literal(-2)))
          CFI ?BRET_EXT load(1, XDATA, add(CFA_XSP16, literal(-3)))
          CFI ?RET_HIGH load(1, XDATA, add(CFA_XSP16, literal(-4)))
          CFI ?RET_LOW load(1, XDATA, add(CFA_XSP16, literal(-5)))
          CFI R7 load(1, XDATA, add(CFA_XSP16, literal(-6)))
          CFI V3 load(1, XDATA, add(CFA_XSP16, literal(-7)))
          CFI V2 load(1, XDATA, add(CFA_XSP16, literal(-8)))
          CFI V1 load(1, XDATA, add(CFA_XSP16, literal(-9)))
          CFI V0 load(1, XDATA, add(CFA_XSP16, literal(-10)))
          CFI VB load(1, XDATA, add(CFA_XSP16, literal(-11)))
          CFI R6 load(1, XDATA, add(CFA_XSP16, literal(-12)))
          CFI CFA_SP SP+0
          CFI CFA_XSP16 add(XSP16, 12)
        ; Saved register size: 12
        ; Auto size: 26
        MOV       A,#-0x1a
        LCALL     ?ALLOC_XSTACK8
          CFI CFA_XSP16 add(XSP16, 38)
        MOV       A,R2
        MOV       R6,A
        MOV       A,R3
        MOV       R7,A
//  263   afIncomingMSGPacket_t *MSGpkt;
//  264 
//  265   (void)task_id;  // Intentionally unreferenced parameter
//  266 
//  267   if ( events & SYS_EVENT_MSG )
        ANL       A,#0x80
        JNZ       ??zclZEM_event_loop_0
//  268   {
//  269     while ( (MSGpkt = (afIncomingMSGPacket_t *)osal_msg_receive( zclZEM_TaskID )) )
//  270     {
//  271       switch ( MSGpkt->hdr.event )
//  272       {
//  273         case ZCL_INCOMING_MSG:
//  274           // Incoming ZCL Foundation command/response messages
//  275           zclZEM_ProcessIncomingMsg( (zclIncomingMsg_t *)MSGpkt );
//  276           break;
//  277 
//  278         case AF_INCOMING_MSG_CMD:
//  279           // Incoming AF data messages
//  280           zclZEM_AF_RxProc( MSGpkt );
//  281           break;
//  282 
//  283         case KEY_CHANGE:
//  284           zclZEM_HandleKeys( ((keyChange_t *)MSGpkt)->state, ((keyChange_t *)MSGpkt)->keys );
//  285           break;
//  286 
//  287         case ZDO_STATE_CHANGE:
//  288           // 处理网络状态变化
//  289           {
//  290             uint8 newState = ((uint8*)MSGpkt)[0];
//  291             zclZEM_NwkState = newState; // 更新网络状态
//  292             
//  293             if (newState == 5) // DEV_END_DEVICE
//  294             {
//  295               // 终端设备已加入网络
//  296               uint8 successMsg[] = "Network joined successfully!\r\n";
//  297               HalUARTWrite(HAL_UART_PORT_0, successMsg, sizeof(successMsg)-1);
//  298               
//  299               // 联网成功后向协调器发送MAC地址
//  300               #ifndef ZDO_COORDINATOR
//  301               zclZEM_SendMACToCoordinator();
//  302               #endif
//  303             }
//  304             else if (newState == 9) // DEV_NWK_ORPHAN
//  305             {
//  306               // 设备成为孤立设备
//  307               #ifndef ZDO_COORDINATOR
//  308               {
//  309                 static uint8 retryCount = 0;
//  310                 if (retryCount < 3)
//  311                 {
//  312                   retryCount++;
//  313                   osal_start_timerEx(zclZEM_TaskID, ZEM_REJOIN_EVT, 2000);
//  314                 }
//  315               }
//  316               #endif
//  317             }
//  318           }
//  319           break;
//  320 
//  321         default:
//  322           break;
//  323       }
//  324 
//  325       // Release the memory
//  326       osal_msg_deallocate( (uint8 *)MSGpkt );
//  327     }
//  328 
//  329     // return unprocessed events
//  330     return (events ^ SYS_EVENT_MSG);
//  331   }
//  332 
//  333   // 先处理LED闪烁事件，确保不会被SYS_EVENT_MSG阻塞
//  334   if(events & ZEMAPP_EVT)
        MOV       A,R6
        ANL       A,#0x80
        JZ        ??zclZEM_event_loop_1
//  335   { 
//  336     HalLedBlink(
//  337         HAL_LED_1, // 指定使用LED1
//  338         10, // 指定闪烁次数为10次
//  339         50, // 指定50%的时间LED处于点亮状态
//  340         1000); // 指定每次闪烁周期为1000ms
        ; Setup parameters for call to function HalLedBlink
        MOV       R4,#-0x18
        MOV       R5,#0x3
        MOV       R3,#0x32
        MOV       R2,#0xa
        MOV       R1,#0x1
        LCALL     `??HalLedBlink::?relay`; Banked call to: HalLedBlink
//  341     
//  342     // 设置下一次LED闪烁定时器
//  343     osal_start_timerEx(zclZEM_TaskID, ZEMAPP_EVT, 10000);
        ; Setup parameters for call to function osal_start_timerEx
        MOV       DPTR,#__Constant_2710
        LCALL     ?PUSH_XSTACK8_X_FOUR
          CFI CFA_XSP16 add(XSP16, 42)
        MOV       R2,#-0x80
        MOV       R3,#0x0
        MOV       DPTR,#zclZEM_TaskID
        MOVX      A,@DPTR
        MOV       R1,A
        LCALL     `??osal_start_timerEx::?relay`; Banked call to: osal_start_timerEx
        MOV       A,#0x4
        LCALL     ?DEALLOC_XSTACK8
          CFI CFA_XSP16 add(XSP16, 38)
//  344     
//  345     return (events ^ ZEMAPP_EVT);
        MOV       A,R6
        XRL       A,#0x80
        MOV       R2,A
        MOV       A,R7
        LJMP      ??zclZEM_event_loop_2 & 0xFFFF
//  346   }
??zclZEM_event_loop_3:
        MOV       DPTR,#zclZEM_NwkState
        MOV       A,#-0x2f
        MOVX      @DPTR,A
??zclZEM_event_loop_4:
        ; Setup parameters for call to function osal_msg_deallocate
        MOV       R2,?V0
        MOV       R3,?V1
        LCALL     `??osal_msg_deallocate::?relay`; Banked call to: osal_msg_deallocate
??zclZEM_event_loop_0:
        ; Setup parameters for call to function osal_msg_receive
        MOV       DPTR,#zclZEM_TaskID
        MOVX      A,@DPTR
        MOV       R1,A
        LCALL     `??osal_msg_receive::?relay`; Banked call to: osal_msg_receive
        MOV       ?V0,R2
        MOV       ?V1,R3
        MOV       A,R2
        ORL       A,?V1
        JZ        ??zclZEM_event_loop_5
        MOV       DPL,R2
        MOV       DPH,R3
        MOVX      A,@DPTR
        ADD       A,#-0x1a
        JZ        ??zclZEM_event_loop_6
        ADD       A,#-0x1a
        JZ        ??zclZEM_event_loop_7
        ADD       A,#0x63
        JZ        ??zclZEM_event_loop_3
        SJMP      ??zclZEM_event_loop_4
??zclZEM_event_loop_7:
        ; Setup parameters for call to function zclZEM_ProcessIncomingMsg
        LCALL     `??zclZEM_ProcessIncomingMsg::?relay`; Banked call to: zclZEM_ProcessIncomingMsg
        SJMP      ??zclZEM_event_loop_4
??zclZEM_event_loop_6:
        ; Setup parameters for call to function zclZEM_AF_RxProc
        LCALL     `??zclZEM_AF_RxProc::?relay`; Banked call to: zclZEM_AF_RxProc
        SJMP      ??zclZEM_event_loop_4
??zclZEM_event_loop_5:
        MOV       A,R6
        MOV       R2,A
        MOV       A,R7
        XRL       A,#0x80
        LJMP      ??zclZEM_event_loop_2 & 0xFFFF
//  347   
//  348 #if ZG_BUILD_ENDDEVICE_TYPE    
//  349   if ( events & ZEM_END_DEVICE_REJOIN_EVT )
//  350   {
//  351     bdb_ZedAttemptRecoverNwk();
//  352     return ( events ^ ZEM_END_DEVICE_REJOIN_EVT );
//  353   }
//  354 #endif
//  355 
//  356   if ( events & ZEM_LCD_AUTO_UPDATE_EVT )
??zclZEM_event_loop_1:
        MOV       A,R6
        ANL       A,#0x10
        JZ        ??zclZEM_event_loop_8
//  357   {
//  358     return ( events ^ ZEM_LCD_AUTO_UPDATE_EVT );
        MOV       A,R6
        XRL       A,#0x10
        SJMP      ??zclZEM_event_loop_9
//  359   }
//  360 
//  361   if ( events & ZEM_KEY_AUTO_REPEAT_EVT )
??zclZEM_event_loop_8:
        MOV       A,R6
        ANL       A,#0x20
        JZ        ??zclZEM_event_loop_10
//  362   {
//  363     return ( events ^ ZEM_KEY_AUTO_REPEAT_EVT );
        MOV       A,R6
        XRL       A,#0x20
??zclZEM_event_loop_9:
        MOV       R2,A
        LJMP      ??zclZEM_event_loop_11 & 0xFFFF
//  364   }
//  365   
//  366   // Broadcast event
//  367   if ( events & ZEM_BROADCAST_EVT )
//  368   {
//  369     uint8 broadcastData[] = "Broadcast";
//  370     zclZEM_AF_Broadcast(CLUSTER_BROADCAST, 
//  371                         sizeof(broadcastData)-1, 
//  372                         broadcastData);
//  373     osal_start_timerEx(zclZEM_TaskID,
//  374                       ZEM_BROADCAST_EVT,
//  375                       ZEM_BROADCAST_PERIOD);
//  376     return ( events ^ ZEM_BROADCAST_EVT );
//  377   }
//  378   
//  379   // Groupcast event
//  380   if ( events & ZEM_GROUPCAST_EVT )
??zclZEM_event_loop_10:
        MOV       A,R7
        ANL       A,#0x1
        JNZ       $+5
        LJMP      ??zclZEM_event_loop_12 & 0xFFFF
//  381   {
//  382     uint8 groupcastData[] = "Groupcast";
        MOV       DPTR,#`?<Constant "Groupcast">`
        MOV       A,#0x10
        LCALL     ?XSTACK_DISP102_8
        MOV       A,#0xa
        LCALL     ?MOVE_LONG8_XDATA_XDATA
//  383     zclZEM_AF_Groupcast(GROUP_ID,
//  384                         CLUSTER_GROUPCAST,
//  385                         sizeof(groupcastData)-1, 
//  386                         groupcastData);
        MOV       A,#0x8
        LCALL     ?XSTACK_DISP0_8
        MOV       A,#0x1
        MOVX      @DPTR,A
        MOV       DPL,?XSP + 0
        MOV       DPH,?XSP + 1
        MOV       A,#0x15
        MOVX      @DPTR,A
        INC       DPTR
        CLR       A
        MOVX      @DPTR,A
        MOV       A,#0x9
        LCALL     ?XSTACK_DISP0_8
        MOV       A,#0x8
        MOVX      @DPTR,A
        MOV       DPTR,#??transferId_2
        LCALL     ?Subroutine9 & 0xFFFF
??CrossCallReturnLabel_7:
        LCALL     ?PUSH_XSTACK_I_ONE
          CFI CFA_XSP16 add(XSP16, 39)
        MOV       ?V0,#??transferId_2 & 0xff
        MOV       ?V1,#(??transferId_2 >> 8) & 0xff
        MOV       R0,#?V0
        LCALL     ?PUSH_XSTACK_I_TWO
          CFI CFA_XSP16 add(XSP16, 41)
        MOV       A,#0x13
        LCALL     ?XSTACK_DISP100_8
        MOV       ?V0,R0
        MOV       ?V1,R1
        MOV       R0,#?V0
        LCALL     ?PUSH_XSTACK_I_TWO
          CFI CFA_XSP16 add(XSP16, 43)
        MOV       ?V0,#0x9
        MOV       ?V1,#0x0
        MOV       R0,#?V0
        LCALL     ?PUSH_XSTACK_I_TWO
          CFI CFA_XSP16 add(XSP16, 45)
        MOV       ?V0,#0x2
        MOV       R0,#?V0
        LCALL     ?PUSH_XSTACK_I_TWO
          CFI CFA_XSP16 add(XSP16, 47)
        MOV       R1,#0x0
        MOV       R4,#ZEM_AppEp & 0xff
        MOV       R5,#(ZEM_AppEp >> 8) & 0xff
        MOV       A,#0x9
        LCALL     ?XSTACK_DISP101_8
        LCALL     `??AF_DataRequest::?relay`; Banked call to: AF_DataRequest
        MOV       A,#0x9
        LCALL     ?DEALLOC_XSTACK8
          CFI CFA_XSP16 add(XSP16, 38)
//  387     osal_start_timerEx(zclZEM_TaskID,
//  388                       ZEM_GROUPCAST_EVT,
//  389                       ZEM_GROUPCAST_PERIOD);
        ; Setup parameters for call to function osal_start_timerEx
        MOV       DPTR,#__Constant_3e8
        LCALL     ?PUSH_XSTACK8_X_FOUR
          CFI CFA_XSP16 add(XSP16, 42)
        MOV       R2,#0x0
        MOV       R3,#0x1
        MOV       DPTR,#zclZEM_TaskID
        MOVX      A,@DPTR
        MOV       R1,A
        LCALL     `??osal_start_timerEx::?relay`; Banked call to: osal_start_timerEx
        MOV       A,#0x4
        LCALL     ?DEALLOC_XSTACK8
          CFI CFA_XSP16 add(XSP16, 38)
//  390     return ( events ^ ZEM_GROUPCAST_EVT );
        MOV       A,R6
        MOV       R2,A
        MOV       A,R7
        XRL       A,#0x1
        LJMP      ??zclZEM_event_loop_2 & 0xFFFF
//  391   }
//  392   
//  393   // P2P event
//  394   if ( events & ZEM_P2P_EVT )
??zclZEM_event_loop_12:
        MOV       A,R7
        ANL       A,#0x2
        JNZ       $+5
        LJMP      ??zclZEM_event_loop_13 & 0xFFFF
//  395   {
//  396     uint8 p2pData[] = "P2P";
        MOV       DPTR,#`?<Constant "P2P">`
        MOV       A,#0xc
        LCALL     ?XSTACK_DISP102_8
        MOV       A,#0x4
        LCALL     ?MOVE_LONG8_XDATA_XDATA
//  397     zclZEM_AF_P2P(0x0000, // 目标设备网络地址（这里使用0x0000作为示例）
//  398                   CLUSTER_P2P,
//  399                   sizeof(p2pData)-1, 
//  400                   p2pData);
        MOV       A,#0x8
        LCALL     ?XSTACK_DISP0_8
        MOV       A,#0x2
        MOVX      @DPTR,A
        MOV       DPL,?XSP + 0
        MOV       DPH,?XSP + 1
        CLR       A
        MOVX      @DPTR,A
        INC       DPTR
        MOVX      @DPTR,A
        MOV       A,#0x9
        LCALL     ?XSTACK_DISP0_8
        MOV       A,#0x8
        MOVX      @DPTR,A
        MOV       DPTR,#??transferId
        LCALL     ?Subroutine9 & 0xFFFF
??CrossCallReturnLabel_8:
        LCALL     ?PUSH_XSTACK_I_ONE
          CFI CFA_XSP16 add(XSP16, 39)
        MOV       ?V0,#??transferId & 0xff
        MOV       ?V1,#(??transferId >> 8) & 0xff
        MOV       R0,#?V0
        LCALL     ?PUSH_XSTACK_I_TWO
          CFI CFA_XSP16 add(XSP16, 41)
        MOV       A,#0xf
        LCALL     ?XSTACK_DISP100_8
        MOV       ?V0,R0
        MOV       ?V1,R1
        MOV       R0,#?V0
        LCALL     ?PUSH_XSTACK_I_TWO
          CFI CFA_XSP16 add(XSP16, 43)
        MOV       ?V0,#0x3
        MOV       ?V1,#0x0
        MOV       R0,#?V0
        LCALL     ?PUSH_XSTACK_I_TWO
          CFI CFA_XSP16 add(XSP16, 45)
        CLR       A
        MOV       ?V0,A
        MOV       R0,#?V0
        LCALL     ?PUSH_XSTACK_I_TWO
          CFI CFA_XSP16 add(XSP16, 47)
        MOV       R1,#0x0
        MOV       R4,#ZEM_AppEp & 0xff
        MOV       R5,#(ZEM_AppEp >> 8) & 0xff
        MOV       A,#0x9
        LCALL     ?XSTACK_DISP101_8
        LCALL     `??AF_DataRequest::?relay`; Banked call to: AF_DataRequest
        MOV       A,#0x9
        LCALL     ?DEALLOC_XSTACK8
          CFI CFA_XSP16 add(XSP16, 38)
//  401     osal_start_timerEx(zclZEM_TaskID,
//  402                       ZEM_P2P_EVT,
//  403                       ZEM_P2P_PERIOD);
        ; Setup parameters for call to function osal_start_timerEx
        MOV       DPTR,#__Constant_3e8
        LCALL     ?PUSH_XSTACK8_X_FOUR
          CFI CFA_XSP16 add(XSP16, 42)
        MOV       R2,#0x0
        MOV       R3,#0x2
        MOV       DPTR,#zclZEM_TaskID
        MOVX      A,@DPTR
        MOV       R1,A
        LCALL     `??osal_start_timerEx::?relay`; Banked call to: osal_start_timerEx
        MOV       A,#0x4
        LCALL     ?DEALLOC_XSTACK8
          CFI CFA_XSP16 add(XSP16, 38)
//  404     return ( events ^ ZEM_P2P_EVT );
        MOV       A,R6
        MOV       R2,A
        MOV       A,R7
        XRL       A,#0x2
??zclZEM_event_loop_2:
        MOV       R3,A
        SJMP      ??zclZEM_event_loop_11
//  405   }
//  406   #ifndef ZDO_COORDINATOR
//  407     if ( events & ZEM_REJOIN_EVT )//如果事件类型为重新加入网络事件
//  408     {
//  409         // 重新加入网络
//  410         
//  411         /* 重新加入网络 */
//  412         bdb_StartCommissioning(BDB_COMMISSIONING_MODE_NWK_STEERING |
//  413                                     BDB_COMMISSIONING_MODE_FINDING_BINDING );
//  414       return ( events ^ ZEM_REJOIN_EVT );
//  415     }
//  416   #endif
//  417 
//  418   // Discard unknown events
//  419   return 0;
??zclZEM_event_loop_13:
        MOV       R2,#0x0
        MOV       R3,#0x0
??zclZEM_event_loop_11:
        MOV       A,#0x1a
          CFI EndBlock cfiBlock1
        REQUIRE ?Subroutine0
        ; // Fall through to label ?Subroutine0
//  420 }

        RSEG BANKED_CODE:HUGECODE:NOROOT(0)
?Subroutine0:
          CFI Block cfiBlock2 Using cfiCommon0
          CFI NoFunction
          CFI CFA_SP SP+0
          CFI CFA_XSP16 add(XSP16, 38)
          CFI VB load(1, XDATA, add(CFA_XSP16, literal(-11)))
          CFI DPL0 load(1, XDATA, add(CFA_XSP16, literal(-2)))
          CFI DPH0 load(1, XDATA, add(CFA_XSP16, literal(-1)))
          CFI R6 load(1, XDATA, add(CFA_XSP16, literal(-12)))
          CFI R7 load(1, XDATA, add(CFA_XSP16, literal(-6)))
          CFI V0 load(1, XDATA, add(CFA_XSP16, literal(-10)))
          CFI V1 load(1, XDATA, add(CFA_XSP16, literal(-9)))
          CFI V2 load(1, XDATA, add(CFA_XSP16, literal(-8)))
          CFI V3 load(1, XDATA, add(CFA_XSP16, literal(-7)))
          CFI ?BRET_EXT load(1, XDATA, add(CFA_XSP16, literal(-3)))
          CFI ?RET_HIGH load(1, XDATA, add(CFA_XSP16, literal(-4)))
          CFI ?RET_LOW load(1, XDATA, add(CFA_XSP16, literal(-5)))
          CFI Invalid
        LCALL     ?DEALLOC_XSTACK8
          CFI CFA_XSP16 add(XSP16, 12)
          CFI Valid
        MOV       R7,#0x4
        LJMP      ?BANKED_LEAVE_XDATA
          CFI EndBlock cfiBlock2

        RSEG BANKED_CODE:HUGECODE:NOROOT(0)
?Subroutine9:
          CFI Block cfiCond3 Using cfiCommon0
          CFI Function zclZEM_event_loop
          CFI Conditional ??CrossCallReturnLabel_7
          CFI R6 load(1, XDATA, add(CFA_XSP16, literal(-12)))
          CFI VB load(1, XDATA, add(CFA_XSP16, literal(-11)))
          CFI V0 load(1, XDATA, add(CFA_XSP16, literal(-10)))
          CFI V1 load(1, XDATA, add(CFA_XSP16, literal(-9)))
          CFI V2 load(1, XDATA, add(CFA_XSP16, literal(-8)))
          CFI V3 load(1, XDATA, add(CFA_XSP16, literal(-7)))
          CFI R7 load(1, XDATA, add(CFA_XSP16, literal(-6)))
          CFI ?RET_LOW load(1, XDATA, add(CFA_XSP16, literal(-5)))
          CFI ?RET_HIGH load(1, XDATA, add(CFA_XSP16, literal(-4)))
          CFI ?BRET_EXT load(1, XDATA, add(CFA_XSP16, literal(-3)))
          CFI DPL0 load(1, XDATA, add(CFA_XSP16, literal(-2)))
          CFI DPH0 load(1, XDATA, add(CFA_XSP16, literal(-1)))
          CFI CFA_SP SP+-2
          CFI CFA_XSP16 add(XSP16, 38)
          CFI Block cfiCond4 Using cfiCommon0
          CFI (cfiCond4) Function zclZEM_event_loop
          CFI (cfiCond4) Conditional ??CrossCallReturnLabel_8
          CFI (cfiCond4) R6 load(1, XDATA, add(CFA_XSP16, literal(-12)))
          CFI (cfiCond4) VB load(1, XDATA, add(CFA_XSP16, literal(-11)))
          CFI (cfiCond4) V0 load(1, XDATA, add(CFA_XSP16, literal(-10)))
          CFI (cfiCond4) V1 load(1, XDATA, add(CFA_XSP16, literal(-9)))
          CFI (cfiCond4) V2 load(1, XDATA, add(CFA_XSP16, literal(-8)))
          CFI (cfiCond4) V3 load(1, XDATA, add(CFA_XSP16, literal(-7)))
          CFI (cfiCond4) R7 load(1, XDATA, add(CFA_XSP16, literal(-6)))
          CFI (cfiCond4) ?RET_LOW load(1, XDATA, add(CFA_XSP16, literal(-5)))
          CFI (cfiCond4) ?RET_HIGH load(1, XDATA, add(CFA_XSP16, literal(-4)))
          CFI (cfiCond4) ?BRET_EXT load(1, XDATA, add(CFA_XSP16, literal(-3)))
          CFI (cfiCond4) DPL0 load(1, XDATA, add(CFA_XSP16, literal(-2)))
          CFI (cfiCond4) DPH0 load(1, XDATA, add(CFA_XSP16, literal(-1)))
          CFI (cfiCond4) CFA_SP SP+-2
          CFI (cfiCond4) CFA_XSP16 add(XSP16, 38)
          CFI Block cfiPicker5 Using cfiCommon1
          CFI (cfiPicker5) NoFunction
          CFI (cfiPicker5) Picker
        MOVX      A,@DPTR
        INC       A
        MOVX      @DPTR,A
        ; Setup parameters for call to function AF_DataRequest
        ; Setup parameters for call to function AF_DataRequest
        MOV       ?V0,#0x1e
        MOV       R0,#?V0
        RET
          CFI EndBlock cfiCond3
          CFI EndBlock cfiCond4
          CFI EndBlock cfiPicker5
//  421 
//  422 /*********************************************************************
//  423  * @fn      zclZEM_InitUart
//  424  *
//  425  * @brief   Initialize UART for communication
//  426  *
//  427  * @param   none
//  428  *
//  429  * @return  none
//  430  */
//  431 static void zclZEM_InitUart(void)
//  432 {
//  433   // 统一使用协调器的UART引脚配置（P1.4/P1.5）
//  434   /********** 1. 配置UART0的P1.4/P1.5和PERCFG寄存器 **********/
//  435   // PERCFG的bit0(U0CFG)设置为1：UART0映射到Alternative 2位置(P1.4/P1.5)
//  436   PERCFG |= (1 << 0);  // 配置PERCFG |= 0x01来设置相应的bit0
//  437 
//  438   /********** 2. 配置P1.4/P1.5为UART0功能和P1端口寄存器 **********/
//  439   // P1SEL的bit4(P1.4)和bit5(P1.5)设置为1：配置为外设功能(UART)
//  440   P1SEL |= (1 << 4) | (1 << 5);  // 配置P1SEL |= 0x30(00110000)
//  441   // P1DIR的bit4(P1.4=TX)设置为1：输出；bit5(P1.5=RX)设置为0：输入
//  442   P1DIR |= (1 << 4);   // P1.4(TX)作为输出
//  443   P1DIR &= ~(1 << 5);  // P1.5(RX)作为输入
//  444 
//  445   halUARTCfg_t uartConfig;
//  446   /* UART Configuration */
//  447   uartConfig.configured          = TRUE;      // Enable configuration
//  448   uartConfig.baudRate            = HAL_UART_BR_115200;  // Baud rate
//  449   uartConfig.flowControl         = FALSE;     // Disable hardware flow control
//  450   uartConfig.flowControlThreshold= 0;         // Flow control threshold
//  451   uartConfig.rx.maxBufSize       = ZCLZEM_UART_BUF_LEN;  // Receive buffer size
//  452   uartConfig.tx.maxBufSize       = 0;         // Transmit buffer size
//  453   uartConfig.idleTimeout         = 6;         // Default timeout
//  454   uartConfig.intEnable           = TRUE;      // Enable interrupt
//  455   uartConfig.callBackFunc        = zclZEM_UartCB;  // Set callback function
//  456   /* Start UART */
//  457   // 统一使用UART0端口（协调器配置）
//  458   HalUARTOpen(HAL_UART_PORT_0, &uartConfig);  // Open UART0 with configuration
//  459 }
//  460 
//  461 
//  462 void zclZEM_SendMACToCoordinator(void)
//  463 {
//  464   uint8* macAddr;
//  465   uint8 macData[10]; // MAC地址数据包：1字节类型标识 + 8字节MAC地址 + 1字节结束符
//  466   
//  467   // 读取MAC地址
//  468   macAddr = NLME_GetExtAddr();
//  469   
//  470   // 构建数据包
//  471   macData[0] = 0x01; // 类型标识：MAC地址数据
//  472   osal_memcpy(&macData[1], macAddr, 8); // 复制MAC地址
//  473   macData[9] = 0x00; // 结束符
//  474   
//  475   // 向协调器发送数据（协调器网络地址通常为0x0000）
//  476   zclZEM_AF_P2P(0x0000, // 协调器网络地址
//  477                 CLUSTER_P2P, // 使用点对点集群
//  478                 10, // 数据长度
//  479                 macData); // 数据内容
//  480   
//  481   // 同时通过串口显示发送信息
//  482   uint8 sendMsg[] = "MAC address sent to coordinator!\r\n";
//  483   HalUARTWrite(HAL_UART_PORT_0, sendMsg, sizeof(sendMsg)-1);
//  484 }
//  485 
//  486 /*********************************************************************
//  487  * @fn      zclZEM_ReadAndSendMAC
//  488  *
//  489  * @brief   Read MAC address and send it via UART
//  490  *
//  491  */

        RSEG BANKED_CODE:HUGECODE:NOROOT(0)
//  492 void zclZEM_ReadAndSendMAC(void)
zclZEM_ReadAndSendMAC:
          CFI Block cfiBlock6 Using cfiCommon0
          CFI Function zclZEM_ReadAndSendMAC
        CODE
//  493 {
        FUNCALL zclZEM_ReadAndSendMAC, NLME_GetExtAddr
        LOCFRAME ISTACK, 0, STACK
        LOCFRAME PSTACK, 0, STACK
        LOCFRAME XSTACK, 68, STACK
        LOCFRAME IOVERLAY, 0, STATIC
        LOCFRAME DOVERLAY, 0, STATIC
        ARGFRAME ISTACK, 0, STACK
        ARGFRAME PSTACK, 0, STACK
        ARGFRAME XSTACK, 68, STACK
        ARGFRAME IOVERLAY, 0, STATIC
        ARGFRAME DOVERLAY, 0, STATIC
        FUNCALL zclZEM_ReadAndSendMAC, osal_memcpy
        LOCFRAME ISTACK, 0, STACK
        LOCFRAME PSTACK, 0, STACK
        LOCFRAME XSTACK, 71, STACK
        LOCFRAME IOVERLAY, 0, STATIC
        LOCFRAME DOVERLAY, 0, STATIC
        ARGFRAME ISTACK, 0, STACK
        ARGFRAME PSTACK, 0, STACK
        ARGFRAME XSTACK, 71, STACK
        ARGFRAME IOVERLAY, 0, STATIC
        ARGFRAME DOVERLAY, 0, STATIC
        FUNCALL zclZEM_ReadAndSendMAC, HalUARTWrite
        LOCFRAME ISTACK, 0, STACK
        LOCFRAME PSTACK, 0, STACK
        LOCFRAME XSTACK, 68, STACK
        LOCFRAME IOVERLAY, 0, STATIC
        LOCFRAME DOVERLAY, 0, STATIC
        ARGFRAME ISTACK, 0, STACK
        ARGFRAME PSTACK, 0, STACK
        ARGFRAME XSTACK, 68, STACK
        ARGFRAME IOVERLAY, 0, STATIC
        ARGFRAME DOVERLAY, 0, STATIC
        REQUIRE ?V0
        REQUIRE ?V1
        REQUIRE ?V2
        REQUIRE ?V3
        MOV       A,#-0xc
        LCALL     ?BANKED_ENTER_XDATA
          CFI DPH0 load(1, XDATA, add(CFA_XSP16, literal(-1)))
          CFI DPL0 load(1, XDATA, add(CFA_XSP16, literal(-2)))
          CFI ?BRET_EXT load(1, XDATA, add(CFA_XSP16, literal(-3)))
          CFI ?RET_HIGH load(1, XDATA, add(CFA_XSP16, literal(-4)))
          CFI ?RET_LOW load(1, XDATA, add(CFA_XSP16, literal(-5)))
          CFI R7 load(1, XDATA, add(CFA_XSP16, literal(-6)))
          CFI V3 load(1, XDATA, add(CFA_XSP16, literal(-7)))
          CFI V2 load(1, XDATA, add(CFA_XSP16, literal(-8)))
          CFI V1 load(1, XDATA, add(CFA_XSP16, literal(-9)))
          CFI V0 load(1, XDATA, add(CFA_XSP16, literal(-10)))
          CFI VB load(1, XDATA, add(CFA_XSP16, literal(-11)))
          CFI R6 load(1, XDATA, add(CFA_XSP16, literal(-12)))
          CFI CFA_SP SP+0
          CFI CFA_XSP16 add(XSP16, 12)
        ; Saved register size: 12
        ; Auto size: 56
        MOV       A,#-0x38
        LCALL     ?ALLOC_XSTACK8
          CFI CFA_XSP16 add(XSP16, 68)
//  494   uint8* macAddr;
//  495   uint8 macStr[50]; // 足够存储MAC地址字符串
//  496   uint8 i, pos = 0;
//  497   
//  498   // Read MAC address from system
//  499   macAddr = NLME_GetExtAddr();
        ; Setup parameters for call to function NLME_GetExtAddr
        LCALL     `??NLME_GetExtAddr::?relay`; Banked call to: NLME_GetExtAddr
        MOV       ?V0,R2
        MOV       ?V1,R3
        MOV       R6,?V0
        MOV       R7,?V1
//  500   
//  501   // 手动构建MAC地址字符串
//  502   const uint8 header[] = "MAC: ";
        MOV       DPTR,#`?<Constant "MAC: ">`
        MOV       R4,?XSP + 0
        MOV       R5,?XSP + 1
        MOV       A,#0x6
        LCALL     ?MOVE_LONG8_XDATA_XDATA
//  503   osal_memcpy(macStr, header, 4);
        ; Setup parameters for call to function osal_memcpy
        MOV       R0,?XSP + 0
        MOV       R1,?XSP + 1
        MOV       ?V0,R0
        MOV       ?V1,R1
        MOV       ?V2,A
        MOV       R0,#?V0
        LCALL     ?PUSH_XSTACK_I_THREE
          CFI CFA_XSP16 add(XSP16, 71)
        MOV       R4,#0x4
        MOV       R5,#0x0
        MOV       A,#0x9
        LCALL     ?XSTACK_DISP101_8
        LCALL     `??osal_memcpy::?relay`; Banked call to: osal_memcpy
        MOV       A,#0x3
        LCALL     ?DEALLOC_XSTACK8
          CFI CFA_XSP16 add(XSP16, 68)
//  504   pos = 4;
        MOV       R0,#0x4
//  505   
//  506   // 添加MAC地址字节，格式化为十六进制
//  507   for (i = 0; i < 8; i++) {
        MOV       R4,#0x0
//  508     // 转换高4位
//  509     uint8 highNibble = (macAddr[i] >> 4) & 0x0F;
??zclZEM_ReadAndSendMAC_0:
        MOV       A,R4
        MOV       R2,A
        MOV       A,R6
        ADD       A,R2
        MOV       R2,A
        CLR       A
        ADDC      A,R7
        MOV       R3,A
        MOV       DPL,R2
        MOV       DPH,R3
        MOVX      A,@DPTR
        SWAP      A
        ANL       A,#0xf
        MOV       R1,A
//  510     macStr[pos++] = (highNibble < 10) ? ('0' + highNibble) : ('A' + highNibble - 10);
        MOV       ?V0,R0
        MOV       A,#0x1
        ADD       A,R0
        MOV       R0,A
        MOV       A,R1
        CLR       C
        SUBB      A,#0xa
        JNC       ??zclZEM_ReadAndSendMAC_1
        MOV       A,#0x30
        SJMP      ??zclZEM_ReadAndSendMAC_2
??zclZEM_ReadAndSendMAC_1:
        MOV       A,#0x37
??zclZEM_ReadAndSendMAC_2:
        ADD       A,R1
        PUSH      A
          CFI CFA_SP SP+-1
        MOV       A,?V0
        MOV       ?V2,A
        MOV       A,#0x6
        LCALL     ?XSTACK_DISP0_8
        MOV       A,DPL
        ADD       A,?V2
        MOV       DPL,A
        CLR       A
        ADDC      A,DPH
        MOV       DPH,A
        POP       A
          CFI CFA_SP SP+0
        MOVX      @DPTR,A
//  511     
//  512     // 转换低4位
//  513     uint8 lowNibble = macAddr[i] & 0x0F;
        MOV       DPL,R2
        MOV       DPH,R3
        MOVX      A,@DPTR
        ANL       A,#0xf
        MOV       R1,A
//  514     macStr[pos++] = (lowNibble < 10) ? ('0' + lowNibble) : ('A' + lowNibble - 10);
        MOV       ?V1,R0
        MOV       A,#0x1
        ADD       A,R0
        MOV       R0,A
        MOV       A,R1
        CLR       C
        SUBB      A,#0xa
        JNC       ??zclZEM_ReadAndSendMAC_3
        MOV       A,#0x30
        SJMP      ??zclZEM_ReadAndSendMAC_4
??zclZEM_ReadAndSendMAC_3:
        MOV       A,#0x37
??zclZEM_ReadAndSendMAC_4:
        ADD       A,R1
        MOV       R1,A
        MOV       R2,?V1
        MOV       A,#0x6
        LCALL     ?XSTACK_DISP0_8
        LCALL     ?Subroutine10 & 0xFFFF
??CrossCallReturnLabel_9:
        MOV       A,R1
        MOVX      @DPTR,A
//  515     
//  516     // 添加冒号分隔符（最后一个字节后不加）
//  517     if (i < 7) {
        MOV       A,R4
        CLR       C
        SUBB      A,#0x7
        JNC       ??zclZEM_ReadAndSendMAC_5
//  518       macStr[pos++] = ':';
        MOV       A,#0x6
        LCALL     ?XSTACK_DISP0_8
        LCALL     ?Subroutine11 & 0xFFFF
//  519     }
//  520   }
??CrossCallReturnLabel_11:
        MOV       A,#0x3a
        MOVX      @DPTR,A
        INC       R0
??zclZEM_ReadAndSendMAC_5:
        INC       R4
        MOV       A,R4
        CLR       C
        SUBB      A,#0x8
        JC        ??zclZEM_ReadAndSendMAC_0
//  521   
//  522   // 添加换行符
//  523   macStr[pos++] = '\r';
        MOV       A,R0
        MOV       R2,A
        MOV       A,#0x6
        LCALL     ?XSTACK_DISP0_8
        LCALL     ?Subroutine10 & 0xFFFF
??CrossCallReturnLabel_10:
        MOV       A,#0xd
        MOVX      @DPTR,A
        INC       R0
//  524   macStr[pos++] = '\n';
        MOV       A,#0x6
        LCALL     ?XSTACK_DISP0_8
        LCALL     ?Subroutine11 & 0xFFFF
??CrossCallReturnLabel_12:
        MOV       A,#0xa
        MOVX      @DPTR,A
//  525   
//  526   // Send MAC address via UART
//  527   // 统一使用UART0端口（协调器配置）
//  528   HalUARTWrite(HAL_UART_PORT_0, macStr, pos);
        ; Setup parameters for call to function HalUARTWrite
        MOV       A,#0x1
        ADD       A,R0
        MOV       R4,A
        MOV       R5,#0x0
        MOV       A,#0x6
        LCALL     ?XSTACK_DISP101_8
        MOV       R1,#0x0
        LCALL     `??HalUARTWrite::?relay`; Banked call to: HalUARTWrite
//  529 }
        MOV       A,#0x38
        LJMP      ?Subroutine0 & 0xFFFF
          CFI EndBlock cfiBlock6

        RSEG BANKED_CODE:HUGECODE:NOROOT(0)
?Subroutine11:
          CFI Block cfiCond7 Using cfiCommon0
          CFI Function zclZEM_ReadAndSendMAC
          CFI Conditional ??CrossCallReturnLabel_11
          CFI R6 load(1, XDATA, add(CFA_XSP16, literal(-12)))
          CFI VB load(1, XDATA, add(CFA_XSP16, literal(-11)))
          CFI V0 load(1, XDATA, add(CFA_XSP16, literal(-10)))
          CFI V1 load(1, XDATA, add(CFA_XSP16, literal(-9)))
          CFI V2 load(1, XDATA, add(CFA_XSP16, literal(-8)))
          CFI V3 load(1, XDATA, add(CFA_XSP16, literal(-7)))
          CFI R7 load(1, XDATA, add(CFA_XSP16, literal(-6)))
          CFI ?RET_LOW load(1, XDATA, add(CFA_XSP16, literal(-5)))
          CFI ?RET_HIGH load(1, XDATA, add(CFA_XSP16, literal(-4)))
          CFI ?BRET_EXT load(1, XDATA, add(CFA_XSP16, literal(-3)))
          CFI DPL0 load(1, XDATA, add(CFA_XSP16, literal(-2)))
          CFI DPH0 load(1, XDATA, add(CFA_XSP16, literal(-1)))
          CFI CFA_SP SP+-2
          CFI CFA_XSP16 add(XSP16, 68)
          CFI Block cfiCond8 Using cfiCommon0
          CFI (cfiCond8) Function zclZEM_ReadAndSendMAC
          CFI (cfiCond8) Conditional ??CrossCallReturnLabel_12
          CFI (cfiCond8) R6 load(1, XDATA, add(CFA_XSP16, literal(-12)))
          CFI (cfiCond8) VB load(1, XDATA, add(CFA_XSP16, literal(-11)))
          CFI (cfiCond8) V0 load(1, XDATA, add(CFA_XSP16, literal(-10)))
          CFI (cfiCond8) V1 load(1, XDATA, add(CFA_XSP16, literal(-9)))
          CFI (cfiCond8) V2 load(1, XDATA, add(CFA_XSP16, literal(-8)))
          CFI (cfiCond8) V3 load(1, XDATA, add(CFA_XSP16, literal(-7)))
          CFI (cfiCond8) R7 load(1, XDATA, add(CFA_XSP16, literal(-6)))
          CFI (cfiCond8) ?RET_LOW load(1, XDATA, add(CFA_XSP16, literal(-5)))
          CFI (cfiCond8) ?RET_HIGH load(1, XDATA, add(CFA_XSP16, literal(-4)))
          CFI (cfiCond8) ?BRET_EXT load(1, XDATA, add(CFA_XSP16, literal(-3)))
          CFI (cfiCond8) DPL0 load(1, XDATA, add(CFA_XSP16, literal(-2)))
          CFI (cfiCond8) DPH0 load(1, XDATA, add(CFA_XSP16, literal(-1)))
          CFI (cfiCond8) CFA_SP SP+-2
          CFI (cfiCond8) CFA_XSP16 add(XSP16, 68)
          CFI Block cfiPicker9 Using cfiCommon1
          CFI (cfiPicker9) NoFunction
          CFI (cfiPicker9) Picker
        MOV       A,DPL
        ADD       A,R0
        MOV       DPL,A
        CLR       A
        ADDC      A,DPH
        MOV       DPH,A
        RET
          CFI EndBlock cfiCond7
          CFI EndBlock cfiCond8
          CFI EndBlock cfiPicker9

        RSEG BANKED_CODE:HUGECODE:NOROOT(0)
?Subroutine10:
          CFI Block cfiCond10 Using cfiCommon0
          CFI Function zclZEM_ReadAndSendMAC
          CFI Conditional ??CrossCallReturnLabel_9
          CFI R6 load(1, XDATA, add(CFA_XSP16, literal(-12)))
          CFI VB load(1, XDATA, add(CFA_XSP16, literal(-11)))
          CFI V0 load(1, XDATA, add(CFA_XSP16, literal(-10)))
          CFI V1 load(1, XDATA, add(CFA_XSP16, literal(-9)))
          CFI V2 load(1, XDATA, add(CFA_XSP16, literal(-8)))
          CFI V3 load(1, XDATA, add(CFA_XSP16, literal(-7)))
          CFI R7 load(1, XDATA, add(CFA_XSP16, literal(-6)))
          CFI ?RET_LOW load(1, XDATA, add(CFA_XSP16, literal(-5)))
          CFI ?RET_HIGH load(1, XDATA, add(CFA_XSP16, literal(-4)))
          CFI ?BRET_EXT load(1, XDATA, add(CFA_XSP16, literal(-3)))
          CFI DPL0 load(1, XDATA, add(CFA_XSP16, literal(-2)))
          CFI DPH0 load(1, XDATA, add(CFA_XSP16, literal(-1)))
          CFI CFA_SP SP+-2
          CFI CFA_XSP16 add(XSP16, 68)
          CFI Block cfiCond11 Using cfiCommon0
          CFI (cfiCond11) Function zclZEM_ReadAndSendMAC
          CFI (cfiCond11) Conditional ??CrossCallReturnLabel_10
          CFI (cfiCond11) R6 load(1, XDATA, add(CFA_XSP16, literal(-12)))
          CFI (cfiCond11) VB load(1, XDATA, add(CFA_XSP16, literal(-11)))
          CFI (cfiCond11) V0 load(1, XDATA, add(CFA_XSP16, literal(-10)))
          CFI (cfiCond11) V1 load(1, XDATA, add(CFA_XSP16, literal(-9)))
          CFI (cfiCond11) V2 load(1, XDATA, add(CFA_XSP16, literal(-8)))
          CFI (cfiCond11) V3 load(1, XDATA, add(CFA_XSP16, literal(-7)))
          CFI (cfiCond11) R7 load(1, XDATA, add(CFA_XSP16, literal(-6)))
          CFI (cfiCond11) ?RET_LOW load(1, XDATA, add(CFA_XSP16, literal(-5)))
          CFI (cfiCond11) ?RET_HIGH load(1, XDATA, add(CFA_XSP16, literal(-4)))
          CFI (cfiCond11) ?BRET_EXT load(1, XDATA, add(CFA_XSP16, literal(-3)))
          CFI (cfiCond11) DPL0 load(1, XDATA, add(CFA_XSP16, literal(-2)))
          CFI (cfiCond11) DPH0 load(1, XDATA, add(CFA_XSP16, literal(-1)))
          CFI (cfiCond11) CFA_SP SP+-2
          CFI (cfiCond11) CFA_XSP16 add(XSP16, 68)
          CFI Block cfiPicker12 Using cfiCommon1
          CFI (cfiPicker12) NoFunction
          CFI (cfiPicker12) Picker
        MOV       A,DPL
        ADD       A,R2
        MOV       DPL,A
        CLR       A
        ADDC      A,DPH
        MOV       DPH,A
        RET
          CFI EndBlock cfiCond10
          CFI EndBlock cfiCond11
          CFI EndBlock cfiPicker12
//  530 
//  531 /*********************************************************************
//  532  * @fn      zclZEM_UartCB
//  533  *
//  534  * @brief   UART callback function
//  535  *
//  536  * @param   port - UART port
//  537  * @param   event - UART event
//  538  *
//  539  * @return  none
//  540  */

        RSEG BANKED_CODE:HUGECODE:NOROOT(0)
//  541 static void zclZEM_UartCB(uint8 port, uint8 event)
zclZEM_UartCB:
          CFI Block cfiBlock13 Using cfiCommon0
          CFI Function zclZEM_UartCB
        CODE
//  542 {
        FUNCALL zclZEM_UartCB, Hal_UART_RxBufLen
        LOCFRAME ISTACK, 0, STACK
        LOCFRAME PSTACK, 0, STACK
        LOCFRAME XSTACK, 9, STACK
        LOCFRAME IOVERLAY, 0, STATIC
        LOCFRAME DOVERLAY, 0, STATIC
        ARGFRAME ISTACK, 0, STACK
        ARGFRAME PSTACK, 0, STACK
        ARGFRAME XSTACK, 9, STACK
        ARGFRAME IOVERLAY, 0, STATIC
        ARGFRAME DOVERLAY, 0, STATIC
        FUNCALL zclZEM_UartCB, HalUARTRead
        LOCFRAME ISTACK, 0, STACK
        LOCFRAME PSTACK, 0, STACK
        LOCFRAME XSTACK, 9, STACK
        LOCFRAME IOVERLAY, 0, STATIC
        LOCFRAME DOVERLAY, 0, STATIC
        ARGFRAME ISTACK, 0, STACK
        ARGFRAME PSTACK, 0, STACK
        ARGFRAME XSTACK, 9, STACK
        ARGFRAME IOVERLAY, 0, STATIC
        ARGFRAME DOVERLAY, 0, STATIC
        FUNCALL zclZEM_UartCB, HalUARTWrite
        LOCFRAME ISTACK, 0, STACK
        LOCFRAME PSTACK, 0, STACK
        LOCFRAME XSTACK, 9, STACK
        LOCFRAME IOVERLAY, 0, STATIC
        LOCFRAME DOVERLAY, 0, STATIC
        ARGFRAME ISTACK, 0, STACK
        ARGFRAME PSTACK, 0, STACK
        ARGFRAME XSTACK, 9, STACK
        ARGFRAME IOVERLAY, 0, STATIC
        ARGFRAME DOVERLAY, 0, STATIC
        MOV       A,#-0x9
        LCALL     ?BANKED_ENTER_XDATA
          CFI DPH0 load(1, XDATA, add(CFA_XSP16, literal(-1)))
          CFI DPL0 load(1, XDATA, add(CFA_XSP16, literal(-2)))
          CFI ?BRET_EXT load(1, XDATA, add(CFA_XSP16, literal(-3)))
          CFI ?RET_HIGH load(1, XDATA, add(CFA_XSP16, literal(-4)))
          CFI ?RET_LOW load(1, XDATA, add(CFA_XSP16, literal(-5)))
          CFI R7 load(1, XDATA, add(CFA_XSP16, literal(-6)))
          CFI V0 load(1, XDATA, add(CFA_XSP16, literal(-7)))
          CFI VB load(1, XDATA, add(CFA_XSP16, literal(-8)))
          CFI R6 load(1, XDATA, add(CFA_XSP16, literal(-9)))
          CFI CFA_SP SP+0
          CFI CFA_XSP16 add(XSP16, 9)
        ; Saved register size: 9
        ; Auto size: 0
//  543   // 获取当前串口接收缓冲区有多少字节的数据
//  544   uint8 rxLen = Hal_UART_RxBufLen(HAL_UART_PORT_0); 
        ; Setup parameters for call to function Hal_UART_RxBufLen
        MOV       R1,#0x0
        LCALL     `??Hal_UART_RxBufLen::?relay`; Banked call to: Hal_UART_RxBufLen
        MOV       A,R2
//  545   if(rxLen != 0) // 如果字节数数量不等于0 
        JZ        ??zclZEM_UartCB_0
//  546   {
//  547     // 从串口缓冲区中读取数据
//  548     HalUARTRead(HAL_UART_PORT_0, zclZEM_UartBuf, rxLen);
        MOV       R6,A
        ; Setup parameters for call to function HalUARTRead
        MOV       R4,A
        MOV       R5,#0x0
        MOV       R2,#zclZEM_UartBuf & 0xff
        MOV       R3,#(zclZEM_UartBuf >> 8) & 0xff
        MOV       R1,#0x0
        LCALL     `??HalUARTRead::?relay`; Banked call to: HalUARTRead
//  549     // 通过串口发送数据，例如把数据发送到串口助手
//  550     HalUARTWrite(HAL_UART_PORT_0, zclZEM_UartBuf, rxLen);  
        ; Setup parameters for call to function HalUARTWrite
        MOV       A,R6
        MOV       R4,A
        MOV       R5,#0x0
        MOV       R2,#zclZEM_UartBuf & 0xff
        MOV       R3,#(zclZEM_UartBuf >> 8) & 0xff
        MOV       R1,#0x0
        LCALL     `??HalUARTWrite::?relay`; Banked call to: HalUARTWrite
//  551   }
//  552 }
??zclZEM_UartCB_0:
          CFI EndBlock cfiBlock13
        REQUIRE ?Subroutine1
        ; // Fall through to label ?Subroutine1

        RSEG BANKED_CODE:HUGECODE:NOROOT(0)
?Subroutine1:
          CFI Block cfiBlock14 Using cfiCommon0
          CFI NoFunction
          CFI CFA_SP SP+0
          CFI CFA_XSP16 add(XSP16, 9)
          CFI VB load(1, XDATA, add(CFA_XSP16, literal(-8)))
          CFI DPL0 load(1, XDATA, add(CFA_XSP16, literal(-2)))
          CFI DPH0 load(1, XDATA, add(CFA_XSP16, literal(-1)))
          CFI R6 load(1, XDATA, add(CFA_XSP16, literal(-9)))
          CFI R7 load(1, XDATA, add(CFA_XSP16, literal(-6)))
          CFI V0 load(1, XDATA, add(CFA_XSP16, literal(-7)))
          CFI ?BRET_EXT load(1, XDATA, add(CFA_XSP16, literal(-3)))
          CFI ?RET_HIGH load(1, XDATA, add(CFA_XSP16, literal(-4)))
          CFI ?RET_LOW load(1, XDATA, add(CFA_XSP16, literal(-5)))
        MOV       R7,#0x1
        LJMP      ?BANKED_LEAVE_XDATA
          CFI EndBlock cfiBlock14
//  553 
//  554 /*********************************************************************
//  555  * @fn      zclZEM_HandleKeys
//  556  *
//  557  * @brief   Handles all key events for this device.
//  558  *
//  559  * @param   shift - true if in shift/alt.
//  560  * @param   keys - bit field for key events. Valid entries:
//  561  *                 HAL_KEY_SW_5
//  562  *                 HAL_KEY_SW_4
//  563  *                 HAL_KEY_SW_3
//  564  *                 HAL_KEY_SW_2
//  565  *                 HAL_KEY_SW_1
//  566  *
//  567  * @return  none
//  568  */
//  569 static void zclZEM_HandleKeys( byte shift, byte keys )
//  570 {
//  571 }
//  572 
//  573 /*********************************************************************
//  574  * @fn      zclZEM_LcdDisplayMainMode
//  575  *
//  576  * @brief   Called to display the main screen on the LCD.
//  577  *
//  578  * @param   none
//  579  *
//  580  * @return  none
//  581  */

        RSEG BANKED_CODE:HUGECODE:NOROOT(0)
//  582 static void zclZEM_ProcessCommissioningStatus(bdbCommissioningModeMsg_t* bdbCommissioningModeMsg)
zclZEM_ProcessCommissioningStatus:
          CFI Block cfiBlock15 Using cfiCommon0
          CFI Function zclZEM_ProcessCommissioningStatus
        CODE
//  583 {
        FUNCALL zclZEM_ProcessCommissioningStatus, bdb_StartCommissioning
        LOCFRAME ISTACK, 0, STACK
        LOCFRAME PSTACK, 0, STACK
        LOCFRAME XSTACK, 176, STACK
        LOCFRAME IOVERLAY, 0, STATIC
        LOCFRAME DOVERLAY, 0, STATIC
        ARGFRAME ISTACK, 0, STACK
        ARGFRAME PSTACK, 0, STACK
        ARGFRAME XSTACK, 176, STACK
        ARGFRAME IOVERLAY, 0, STATIC
        ARGFRAME DOVERLAY, 0, STATIC
        FUNCALL zclZEM_ProcessCommissioningStatus, HalUARTWrite
        LOCFRAME ISTACK, 0, STACK
        LOCFRAME PSTACK, 0, STACK
        LOCFRAME XSTACK, 176, STACK
        LOCFRAME IOVERLAY, 0, STATIC
        LOCFRAME DOVERLAY, 0, STATIC
        ARGFRAME ISTACK, 0, STACK
        ARGFRAME PSTACK, 0, STACK
        ARGFRAME XSTACK, 176, STACK
        ARGFRAME IOVERLAY, 0, STATIC
        ARGFRAME DOVERLAY, 0, STATIC
        FUNCALL zclZEM_ProcessCommissioningStatus, HalUARTWrite
        LOCFRAME ISTACK, 0, STACK
        LOCFRAME PSTACK, 0, STACK
        LOCFRAME XSTACK, 176, STACK
        LOCFRAME IOVERLAY, 0, STATIC
        LOCFRAME DOVERLAY, 0, STATIC
        ARGFRAME ISTACK, 0, STACK
        ARGFRAME PSTACK, 0, STACK
        ARGFRAME XSTACK, 176, STACK
        ARGFRAME IOVERLAY, 0, STATIC
        ARGFRAME DOVERLAY, 0, STATIC
        FUNCALL zclZEM_ProcessCommissioningStatus, osal_memcpy
        LOCFRAME ISTACK, 0, STACK
        LOCFRAME PSTACK, 0, STACK
        LOCFRAME XSTACK, 179, STACK
        LOCFRAME IOVERLAY, 0, STATIC
        LOCFRAME DOVERLAY, 0, STATIC
        ARGFRAME ISTACK, 0, STACK
        ARGFRAME PSTACK, 0, STACK
        ARGFRAME XSTACK, 179, STACK
        ARGFRAME IOVERLAY, 0, STATIC
        ARGFRAME DOVERLAY, 0, STATIC
        FUNCALL zclZEM_ProcessCommissioningStatus, osal_memcpy
        LOCFRAME ISTACK, 0, STACK
        LOCFRAME PSTACK, 0, STACK
        LOCFRAME XSTACK, 179, STACK
        LOCFRAME IOVERLAY, 0, STATIC
        LOCFRAME DOVERLAY, 0, STATIC
        ARGFRAME ISTACK, 0, STACK
        ARGFRAME PSTACK, 0, STACK
        ARGFRAME XSTACK, 179, STACK
        ARGFRAME IOVERLAY, 0, STATIC
        ARGFRAME DOVERLAY, 0, STATIC
        FUNCALL zclZEM_ProcessCommissioningStatus, osal_memcpy
        LOCFRAME ISTACK, 0, STACK
        LOCFRAME PSTACK, 0, STACK
        LOCFRAME XSTACK, 179, STACK
        LOCFRAME IOVERLAY, 0, STATIC
        LOCFRAME DOVERLAY, 0, STATIC
        ARGFRAME ISTACK, 0, STACK
        ARGFRAME PSTACK, 0, STACK
        ARGFRAME XSTACK, 179, STACK
        ARGFRAME IOVERLAY, 0, STATIC
        ARGFRAME DOVERLAY, 0, STATIC
        FUNCALL zclZEM_ProcessCommissioningStatus, osal_memcpy
        LOCFRAME ISTACK, 0, STACK
        LOCFRAME PSTACK, 0, STACK
        LOCFRAME XSTACK, 179, STACK
        LOCFRAME IOVERLAY, 0, STATIC
        LOCFRAME DOVERLAY, 0, STATIC
        ARGFRAME ISTACK, 0, STACK
        ARGFRAME PSTACK, 0, STACK
        ARGFRAME XSTACK, 179, STACK
        ARGFRAME IOVERLAY, 0, STATIC
        ARGFRAME DOVERLAY, 0, STATIC
        FUNCALL zclZEM_ProcessCommissioningStatus, osal_memcpy
        LOCFRAME ISTACK, 0, STACK
        LOCFRAME PSTACK, 0, STACK
        LOCFRAME XSTACK, 179, STACK
        LOCFRAME IOVERLAY, 0, STATIC
        LOCFRAME DOVERLAY, 0, STATIC
        ARGFRAME ISTACK, 0, STACK
        ARGFRAME PSTACK, 0, STACK
        ARGFRAME XSTACK, 179, STACK
        ARGFRAME IOVERLAY, 0, STATIC
        ARGFRAME DOVERLAY, 0, STATIC
        FUNCALL zclZEM_ProcessCommissioningStatus, osal_memcpy
        LOCFRAME ISTACK, 0, STACK
        LOCFRAME PSTACK, 0, STACK
        LOCFRAME XSTACK, 179, STACK
        LOCFRAME IOVERLAY, 0, STATIC
        LOCFRAME DOVERLAY, 0, STATIC
        ARGFRAME ISTACK, 0, STACK
        ARGFRAME PSTACK, 0, STACK
        ARGFRAME XSTACK, 179, STACK
        ARGFRAME IOVERLAY, 0, STATIC
        ARGFRAME DOVERLAY, 0, STATIC
        FUNCALL zclZEM_ProcessCommissioningStatus, osal_memcpy
        LOCFRAME ISTACK, 0, STACK
        LOCFRAME PSTACK, 0, STACK
        LOCFRAME XSTACK, 179, STACK
        LOCFRAME IOVERLAY, 0, STATIC
        LOCFRAME DOVERLAY, 0, STATIC
        ARGFRAME ISTACK, 0, STACK
        ARGFRAME PSTACK, 0, STACK
        ARGFRAME XSTACK, 179, STACK
        ARGFRAME IOVERLAY, 0, STATIC
        ARGFRAME DOVERLAY, 0, STATIC
        FUNCALL zclZEM_ProcessCommissioningStatus, HalUARTWrite
        LOCFRAME ISTACK, 0, STACK
        LOCFRAME PSTACK, 0, STACK
        LOCFRAME XSTACK, 176, STACK
        LOCFRAME IOVERLAY, 0, STATIC
        LOCFRAME DOVERLAY, 0, STATIC
        ARGFRAME ISTACK, 0, STACK
        ARGFRAME PSTACK, 0, STACK
        ARGFRAME XSTACK, 176, STACK
        ARGFRAME IOVERLAY, 0, STATIC
        ARGFRAME DOVERLAY, 0, STATIC
        FUNCALL zclZEM_ProcessCommissioningStatus, bdb_StartCommissioning
        LOCFRAME ISTACK, 0, STACK
        LOCFRAME PSTACK, 0, STACK
        LOCFRAME XSTACK, 176, STACK
        LOCFRAME IOVERLAY, 0, STATIC
        LOCFRAME DOVERLAY, 0, STATIC
        ARGFRAME ISTACK, 0, STACK
        ARGFRAME PSTACK, 0, STACK
        ARGFRAME XSTACK, 176, STACK
        ARGFRAME IOVERLAY, 0, STATIC
        ARGFRAME DOVERLAY, 0, STATIC
        FUNCALL zclZEM_ProcessCommissioningStatus, HalUARTWrite
        LOCFRAME ISTACK, 0, STACK
        LOCFRAME PSTACK, 0, STACK
        LOCFRAME XSTACK, 176, STACK
        LOCFRAME IOVERLAY, 0, STATIC
        LOCFRAME DOVERLAY, 0, STATIC
        ARGFRAME ISTACK, 0, STACK
        ARGFRAME PSTACK, 0, STACK
        ARGFRAME XSTACK, 176, STACK
        ARGFRAME IOVERLAY, 0, STATIC
        ARGFRAME DOVERLAY, 0, STATIC
        REQUIRE ?V0
        REQUIRE ?V1
        REQUIRE ?V2
        MOV       A,#-0xb
        LCALL     ?BANKED_ENTER_XDATA
          CFI DPH0 load(1, XDATA, add(CFA_XSP16, literal(-1)))
          CFI DPL0 load(1, XDATA, add(CFA_XSP16, literal(-2)))
          CFI ?BRET_EXT load(1, XDATA, add(CFA_XSP16, literal(-3)))
          CFI ?RET_HIGH load(1, XDATA, add(CFA_XSP16, literal(-4)))
          CFI ?RET_LOW load(1, XDATA, add(CFA_XSP16, literal(-5)))
          CFI R7 load(1, XDATA, add(CFA_XSP16, literal(-6)))
          CFI V2 load(1, XDATA, add(CFA_XSP16, literal(-7)))
          CFI V1 load(1, XDATA, add(CFA_XSP16, literal(-8)))
          CFI V0 load(1, XDATA, add(CFA_XSP16, literal(-9)))
          CFI VB load(1, XDATA, add(CFA_XSP16, literal(-10)))
          CFI R6 load(1, XDATA, add(CFA_XSP16, literal(-11)))
          CFI CFA_SP SP+0
          CFI CFA_XSP16 add(XSP16, 11)
        ; Saved register size: 11
        ; Auto size: 165
        MOV       A,#0x5b
        LCALL     ?ALLOC_XSTACK8
          CFI CFA_XSP16 add(XSP16, 176)
        MOV       A,R2
        MOV       R6,A
        MOV       A,R3
        MOV       R7,A
//  584     switch(bdbCommissioningModeMsg->bdbCommissioningMode)
        MOV       DPL,R6
        MOV       DPH,R7
        INC       DPTR
        MOVX      A,@DPTR
        DEC       A
        JNZ       $+5
        LJMP      ??zclZEM_ProcessCommissioningStatus_0 & 0xFFFF
        DEC       A
        JZ        $+5
        LJMP      ??zclZEM_ProcessCommissioningStatus_1 & 0xFFFF
//  585     {
//  586       case BDB_COMMISSIONING_FORMATION:
//  587         if(bdbCommissioningModeMsg->bdbCommissioningStatus == BDB_COMMISSIONING_SUCCESS)
        MOV       DPL,R6
        MOV       DPH,R7
        MOVX      A,@DPTR
        JNZ       ??zclZEM_ProcessCommissioningStatus_2
//  588         {
//  589           //After formation, perform nwk steering again plus the remaining commissioning modes that has not been process yet
//  590           bdb_StartCommissioning(BDB_COMMISSIONING_MODE_NWK_STEERING | bdbCommissioningModeMsg->bdbRemainingCommissioningModes);
        ; Setup parameters for call to function bdb_StartCommissioning
        INC       DPTR
        INC       DPTR
        MOVX      A,@DPTR
        ORL       A,#0x2
        MOV       R1,A
        LCALL     `??bdb_StartCommissioning::?relay`; Banked call to: bdb_StartCommissioning
//  591           // 网络形成成功
//  592           #ifdef ZDO_COORDINATOR
//  593           uint8 successMsg[] = "Network formation successful!\r\n";
        MOV       DPTR,#`?<Constant "Network formation suc...">`
        MOV       A,#-0x7b
        LCALL     ?XSTACK_DISP102_8
        MOV       A,#0x20
        LCALL     ?MOVE_LONG8_XDATA_XDATA
//  594           HalUARTWrite(HAL_UART_PORT_0, successMsg, sizeof(successMsg)-1);
        ; Setup parameters for call to function HalUARTWrite
        MOV       R4,#0x1f
        MOV       R5,A
        MOV       A,#-0x7b
        LJMP      ??zclZEM_ProcessCommissioningStatus_3 & 0xFFFF
//  595           #endif
//  596         }
//  597         else
//  598         {
//  599           //Want to try other channels?
//  600           //try with bdb_setChannelAttribute
//  601           // 网络形成失败
//  602           #ifdef ZDO_COORDINATOR
//  603           uint8 failMsg[] = "Network formation failed! Retrying...\r\n";
??zclZEM_ProcessCommissioningStatus_2:
        MOV       DPTR,#`?<Constant "Network formation fai...">`
        MOV       A,#0x5d
        LCALL     ?XSTACK_DISP102_8
        MOV       A,#0x28
        LCALL     ?MOVE_LONG8_XDATA_XDATA
//  604           HalUARTWrite(HAL_UART_PORT_0, failMsg, sizeof(failMsg)-1);
        ; Setup parameters for call to function HalUARTWrite
        MOV       R4,#0x27
        MOV       R5,A
        MOV       A,#0x5d
        LCALL     ?XSTACK_DISP101_8
        MOV       R1,#0x0
        LCALL     `??HalUARTWrite::?relay`; Banked call to: HalUARTWrite
//  605           
//  606           // 打印具体的失败原因
//  607           uint8 statusMsg[64];
//  608           osal_memcpy(statusMsg, "Failure reason: ", 15);
        ; Setup parameters for call to function osal_memcpy
        MOV       ?V0,#`?<Constant "Failure reason: ">` & 0xff
        MOV       ?V1,#(`?<Constant "Failure reason: ">` >> 8) & 0xff
        MOV       ?V2,#0x0
        MOV       R0,#?V0
        LCALL     ?PUSH_XSTACK_I_THREE
          CFI CFA_XSP16 add(XSP16, 179)
        MOV       R4,#0xf
        MOV       R5,#0x0
        MOV       A,#0x3
        LCALL     ?XSTACK_DISP101_8
        LCALL     `??osal_memcpy::?relay`; Banked call to: osal_memcpy
        MOV       A,#0x3
        LCALL     ?DEALLOC_XSTACK8
          CFI CFA_XSP16 add(XSP16, 176)
//  609           
//  610           switch(bdbCommissioningModeMsg->bdbCommissioningStatus) {
        MOV       DPL,R6
        MOV       DPH,R7
        MOVX      A,@DPTR
        ADD       A,#-0x2
        JZ        ??zclZEM_ProcessCommissioningStatus_4
        ADD       A,#-0x5
        JZ        ??zclZEM_ProcessCommissioningStatus_5
        DEC       A
        JZ        ??zclZEM_ProcessCommissioningStatus_6
        ADD       A,#-0x6
        JZ        ??zclZEM_ProcessCommissioningStatus_7
        SJMP      ??zclZEM_ProcessCommissioningStatus_8
//  611             case BDB_COMMISSIONING_NO_NETWORK:
//  612               osal_memcpy(&statusMsg[15], "No network found", 15);
??zclZEM_ProcessCommissioningStatus_4:
        ; Setup parameters for call to function osal_memcpy
        MOV       ?V0,#`?<Constant "No network found">` & 0xff
        MOV       ?V1,#(`?<Constant "No network found">` >> 8) & 0xff
        MOV       R0,#?V0
        LCALL     ?PUSH_XSTACK_I_THREE
          CFI CFA_XSP16 add(XSP16, 179)
        MOV       R4,#0xf
        SJMP      ??zclZEM_ProcessCommissioningStatus_9
          CFI CFA_XSP16 add(XSP16, 176)
//  613               break;
//  614             case BDB_COMMISSIONING_FORMATION_FAILURE:
//  615               osal_memcpy(&statusMsg[15], "Formation failure", 17);
??zclZEM_ProcessCommissioningStatus_6:
        ; Setup parameters for call to function osal_memcpy
        MOV       ?V0,#`?<Constant "Formation failure">` & 0xff
        MOV       ?V1,#(`?<Constant "Formation failure">` >> 8) & 0xff
        MOV       R0,#?V0
        LCALL     ?PUSH_XSTACK_I_THREE
          CFI CFA_XSP16 add(XSP16, 179)
        MOV       R4,#0x11
        SJMP      ??zclZEM_ProcessCommissioningStatus_9
          CFI CFA_XSP16 add(XSP16, 176)
//  616               break;
//  617             case BDB_COMMISSIONING_TCLK_EX_FAILURE:
//  618               osal_memcpy(&statusMsg[15], "TCLK exchange failure", 20);
??zclZEM_ProcessCommissioningStatus_5:
        ; Setup parameters for call to function osal_memcpy
        MOV       ?V0,#`?<Constant "TCLK exchange failure">` & 0xff
        MOV       ?V1,#(`?<Constant "TCLK exchange failure">` >> 8) & 0xff
        MOV       R0,#?V0
        LCALL     ?PUSH_XSTACK_I_THREE
          CFI CFA_XSP16 add(XSP16, 179)
        MOV       R4,#0x14
        SJMP      ??zclZEM_ProcessCommissioningStatus_9
          CFI CFA_XSP16 add(XSP16, 176)
//  619               break;
//  620             case BDB_COMMISSIONING_FAILURE:
//  621               osal_memcpy(&statusMsg[15], "General failure", 14);
??zclZEM_ProcessCommissioningStatus_7:
        ; Setup parameters for call to function osal_memcpy
        MOV       ?V0,#`?<Constant "General failure">` & 0xff
        MOV       ?V1,#(`?<Constant "General failure">` >> 8) & 0xff
        MOV       R0,#?V0
        LCALL     ?PUSH_XSTACK_I_THREE
          CFI CFA_XSP16 add(XSP16, 179)
        MOV       R4,#0xe
        SJMP      ??zclZEM_ProcessCommissioningStatus_9
          CFI CFA_XSP16 add(XSP16, 176)
//  622               break;
//  623             default:
//  624               osal_memcpy(&statusMsg[15], "Unknown error", 13);
??zclZEM_ProcessCommissioningStatus_8:
        ; Setup parameters for call to function osal_memcpy
        MOV       ?V0,#`?<Constant "Unknown error">` & 0xff
        MOV       ?V1,#(`?<Constant "Unknown error">` >> 8) & 0xff
        MOV       R0,#?V0
        LCALL     ?PUSH_XSTACK_I_THREE
          CFI CFA_XSP16 add(XSP16, 179)
        MOV       R4,#0xd
??zclZEM_ProcessCommissioningStatus_9:
        MOV       R5,#0x0
        MOV       A,#0x12
        LCALL     ?XSTACK_DISP0_8
        MOV       R2,DPL
        MOV       R3,DPH
        LCALL     `??osal_memcpy::?relay`; Banked call to: osal_memcpy
        MOV       A,#0x3
        LCALL     ?DEALLOC_XSTACK8
          CFI CFA_XSP16 add(XSP16, 176)
//  625               break;
//  626           }
//  627           osal_memcpy(&statusMsg[30], "\r\n", 2);
        ; Setup parameters for call to function osal_memcpy
        MOV       ?V0,#`?<Constant "\\r\\n">` & 0xff
        MOV       ?V1,#(`?<Constant "\\r\\n">` >> 8) & 0xff
        MOV       R0,#?V0
        LCALL     ?PUSH_XSTACK_I_THREE
          CFI CFA_XSP16 add(XSP16, 179)
        MOV       R4,#0x2
        MOV       R5,#0x0
        MOV       A,#0x21
        LCALL     ?XSTACK_DISP0_8
        MOV       R2,DPL
        MOV       R3,DPH
        LCALL     `??osal_memcpy::?relay`; Banked call to: osal_memcpy
        MOV       A,#0x3
        LCALL     ?DEALLOC_XSTACK8
          CFI CFA_XSP16 add(XSP16, 176)
//  628           HalUARTWrite(HAL_UART_PORT_0, statusMsg, 32);
        ; Setup parameters for call to function HalUARTWrite
        MOV       R4,#0x20
        MOV       R5,#0x0
        MOV       R2,?XSP + 0
        MOV       R3,?XSP + 1
        MOV       R1,#0x0
        LCALL     `??HalUARTWrite::?relay`; Banked call to: HalUARTWrite
//  629           
//  630           // 直接重新调用组网函数，不需要通过定时器
//  631           bdb_StartCommissioning(BDB_COMMISSIONING_MODE_NWK_FORMATION |
//  632                                       BDB_COMMISSIONING_MODE_FINDING_BINDING );
        ; Setup parameters for call to function bdb_StartCommissioning
        MOV       R1,#0xc
        LCALL     `??bdb_StartCommissioning::?relay`; Banked call to: bdb_StartCommissioning
        SJMP      ??zclZEM_ProcessCommissioningStatus_1
//  633           #endif
//  634         }
//  635       break;
//  636       case BDB_COMMISSIONING_NWK_STEERING:
//  637         if(bdbCommissioningModeMsg->bdbCommissioningStatus == BDB_COMMISSIONING_SUCCESS)
??zclZEM_ProcessCommissioningStatus_0:
        MOV       DPL,R6
        MOV       DPH,R7
        MOVX      A,@DPTR
        JNZ       ??zclZEM_ProcessCommissioningStatus_1
//  638         {
//  639           //YOUR JOB:
//  640           //We are on the nwk, what now?
//  641           // 网络引导成功
//  642           #ifdef ZDO_COORDINATOR
//  643           uint8 deviceJoinedMsg[] = "Device joined the network!\r\n";
        MOV       DPTR,#`?<Constant "Device joined the net...">`
        MOV       A,#0x40
        LCALL     ?XSTACK_DISP102_8
        MOV       A,#0x1d
        LCALL     ?MOVE_LONG8_XDATA_XDATA
//  644           HalUARTWrite(HAL_UART_PORT_0, deviceJoinedMsg, sizeof(deviceJoinedMsg)-1);
        ; Setup parameters for call to function HalUARTWrite
        MOV       R4,#0x1c
        MOV       R5,A
        MOV       A,#0x40
??zclZEM_ProcessCommissioningStatus_3:
        LCALL     ?XSTACK_DISP101_8
        MOV       R1,#0x0
        LCALL     `??HalUARTWrite::?relay`; Banked call to: HalUARTWrite
//  645           #endif
//  646         }
//  647         else
//  648         {
//  649           // 网络引导失败
//  650           #ifdef ZDO_COORDINATOR
//  651           /* 协调器 */
//  652           #else
//  653           /* 路由器或者终端 */
//  654           uint8 failMsg[] = "Network steering failed! Retrying in 1 second...\r\n";
//  655           HalUARTWrite(HAL_UART_PORT_0, failMsg, sizeof(failMsg)-1);
//  656           
//  657           /* 无限重试网络引导 */
//  658           osal_start_timerEx(zclZEM_TaskID, 
//  659                                     ZEM_REJOIN_EVT, 
//  660                                     ZEM_REJOIN_PERIOD);
//  661           #endif
//  662         }
//  663         break;
//  664       case BDB_COMMISSIONING_FINDING_BINDING:
//  665         if(bdbCommissioningModeMsg->bdbCommissioningStatus == BDB_COMMISSIONING_SUCCESS)
//  666         {
//  667           //YOUR JOB:
//  668         }
//  669         else
//  670         {
//  671           //YOUR JOB:
//  672           //retry?, wait for user interaction?
//  673         }
//  674       break;
//  675       case BDB_COMMISSIONING_INITIALIZATION:
//  676         //Initialization notification can only be successful. Failure on initialization 
//  677         //only happens for ZED and is notified as BDB_COMMISSIONING_PARENT_LOST notification
//  678         
//  679         //YOUR JOB:
//  680         //We are on a network, what now?
//  681         
//  682       break;
//  683 #if ZG_BUILD_ENDDEVICE_TYPE    
//  684     case BDB_COMMISSIONING_PARENT_LOST:
//  685       if(bdbCommissioningModeMsg->bdbCommissioningStatus == BDB_COMMISSIONING_NETWORK_RESTORED)
//  686       {
//  687         //We did recover from losing parent
//  688       }
//  689       else
//  690       {
//  691         //Parent not found, attempt to rejoin again after a fixed delay
//  692         //osal_start_timerEx(zclZEM_TaskID, SAMPLEAPP_END_DEVICE_REJOIN_EVT, SAMPLEAPP_END_DEVICE_REJOIN_DELAY);
//  693         
//  694         /* 协调器 */
//  695 #ifdef ZDO_COORDINATOR
//  696         /* 路由器或者终端 */
//  697 #else
//  698       /* 启动重新加入事件 */
//  699       osal_start_timerEx(zclZEM_TaskID, 
//  700                         ZEM_REJOIN_EVT, 
//  701                         ZEM_REJOIN_PERIOD);
//  702 #endif
//  703       }
//  704     break;
//  705 #endif 
//  706     }
//  707 
//  708 }
??zclZEM_ProcessCommissioningStatus_1:
        MOV       A,#-0x5b
        LCALL     ?DEALLOC_XSTACK8
          CFI CFA_XSP16 add(XSP16, 11)
        MOV       R7,#0x3
        LJMP      ?BANKED_LEAVE_XDATA
          CFI EndBlock cfiBlock15
//  709 
//  710 /*********************************************************************
//  711  * @fn      zclZEM_BasicResetCB
//  712  *
//  713  * @brief   Callback from the ZCL General Cluster Library
//  714  *          to set all the Basic Cluster attributes to default values.
//  715  *
//  716  * @param   none
//  717  *
//  718  * @return  none
//  719  */

        RSEG BANKED_CODE:HUGECODE:NOROOT(0)
//  720 static void zclZEM_BasicResetCB( void )
zclZEM_BasicResetCB:
          CFI Block cfiBlock16 Using cfiCommon0
          CFI Function zclZEM_BasicResetCB
        CODE
//  721 {
        FUNCALL zclZEM_BasicResetCB, zclZEM_ResetAttributesToDefaultValues
        LOCFRAME ISTACK, 2, STACK
        LOCFRAME PSTACK, 0, STACK
        LOCFRAME XSTACK, 0, STACK
        LOCFRAME IOVERLAY, 0, STATIC
        LOCFRAME DOVERLAY, 0, STATIC
        ARGFRAME ISTACK, 2, STACK
        ARGFRAME PSTACK, 0, STACK
        ARGFRAME XSTACK, 0, STACK
        ARGFRAME IOVERLAY, 0, STATIC
        ARGFRAME DOVERLAY, 0, STATIC
        PUSH      DPL
          CFI DPL0 Frame(CFA_SP, 4)
          CFI CFA_SP SP+-4
        PUSH      DPH
          CFI DPH0 Frame(CFA_SP, 5)
          CFI CFA_SP SP+-5
        ; Saved register size: 2
        ; Auto size: 0
//  722   zclZEM_ResetAttributesToDefaultValues();
        ; Setup parameters for call to function zclZEM_ResetAttributesToDefaultValues
        LCALL     `??zclZEM_ResetAttributesToDefaultValues::?relay`; Banked call to: zclZEM_ResetAttributesToDefaultValues
//  723   
//  724 }
          CFI EndBlock cfiBlock16
        REQUIRE ?Subroutine2
        ; // Fall through to label ?Subroutine2

        RSEG BANKED_CODE:HUGECODE:NOROOT(0)
?Subroutine2:
          CFI Block cfiBlock17 Using cfiCommon0
          CFI NoFunction
          CFI CFA_SP SP+-5
          CFI DPL0 Frame(CFA_SP, 4)
          CFI DPH0 Frame(CFA_SP, 5)
        POP       DPH
          CFI CFA_SP SP+-4
          CFI DPH0 SameValue
        POP       DPL
          CFI CFA_SP SP+-3
          CFI DPL0 SameValue
        LJMP      ?BRET
          CFI EndBlock cfiBlock17
//  725 
//  726 /*********************************************************************
//  727  * @fn      zclSampleApp_BatteryWarningCB
//  728  *
//  729  * @brief   Called to handle battery-low situation.
//  730  *
//  731  * @param   voltLevel - level of severity
//  732  *
//  733  * @return  none
//  734  */

        RSEG BANKED_CODE:HUGECODE:NOROOT(0)
//  735 void zclSampleApp_BatteryWarningCB( uint8 voltLevel )
zclSampleApp_BatteryWarningCB:
          CFI Block cfiBlock18 Using cfiCommon0
          CFI Function zclSampleApp_BatteryWarningCB
        CODE
//  736 {
        ; Saved register size: 0
        ; Auto size: 0
//  737   if ( voltLevel == VOLT_LEVEL_CAUTIOUS )
//  738   {
//  739     // Send warning message to the gateway and blink LED
//  740   }
//  741   else if ( voltLevel == VOLT_LEVEL_BAD )
//  742   {
//  743     // Shut down the system
//  744   }
//  745 }
        LJMP      ?BRET
          CFI EndBlock cfiBlock18
//  746 
//  747 /******************************************************************************
//  748  *
//  749  *  Functions for processing ZCL Foundation incoming Command/Response messages
//  750  *
//  751  *****************************************************************************/
//  752 
//  753 /*********************************************************************
//  754  * @fn      zclZEM_ProcessIncomingMsg
//  755  *
//  756  * @brief   Process ZCL Foundation incoming message
//  757  *
//  758  * @param   pInMsg - pointer to the received message
//  759  *
//  760  * @return  none
//  761  */

        RSEG BANKED_CODE:HUGECODE:NOROOT(0)
//  762 static void zclZEM_ProcessIncomingMsg( zclIncomingMsg_t *pInMsg)
zclZEM_ProcessIncomingMsg:
          CFI Block cfiBlock19 Using cfiCommon0
          CFI Function zclZEM_ProcessIncomingMsg
        CODE
//  763 {
        FUNCALL zclZEM_ProcessIncomingMsg, zclZEM_ProcessInDiscCmdsRspCmd
        LOCFRAME ISTACK, 0, STACK
        LOCFRAME PSTACK, 0, STACK
        LOCFRAME XSTACK, 9, STACK
        LOCFRAME IOVERLAY, 0, STATIC
        LOCFRAME DOVERLAY, 0, STATIC
        ARGFRAME ISTACK, 0, STACK
        ARGFRAME PSTACK, 0, STACK
        ARGFRAME XSTACK, 9, STACK
        ARGFRAME IOVERLAY, 0, STATIC
        ARGFRAME DOVERLAY, 0, STATIC
        FUNCALL zclZEM_ProcessIncomingMsg, zclZEM_ProcessInDiscCmdsRspCmd
        LOCFRAME ISTACK, 0, STACK
        LOCFRAME PSTACK, 0, STACK
        LOCFRAME XSTACK, 9, STACK
        LOCFRAME IOVERLAY, 0, STATIC
        LOCFRAME DOVERLAY, 0, STATIC
        ARGFRAME ISTACK, 0, STACK
        ARGFRAME PSTACK, 0, STACK
        ARGFRAME XSTACK, 9, STACK
        ARGFRAME IOVERLAY, 0, STATIC
        ARGFRAME DOVERLAY, 0, STATIC
        FUNCALL zclZEM_ProcessIncomingMsg, osal_mem_free
        LOCFRAME ISTACK, 0, STACK
        LOCFRAME PSTACK, 0, STACK
        LOCFRAME XSTACK, 9, STACK
        LOCFRAME IOVERLAY, 0, STATIC
        LOCFRAME DOVERLAY, 0, STATIC
        ARGFRAME ISTACK, 0, STACK
        ARGFRAME PSTACK, 0, STACK
        ARGFRAME XSTACK, 9, STACK
        ARGFRAME IOVERLAY, 0, STATIC
        ARGFRAME DOVERLAY, 0, STATIC
        MOV       A,#-0x9
        LCALL     ?BANKED_ENTER_XDATA
          CFI DPH0 load(1, XDATA, add(CFA_XSP16, literal(-1)))
          CFI DPL0 load(1, XDATA, add(CFA_XSP16, literal(-2)))
          CFI ?BRET_EXT load(1, XDATA, add(CFA_XSP16, literal(-3)))
          CFI ?RET_HIGH load(1, XDATA, add(CFA_XSP16, literal(-4)))
          CFI ?RET_LOW load(1, XDATA, add(CFA_XSP16, literal(-5)))
          CFI R7 load(1, XDATA, add(CFA_XSP16, literal(-6)))
          CFI V0 load(1, XDATA, add(CFA_XSP16, literal(-7)))
          CFI VB load(1, XDATA, add(CFA_XSP16, literal(-8)))
          CFI R6 load(1, XDATA, add(CFA_XSP16, literal(-9)))
          CFI CFA_SP SP+0
          CFI CFA_XSP16 add(XSP16, 9)
        ; Saved register size: 9
        ; Auto size: 0
//  764   switch ( pInMsg->zclHdr.commandID )
        MOV       A,R2
        ADD       A,#0x17
        LCALL     ?Subroutine12 & 0xFFFF
??CrossCallReturnLabel_13:
        INC       DPTR
        INC       DPTR
        INC       DPTR
        MOVX      A,@DPTR
        DEC       A
        JZ        ??zclZEM_ProcessIncomingMsg_0
        ADD       A,#-0x3
        JZ        ??zclZEM_ProcessIncomingMsg_1
        ADD       A,#-0x9
        JZ        ??zclZEM_ProcessIncomingMsg_2
        ADD       A,#-0x5
        JZ        ??zclZEM_ProcessIncomingMsg_3
        ADD       A,#-0x2
        JZ        ??zclZEM_ProcessIncomingMsg_3
        ADD       A,#-0x2
        JZ        ??zclZEM_ProcessIncomingMsg_4
        SJMP      ??zclZEM_ProcessIncomingMsg_5
//  765   {
//  766 #ifdef ZCL_READ
//  767     case ZCL_CMD_READ_RSP:
//  768       zclZEM_ProcessInReadRspCmd( pInMsg );
??zclZEM_ProcessIncomingMsg_0:
        LCALL     ?Subroutine7 & 0xFFFF
??CrossCallReturnLabel_5:
        MOVX      A,@DPTR
        MOV       R1,A
        MOV       A,R0
        CLR       C
        SUBB      A,R1
        JNC       ??zclZEM_ProcessIncomingMsg_5
        INC       R0
        SJMP      ??CrossCallReturnLabel_5
//  769       break;
//  770 #endif
//  771 #ifdef ZCL_WRITE
//  772     case ZCL_CMD_WRITE_RSP:
//  773       zclZEM_ProcessInWriteRspCmd( pInMsg );
??zclZEM_ProcessIncomingMsg_1:
        LCALL     ?Subroutine7 & 0xFFFF
??CrossCallReturnLabel_6:
        MOVX      A,@DPTR
        MOV       R1,A
        MOV       A,R0
        CLR       C
        SUBB      A,R1
        JNC       ??zclZEM_ProcessIncomingMsg_5
        INC       R0
        SJMP      ??CrossCallReturnLabel_6
//  774       break;
//  775 #endif
//  776 #ifdef ZCL_REPORT
//  777     // See ZCL Test Applicaiton (zcl_testapp.c) for sample code on Attribute Reporting
//  778     case ZCL_CMD_CONFIG_REPORT:
//  779       //zclZEM_ProcessInConfigReportCmd( pInMsg );
//  780       break;
//  781       case ZCL_CMD_READ_REPORT_CFG:
//  782       //zclZEM_ProcessInReadReportCfgCmd( pInMsg );
//  783       break;
//  784     case ZCL_CMD_CONFIG_REPORT_RSP:
//  785       //zclZEM_ProcessInConfigReportRspCmd( pInMsg );
//  786       break;
//  787     case ZCL_CMD_READ_REPORT_CFG_RSP:
//  788       //zclZEM_ProcessInReadReportCfgRspCmd( pInMsg );
//  789       break;
//  790 
//  791     case ZCL_CMD_REPORT:
//  792       //zclZEM_ProcessInReportCmd( pInMsg );
//  793       break;
//  794 #endif
//  795     case ZCL_CMD_DEFAULT_RSP:
//  796       zclZEM_ProcessInDefaultRspCmd( pInMsg );
//  797       break;
//  798 #ifdef ZCL_DISCOVER
//  799     case ZCL_CMD_DISCOVER_CMDS_RECEIVED_RSP:
//  800       zclZEM_ProcessInDiscCmdsRspCmd( pInMsg );
??zclZEM_ProcessIncomingMsg_3:
        ; Setup parameters for call to function zclZEM_ProcessInDiscCmdsRspCmd
//  801       break;
//  802 
//  803     case ZCL_CMD_DISCOVER_CMDS_GEN_RSP:
//  804       zclZEM_ProcessInDiscCmdsRspCmd( pInMsg );
        ; Setup parameters for call to function zclZEM_ProcessInDiscCmdsRspCmd
        LCALL     `??zclZEM_ProcessInDiscCmdsRspCmd::?relay`; Banked call to: zclZEM_ProcessInDiscCmdsRspCmd
//  805       break;
        SJMP      ??zclZEM_ProcessIncomingMsg_5
//  806 
//  807     case ZCL_CMD_DISCOVER_ATTRS_RSP:
//  808       zclZEM_ProcessInDiscAttrsRspCmd( pInMsg );
??zclZEM_ProcessIncomingMsg_2:
        LCALL     ?Subroutine8 & 0xFFFF
??CrossCallReturnLabel_18:
        MOV       DPL,R0
        MOV       DPH,R1
        INC       DPTR
        MOVX      A,@DPTR
        MOV       R3,A
        MOV       A,R2
        CLR       C
        SUBB      A,R3
        JNC       ??zclZEM_ProcessIncomingMsg_5
        INC       R2
        SJMP      ??CrossCallReturnLabel_18
//  809       break;
//  810 
//  811     case ZCL_CMD_DISCOVER_ATTRS_EXT_RSP:
//  812       zclZEM_ProcessInDiscAttrsExtRspCmd( pInMsg );
??zclZEM_ProcessIncomingMsg_4:
        LCALL     ?Subroutine8 & 0xFFFF
//  813       break;
//  814 #endif
//  815     default:
//  816       break;
//  817   }
??CrossCallReturnLabel_19:
        SJMP      ??zclZEM_ProcessIncomingMsg_6
??zclZEM_ProcessIncomingMsg_7:
        INC       R2
??zclZEM_ProcessIncomingMsg_6:
        MOV       DPL,R0
        MOV       DPH,R1
        INC       DPTR
        MOVX      A,@DPTR
        MOV       R3,A
        MOV       A,R2
        CLR       C
        SUBB      A,R3
        JC        ??zclZEM_ProcessIncomingMsg_7
//  818 
//  819   if ( pInMsg->attrCmd )
??zclZEM_ProcessIncomingMsg_5:
        MOV       DPL,R6
        MOV       DPH,R7
        MOVX      A,@DPTR
        MOV       R2,A
        INC       DPTR
        MOVX      A,@DPTR
        MOV       R3,A
        MOV       A,R2
        ORL       A,R3
        JZ        ??zclZEM_ProcessIncomingMsg_8
//  820   {
//  821     osal_mem_free( pInMsg->attrCmd );
        ; Setup parameters for call to function osal_mem_free
        LCALL     `??osal_mem_free::?relay`; Banked call to: osal_mem_free
//  822   }
//  823 }
??zclZEM_ProcessIncomingMsg_8:
        LJMP      ?Subroutine1 & 0xFFFF
          CFI EndBlock cfiBlock19

        RSEG BANKED_CODE:HUGECODE:NOROOT(0)
?Subroutine8:
          CFI Block cfiCond20 Using cfiCommon0
          CFI Function zclZEM_ProcessIncomingMsg
          CFI Conditional ??CrossCallReturnLabel_18
          CFI R6 load(1, XDATA, add(CFA_XSP16, literal(-9)))
          CFI VB load(1, XDATA, add(CFA_XSP16, literal(-8)))
          CFI V0 load(1, XDATA, add(CFA_XSP16, literal(-7)))
          CFI R7 load(1, XDATA, add(CFA_XSP16, literal(-6)))
          CFI ?RET_LOW load(1, XDATA, add(CFA_XSP16, literal(-5)))
          CFI ?RET_HIGH load(1, XDATA, add(CFA_XSP16, literal(-4)))
          CFI ?BRET_EXT load(1, XDATA, add(CFA_XSP16, literal(-3)))
          CFI DPL0 load(1, XDATA, add(CFA_XSP16, literal(-2)))
          CFI DPH0 load(1, XDATA, add(CFA_XSP16, literal(-1)))
          CFI CFA_SP SP+-2
          CFI CFA_XSP16 add(XSP16, 9)
          CFI Block cfiCond21 Using cfiCommon0
          CFI (cfiCond21) Function zclZEM_ProcessIncomingMsg
          CFI (cfiCond21) Conditional ??CrossCallReturnLabel_19
          CFI (cfiCond21) R6 load(1, XDATA, add(CFA_XSP16, literal(-9)))
          CFI (cfiCond21) VB load(1, XDATA, add(CFA_XSP16, literal(-8)))
          CFI (cfiCond21) V0 load(1, XDATA, add(CFA_XSP16, literal(-7)))
          CFI (cfiCond21) R7 load(1, XDATA, add(CFA_XSP16, literal(-6)))
          CFI (cfiCond21) ?RET_LOW load(1, XDATA, add(CFA_XSP16, literal(-5)))
          CFI (cfiCond21) ?RET_HIGH load(1, XDATA, add(CFA_XSP16, literal(-4)))
          CFI (cfiCond21) ?BRET_EXT load(1, XDATA, add(CFA_XSP16, literal(-3)))
          CFI (cfiCond21) DPL0 load(1, XDATA, add(CFA_XSP16, literal(-2)))
          CFI (cfiCond21) DPH0 load(1, XDATA, add(CFA_XSP16, literal(-1)))
          CFI (cfiCond21) CFA_SP SP+-2
          CFI (cfiCond21) CFA_XSP16 add(XSP16, 9)
          CFI Block cfiPicker22 Using cfiCommon1
          CFI (cfiPicker22) NoFunction
          CFI (cfiPicker22) Picker
        MOV       DPL,R6
        MOV       DPH,R7
          CFI EndBlock cfiCond20
          CFI EndBlock cfiCond21
          CFI EndBlock cfiPicker22
        REQUIRE ??Subroutine15_0
        ; // Fall through to label ??Subroutine15_0

        RSEG BANKED_CODE:HUGECODE:NOROOT(0)
??Subroutine15_0:
          CFI Block cfiCond23 Using cfiCommon0
          CFI Function zclZEM_ProcessInDiscCmdsRspCmd
          CFI Conditional ??CrossCallReturnLabel_17
          CFI DPL0 Frame(CFA_SP, 4)
          CFI DPH0 Frame(CFA_SP, 5)
          CFI CFA_SP SP+-7
          CFI Block cfiCond24 Using cfiCommon0
          CFI (cfiCond24) Function zclZEM_ProcessIncomingMsg
          CFI (cfiCond24) Conditional ??CrossCallReturnLabel_18
          CFI (cfiCond24) R6 load(1, XDATA, add(CFA_XSP16, literal(-9)))
          CFI (cfiCond24) VB load(1, XDATA, add(CFA_XSP16, literal(-8)))
          CFI (cfiCond24) V0 load(1, XDATA, add(CFA_XSP16, literal(-7)))
          CFI (cfiCond24) R7 load(1, XDATA, add(CFA_XSP16, literal(-6)))
          CFI (cfiCond24) ?RET_LOW load(1, XDATA, add(CFA_XSP16, literal(-5)))
          CFI (cfiCond24) ?RET_HIGH load(1, XDATA, add(CFA_XSP16, literal(-4)))
          CFI (cfiCond24) ?BRET_EXT load(1, XDATA, add(CFA_XSP16, literal(-3)))
          CFI (cfiCond24) DPL0 load(1, XDATA, add(CFA_XSP16, literal(-2)))
          CFI (cfiCond24) DPH0 load(1, XDATA, add(CFA_XSP16, literal(-1)))
          CFI (cfiCond24) CFA_SP SP+-2
          CFI (cfiCond24) CFA_XSP16 add(XSP16, 9)
          CFI Block cfiCond25 Using cfiCommon0
          CFI (cfiCond25) Function zclZEM_ProcessIncomingMsg
          CFI (cfiCond25) Conditional ??CrossCallReturnLabel_19
          CFI (cfiCond25) R6 load(1, XDATA, add(CFA_XSP16, literal(-9)))
          CFI (cfiCond25) VB load(1, XDATA, add(CFA_XSP16, literal(-8)))
          CFI (cfiCond25) V0 load(1, XDATA, add(CFA_XSP16, literal(-7)))
          CFI (cfiCond25) R7 load(1, XDATA, add(CFA_XSP16, literal(-6)))
          CFI (cfiCond25) ?RET_LOW load(1, XDATA, add(CFA_XSP16, literal(-5)))
          CFI (cfiCond25) ?RET_HIGH load(1, XDATA, add(CFA_XSP16, literal(-4)))
          CFI (cfiCond25) ?BRET_EXT load(1, XDATA, add(CFA_XSP16, literal(-3)))
          CFI (cfiCond25) DPL0 load(1, XDATA, add(CFA_XSP16, literal(-2)))
          CFI (cfiCond25) DPH0 load(1, XDATA, add(CFA_XSP16, literal(-1)))
          CFI (cfiCond25) CFA_SP SP+-2
          CFI (cfiCond25) CFA_XSP16 add(XSP16, 9)
          CFI Block cfiPicker26 Using cfiCommon1
          CFI (cfiPicker26) NoFunction
          CFI (cfiPicker26) Picker
        MOVX      A,@DPTR
        MOV       R0,A
        INC       DPTR
        MOVX      A,@DPTR
        MOV       R1,A
        MOV       R2,#0x0
        RET
          CFI EndBlock cfiCond23
          CFI EndBlock cfiCond24
          CFI EndBlock cfiCond25
          CFI EndBlock cfiPicker26

        RSEG BANKED_CODE:HUGECODE:NOROOT(0)
?Subroutine7:
          CFI Block cfiCond27 Using cfiCommon0
          CFI Function zclZEM_ProcessIncomingMsg
          CFI Conditional ??CrossCallReturnLabel_5
          CFI R6 load(1, XDATA, add(CFA_XSP16, literal(-9)))
          CFI VB load(1, XDATA, add(CFA_XSP16, literal(-8)))
          CFI V0 load(1, XDATA, add(CFA_XSP16, literal(-7)))
          CFI R7 load(1, XDATA, add(CFA_XSP16, literal(-6)))
          CFI ?RET_LOW load(1, XDATA, add(CFA_XSP16, literal(-5)))
          CFI ?RET_HIGH load(1, XDATA, add(CFA_XSP16, literal(-4)))
          CFI ?BRET_EXT load(1, XDATA, add(CFA_XSP16, literal(-3)))
          CFI DPL0 load(1, XDATA, add(CFA_XSP16, literal(-2)))
          CFI DPH0 load(1, XDATA, add(CFA_XSP16, literal(-1)))
          CFI CFA_SP SP+-2
          CFI CFA_XSP16 add(XSP16, 9)
          CFI Block cfiCond28 Using cfiCommon0
          CFI (cfiCond28) Function zclZEM_ProcessIncomingMsg
          CFI (cfiCond28) Conditional ??CrossCallReturnLabel_6
          CFI (cfiCond28) R6 load(1, XDATA, add(CFA_XSP16, literal(-9)))
          CFI (cfiCond28) VB load(1, XDATA, add(CFA_XSP16, literal(-8)))
          CFI (cfiCond28) V0 load(1, XDATA, add(CFA_XSP16, literal(-7)))
          CFI (cfiCond28) R7 load(1, XDATA, add(CFA_XSP16, literal(-6)))
          CFI (cfiCond28) ?RET_LOW load(1, XDATA, add(CFA_XSP16, literal(-5)))
          CFI (cfiCond28) ?RET_HIGH load(1, XDATA, add(CFA_XSP16, literal(-4)))
          CFI (cfiCond28) ?BRET_EXT load(1, XDATA, add(CFA_XSP16, literal(-3)))
          CFI (cfiCond28) DPL0 load(1, XDATA, add(CFA_XSP16, literal(-2)))
          CFI (cfiCond28) DPH0 load(1, XDATA, add(CFA_XSP16, literal(-1)))
          CFI (cfiCond28) CFA_SP SP+-2
          CFI (cfiCond28) CFA_XSP16 add(XSP16, 9)
          CFI Block cfiPicker29 Using cfiCommon1
          CFI (cfiPicker29) NoFunction
          CFI (cfiPicker29) Picker
        MOV       DPL,R6
        MOV       DPH,R7
        MOVX      A,@DPTR
        MOV       R0,A
        INC       DPTR
        MOVX      A,@DPTR
        MOV       R1,A
        MOV       DPL,R0
        MOV       DPH,R1
        MOV       R0,#0x0
        RET
          CFI EndBlock cfiCond27
          CFI EndBlock cfiCond28
          CFI EndBlock cfiPicker29
//  824 
//  825 #ifdef ZCL_READ
//  826 /*********************************************************************
//  827  * @fn      zclZEM_ProcessInReadRspCmd
//  828  *
//  829  * @brief   Process the "Profile" Read Response Command
//  830  *
//  831  * @param   pInMsg - incoming message to process
//  832  *
//  833  * @return  none
//  834  */
//  835 static uint8 zclZEM_ProcessInReadRspCmd( zclIncomingMsg_t *pInMsg )
//  836 {
//  837   zclReadRspCmd_t *readRspCmd;
//  838   uint8 i;
//  839 
//  840   readRspCmd = (zclReadRspCmd_t *)pInMsg->attrCmd;
//  841   for ( i = 0; i < readRspCmd->numAttr; i++ )
//  842   {
//  843     // Notify the originator of the results of the original read attributes
//  844     // attempt and, for each successfull request, the value of the requested
//  845     // attribute
//  846   }
//  847 
//  848   return ( TRUE );
//  849 }
//  850 #endif // ZCL_READ
//  851 
//  852 #ifdef ZCL_WRITE
//  853 /*********************************************************************
//  854  * @fn      zclZEM_ProcessInWriteRspCmd
//  855  *
//  856  * @brief   Process the "Profile" Write Response Command
//  857  *
//  858  * @param   pInMsg - incoming message to process
//  859  *
//  860  * @return  none
//  861  */
//  862 static uint8 zclZEM_ProcessInWriteRspCmd( zclIncomingMsg_t *pInMsg )
//  863 {
//  864   zclWriteRspCmd_t *writeRspCmd;
//  865   uint8 i;
//  866 
//  867   writeRspCmd = (zclWriteRspCmd_t *)pInMsg->attrCmd;
//  868   for ( i = 0; i < writeRspCmd->numAttr; i++ )
//  869   {
//  870     // Notify the device of the results of the its original write attributes
//  871     // command.
//  872   }
//  873 
//  874   return ( TRUE );
//  875 }
//  876 #endif // ZCL_WRITE
//  877 
//  878 /*********************************************************************
//  879  * @fn      zclZEM_ProcessInDefaultRspCmd
//  880  *
//  881  * @brief   Process the "Profile" Default Response Command
//  882  *
//  883  * @param   pInMsg - incoming message to process
//  884  *
//  885  * @return  none
//  886  */
//  887 static uint8 zclZEM_ProcessInDefaultRspCmd( zclIncomingMsg_t *pInMsg )
//  888 {
//  889   // zclDefaultRspCmd_t *defaultRspCmd = (zclDefaultRspCmd_t *)pInMsg->attrCmd;
//  890 
//  891   // Device is notified of the Default Response command.
//  892   (void)pInMsg;
//  893 
//  894   return ( TRUE );
//  895 }
//  896 
//  897 #ifdef ZCL_DISCOVER
//  898 /*********************************************************************
//  899  * @fn      zclZEM_ProcessInDiscCmdsRspCmd
//  900  *
//  901  * @brief   Process the Discover Commands Response Command
//  902  *
//  903  * @param   pInMsg - incoming message to process
//  904  *
//  905  * @return  none
//  906  */

        RSEG BANKED_CODE:HUGECODE:NOROOT(0)
//  907 static uint8 zclZEM_ProcessInDiscCmdsRspCmd( zclIncomingMsg_t *pInMsg )
zclZEM_ProcessInDiscCmdsRspCmd:
          CFI Block cfiBlock30 Using cfiCommon0
          CFI Function zclZEM_ProcessInDiscCmdsRspCmd
        CODE
//  908 {
        PUSH      DPL
          CFI DPL0 Frame(CFA_SP, 4)
          CFI CFA_SP SP+-4
        PUSH      DPH
          CFI DPH0 Frame(CFA_SP, 5)
          CFI CFA_SP SP+-5
        ; Saved register size: 2
        ; Auto size: 0
//  909   zclDiscoverCmdsCmdRsp_t *discoverRspCmd;
//  910   uint8 i;
//  911 
//  912   discoverRspCmd = (zclDiscoverCmdsCmdRsp_t *)pInMsg->attrCmd;
        MOV       A,R2
        ADD       A,#0x17
        MOV       DPL,A
        CLR       A
        ADDC      A,R3
        MOV       DPH,A
        LCALL     ??Subroutine15_0 & 0xFFFF
//  913   for ( i = 0; i < discoverRspCmd->numCmd; i++ )
??CrossCallReturnLabel_17:
        SJMP      ??zclZEM_ProcessInDiscCmdsRspCmd_0
??zclZEM_ProcessInDiscCmdsRspCmd_1:
        INC       R2
??zclZEM_ProcessInDiscCmdsRspCmd_0:
        MOV       DPL,R0
        MOV       DPH,R1
        INC       DPTR
        INC       DPTR
        MOVX      A,@DPTR
        MOV       R3,A
        MOV       A,R2
        CLR       C
        SUBB      A,R3
        JC        ??zclZEM_ProcessInDiscCmdsRspCmd_1
//  914   {
//  915     // Device is notified of the result of its attribute discovery command.
//  916   }
//  917 
//  918   return ( TRUE );
        MOV       R1,#0x1
        LJMP      ?Subroutine2 & 0xFFFF
//  919 }
          CFI EndBlock cfiBlock30
//  920 
//  921 /*********************************************************************
//  922  * @fn      zclZEM_ProcessInDiscAttrsRspCmd
//  923  *
//  924  * @brief   Process the "Profile" Discover Attributes Response Command
//  925  *
//  926  * @param   pInMsg - incoming message to process
//  927  *
//  928  * @return  none
//  929  */
//  930 static uint8 zclZEM_ProcessInDiscAttrsRspCmd( zclIncomingMsg_t *pInMsg )
//  931 {
//  932   zclDiscoverAttrsRspCmd_t *discoverRspCmd;
//  933   uint8 i;
//  934 
//  935   discoverRspCmd = (zclDiscoverAttrsRspCmd_t *)pInMsg->attrCmd;
//  936   for ( i = 0; i < discoverRspCmd->numAttr; i++ )
//  937   {
//  938     // Device is notified of the result of its attribute discovery command.
//  939   }
//  940 
//  941   return ( TRUE );
//  942 }
//  943 
//  944 /*********************************************************************
//  945  * @fn      zclZEM_ProcessInDiscAttrsExtRspCmd
//  946  *
//  947  * @brief   Process the "Profile" Discover Attributes Extended Response Command
//  948  *
//  949  * @param   pInMsg - incoming message to process
//  950  *
//  951  * @return  none
//  952  */
//  953 static uint8 zclZEM_ProcessInDiscAttrsExtRspCmd( zclIncomingMsg_t *pInMsg )
//  954 {
//  955   zclDiscoverAttrsExtRsp_t *discoverRspCmd;
//  956   uint8 i;
//  957 
//  958   discoverRspCmd = (zclDiscoverAttrsExtRsp_t *)pInMsg->attrCmd;
//  959   for ( i = 0; i < discoverRspCmd->numAttr; i++ )
//  960   {
//  961     // Device is notified of the result of its attribute discovery command.
//  962   }
//  963 
//  964   return ( TRUE );
//  965 }
//  966 #endif // ZCL_DISCOVER
//  967 
//  968 
//  969 
//  970 
//  971 /*********************************************************************
//  972  * @fn      zclZEM_AF_P2P
//  973  *
//  974  * @brief   点对点发送函数
//  975  *
//  976  * @param   destNwkAddr - 目标设备的网络地址
//  977  * @param   cid - Cluster ID，后续课程将会详细讲解
//  978  * @param   len - 数据长度
//  979  * @param   data - 数据内容
//  980  *
//  981  * @return  none
//  982  */
//  983 static void zclZEM_AF_P2P(
//  984     uint16 destNwkAddr,
//  985     uint16 cid,
//  986     uint8 len,
//  987     uint8 *data)
//  988 {
//  989     afAddrType_t dstAddr; //寻址信息配置

        RSEG XDATA_Z:XDATA:NOROOT(0)
        DATA8
//  990     static uint8 transferId = 0;//传输ID，是数据包的标识符
??transferId:
        DS 1
        REQUIRE __INIT_XDATA_Z
//  991     
//  992     /* Destination */
//  993     dstAddr.addrMode = afAddr16Bit;// 设置目标地址模式为16位网络地址，表示使用P2P的通信方式
//  994     dstAddr.addr.shortAddr = destNwkAddr;//目标设备的网络地址
//  995     dstAddr.endPoint = ZEM_ENDPOINT;//目标设备的端点号
//  996     
//  997     transferId++;
//  998     
//  999     AF_DataRequest(&dstAddr,
// 1000         &ZEM_AppEp,//应用程序端点描述符
// 1001         cid,
// 1002         len,
// 1003         data,
// 1004         &transferId,
// 1005         AF_DISCV_ROUTE,//进行路由扫描操作，用于建立发送数据报文的通信路径。关于这个参数，暂时保持例程默认的代码就可以了
// 1006         AF_DEFAULT_RADIUS);//指定最大的路由跳转级数
// 1007 }
// 1008 
// 1009 /*********************************************************************
// 1010  * @fn      zclZEM_AF_Broadcast
// 1011  *
// 1012  * @brief   广播发送函数
// 1013  *
// 1014  * @param   cid - Cluster ID
// 1015  * @param   len - 待发送数据的长度
// 1016  * @param   data - 待发送数据的内容
// 1017  *
// 1018  * @return  none
// 1019  */
// 1020 static void zclZEM_AF_Broadcast(
// 1021     uint16 cid,
// 1022     uint8 len,
// 1023     uint8 *data)
// 1024 {
// 1025     afAddrType_t dstAddr;

        RSEG XDATA_Z:XDATA:NOROOT(0)
        DATA8
        DS 1
        REQUIRE __INIT_XDATA_Z
// 1026     static uint8 transferId = 0;
// 1027     
// 1028     /* Destination */
// 1029     dstAddr.addrMode = afAddrBroadcast;   // 使用广播模式
// 1030     dstAddr.addr.shortAddr = 0xFFFF; // 广播地址
// 1031     dstAddr.endPoint = ZEM_ENDPOINT; // 目标设备的端点号
// 1032     
// 1033     /* Transfer id */
// 1034     transferId++;
// 1035     
// 1036     /* Send */
// 1037     AF_DataRequest(&dstAddr,
// 1038         &ZEM_AppEp,//应用程序端点描述符
// 1039         cid,
// 1040         len,
// 1041         data,
// 1042         &transferId,
// 1043         AF_TX_OPTIONS_NONE,
// 1044         AF_DEFAULT_RADIUS );//指定了最大的路由跳转级数
// 1045 }
// 1046 
// 1047 /*********************************************************************
// 1048  * @fn      zclZEM_AF_Groupcast
// 1049  *
// 1050  * @brief   组播发送函数
// 1051  *
// 1052  * @param   groupId - 组ID
// 1053  * @param   cid - ClusterID，后续章节将会详细讲解
// 1054  * @param   len - 待发送数据的长度
// 1055  * @param   data - 待发送数据的内容
// 1056  *
// 1057  * @return  none
// 1058  */
// 1059 static void zclZEM_AF_Groupcast(
// 1060     uint16 groupId,
// 1061     uint16 cid,
// 1062     uint8 len,
// 1063     uint8 *data)
// 1064 {
// 1065     afAddrType_t dstAddr;

        RSEG XDATA_Z:XDATA:NOROOT(0)
        DATA8
// 1066     static uint8 transferId = 0;
??transferId_2:
        DS 1
        REQUIRE __INIT_XDATA_Z
// 1067     
// 1068     /* Destination */
// 1069     dstAddr.addrMode = afAddrGroup;//使用组播通信模式
// 1070     dstAddr.addr.shortAddr = groupId;
// 1071     dstAddr.endPoint = ZEM_ENDPOINT;//组中的设备的端点号
// 1072     
// 1073     /* Transfer id */
// 1074     transferId++;
// 1075     
// 1076     /* Send */
// 1077     AF_DataRequest(&dstAddr,
// 1078         &ZEM_AppEp,//应用程序端点描述符
// 1079         cid,
// 1080         len,
// 1081         data,
// 1082         &transferId,
// 1083         AF_TX_OPTIONS_NONE,
// 1084         AF_DEFAULT_RADIUS );//指定最大的路由跳转级数，暂时可忽略
// 1085 }
// 1086 
// 1087 /*********************************************************************
// 1088  * @fn      zclZEM_AF_RxProc
// 1089  *
// 1090  * @brief   接收数据处理函数
// 1091  *
// 1092  * @param   MSGpkt - 接收到数据
// 1093  *
// 1094  * @return  none
// 1095  */

        RSEG BANKED_CODE:HUGECODE:NOROOT(0)
// 1096 static void zclZEM_AF_RxProc(afIncomingMSGPacket_t *MSGpkt)
zclZEM_AF_RxProc:
          CFI Block cfiBlock31 Using cfiCommon0
          CFI Function zclZEM_AF_RxProc
        CODE
// 1097 {
        FUNCALL zclZEM_AF_RxProc, osal_memcpy
        LOCFRAME ISTACK, 0, STACK
        LOCFRAME PSTACK, 0, STACK
        LOCFRAME XSTACK, 86, STACK
        LOCFRAME IOVERLAY, 0, STATIC
        LOCFRAME DOVERLAY, 0, STATIC
        ARGFRAME ISTACK, 0, STACK
        ARGFRAME PSTACK, 0, STACK
        ARGFRAME XSTACK, 86, STACK
        ARGFRAME IOVERLAY, 0, STATIC
        ARGFRAME DOVERLAY, 0, STATIC
        FUNCALL zclZEM_AF_RxProc, osal_memcpy
        LOCFRAME ISTACK, 0, STACK
        LOCFRAME PSTACK, 0, STACK
        LOCFRAME XSTACK, 86, STACK
        LOCFRAME IOVERLAY, 0, STATIC
        LOCFRAME DOVERLAY, 0, STATIC
        ARGFRAME ISTACK, 0, STACK
        ARGFRAME PSTACK, 0, STACK
        ARGFRAME XSTACK, 86, STACK
        ARGFRAME IOVERLAY, 0, STATIC
        ARGFRAME DOVERLAY, 0, STATIC
        FUNCALL zclZEM_AF_RxProc, osal_memcpy
        LOCFRAME ISTACK, 0, STACK
        LOCFRAME PSTACK, 0, STACK
        LOCFRAME XSTACK, 86, STACK
        LOCFRAME IOVERLAY, 0, STATIC
        LOCFRAME DOVERLAY, 0, STATIC
        ARGFRAME ISTACK, 0, STACK
        ARGFRAME PSTACK, 0, STACK
        ARGFRAME XSTACK, 86, STACK
        ARGFRAME IOVERLAY, 0, STATIC
        ARGFRAME DOVERLAY, 0, STATIC
        FUNCALL zclZEM_AF_RxProc, HalUARTWrite
        LOCFRAME ISTACK, 0, STACK
        LOCFRAME PSTACK, 0, STACK
        LOCFRAME XSTACK, 83, STACK
        LOCFRAME IOVERLAY, 0, STATIC
        LOCFRAME DOVERLAY, 0, STATIC
        ARGFRAME ISTACK, 0, STACK
        ARGFRAME PSTACK, 0, STACK
        ARGFRAME XSTACK, 83, STACK
        ARGFRAME IOVERLAY, 0, STATIC
        ARGFRAME DOVERLAY, 0, STATIC
        FUNCALL zclZEM_AF_RxProc, osal_memcpy
        LOCFRAME ISTACK, 0, STACK
        LOCFRAME PSTACK, 0, STACK
        LOCFRAME XSTACK, 86, STACK
        LOCFRAME IOVERLAY, 0, STATIC
        LOCFRAME DOVERLAY, 0, STATIC
        ARGFRAME ISTACK, 0, STACK
        ARGFRAME PSTACK, 0, STACK
        ARGFRAME XSTACK, 86, STACK
        ARGFRAME IOVERLAY, 0, STATIC
        ARGFRAME DOVERLAY, 0, STATIC
        FUNCALL zclZEM_AF_RxProc, osal_memcpy
        LOCFRAME ISTACK, 0, STACK
        LOCFRAME PSTACK, 0, STACK
        LOCFRAME XSTACK, 86, STACK
        LOCFRAME IOVERLAY, 0, STATIC
        LOCFRAME DOVERLAY, 0, STATIC
        ARGFRAME ISTACK, 0, STACK
        ARGFRAME PSTACK, 0, STACK
        ARGFRAME XSTACK, 86, STACK
        ARGFRAME IOVERLAY, 0, STATIC
        ARGFRAME DOVERLAY, 0, STATIC
        FUNCALL zclZEM_AF_RxProc, osal_memcpy
        LOCFRAME ISTACK, 0, STACK
        LOCFRAME PSTACK, 0, STACK
        LOCFRAME XSTACK, 86, STACK
        LOCFRAME IOVERLAY, 0, STATIC
        LOCFRAME DOVERLAY, 0, STATIC
        ARGFRAME ISTACK, 0, STACK
        ARGFRAME PSTACK, 0, STACK
        ARGFRAME XSTACK, 86, STACK
        ARGFRAME IOVERLAY, 0, STATIC
        ARGFRAME DOVERLAY, 0, STATIC
        FUNCALL zclZEM_AF_RxProc, HalUARTWrite
        LOCFRAME ISTACK, 0, STACK
        LOCFRAME PSTACK, 0, STACK
        LOCFRAME XSTACK, 83, STACK
        LOCFRAME IOVERLAY, 0, STATIC
        LOCFRAME DOVERLAY, 0, STATIC
        ARGFRAME ISTACK, 0, STACK
        ARGFRAME PSTACK, 0, STACK
        ARGFRAME XSTACK, 83, STACK
        ARGFRAME IOVERLAY, 0, STATIC
        ARGFRAME DOVERLAY, 0, STATIC
        FUNCALL zclZEM_AF_RxProc, osal_memcpy
        LOCFRAME ISTACK, 0, STACK
        LOCFRAME PSTACK, 0, STACK
        LOCFRAME XSTACK, 86, STACK
        LOCFRAME IOVERLAY, 0, STATIC
        LOCFRAME DOVERLAY, 0, STATIC
        ARGFRAME ISTACK, 0, STACK
        ARGFRAME PSTACK, 0, STACK
        ARGFRAME XSTACK, 86, STACK
        ARGFRAME IOVERLAY, 0, STATIC
        ARGFRAME DOVERLAY, 0, STATIC
        FUNCALL zclZEM_AF_RxProc, osal_memcpy
        LOCFRAME ISTACK, 0, STACK
        LOCFRAME PSTACK, 0, STACK
        LOCFRAME XSTACK, 86, STACK
        LOCFRAME IOVERLAY, 0, STATIC
        LOCFRAME DOVERLAY, 0, STATIC
        ARGFRAME ISTACK, 0, STACK
        ARGFRAME PSTACK, 0, STACK
        ARGFRAME XSTACK, 86, STACK
        ARGFRAME IOVERLAY, 0, STATIC
        ARGFRAME DOVERLAY, 0, STATIC
        FUNCALL zclZEM_AF_RxProc, osal_memcpy
        LOCFRAME ISTACK, 0, STACK
        LOCFRAME PSTACK, 0, STACK
        LOCFRAME XSTACK, 86, STACK
        LOCFRAME IOVERLAY, 0, STATIC
        LOCFRAME DOVERLAY, 0, STATIC
        ARGFRAME ISTACK, 0, STACK
        ARGFRAME PSTACK, 0, STACK
        ARGFRAME XSTACK, 86, STACK
        ARGFRAME IOVERLAY, 0, STATIC
        ARGFRAME DOVERLAY, 0, STATIC
        FUNCALL zclZEM_AF_RxProc, HalUARTWrite
        LOCFRAME ISTACK, 0, STACK
        LOCFRAME PSTACK, 0, STACK
        LOCFRAME XSTACK, 83, STACK
        LOCFRAME IOVERLAY, 0, STATIC
        LOCFRAME DOVERLAY, 0, STATIC
        ARGFRAME ISTACK, 0, STACK
        ARGFRAME PSTACK, 0, STACK
        ARGFRAME XSTACK, 83, STACK
        ARGFRAME IOVERLAY, 0, STATIC
        ARGFRAME DOVERLAY, 0, STATIC
        REQUIRE ?V0
        REQUIRE ?V1
        REQUIRE ?V2
        REQUIRE ?V3
        REQUIRE ?V4
        REQUIRE ?V5
        REQUIRE ?V6
        REQUIRE ?V8
        REQUIRE ?V9
        REQUIRE ?V10
        MOV       A,#-0x13
        LCALL     ?BANKED_ENTER_XDATA
          CFI DPH0 load(1, XDATA, add(CFA_XSP16, literal(-1)))
          CFI DPL0 load(1, XDATA, add(CFA_XSP16, literal(-2)))
          CFI ?BRET_EXT load(1, XDATA, add(CFA_XSP16, literal(-3)))
          CFI ?RET_HIGH load(1, XDATA, add(CFA_XSP16, literal(-4)))
          CFI ?RET_LOW load(1, XDATA, add(CFA_XSP16, literal(-5)))
          CFI R7 load(1, XDATA, add(CFA_XSP16, literal(-6)))
          CFI V10 load(1, XDATA, add(CFA_XSP16, literal(-7)))
          CFI V9 load(1, XDATA, add(CFA_XSP16, literal(-8)))
          CFI V8 load(1, XDATA, add(CFA_XSP16, literal(-9)))
          CFI V7 load(1, XDATA, add(CFA_XSP16, literal(-10)))
          CFI V6 load(1, XDATA, add(CFA_XSP16, literal(-11)))
          CFI V5 load(1, XDATA, add(CFA_XSP16, literal(-12)))
          CFI V4 load(1, XDATA, add(CFA_XSP16, literal(-13)))
          CFI V3 load(1, XDATA, add(CFA_XSP16, literal(-14)))
          CFI V2 load(1, XDATA, add(CFA_XSP16, literal(-15)))
          CFI V1 load(1, XDATA, add(CFA_XSP16, literal(-16)))
          CFI V0 load(1, XDATA, add(CFA_XSP16, literal(-17)))
          CFI VB load(1, XDATA, add(CFA_XSP16, literal(-18)))
          CFI R6 load(1, XDATA, add(CFA_XSP16, literal(-19)))
          CFI CFA_SP SP+0
          CFI CFA_XSP16 add(XSP16, 19)
        ; Saved register size: 19
        ; Auto size: 64
        MOV       A,#-0x40
        LCALL     ?ALLOC_XSTACK8
          CFI CFA_XSP16 add(XSP16, 83)
// 1098     /*计数器，记录接收到的点对点通信数据包个数*/
// 1099     static uint8 p2pCnt = 0;
// 1100     /*计数器，记录接收到的广播通信数据包个数*/
// 1101     static uint8 bcCnt = 0;
// 1102     /*计数器，记录接收到的组播通信数据包个数*/
// 1103     static uint8 gcCnt = 0;
// 1104     
// 1105     switch( MSGpkt->clusterId )  // 判断接收到的数据包的Cluster ID
        MOV       ?V4,#`?<Constant " Count: ">` & 0xff
        MOV       ?V5,#(`?<Constant " Count: ">` >> 8) & 0xff
        MOV       ?V6,#0x0
        MOV       A,R2
        ADD       A,#0x22
        MOV       ?V0,A
        CLR       A
        ADDC      A,R3
        MOV       ?V1,A
        MOV       A,R2
        ADD       A,#0x20
        LCALL     ?Subroutine12 & 0xFFFF
??CrossCallReturnLabel_14:
        MOVX      A,@DPTR
        MOV       ?V2,A
        INC       DPTR
        MOVX      A,@DPTR
        MOV       ?V3,A
        MOV       R0,#?V2
        LCALL     ?US_SWITCH_DENSE
`?<Jumptable for zclZEM_AF_RxProc>_0`:
        DATA
        DATA16
        DATA
        DATA16
        DW        0
        DATA
        DATA8
        DATA
        DATA8
        DB        2
        DATA
        DATA16
        DATA
        DATA16
        DW        ??zclZEM_AF_RxProc_0
        DATA
        DATA16
        DATA
        DATA16
        DW        ??zclZEM_AF_RxProc_1
        DATA
        DATA16
        DATA
        DATA16
        DW        ??zclZEM_AF_RxProc_2
        DATA
        DATA16
        DATA
        DATA16
        DW        ??zclZEM_AF_RxProc_3
        CODE
// 1106     {
// 1107         case CLUSTER_P2P:
// 1108             p2pCnt++;  // 接收到P2P数据包，进行计数
??zclZEM_AF_RxProc_1:
        MOV       DPTR,#??p2pCnt
        MOVX      A,@DPTR
        INC       A
        MOVX      @DPTR,A
// 1109             // 通过串口输出接收到的数据和计数器值
// 1110             {
// 1111                 uint8 p2pMsg[64];
// 1112                 osal_memcpy(p2pMsg, "P2P Data: ", 10);
        ; Setup parameters for call to function osal_memcpy
        MOV       ?V8,#`?<Constant "P2P Data: ">` & 0xff
        MOV       ?V9,#(`?<Constant "P2P Data: ">` >> 8) & 0xff
        MOV       ?V10,#0x0
        MOV       R0,#?V8
        LCALL     ?PUSH_XSTACK_I_THREE
          CFI CFA_XSP16 add(XSP16, 86)
        MOV       R4,#0xa
        MOV       R5,#0x0
        MOV       A,#0x3
        LCALL     ?XSTACK_DISP101_8
        LCALL     `??osal_memcpy::?relay`; Banked call to: osal_memcpy
        MOV       A,#0x3
        LCALL     ?DEALLOC_XSTACK8
          CFI CFA_XSP16 add(XSP16, 83)
// 1113                 osal_memcpy(p2pMsg + 10, MSGpkt->cmd.Data, MSGpkt->cmd.DataLength);
        ; Setup parameters for call to function osal_memcpy
        LCALL     ?Subroutine4 & 0xFFFF
??CrossCallReturnLabel_0:
        LCALL     ?PUSH_XSTACK_I_THREE
          CFI CFA_XSP16 add(XSP16, 86)
        MOV       DPL,R6
        MOV       DPH,R7
        MOVX      A,@DPTR
        MOV       R4,A
        INC       DPTR
        MOVX      A,@DPTR
        MOV       R5,A
        MOV       A,#0xd
        LCALL     ?XSTACK_DISP0_8
        MOV       R2,DPL
        MOV       R3,DPH
        LCALL     `??osal_memcpy::?relay`; Banked call to: osal_memcpy
        MOV       A,#0x3
        LCALL     ?DEALLOC_XSTACK8
          CFI CFA_XSP16 add(XSP16, 83)
// 1114                 osal_memcpy(p2pMsg + 10 + MSGpkt->cmd.DataLength, " Count: ", 8);
        ; Setup parameters for call to function osal_memcpy
        MOV       R0,#?V4
        LCALL     ?PUSH_XSTACK_I_THREE
          CFI CFA_XSP16 add(XSP16, 86)
        MOV       R4,#0x8
        MOV       R5,#0x0
        MOV       DPL,R6
        MOV       DPH,R7
        MOV       A,#0x3
        LCALL     ?XSTACK_DISP100_8
        MOV       ?V1,R1
        LCALL     ??Subroutine16_0 & 0xFFFF
??CrossCallReturnLabel_20:
        ADD       A,#0xa
        MOV       R2,A
        CLR       A
        ADDC      A,R1
        MOV       R3,A
        LCALL     `??osal_memcpy::?relay`; Banked call to: osal_memcpy
        MOV       A,#0x3
        LCALL     ?DEALLOC_XSTACK8
          CFI CFA_XSP16 add(XSP16, 83)
// 1115                 p2pMsg[18 + MSGpkt->cmd.DataLength] = '0' + p2pCnt;
        MOV       DPTR,#??p2pCnt
        MOVX      A,@DPTR
        ADD       A,#0x30
        PUSH      A
          CFI CFA_SP SP+-1
        LCALL     ?Subroutine6 & 0xFFFF
// 1116                 p2pMsg[19 + MSGpkt->cmd.DataLength] = '\r';
// 1117                 p2pMsg[20 + MSGpkt->cmd.DataLength] = '\n';
// 1118                 HalUARTWrite(HAL_UART_PORT_0, p2pMsg, 21 + MSGpkt->cmd.DataLength);
// 1119             }
??CrossCallReturnLabel_21:
        ADD       A,#0x12
        MOV       DPL,A
        CLR       A
        ADDC      A,R1
        MOV       DPH,A
        POP       A
          CFI CFA_SP SP+0
        LCALL     ??Subroutine17_0 & 0xFFFF
??CrossCallReturnLabel_27:
        ADD       A,#0x13
        LCALL     ?Subroutine3 & 0xFFFF
??CrossCallReturnLabel_25:
        ADD       A,#0x14
        LCALL     ?Subroutine13 & 0xFFFF
??CrossCallReturnLabel_15:
        ADD       A,#0x15
        LJMP      ??zclZEM_AF_RxProc_4 & 0xFFFF
// 1120             break;
// 1121         case CLUSTER_BROADCAST:
// 1122             bcCnt++;  // 接收到广播数据包，进行计数
??zclZEM_AF_RxProc_2:
        MOV       DPTR,#??bcCnt
        MOVX      A,@DPTR
        INC       A
        MOVX      @DPTR,A
// 1123             // 通过串口输出接收到的数据和计数器值
// 1124             {
// 1125                 uint8 bcMsg[64];
// 1126                 osal_memcpy(bcMsg, "Broadcast Data: ", 16);
        ; Setup parameters for call to function osal_memcpy
        MOV       ?V8,#`?<Constant "Broadcast Data: ">` & 0xff
        MOV       ?V9,#(`?<Constant "Broadcast Data: ">` >> 8) & 0xff
        MOV       ?V10,#0x0
        MOV       R0,#?V8
        LCALL     ?PUSH_XSTACK_I_THREE
          CFI CFA_XSP16 add(XSP16, 86)
        MOV       R4,#0x10
        MOV       R5,#0x0
        MOV       A,#0x3
        LCALL     ?XSTACK_DISP101_8
        LCALL     `??osal_memcpy::?relay`; Banked call to: osal_memcpy
        MOV       A,#0x3
        LCALL     ?DEALLOC_XSTACK8
          CFI CFA_XSP16 add(XSP16, 83)
// 1127                 osal_memcpy(bcMsg + 16, MSGpkt->cmd.Data, MSGpkt->cmd.DataLength);
        ; Setup parameters for call to function osal_memcpy
        LCALL     ?Subroutine4 & 0xFFFF
??CrossCallReturnLabel_1:
        LCALL     ?PUSH_XSTACK_I_THREE
          CFI CFA_XSP16 add(XSP16, 86)
        MOV       DPL,R6
        MOV       DPH,R7
        MOVX      A,@DPTR
        MOV       R4,A
        INC       DPTR
        MOVX      A,@DPTR
        MOV       R5,A
        MOV       A,#0x13
        LCALL     ?XSTACK_DISP0_8
        MOV       R2,DPL
        MOV       R3,DPH
        LCALL     `??osal_memcpy::?relay`; Banked call to: osal_memcpy
        MOV       A,#0x3
        LCALL     ?DEALLOC_XSTACK8
          CFI CFA_XSP16 add(XSP16, 83)
// 1128                 osal_memcpy(bcMsg + 16 + MSGpkt->cmd.DataLength, " Count: ", 8);
        ; Setup parameters for call to function osal_memcpy
        MOV       R0,#?V4
        LCALL     ?PUSH_XSTACK_I_THREE
          CFI CFA_XSP16 add(XSP16, 86)
        MOV       R4,#0x8
        MOV       R5,#0x0
        MOV       DPL,R6
        MOV       DPH,R7
        MOV       A,#0x3
        LCALL     ?XSTACK_DISP100_8
        LCALL     ?Subroutine5 & 0xFFFF
??CrossCallReturnLabel_3:
        LCALL     `??osal_memcpy::?relay`; Banked call to: osal_memcpy
        MOV       A,#0x3
        LCALL     ?DEALLOC_XSTACK8
          CFI CFA_XSP16 add(XSP16, 83)
// 1129                 bcMsg[24 + MSGpkt->cmd.DataLength] = '0' + bcCnt;
        MOV       DPTR,#??bcCnt
        SJMP      ??zclZEM_AF_RxProc_5
// 1130                 bcMsg[25 + MSGpkt->cmd.DataLength] = '\r';
// 1131                 bcMsg[26 + MSGpkt->cmd.DataLength] = '\n';
// 1132                 HalUARTWrite(HAL_UART_PORT_0, bcMsg, 27 + MSGpkt->cmd.DataLength);
// 1133             }
// 1134             break;
// 1135         case CLUSTER_GROUPCAST:
// 1136             gcCnt++;  // 接收到组播数据包，进行计数
??zclZEM_AF_RxProc_3:
        MOV       DPTR,#??gcCnt
        MOVX      A,@DPTR
        INC       A
        MOVX      @DPTR,A
// 1137             // 通过串口输出接收到的数据和计数器值
// 1138             {
// 1139                 uint8 gcMsg[64];
// 1140                 osal_memcpy(gcMsg, "Groupcast Data: ", 16);
        ; Setup parameters for call to function osal_memcpy
        MOV       ?V8,#`?<Constant "Groupcast Data: ">` & 0xff
        MOV       ?V9,#(`?<Constant "Groupcast Data: ">` >> 8) & 0xff
        MOV       ?V10,#0x0
        MOV       R0,#?V8
        LCALL     ?PUSH_XSTACK_I_THREE
          CFI CFA_XSP16 add(XSP16, 86)
        MOV       R4,#0x10
        MOV       R5,#0x0
        MOV       A,#0x3
        LCALL     ?XSTACK_DISP101_8
        LCALL     `??osal_memcpy::?relay`; Banked call to: osal_memcpy
        MOV       A,#0x3
        LCALL     ?DEALLOC_XSTACK8
          CFI CFA_XSP16 add(XSP16, 83)
// 1141                 osal_memcpy(gcMsg + 16, MSGpkt->cmd.Data, MSGpkt->cmd.DataLength);
        ; Setup parameters for call to function osal_memcpy
        LCALL     ?Subroutine4 & 0xFFFF
??CrossCallReturnLabel_2:
        LCALL     ?PUSH_XSTACK_I_THREE
          CFI CFA_XSP16 add(XSP16, 86)
        MOV       DPL,R6
        MOV       DPH,R7
        MOVX      A,@DPTR
        MOV       R4,A
        INC       DPTR
        MOVX      A,@DPTR
        MOV       R5,A
        MOV       A,#0x13
        LCALL     ?XSTACK_DISP0_8
        MOV       R2,DPL
        MOV       R3,DPH
        LCALL     `??osal_memcpy::?relay`; Banked call to: osal_memcpy
        MOV       A,#0x3
        LCALL     ?DEALLOC_XSTACK8
          CFI CFA_XSP16 add(XSP16, 83)
// 1142                 osal_memcpy(gcMsg + 16 + MSGpkt->cmd.DataLength, " Count: ", 8);
        ; Setup parameters for call to function osal_memcpy
        MOV       R0,#?V4
        LCALL     ?PUSH_XSTACK_I_THREE
          CFI CFA_XSP16 add(XSP16, 86)
        MOV       R4,#0x8
        MOV       R5,#0x0
        MOV       DPL,R6
        MOV       DPH,R7
        MOV       A,#0x3
        LCALL     ?XSTACK_DISP100_8
        LCALL     ?Subroutine5 & 0xFFFF
??CrossCallReturnLabel_4:
        LCALL     `??osal_memcpy::?relay`; Banked call to: osal_memcpy
        MOV       A,#0x3
        LCALL     ?DEALLOC_XSTACK8
          CFI CFA_XSP16 add(XSP16, 83)
// 1143                 gcMsg[24 + MSGpkt->cmd.DataLength] = '0' + gcCnt;
        MOV       DPTR,#??gcCnt
??zclZEM_AF_RxProc_5:
        MOVX      A,@DPTR
        ADD       A,#0x30
        PUSH      A
          CFI CFA_SP SP+-1
// 1144                 gcMsg[25 + MSGpkt->cmd.DataLength] = '\r';
// 1145                 gcMsg[26 + MSGpkt->cmd.DataLength] = '\n';
// 1146                 HalUARTWrite(HAL_UART_PORT_0, gcMsg, 27 + MSGpkt->cmd.DataLength);
// 1147             }
        LCALL     ?Subroutine6 & 0xFFFF
??CrossCallReturnLabel_22:
        ADD       A,#0x18
        MOV       DPL,A
        CLR       A
        ADDC      A,R1
        MOV       DPH,A
        POP       A
          CFI CFA_SP SP+0
        LCALL     ??Subroutine17_0 & 0xFFFF
??CrossCallReturnLabel_28:
        ADD       A,#0x19
        LCALL     ?Subroutine3 & 0xFFFF
??CrossCallReturnLabel_26:
        ADD       A,#0x1a
        LCALL     ?Subroutine13 & 0xFFFF
??CrossCallReturnLabel_16:
        ADD       A,#0x1b
??zclZEM_AF_RxProc_4:
        MOV       R4,A
        INC       DPTR
        MOVX      A,@DPTR
        ADDC      A,#0x0
        MOV       R5,A
        MOV       R2,?XSP + 0
        MOV       R3,?XSP + 1
        MOV       R1,#0x0
        LCALL     `??HalUARTWrite::?relay`; Banked call to: HalUARTWrite
// 1148             break;
// 1149         default:
// 1150             break;
// 1151     }
// 1152 }
??zclZEM_AF_RxProc_0:
        MOV       A,#0x40
        LCALL     ?DEALLOC_XSTACK8
          CFI CFA_XSP16 add(XSP16, 19)
        MOV       R7,#0xb
        LJMP      ?BANKED_LEAVE_XDATA
          CFI EndBlock cfiBlock31

        RSEG BANKED_CODE:HUGECODE:NOROOT(0)
?Subroutine13:
          CFI Block cfiCond32 Using cfiCommon0
          CFI Function zclZEM_AF_RxProc
          CFI Conditional ??CrossCallReturnLabel_15
          CFI R6 load(1, XDATA, add(CFA_XSP16, literal(-19)))
          CFI VB load(1, XDATA, add(CFA_XSP16, literal(-18)))
          CFI V0 load(1, XDATA, add(CFA_XSP16, literal(-17)))
          CFI V1 load(1, XDATA, add(CFA_XSP16, literal(-16)))
          CFI V2 load(1, XDATA, add(CFA_XSP16, literal(-15)))
          CFI V3 load(1, XDATA, add(CFA_XSP16, literal(-14)))
          CFI V4 load(1, XDATA, add(CFA_XSP16, literal(-13)))
          CFI V5 load(1, XDATA, add(CFA_XSP16, literal(-12)))
          CFI V6 load(1, XDATA, add(CFA_XSP16, literal(-11)))
          CFI V7 load(1, XDATA, add(CFA_XSP16, literal(-10)))
          CFI V8 load(1, XDATA, add(CFA_XSP16, literal(-9)))
          CFI V9 load(1, XDATA, add(CFA_XSP16, literal(-8)))
          CFI V10 load(1, XDATA, add(CFA_XSP16, literal(-7)))
          CFI R7 load(1, XDATA, add(CFA_XSP16, literal(-6)))
          CFI ?RET_LOW load(1, XDATA, add(CFA_XSP16, literal(-5)))
          CFI ?RET_HIGH load(1, XDATA, add(CFA_XSP16, literal(-4)))
          CFI ?BRET_EXT load(1, XDATA, add(CFA_XSP16, literal(-3)))
          CFI DPL0 load(1, XDATA, add(CFA_XSP16, literal(-2)))
          CFI DPH0 load(1, XDATA, add(CFA_XSP16, literal(-1)))
          CFI CFA_SP SP+-2
          CFI CFA_XSP16 add(XSP16, 83)
          CFI Block cfiCond33 Using cfiCommon0
          CFI (cfiCond33) Function zclZEM_AF_RxProc
          CFI (cfiCond33) Conditional ??CrossCallReturnLabel_16
          CFI (cfiCond33) R6 load(1, XDATA, add(CFA_XSP16, literal(-19)))
          CFI (cfiCond33) VB load(1, XDATA, add(CFA_XSP16, literal(-18)))
          CFI (cfiCond33) V0 load(1, XDATA, add(CFA_XSP16, literal(-17)))
          CFI (cfiCond33) V1 load(1, XDATA, add(CFA_XSP16, literal(-16)))
          CFI (cfiCond33) V2 load(1, XDATA, add(CFA_XSP16, literal(-15)))
          CFI (cfiCond33) V3 load(1, XDATA, add(CFA_XSP16, literal(-14)))
          CFI (cfiCond33) V4 load(1, XDATA, add(CFA_XSP16, literal(-13)))
          CFI (cfiCond33) V5 load(1, XDATA, add(CFA_XSP16, literal(-12)))
          CFI (cfiCond33) V6 load(1, XDATA, add(CFA_XSP16, literal(-11)))
          CFI (cfiCond33) V7 load(1, XDATA, add(CFA_XSP16, literal(-10)))
          CFI (cfiCond33) V8 load(1, XDATA, add(CFA_XSP16, literal(-9)))
          CFI (cfiCond33) V9 load(1, XDATA, add(CFA_XSP16, literal(-8)))
          CFI (cfiCond33) V10 load(1, XDATA, add(CFA_XSP16, literal(-7)))
          CFI (cfiCond33) R7 load(1, XDATA, add(CFA_XSP16, literal(-6)))
          CFI (cfiCond33) ?RET_LOW load(1, XDATA, add(CFA_XSP16, literal(-5)))
          CFI (cfiCond33) ?RET_HIGH load(1, XDATA, add(CFA_XSP16, literal(-4)))
          CFI (cfiCond33) ?BRET_EXT load(1, XDATA, add(CFA_XSP16, literal(-3)))
          CFI (cfiCond33) DPL0 load(1, XDATA, add(CFA_XSP16, literal(-2)))
          CFI (cfiCond33) DPH0 load(1, XDATA, add(CFA_XSP16, literal(-1)))
          CFI (cfiCond33) CFA_SP SP+-2
          CFI (cfiCond33) CFA_XSP16 add(XSP16, 83)
          CFI Block cfiPicker34 Using cfiCommon1
          CFI (cfiPicker34) NoFunction
          CFI (cfiPicker34) Picker
        MOV       DPL,A
        CLR       A
        ADDC      A,R1
        MOV       DPH,A
        MOV       A,#0xa
        MOVX      @DPTR,A
        ; Setup parameters for call to function HalUARTWrite
        ; Setup parameters for call to function HalUARTWrite
        MOV       DPL,R6
        MOV       DPH,R7
        MOVX      A,@DPTR
        RET
          CFI EndBlock cfiCond32
          CFI EndBlock cfiCond33
          CFI EndBlock cfiPicker34

        RSEG BANKED_CODE:HUGECODE:NOROOT(0)
?Subroutine12:
          CFI Block cfiCond35 Using cfiCommon0
          CFI Function zclZEM_ProcessIncomingMsg
          CFI Conditional ??CrossCallReturnLabel_13
          CFI R6 load(1, XDATA, add(CFA_XSP16, literal(-9)))
          CFI VB load(1, XDATA, add(CFA_XSP16, literal(-8)))
          CFI V0 load(1, XDATA, add(CFA_XSP16, literal(-7)))
          CFI R7 load(1, XDATA, add(CFA_XSP16, literal(-6)))
          CFI ?RET_LOW load(1, XDATA, add(CFA_XSP16, literal(-5)))
          CFI ?RET_HIGH load(1, XDATA, add(CFA_XSP16, literal(-4)))
          CFI ?BRET_EXT load(1, XDATA, add(CFA_XSP16, literal(-3)))
          CFI DPL0 load(1, XDATA, add(CFA_XSP16, literal(-2)))
          CFI DPH0 load(1, XDATA, add(CFA_XSP16, literal(-1)))
          CFI CFA_SP SP+-2
          CFI CFA_XSP16 add(XSP16, 9)
          CFI Block cfiCond36 Using cfiCommon0
          CFI (cfiCond36) Function zclZEM_AF_RxProc
          CFI (cfiCond36) Conditional ??CrossCallReturnLabel_14
          CFI (cfiCond36) R6 load(1, XDATA, add(CFA_XSP16, literal(-19)))
          CFI (cfiCond36) VB load(1, XDATA, add(CFA_XSP16, literal(-18)))
          CFI (cfiCond36) V0 load(1, XDATA, add(CFA_XSP16, literal(-17)))
          CFI (cfiCond36) V1 load(1, XDATA, add(CFA_XSP16, literal(-16)))
          CFI (cfiCond36) V2 load(1, XDATA, add(CFA_XSP16, literal(-15)))
          CFI (cfiCond36) V3 load(1, XDATA, add(CFA_XSP16, literal(-14)))
          CFI (cfiCond36) V4 load(1, XDATA, add(CFA_XSP16, literal(-13)))
          CFI (cfiCond36) V5 load(1, XDATA, add(CFA_XSP16, literal(-12)))
          CFI (cfiCond36) V6 load(1, XDATA, add(CFA_XSP16, literal(-11)))
          CFI (cfiCond36) V7 load(1, XDATA, add(CFA_XSP16, literal(-10)))
          CFI (cfiCond36) V8 load(1, XDATA, add(CFA_XSP16, literal(-9)))
          CFI (cfiCond36) V9 load(1, XDATA, add(CFA_XSP16, literal(-8)))
          CFI (cfiCond36) V10 load(1, XDATA, add(CFA_XSP16, literal(-7)))
          CFI (cfiCond36) R7 load(1, XDATA, add(CFA_XSP16, literal(-6)))
          CFI (cfiCond36) ?RET_LOW load(1, XDATA, add(CFA_XSP16, literal(-5)))
          CFI (cfiCond36) ?RET_HIGH load(1, XDATA, add(CFA_XSP16, literal(-4)))
          CFI (cfiCond36) ?BRET_EXT load(1, XDATA, add(CFA_XSP16, literal(-3)))
          CFI (cfiCond36) DPL0 load(1, XDATA, add(CFA_XSP16, literal(-2)))
          CFI (cfiCond36) DPH0 load(1, XDATA, add(CFA_XSP16, literal(-1)))
          CFI (cfiCond36) CFA_SP SP+-2
          CFI (cfiCond36) CFA_XSP16 add(XSP16, 83)
          CFI Block cfiPicker37 Using cfiCommon1
          CFI (cfiPicker37) NoFunction
          CFI (cfiPicker37) Picker
        MOV       R0,A
        CLR       A
        ADDC      A,R3
        MOV       R1,A
        MOV       A,R0
        MOV       R6,A
        MOV       A,R1
        MOV       R7,A
        MOV       DPL,R2
        MOV       DPH,R3
        INC       DPTR
        INC       DPTR
        INC       DPTR
        INC       DPTR
        RET
          CFI EndBlock cfiCond35
          CFI EndBlock cfiCond36
          CFI EndBlock cfiPicker37

        RSEG BANKED_CODE:HUGECODE:NOROOT(0)
?Subroutine6:
          CFI Block cfiCond38 Using cfiCommon0
          CFI Function zclZEM_AF_RxProc
          CFI Conditional ??CrossCallReturnLabel_21
          CFI R6 load(1, XDATA, add(CFA_XSP16, literal(-19)))
          CFI VB load(1, XDATA, add(CFA_XSP16, literal(-18)))
          CFI V0 load(1, XDATA, add(CFA_XSP16, literal(-17)))
          CFI V1 load(1, XDATA, add(CFA_XSP16, literal(-16)))
          CFI V2 load(1, XDATA, add(CFA_XSP16, literal(-15)))
          CFI V3 load(1, XDATA, add(CFA_XSP16, literal(-14)))
          CFI V4 load(1, XDATA, add(CFA_XSP16, literal(-13)))
          CFI V5 load(1, XDATA, add(CFA_XSP16, literal(-12)))
          CFI V6 load(1, XDATA, add(CFA_XSP16, literal(-11)))
          CFI V7 load(1, XDATA, add(CFA_XSP16, literal(-10)))
          CFI V8 load(1, XDATA, add(CFA_XSP16, literal(-9)))
          CFI V9 load(1, XDATA, add(CFA_XSP16, literal(-8)))
          CFI V10 load(1, XDATA, add(CFA_XSP16, literal(-7)))
          CFI R7 load(1, XDATA, add(CFA_XSP16, literal(-6)))
          CFI ?RET_LOW load(1, XDATA, add(CFA_XSP16, literal(-5)))
          CFI ?RET_HIGH load(1, XDATA, add(CFA_XSP16, literal(-4)))
          CFI ?BRET_EXT load(1, XDATA, add(CFA_XSP16, literal(-3)))
          CFI DPL0 load(1, XDATA, add(CFA_XSP16, literal(-2)))
          CFI DPH0 load(1, XDATA, add(CFA_XSP16, literal(-1)))
          CFI CFA_XSP16 add(XSP16, 83)
          CFI Block cfiCond39 Using cfiCommon0
          CFI (cfiCond39) Function zclZEM_AF_RxProc
          CFI (cfiCond39) Conditional ??CrossCallReturnLabel_22
          CFI (cfiCond39) R6 load(1, XDATA, add(CFA_XSP16, literal(-19)))
          CFI (cfiCond39) VB load(1, XDATA, add(CFA_XSP16, literal(-18)))
          CFI (cfiCond39) V0 load(1, XDATA, add(CFA_XSP16, literal(-17)))
          CFI (cfiCond39) V1 load(1, XDATA, add(CFA_XSP16, literal(-16)))
          CFI (cfiCond39) V2 load(1, XDATA, add(CFA_XSP16, literal(-15)))
          CFI (cfiCond39) V3 load(1, XDATA, add(CFA_XSP16, literal(-14)))
          CFI (cfiCond39) V4 load(1, XDATA, add(CFA_XSP16, literal(-13)))
          CFI (cfiCond39) V5 load(1, XDATA, add(CFA_XSP16, literal(-12)))
          CFI (cfiCond39) V6 load(1, XDATA, add(CFA_XSP16, literal(-11)))
          CFI (cfiCond39) V7 load(1, XDATA, add(CFA_XSP16, literal(-10)))
          CFI (cfiCond39) V8 load(1, XDATA, add(CFA_XSP16, literal(-9)))
          CFI (cfiCond39) V9 load(1, XDATA, add(CFA_XSP16, literal(-8)))
          CFI (cfiCond39) V10 load(1, XDATA, add(CFA_XSP16, literal(-7)))
          CFI (cfiCond39) R7 load(1, XDATA, add(CFA_XSP16, literal(-6)))
          CFI (cfiCond39) ?RET_LOW load(1, XDATA, add(CFA_XSP16, literal(-5)))
          CFI (cfiCond39) ?RET_HIGH load(1, XDATA, add(CFA_XSP16, literal(-4)))
          CFI (cfiCond39) ?BRET_EXT load(1, XDATA, add(CFA_XSP16, literal(-3)))
          CFI (cfiCond39) DPL0 load(1, XDATA, add(CFA_XSP16, literal(-2)))
          CFI (cfiCond39) DPH0 load(1, XDATA, add(CFA_XSP16, literal(-1)))
          CFI (cfiCond39) CFA_XSP16 add(XSP16, 83)
          CFI Block cfiPicker40 Using cfiCommon1
          CFI (cfiPicker40) NoFunction
          CFI (cfiPicker40) Picker
        MOV       DPL,R6
        MOV       DPH,R7
        MOV       R0,?XSP + 0
        MOV       ?V0,R0
          CFI EndBlock cfiCond38
          CFI EndBlock cfiCond39
          CFI EndBlock cfiPicker40
        REQUIRE ??Subroutine16_0
        ; // Fall through to label ??Subroutine16_0

        RSEG BANKED_CODE:HUGECODE:NOROOT(0)
??Subroutine16_0:
          CFI Block cfiCond41 Using cfiCommon0
          CFI Function zclZEM_AF_RxProc
          CFI Conditional ??CrossCallReturnLabel_20
          CFI R6 load(1, XDATA, add(CFA_XSP16, literal(-19)))
          CFI VB load(1, XDATA, add(CFA_XSP16, literal(-18)))
          CFI V0 load(1, XDATA, add(CFA_XSP16, literal(-17)))
          CFI V1 load(1, XDATA, add(CFA_XSP16, literal(-16)))
          CFI V2 load(1, XDATA, add(CFA_XSP16, literal(-15)))
          CFI V3 load(1, XDATA, add(CFA_XSP16, literal(-14)))
          CFI V4 load(1, XDATA, add(CFA_XSP16, literal(-13)))
          CFI V5 load(1, XDATA, add(CFA_XSP16, literal(-12)))
          CFI V6 load(1, XDATA, add(CFA_XSP16, literal(-11)))
          CFI V7 load(1, XDATA, add(CFA_XSP16, literal(-10)))
          CFI V8 load(1, XDATA, add(CFA_XSP16, literal(-9)))
          CFI V9 load(1, XDATA, add(CFA_XSP16, literal(-8)))
          CFI V10 load(1, XDATA, add(CFA_XSP16, literal(-7)))
          CFI R7 load(1, XDATA, add(CFA_XSP16, literal(-6)))
          CFI ?RET_LOW load(1, XDATA, add(CFA_XSP16, literal(-5)))
          CFI ?RET_HIGH load(1, XDATA, add(CFA_XSP16, literal(-4)))
          CFI ?BRET_EXT load(1, XDATA, add(CFA_XSP16, literal(-3)))
          CFI DPL0 load(1, XDATA, add(CFA_XSP16, literal(-2)))
          CFI DPH0 load(1, XDATA, add(CFA_XSP16, literal(-1)))
          CFI CFA_SP SP+-2
          CFI CFA_XSP16 add(XSP16, 86)
          CFI Block cfiCond42 Using cfiCommon0
          CFI (cfiCond42) Function zclZEM_AF_RxProc
          CFI (cfiCond42) Conditional ??CrossCallReturnLabel_21
          CFI (cfiCond42) R6 load(1, XDATA, add(CFA_XSP16, literal(-19)))
          CFI (cfiCond42) VB load(1, XDATA, add(CFA_XSP16, literal(-18)))
          CFI (cfiCond42) V0 load(1, XDATA, add(CFA_XSP16, literal(-17)))
          CFI (cfiCond42) V1 load(1, XDATA, add(CFA_XSP16, literal(-16)))
          CFI (cfiCond42) V2 load(1, XDATA, add(CFA_XSP16, literal(-15)))
          CFI (cfiCond42) V3 load(1, XDATA, add(CFA_XSP16, literal(-14)))
          CFI (cfiCond42) V4 load(1, XDATA, add(CFA_XSP16, literal(-13)))
          CFI (cfiCond42) V5 load(1, XDATA, add(CFA_XSP16, literal(-12)))
          CFI (cfiCond42) V6 load(1, XDATA, add(CFA_XSP16, literal(-11)))
          CFI (cfiCond42) V7 load(1, XDATA, add(CFA_XSP16, literal(-10)))
          CFI (cfiCond42) V8 load(1, XDATA, add(CFA_XSP16, literal(-9)))
          CFI (cfiCond42) V9 load(1, XDATA, add(CFA_XSP16, literal(-8)))
          CFI (cfiCond42) V10 load(1, XDATA, add(CFA_XSP16, literal(-7)))
          CFI (cfiCond42) R7 load(1, XDATA, add(CFA_XSP16, literal(-6)))
          CFI (cfiCond42) ?RET_LOW load(1, XDATA, add(CFA_XSP16, literal(-5)))
          CFI (cfiCond42) ?RET_HIGH load(1, XDATA, add(CFA_XSP16, literal(-4)))
          CFI (cfiCond42) ?BRET_EXT load(1, XDATA, add(CFA_XSP16, literal(-3)))
          CFI (cfiCond42) DPL0 load(1, XDATA, add(CFA_XSP16, literal(-2)))
          CFI (cfiCond42) DPH0 load(1, XDATA, add(CFA_XSP16, literal(-1)))
          CFI (cfiCond42) CFA_XSP16 add(XSP16, 83)
          CFI Block cfiCond43 Using cfiCommon0
          CFI (cfiCond43) Function zclZEM_AF_RxProc
          CFI (cfiCond43) Conditional ??CrossCallReturnLabel_22
          CFI (cfiCond43) R6 load(1, XDATA, add(CFA_XSP16, literal(-19)))
          CFI (cfiCond43) VB load(1, XDATA, add(CFA_XSP16, literal(-18)))
          CFI (cfiCond43) V0 load(1, XDATA, add(CFA_XSP16, literal(-17)))
          CFI (cfiCond43) V1 load(1, XDATA, add(CFA_XSP16, literal(-16)))
          CFI (cfiCond43) V2 load(1, XDATA, add(CFA_XSP16, literal(-15)))
          CFI (cfiCond43) V3 load(1, XDATA, add(CFA_XSP16, literal(-14)))
          CFI (cfiCond43) V4 load(1, XDATA, add(CFA_XSP16, literal(-13)))
          CFI (cfiCond43) V5 load(1, XDATA, add(CFA_XSP16, literal(-12)))
          CFI (cfiCond43) V6 load(1, XDATA, add(CFA_XSP16, literal(-11)))
          CFI (cfiCond43) V7 load(1, XDATA, add(CFA_XSP16, literal(-10)))
          CFI (cfiCond43) V8 load(1, XDATA, add(CFA_XSP16, literal(-9)))
          CFI (cfiCond43) V9 load(1, XDATA, add(CFA_XSP16, literal(-8)))
          CFI (cfiCond43) V10 load(1, XDATA, add(CFA_XSP16, literal(-7)))
          CFI (cfiCond43) R7 load(1, XDATA, add(CFA_XSP16, literal(-6)))
          CFI (cfiCond43) ?RET_LOW load(1, XDATA, add(CFA_XSP16, literal(-5)))
          CFI (cfiCond43) ?RET_HIGH load(1, XDATA, add(CFA_XSP16, literal(-4)))
          CFI (cfiCond43) ?BRET_EXT load(1, XDATA, add(CFA_XSP16, literal(-3)))
          CFI (cfiCond43) DPL0 load(1, XDATA, add(CFA_XSP16, literal(-2)))
          CFI (cfiCond43) DPH0 load(1, XDATA, add(CFA_XSP16, literal(-1)))
          CFI (cfiCond43) CFA_XSP16 add(XSP16, 83)
          CFI Block cfiPicker44 Using cfiCommon1
          CFI (cfiPicker44) NoFunction
          CFI (cfiPicker44) Picker
        LCALL     ?Subroutine14 & 0xFFFF
??CrossCallReturnLabel_24:
        RET
          CFI EndBlock cfiCond41
          CFI EndBlock cfiCond42
          CFI EndBlock cfiCond43
          CFI EndBlock cfiPicker44

        RSEG BANKED_CODE:HUGECODE:NOROOT(0)
?Subroutine14:
          CFI Block cfiCond45 Using cfiCommon0
          CFI Function zclZEM_AF_RxProc
          CFI Conditional ??CrossCallReturnLabel_24, ??CrossCallReturnLabel_21
          CFI R6 load(1, XDATA, add(CFA_XSP16, literal(-19)))
          CFI VB load(1, XDATA, add(CFA_XSP16, literal(-18)))
          CFI V0 load(1, XDATA, add(CFA_XSP16, literal(-17)))
          CFI V1 load(1, XDATA, add(CFA_XSP16, literal(-16)))
          CFI V2 load(1, XDATA, add(CFA_XSP16, literal(-15)))
          CFI V3 load(1, XDATA, add(CFA_XSP16, literal(-14)))
          CFI V4 load(1, XDATA, add(CFA_XSP16, literal(-13)))
          CFI V5 load(1, XDATA, add(CFA_XSP16, literal(-12)))
          CFI V6 load(1, XDATA, add(CFA_XSP16, literal(-11)))
          CFI V7 load(1, XDATA, add(CFA_XSP16, literal(-10)))
          CFI V8 load(1, XDATA, add(CFA_XSP16, literal(-9)))
          CFI V9 load(1, XDATA, add(CFA_XSP16, literal(-8)))
          CFI V10 load(1, XDATA, add(CFA_XSP16, literal(-7)))
          CFI R7 load(1, XDATA, add(CFA_XSP16, literal(-6)))
          CFI ?RET_LOW load(1, XDATA, add(CFA_XSP16, literal(-5)))
          CFI ?RET_HIGH load(1, XDATA, add(CFA_XSP16, literal(-4)))
          CFI ?BRET_EXT load(1, XDATA, add(CFA_XSP16, literal(-3)))
          CFI DPL0 load(1, XDATA, add(CFA_XSP16, literal(-2)))
          CFI DPH0 load(1, XDATA, add(CFA_XSP16, literal(-1)))
          CFI CFA_SP SP+-5
          CFI CFA_XSP16 add(XSP16, 83)
          CFI Block cfiCond46 Using cfiCommon0
          CFI (cfiCond46) Function zclZEM_AF_RxProc
          CFI (cfiCond46) Conditional ??CrossCallReturnLabel_24, ??CrossCallReturnLabel_22
          CFI (cfiCond46) R6 load(1, XDATA, add(CFA_XSP16, literal(-19)))
          CFI (cfiCond46) VB load(1, XDATA, add(CFA_XSP16, literal(-18)))
          CFI (cfiCond46) V0 load(1, XDATA, add(CFA_XSP16, literal(-17)))
          CFI (cfiCond46) V1 load(1, XDATA, add(CFA_XSP16, literal(-16)))
          CFI (cfiCond46) V2 load(1, XDATA, add(CFA_XSP16, literal(-15)))
          CFI (cfiCond46) V3 load(1, XDATA, add(CFA_XSP16, literal(-14)))
          CFI (cfiCond46) V4 load(1, XDATA, add(CFA_XSP16, literal(-13)))
          CFI (cfiCond46) V5 load(1, XDATA, add(CFA_XSP16, literal(-12)))
          CFI (cfiCond46) V6 load(1, XDATA, add(CFA_XSP16, literal(-11)))
          CFI (cfiCond46) V7 load(1, XDATA, add(CFA_XSP16, literal(-10)))
          CFI (cfiCond46) V8 load(1, XDATA, add(CFA_XSP16, literal(-9)))
          CFI (cfiCond46) V9 load(1, XDATA, add(CFA_XSP16, literal(-8)))
          CFI (cfiCond46) V10 load(1, XDATA, add(CFA_XSP16, literal(-7)))
          CFI (cfiCond46) R7 load(1, XDATA, add(CFA_XSP16, literal(-6)))
          CFI (cfiCond46) ?RET_LOW load(1, XDATA, add(CFA_XSP16, literal(-5)))
          CFI (cfiCond46) ?RET_HIGH load(1, XDATA, add(CFA_XSP16, literal(-4)))
          CFI (cfiCond46) ?BRET_EXT load(1, XDATA, add(CFA_XSP16, literal(-3)))
          CFI (cfiCond46) DPL0 load(1, XDATA, add(CFA_XSP16, literal(-2)))
          CFI (cfiCond46) DPH0 load(1, XDATA, add(CFA_XSP16, literal(-1)))
          CFI (cfiCond46) CFA_SP SP+-5
          CFI (cfiCond46) CFA_XSP16 add(XSP16, 83)
          CFI Block cfiCond47 Using cfiCommon0
          CFI (cfiCond47) Function zclZEM_AF_RxProc
          CFI (cfiCond47) Conditional ??CrossCallReturnLabel_24, ??CrossCallReturnLabel_20
          CFI (cfiCond47) R6 load(1, XDATA, add(CFA_XSP16, literal(-19)))
          CFI (cfiCond47) VB load(1, XDATA, add(CFA_XSP16, literal(-18)))
          CFI (cfiCond47) V0 load(1, XDATA, add(CFA_XSP16, literal(-17)))
          CFI (cfiCond47) V1 load(1, XDATA, add(CFA_XSP16, literal(-16)))
          CFI (cfiCond47) V2 load(1, XDATA, add(CFA_XSP16, literal(-15)))
          CFI (cfiCond47) V3 load(1, XDATA, add(CFA_XSP16, literal(-14)))
          CFI (cfiCond47) V4 load(1, XDATA, add(CFA_XSP16, literal(-13)))
          CFI (cfiCond47) V5 load(1, XDATA, add(CFA_XSP16, literal(-12)))
          CFI (cfiCond47) V6 load(1, XDATA, add(CFA_XSP16, literal(-11)))
          CFI (cfiCond47) V7 load(1, XDATA, add(CFA_XSP16, literal(-10)))
          CFI (cfiCond47) V8 load(1, XDATA, add(CFA_XSP16, literal(-9)))
          CFI (cfiCond47) V9 load(1, XDATA, add(CFA_XSP16, literal(-8)))
          CFI (cfiCond47) V10 load(1, XDATA, add(CFA_XSP16, literal(-7)))
          CFI (cfiCond47) R7 load(1, XDATA, add(CFA_XSP16, literal(-6)))
          CFI (cfiCond47) ?RET_LOW load(1, XDATA, add(CFA_XSP16, literal(-5)))
          CFI (cfiCond47) ?RET_HIGH load(1, XDATA, add(CFA_XSP16, literal(-4)))
          CFI (cfiCond47) ?BRET_EXT load(1, XDATA, add(CFA_XSP16, literal(-3)))
          CFI (cfiCond47) DPL0 load(1, XDATA, add(CFA_XSP16, literal(-2)))
          CFI (cfiCond47) DPH0 load(1, XDATA, add(CFA_XSP16, literal(-1)))
          CFI (cfiCond47) CFA_SP SP+-4
          CFI (cfiCond47) CFA_XSP16 add(XSP16, 86)
          CFI Block cfiCond48 Using cfiCommon0
          CFI (cfiCond48) Function zclZEM_AF_RxProc
          CFI (cfiCond48) Conditional ??CrossCallReturnLabel_23, ??CrossCallReturnLabel_3
          CFI (cfiCond48) R6 load(1, XDATA, add(CFA_XSP16, literal(-19)))
          CFI (cfiCond48) VB load(1, XDATA, add(CFA_XSP16, literal(-18)))
          CFI (cfiCond48) V0 load(1, XDATA, add(CFA_XSP16, literal(-17)))
          CFI (cfiCond48) V1 load(1, XDATA, add(CFA_XSP16, literal(-16)))
          CFI (cfiCond48) V2 load(1, XDATA, add(CFA_XSP16, literal(-15)))
          CFI (cfiCond48) V3 load(1, XDATA, add(CFA_XSP16, literal(-14)))
          CFI (cfiCond48) V4 load(1, XDATA, add(CFA_XSP16, literal(-13)))
          CFI (cfiCond48) V5 load(1, XDATA, add(CFA_XSP16, literal(-12)))
          CFI (cfiCond48) V6 load(1, XDATA, add(CFA_XSP16, literal(-11)))
          CFI (cfiCond48) V7 load(1, XDATA, add(CFA_XSP16, literal(-10)))
          CFI (cfiCond48) V8 load(1, XDATA, add(CFA_XSP16, literal(-9)))
          CFI (cfiCond48) V9 load(1, XDATA, add(CFA_XSP16, literal(-8)))
          CFI (cfiCond48) V10 load(1, XDATA, add(CFA_XSP16, literal(-7)))
          CFI (cfiCond48) R7 load(1, XDATA, add(CFA_XSP16, literal(-6)))
          CFI (cfiCond48) ?RET_LOW load(1, XDATA, add(CFA_XSP16, literal(-5)))
          CFI (cfiCond48) ?RET_HIGH load(1, XDATA, add(CFA_XSP16, literal(-4)))
          CFI (cfiCond48) ?BRET_EXT load(1, XDATA, add(CFA_XSP16, literal(-3)))
          CFI (cfiCond48) DPL0 load(1, XDATA, add(CFA_XSP16, literal(-2)))
          CFI (cfiCond48) DPH0 load(1, XDATA, add(CFA_XSP16, literal(-1)))
          CFI (cfiCond48) CFA_SP SP+-4
          CFI (cfiCond48) CFA_XSP16 add(XSP16, 86)
          CFI Block cfiCond49 Using cfiCommon0
          CFI (cfiCond49) Function zclZEM_AF_RxProc
          CFI (cfiCond49) Conditional ??CrossCallReturnLabel_23, ??CrossCallReturnLabel_4
          CFI (cfiCond49) R6 load(1, XDATA, add(CFA_XSP16, literal(-19)))
          CFI (cfiCond49) VB load(1, XDATA, add(CFA_XSP16, literal(-18)))
          CFI (cfiCond49) V0 load(1, XDATA, add(CFA_XSP16, literal(-17)))
          CFI (cfiCond49) V1 load(1, XDATA, add(CFA_XSP16, literal(-16)))
          CFI (cfiCond49) V2 load(1, XDATA, add(CFA_XSP16, literal(-15)))
          CFI (cfiCond49) V3 load(1, XDATA, add(CFA_XSP16, literal(-14)))
          CFI (cfiCond49) V4 load(1, XDATA, add(CFA_XSP16, literal(-13)))
          CFI (cfiCond49) V5 load(1, XDATA, add(CFA_XSP16, literal(-12)))
          CFI (cfiCond49) V6 load(1, XDATA, add(CFA_XSP16, literal(-11)))
          CFI (cfiCond49) V7 load(1, XDATA, add(CFA_XSP16, literal(-10)))
          CFI (cfiCond49) V8 load(1, XDATA, add(CFA_XSP16, literal(-9)))
          CFI (cfiCond49) V9 load(1, XDATA, add(CFA_XSP16, literal(-8)))
          CFI (cfiCond49) V10 load(1, XDATA, add(CFA_XSP16, literal(-7)))
          CFI (cfiCond49) R7 load(1, XDATA, add(CFA_XSP16, literal(-6)))
          CFI (cfiCond49) ?RET_LOW load(1, XDATA, add(CFA_XSP16, literal(-5)))
          CFI (cfiCond49) ?RET_HIGH load(1, XDATA, add(CFA_XSP16, literal(-4)))
          CFI (cfiCond49) ?BRET_EXT load(1, XDATA, add(CFA_XSP16, literal(-3)))
          CFI (cfiCond49) DPL0 load(1, XDATA, add(CFA_XSP16, literal(-2)))
          CFI (cfiCond49) DPH0 load(1, XDATA, add(CFA_XSP16, literal(-1)))
          CFI (cfiCond49) CFA_SP SP+-4
          CFI (cfiCond49) CFA_XSP16 add(XSP16, 86)
          CFI Block cfiPicker50 Using cfiCommon1
          CFI (cfiPicker50) NoFunction
          CFI (cfiPicker50) Picker
        MOVX      A,@DPTR
        ADD       A,R0
        MOV       R0,A
        INC       DPTR
        MOVX      A,@DPTR
        ADDC      A,?V1
        MOV       R1,A
        MOV       A,R0
        RET
          CFI EndBlock cfiCond45
          CFI EndBlock cfiCond46
          CFI EndBlock cfiCond47
          CFI EndBlock cfiCond48
          CFI EndBlock cfiCond49
          CFI EndBlock cfiPicker50

        RSEG BANKED_CODE:HUGECODE:NOROOT(0)
?Subroutine5:
          CFI Block cfiCond51 Using cfiCommon0
          CFI Function zclZEM_AF_RxProc
          CFI Conditional ??CrossCallReturnLabel_3
          CFI R6 load(1, XDATA, add(CFA_XSP16, literal(-19)))
          CFI VB load(1, XDATA, add(CFA_XSP16, literal(-18)))
          CFI V0 load(1, XDATA, add(CFA_XSP16, literal(-17)))
          CFI V1 load(1, XDATA, add(CFA_XSP16, literal(-16)))
          CFI V2 load(1, XDATA, add(CFA_XSP16, literal(-15)))
          CFI V3 load(1, XDATA, add(CFA_XSP16, literal(-14)))
          CFI V4 load(1, XDATA, add(CFA_XSP16, literal(-13)))
          CFI V5 load(1, XDATA, add(CFA_XSP16, literal(-12)))
          CFI V6 load(1, XDATA, add(CFA_XSP16, literal(-11)))
          CFI V7 load(1, XDATA, add(CFA_XSP16, literal(-10)))
          CFI V8 load(1, XDATA, add(CFA_XSP16, literal(-9)))
          CFI V9 load(1, XDATA, add(CFA_XSP16, literal(-8)))
          CFI V10 load(1, XDATA, add(CFA_XSP16, literal(-7)))
          CFI R7 load(1, XDATA, add(CFA_XSP16, literal(-6)))
          CFI ?RET_LOW load(1, XDATA, add(CFA_XSP16, literal(-5)))
          CFI ?RET_HIGH load(1, XDATA, add(CFA_XSP16, literal(-4)))
          CFI ?BRET_EXT load(1, XDATA, add(CFA_XSP16, literal(-3)))
          CFI DPL0 load(1, XDATA, add(CFA_XSP16, literal(-2)))
          CFI DPH0 load(1, XDATA, add(CFA_XSP16, literal(-1)))
          CFI CFA_SP SP+-2
          CFI CFA_XSP16 add(XSP16, 86)
          CFI Block cfiCond52 Using cfiCommon0
          CFI (cfiCond52) Function zclZEM_AF_RxProc
          CFI (cfiCond52) Conditional ??CrossCallReturnLabel_4
          CFI (cfiCond52) R6 load(1, XDATA, add(CFA_XSP16, literal(-19)))
          CFI (cfiCond52) VB load(1, XDATA, add(CFA_XSP16, literal(-18)))
          CFI (cfiCond52) V0 load(1, XDATA, add(CFA_XSP16, literal(-17)))
          CFI (cfiCond52) V1 load(1, XDATA, add(CFA_XSP16, literal(-16)))
          CFI (cfiCond52) V2 load(1, XDATA, add(CFA_XSP16, literal(-15)))
          CFI (cfiCond52) V3 load(1, XDATA, add(CFA_XSP16, literal(-14)))
          CFI (cfiCond52) V4 load(1, XDATA, add(CFA_XSP16, literal(-13)))
          CFI (cfiCond52) V5 load(1, XDATA, add(CFA_XSP16, literal(-12)))
          CFI (cfiCond52) V6 load(1, XDATA, add(CFA_XSP16, literal(-11)))
          CFI (cfiCond52) V7 load(1, XDATA, add(CFA_XSP16, literal(-10)))
          CFI (cfiCond52) V8 load(1, XDATA, add(CFA_XSP16, literal(-9)))
          CFI (cfiCond52) V9 load(1, XDATA, add(CFA_XSP16, literal(-8)))
          CFI (cfiCond52) V10 load(1, XDATA, add(CFA_XSP16, literal(-7)))
          CFI (cfiCond52) R7 load(1, XDATA, add(CFA_XSP16, literal(-6)))
          CFI (cfiCond52) ?RET_LOW load(1, XDATA, add(CFA_XSP16, literal(-5)))
          CFI (cfiCond52) ?RET_HIGH load(1, XDATA, add(CFA_XSP16, literal(-4)))
          CFI (cfiCond52) ?BRET_EXT load(1, XDATA, add(CFA_XSP16, literal(-3)))
          CFI (cfiCond52) DPL0 load(1, XDATA, add(CFA_XSP16, literal(-2)))
          CFI (cfiCond52) DPH0 load(1, XDATA, add(CFA_XSP16, literal(-1)))
          CFI (cfiCond52) CFA_SP SP+-2
          CFI (cfiCond52) CFA_XSP16 add(XSP16, 86)
          CFI Block cfiPicker53 Using cfiCommon1
          CFI (cfiPicker53) NoFunction
          CFI (cfiPicker53) Picker
        MOV       ?V1,R1
        LCALL     ?Subroutine14 & 0xFFFF
??CrossCallReturnLabel_23:
        ADD       A,#0x10
        MOV       R2,A
        CLR       A
        ADDC      A,R1
        MOV       R3,A
        RET
          CFI EndBlock cfiCond51
          CFI EndBlock cfiCond52
          CFI EndBlock cfiPicker53

        RSEG BANKED_CODE:HUGECODE:NOROOT(0)
?Subroutine4:
          CFI Block cfiCond54 Using cfiCommon0
          CFI Function zclZEM_AF_RxProc
          CFI Conditional ??CrossCallReturnLabel_0
          CFI R6 load(1, XDATA, add(CFA_XSP16, literal(-19)))
          CFI VB load(1, XDATA, add(CFA_XSP16, literal(-18)))
          CFI V0 load(1, XDATA, add(CFA_XSP16, literal(-17)))
          CFI V1 load(1, XDATA, add(CFA_XSP16, literal(-16)))
          CFI V2 load(1, XDATA, add(CFA_XSP16, literal(-15)))
          CFI V3 load(1, XDATA, add(CFA_XSP16, literal(-14)))
          CFI V4 load(1, XDATA, add(CFA_XSP16, literal(-13)))
          CFI V5 load(1, XDATA, add(CFA_XSP16, literal(-12)))
          CFI V6 load(1, XDATA, add(CFA_XSP16, literal(-11)))
          CFI V7 load(1, XDATA, add(CFA_XSP16, literal(-10)))
          CFI V8 load(1, XDATA, add(CFA_XSP16, literal(-9)))
          CFI V9 load(1, XDATA, add(CFA_XSP16, literal(-8)))
          CFI V10 load(1, XDATA, add(CFA_XSP16, literal(-7)))
          CFI R7 load(1, XDATA, add(CFA_XSP16, literal(-6)))
          CFI ?RET_LOW load(1, XDATA, add(CFA_XSP16, literal(-5)))
          CFI ?RET_HIGH load(1, XDATA, add(CFA_XSP16, literal(-4)))
          CFI ?BRET_EXT load(1, XDATA, add(CFA_XSP16, literal(-3)))
          CFI DPL0 load(1, XDATA, add(CFA_XSP16, literal(-2)))
          CFI DPH0 load(1, XDATA, add(CFA_XSP16, literal(-1)))
          CFI CFA_SP SP+-2
          CFI CFA_XSP16 add(XSP16, 83)
          CFI Block cfiCond55 Using cfiCommon0
          CFI (cfiCond55) Function zclZEM_AF_RxProc
          CFI (cfiCond55) Conditional ??CrossCallReturnLabel_1
          CFI (cfiCond55) R6 load(1, XDATA, add(CFA_XSP16, literal(-19)))
          CFI (cfiCond55) VB load(1, XDATA, add(CFA_XSP16, literal(-18)))
          CFI (cfiCond55) V0 load(1, XDATA, add(CFA_XSP16, literal(-17)))
          CFI (cfiCond55) V1 load(1, XDATA, add(CFA_XSP16, literal(-16)))
          CFI (cfiCond55) V2 load(1, XDATA, add(CFA_XSP16, literal(-15)))
          CFI (cfiCond55) V3 load(1, XDATA, add(CFA_XSP16, literal(-14)))
          CFI (cfiCond55) V4 load(1, XDATA, add(CFA_XSP16, literal(-13)))
          CFI (cfiCond55) V5 load(1, XDATA, add(CFA_XSP16, literal(-12)))
          CFI (cfiCond55) V6 load(1, XDATA, add(CFA_XSP16, literal(-11)))
          CFI (cfiCond55) V7 load(1, XDATA, add(CFA_XSP16, literal(-10)))
          CFI (cfiCond55) V8 load(1, XDATA, add(CFA_XSP16, literal(-9)))
          CFI (cfiCond55) V9 load(1, XDATA, add(CFA_XSP16, literal(-8)))
          CFI (cfiCond55) V10 load(1, XDATA, add(CFA_XSP16, literal(-7)))
          CFI (cfiCond55) R7 load(1, XDATA, add(CFA_XSP16, literal(-6)))
          CFI (cfiCond55) ?RET_LOW load(1, XDATA, add(CFA_XSP16, literal(-5)))
          CFI (cfiCond55) ?RET_HIGH load(1, XDATA, add(CFA_XSP16, literal(-4)))
          CFI (cfiCond55) ?BRET_EXT load(1, XDATA, add(CFA_XSP16, literal(-3)))
          CFI (cfiCond55) DPL0 load(1, XDATA, add(CFA_XSP16, literal(-2)))
          CFI (cfiCond55) DPH0 load(1, XDATA, add(CFA_XSP16, literal(-1)))
          CFI (cfiCond55) CFA_SP SP+-2
          CFI (cfiCond55) CFA_XSP16 add(XSP16, 83)
          CFI Block cfiCond56 Using cfiCommon0
          CFI (cfiCond56) Function zclZEM_AF_RxProc
          CFI (cfiCond56) Conditional ??CrossCallReturnLabel_2
          CFI (cfiCond56) R6 load(1, XDATA, add(CFA_XSP16, literal(-19)))
          CFI (cfiCond56) VB load(1, XDATA, add(CFA_XSP16, literal(-18)))
          CFI (cfiCond56) V0 load(1, XDATA, add(CFA_XSP16, literal(-17)))
          CFI (cfiCond56) V1 load(1, XDATA, add(CFA_XSP16, literal(-16)))
          CFI (cfiCond56) V2 load(1, XDATA, add(CFA_XSP16, literal(-15)))
          CFI (cfiCond56) V3 load(1, XDATA, add(CFA_XSP16, literal(-14)))
          CFI (cfiCond56) V4 load(1, XDATA, add(CFA_XSP16, literal(-13)))
          CFI (cfiCond56) V5 load(1, XDATA, add(CFA_XSP16, literal(-12)))
          CFI (cfiCond56) V6 load(1, XDATA, add(CFA_XSP16, literal(-11)))
          CFI (cfiCond56) V7 load(1, XDATA, add(CFA_XSP16, literal(-10)))
          CFI (cfiCond56) V8 load(1, XDATA, add(CFA_XSP16, literal(-9)))
          CFI (cfiCond56) V9 load(1, XDATA, add(CFA_XSP16, literal(-8)))
          CFI (cfiCond56) V10 load(1, XDATA, add(CFA_XSP16, literal(-7)))
          CFI (cfiCond56) R7 load(1, XDATA, add(CFA_XSP16, literal(-6)))
          CFI (cfiCond56) ?RET_LOW load(1, XDATA, add(CFA_XSP16, literal(-5)))
          CFI (cfiCond56) ?RET_HIGH load(1, XDATA, add(CFA_XSP16, literal(-4)))
          CFI (cfiCond56) ?BRET_EXT load(1, XDATA, add(CFA_XSP16, literal(-3)))
          CFI (cfiCond56) DPL0 load(1, XDATA, add(CFA_XSP16, literal(-2)))
          CFI (cfiCond56) DPH0 load(1, XDATA, add(CFA_XSP16, literal(-1)))
          CFI (cfiCond56) CFA_SP SP+-2
          CFI (cfiCond56) CFA_XSP16 add(XSP16, 83)
          CFI Block cfiPicker57 Using cfiCommon1
          CFI (cfiPicker57) NoFunction
          CFI (cfiPicker57) Picker
        MOV       DPL,?V0
        MOV       DPH,?V1
        MOVX      A,@DPTR
        MOV       ?V0,A
        INC       DPTR
        MOVX      A,@DPTR
        MOV       ?V1,A
        MOV       ?V2,#0x0
        MOV       R0,#?V0
        RET
          CFI EndBlock cfiCond54
          CFI EndBlock cfiCond55
          CFI EndBlock cfiCond56
          CFI EndBlock cfiPicker57

        RSEG BANKED_CODE:HUGECODE:NOROOT(0)
?Subroutine3:
          CFI Block cfiCond58 Using cfiCommon0
          CFI Function zclZEM_AF_RxProc
          CFI Conditional ??CrossCallReturnLabel_25
          CFI R6 load(1, XDATA, add(CFA_XSP16, literal(-19)))
          CFI VB load(1, XDATA, add(CFA_XSP16, literal(-18)))
          CFI V0 load(1, XDATA, add(CFA_XSP16, literal(-17)))
          CFI V1 load(1, XDATA, add(CFA_XSP16, literal(-16)))
          CFI V2 load(1, XDATA, add(CFA_XSP16, literal(-15)))
          CFI V3 load(1, XDATA, add(CFA_XSP16, literal(-14)))
          CFI V4 load(1, XDATA, add(CFA_XSP16, literal(-13)))
          CFI V5 load(1, XDATA, add(CFA_XSP16, literal(-12)))
          CFI V6 load(1, XDATA, add(CFA_XSP16, literal(-11)))
          CFI V7 load(1, XDATA, add(CFA_XSP16, literal(-10)))
          CFI V8 load(1, XDATA, add(CFA_XSP16, literal(-9)))
          CFI V9 load(1, XDATA, add(CFA_XSP16, literal(-8)))
          CFI V10 load(1, XDATA, add(CFA_XSP16, literal(-7)))
          CFI R7 load(1, XDATA, add(CFA_XSP16, literal(-6)))
          CFI ?RET_LOW load(1, XDATA, add(CFA_XSP16, literal(-5)))
          CFI ?RET_HIGH load(1, XDATA, add(CFA_XSP16, literal(-4)))
          CFI ?BRET_EXT load(1, XDATA, add(CFA_XSP16, literal(-3)))
          CFI DPL0 load(1, XDATA, add(CFA_XSP16, literal(-2)))
          CFI DPH0 load(1, XDATA, add(CFA_XSP16, literal(-1)))
          CFI CFA_SP SP+-2
          CFI CFA_XSP16 add(XSP16, 83)
          CFI Block cfiCond59 Using cfiCommon0
          CFI (cfiCond59) Function zclZEM_AF_RxProc
          CFI (cfiCond59) Conditional ??CrossCallReturnLabel_26
          CFI (cfiCond59) R6 load(1, XDATA, add(CFA_XSP16, literal(-19)))
          CFI (cfiCond59) VB load(1, XDATA, add(CFA_XSP16, literal(-18)))
          CFI (cfiCond59) V0 load(1, XDATA, add(CFA_XSP16, literal(-17)))
          CFI (cfiCond59) V1 load(1, XDATA, add(CFA_XSP16, literal(-16)))
          CFI (cfiCond59) V2 load(1, XDATA, add(CFA_XSP16, literal(-15)))
          CFI (cfiCond59) V3 load(1, XDATA, add(CFA_XSP16, literal(-14)))
          CFI (cfiCond59) V4 load(1, XDATA, add(CFA_XSP16, literal(-13)))
          CFI (cfiCond59) V5 load(1, XDATA, add(CFA_XSP16, literal(-12)))
          CFI (cfiCond59) V6 load(1, XDATA, add(CFA_XSP16, literal(-11)))
          CFI (cfiCond59) V7 load(1, XDATA, add(CFA_XSP16, literal(-10)))
          CFI (cfiCond59) V8 load(1, XDATA, add(CFA_XSP16, literal(-9)))
          CFI (cfiCond59) V9 load(1, XDATA, add(CFA_XSP16, literal(-8)))
          CFI (cfiCond59) V10 load(1, XDATA, add(CFA_XSP16, literal(-7)))
          CFI (cfiCond59) R7 load(1, XDATA, add(CFA_XSP16, literal(-6)))
          CFI (cfiCond59) ?RET_LOW load(1, XDATA, add(CFA_XSP16, literal(-5)))
          CFI (cfiCond59) ?RET_HIGH load(1, XDATA, add(CFA_XSP16, literal(-4)))
          CFI (cfiCond59) ?BRET_EXT load(1, XDATA, add(CFA_XSP16, literal(-3)))
          CFI (cfiCond59) DPL0 load(1, XDATA, add(CFA_XSP16, literal(-2)))
          CFI (cfiCond59) DPH0 load(1, XDATA, add(CFA_XSP16, literal(-1)))
          CFI (cfiCond59) CFA_SP SP+-2
          CFI (cfiCond59) CFA_XSP16 add(XSP16, 83)
          CFI Block cfiPicker60 Using cfiCommon1
          CFI (cfiPicker60) NoFunction
          CFI (cfiPicker60) Picker
        MOV       DPL,A
        CLR       A
        ADDC      A,R1
        MOV       DPH,A
        MOV       A,#0xd
          CFI EndBlock cfiCond58
          CFI EndBlock cfiCond59
          CFI EndBlock cfiPicker60
        REQUIRE ??Subroutine17_0
        ; // Fall through to label ??Subroutine17_0

        RSEG BANKED_CODE:HUGECODE:NOROOT(0)
??Subroutine17_0:
          CFI Block cfiCond61 Using cfiCommon0
          CFI Function zclZEM_AF_RxProc
          CFI Conditional ??CrossCallReturnLabel_27
          CFI R6 load(1, XDATA, add(CFA_XSP16, literal(-19)))
          CFI VB load(1, XDATA, add(CFA_XSP16, literal(-18)))
          CFI V0 load(1, XDATA, add(CFA_XSP16, literal(-17)))
          CFI V1 load(1, XDATA, add(CFA_XSP16, literal(-16)))
          CFI V2 load(1, XDATA, add(CFA_XSP16, literal(-15)))
          CFI V3 load(1, XDATA, add(CFA_XSP16, literal(-14)))
          CFI V4 load(1, XDATA, add(CFA_XSP16, literal(-13)))
          CFI V5 load(1, XDATA, add(CFA_XSP16, literal(-12)))
          CFI V6 load(1, XDATA, add(CFA_XSP16, literal(-11)))
          CFI V7 load(1, XDATA, add(CFA_XSP16, literal(-10)))
          CFI V8 load(1, XDATA, add(CFA_XSP16, literal(-9)))
          CFI V9 load(1, XDATA, add(CFA_XSP16, literal(-8)))
          CFI V10 load(1, XDATA, add(CFA_XSP16, literal(-7)))
          CFI R7 load(1, XDATA, add(CFA_XSP16, literal(-6)))
          CFI ?RET_LOW load(1, XDATA, add(CFA_XSP16, literal(-5)))
          CFI ?RET_HIGH load(1, XDATA, add(CFA_XSP16, literal(-4)))
          CFI ?BRET_EXT load(1, XDATA, add(CFA_XSP16, literal(-3)))
          CFI DPL0 load(1, XDATA, add(CFA_XSP16, literal(-2)))
          CFI DPH0 load(1, XDATA, add(CFA_XSP16, literal(-1)))
          CFI CFA_SP SP+-2
          CFI CFA_XSP16 add(XSP16, 83)
          CFI Block cfiCond62 Using cfiCommon0
          CFI (cfiCond62) Function zclZEM_AF_RxProc
          CFI (cfiCond62) Conditional ??CrossCallReturnLabel_28
          CFI (cfiCond62) R6 load(1, XDATA, add(CFA_XSP16, literal(-19)))
          CFI (cfiCond62) VB load(1, XDATA, add(CFA_XSP16, literal(-18)))
          CFI (cfiCond62) V0 load(1, XDATA, add(CFA_XSP16, literal(-17)))
          CFI (cfiCond62) V1 load(1, XDATA, add(CFA_XSP16, literal(-16)))
          CFI (cfiCond62) V2 load(1, XDATA, add(CFA_XSP16, literal(-15)))
          CFI (cfiCond62) V3 load(1, XDATA, add(CFA_XSP16, literal(-14)))
          CFI (cfiCond62) V4 load(1, XDATA, add(CFA_XSP16, literal(-13)))
          CFI (cfiCond62) V5 load(1, XDATA, add(CFA_XSP16, literal(-12)))
          CFI (cfiCond62) V6 load(1, XDATA, add(CFA_XSP16, literal(-11)))
          CFI (cfiCond62) V7 load(1, XDATA, add(CFA_XSP16, literal(-10)))
          CFI (cfiCond62) V8 load(1, XDATA, add(CFA_XSP16, literal(-9)))
          CFI (cfiCond62) V9 load(1, XDATA, add(CFA_XSP16, literal(-8)))
          CFI (cfiCond62) V10 load(1, XDATA, add(CFA_XSP16, literal(-7)))
          CFI (cfiCond62) R7 load(1, XDATA, add(CFA_XSP16, literal(-6)))
          CFI (cfiCond62) ?RET_LOW load(1, XDATA, add(CFA_XSP16, literal(-5)))
          CFI (cfiCond62) ?RET_HIGH load(1, XDATA, add(CFA_XSP16, literal(-4)))
          CFI (cfiCond62) ?BRET_EXT load(1, XDATA, add(CFA_XSP16, literal(-3)))
          CFI (cfiCond62) DPL0 load(1, XDATA, add(CFA_XSP16, literal(-2)))
          CFI (cfiCond62) DPH0 load(1, XDATA, add(CFA_XSP16, literal(-1)))
          CFI (cfiCond62) CFA_SP SP+-2
          CFI (cfiCond62) CFA_XSP16 add(XSP16, 83)
          CFI Block cfiCond63 Using cfiCommon0
          CFI (cfiCond63) Function zclZEM_AF_RxProc
          CFI (cfiCond63) Conditional ??CrossCallReturnLabel_25
          CFI (cfiCond63) R6 load(1, XDATA, add(CFA_XSP16, literal(-19)))
          CFI (cfiCond63) VB load(1, XDATA, add(CFA_XSP16, literal(-18)))
          CFI (cfiCond63) V0 load(1, XDATA, add(CFA_XSP16, literal(-17)))
          CFI (cfiCond63) V1 load(1, XDATA, add(CFA_XSP16, literal(-16)))
          CFI (cfiCond63) V2 load(1, XDATA, add(CFA_XSP16, literal(-15)))
          CFI (cfiCond63) V3 load(1, XDATA, add(CFA_XSP16, literal(-14)))
          CFI (cfiCond63) V4 load(1, XDATA, add(CFA_XSP16, literal(-13)))
          CFI (cfiCond63) V5 load(1, XDATA, add(CFA_XSP16, literal(-12)))
          CFI (cfiCond63) V6 load(1, XDATA, add(CFA_XSP16, literal(-11)))
          CFI (cfiCond63) V7 load(1, XDATA, add(CFA_XSP16, literal(-10)))
          CFI (cfiCond63) V8 load(1, XDATA, add(CFA_XSP16, literal(-9)))
          CFI (cfiCond63) V9 load(1, XDATA, add(CFA_XSP16, literal(-8)))
          CFI (cfiCond63) V10 load(1, XDATA, add(CFA_XSP16, literal(-7)))
          CFI (cfiCond63) R7 load(1, XDATA, add(CFA_XSP16, literal(-6)))
          CFI (cfiCond63) ?RET_LOW load(1, XDATA, add(CFA_XSP16, literal(-5)))
          CFI (cfiCond63) ?RET_HIGH load(1, XDATA, add(CFA_XSP16, literal(-4)))
          CFI (cfiCond63) ?BRET_EXT load(1, XDATA, add(CFA_XSP16, literal(-3)))
          CFI (cfiCond63) DPL0 load(1, XDATA, add(CFA_XSP16, literal(-2)))
          CFI (cfiCond63) DPH0 load(1, XDATA, add(CFA_XSP16, literal(-1)))
          CFI (cfiCond63) CFA_SP SP+-2
          CFI (cfiCond63) CFA_XSP16 add(XSP16, 83)
          CFI Block cfiCond64 Using cfiCommon0
          CFI (cfiCond64) Function zclZEM_AF_RxProc
          CFI (cfiCond64) Conditional ??CrossCallReturnLabel_26
          CFI (cfiCond64) R6 load(1, XDATA, add(CFA_XSP16, literal(-19)))
          CFI (cfiCond64) VB load(1, XDATA, add(CFA_XSP16, literal(-18)))
          CFI (cfiCond64) V0 load(1, XDATA, add(CFA_XSP16, literal(-17)))
          CFI (cfiCond64) V1 load(1, XDATA, add(CFA_XSP16, literal(-16)))
          CFI (cfiCond64) V2 load(1, XDATA, add(CFA_XSP16, literal(-15)))
          CFI (cfiCond64) V3 load(1, XDATA, add(CFA_XSP16, literal(-14)))
          CFI (cfiCond64) V4 load(1, XDATA, add(CFA_XSP16, literal(-13)))
          CFI (cfiCond64) V5 load(1, XDATA, add(CFA_XSP16, literal(-12)))
          CFI (cfiCond64) V6 load(1, XDATA, add(CFA_XSP16, literal(-11)))
          CFI (cfiCond64) V7 load(1, XDATA, add(CFA_XSP16, literal(-10)))
          CFI (cfiCond64) V8 load(1, XDATA, add(CFA_XSP16, literal(-9)))
          CFI (cfiCond64) V9 load(1, XDATA, add(CFA_XSP16, literal(-8)))
          CFI (cfiCond64) V10 load(1, XDATA, add(CFA_XSP16, literal(-7)))
          CFI (cfiCond64) R7 load(1, XDATA, add(CFA_XSP16, literal(-6)))
          CFI (cfiCond64) ?RET_LOW load(1, XDATA, add(CFA_XSP16, literal(-5)))
          CFI (cfiCond64) ?RET_HIGH load(1, XDATA, add(CFA_XSP16, literal(-4)))
          CFI (cfiCond64) ?BRET_EXT load(1, XDATA, add(CFA_XSP16, literal(-3)))
          CFI (cfiCond64) DPL0 load(1, XDATA, add(CFA_XSP16, literal(-2)))
          CFI (cfiCond64) DPH0 load(1, XDATA, add(CFA_XSP16, literal(-1)))
          CFI (cfiCond64) CFA_SP SP+-2
          CFI (cfiCond64) CFA_XSP16 add(XSP16, 83)
          CFI Block cfiPicker65 Using cfiCommon1
          CFI (cfiPicker65) NoFunction
          CFI (cfiPicker65) Picker
        MOVX      @DPTR,A
        MOV       DPL,R6
        MOV       DPH,R7
        MOVX      A,@DPTR
        ADD       A,?V0
        MOV       R0,A
        INC       DPTR
        MOVX      A,@DPTR
        ADDC      A,?V1
        MOV       R1,A
        MOV       A,R0
        RET
          CFI EndBlock cfiCond61
          CFI EndBlock cfiCond62
          CFI EndBlock cfiCond63
          CFI EndBlock cfiCond64
          CFI EndBlock cfiPicker65

        RSEG XDATA_Z:XDATA:NOROOT(0)
        DATA8
??p2pCnt:
        DS 1
        REQUIRE __INIT_XDATA_Z

        RSEG XDATA_Z:XDATA:NOROOT(0)
        DATA8
??bcCnt:
        DS 1
        REQUIRE __INIT_XDATA_Z

        RSEG XDATA_Z:XDATA:NOROOT(0)
        DATA8
??gcCnt:
        DS 1
        REQUIRE __INIT_XDATA_Z

        RSEG XDATA_ID:CODE:NOROOT(0)
`?<Initializer for ZEM_AppEp>`:
        DATA8
        DB 8
        DB 0
        DATA16
        DW zclZEM_TaskID
        DW zclZEM_SimpleDesc
        DATA8
        DB 0

        RSEG XDATA_ID:CODE:NOROOT(0)
`?<Initializer for reportableChange>`:
        DATA8
        DB 44
        DB 1
        DB 0
        DB 0

        RSEG XDATA_ID:CODE:NOROOT(0)
`?<Initializer for zclZEM_CmdCallbacks>`:
        DATA16
        DW `??zclZEM_BasicResetCB::?relay`
        DW 0H
        DW 0H
        DW 0H
        DW 0H
        DW 0H
        DW 0H
        DW 0H
        DW 0H

        RSEG BANK_RELAYS:CODE:REORDER:NOROOT(0)
`??zclZEM_Init::?relay`:
        CODE
        LCALL   ?BDISPATCH
        DATA24
        DC24    zclZEM_Init

        RSEG BANK_RELAYS:CODE:REORDER:NOROOT(0)
`??zclZEM_event_loop::?relay`:
        CODE
        LCALL   ?BDISPATCH
        DATA24
        DC24    zclZEM_event_loop

        RSEG BANK_RELAYS:CODE:REORDER:NOROOT(0)
`??zclZEM_ReadAndSendMAC::?relay`:
        CODE
        LCALL   ?BDISPATCH
        DATA24
        DC24    zclZEM_ReadAndSendMAC

        RSEG BANK_RELAYS:CODE:REORDER:NOROOT(0)
`??zclZEM_UartCB::?relay`:
        CODE
        LCALL   ?BDISPATCH
        DATA24
        DC24    zclZEM_UartCB

        RSEG BANK_RELAYS:CODE:REORDER:NOROOT(0)
`??zclZEM_ProcessCommissioningStatus::?relay`:
        CODE
        LCALL   ?BDISPATCH
        DATA24
        DC24    zclZEM_ProcessCommissioningStatus

        RSEG BANK_RELAYS:CODE:REORDER:NOROOT(0)
`??zclZEM_BasicResetCB::?relay`:
        CODE
        LCALL   ?BDISPATCH
        DATA24
        DC24    zclZEM_BasicResetCB

        RSEG BANK_RELAYS:CODE:REORDER:NOROOT(0)
`??zclSampleApp_BatteryWarningCB::?relay`:
        CODE
        LCALL   ?BDISPATCH
        DATA24
        DC24    zclSampleApp_BatteryWarningCB

        RSEG BANK_RELAYS:CODE:REORDER:NOROOT(0)
`??zclZEM_ProcessIncomingMsg::?relay`:
        CODE
        LCALL   ?BDISPATCH
        DATA24
        DC24    zclZEM_ProcessIncomingMsg

        RSEG BANK_RELAYS:CODE:REORDER:NOROOT(0)
`??zclZEM_ProcessInDiscCmdsRspCmd::?relay`:
        CODE
        LCALL   ?BDISPATCH
        DATA24
        DC24    zclZEM_ProcessInDiscCmdsRspCmd

        RSEG BANK_RELAYS:CODE:REORDER:NOROOT(0)
`??zclZEM_AF_RxProc::?relay`:
        CODE
        LCALL   ?BDISPATCH
        DATA24
        DC24    zclZEM_AF_RxProc

        RSEG XDATA_ROM_C:CONST:REORDER:NOROOT(0)
        DATA8
        DB "Broadcast"

        RSEG XDATA_ROM_C:CONST:REORDER:NOROOT(0)
        DATA8
`?<Constant "Groupcast">`:
        DB "Groupcast"

        RSEG XDATA_ROM_C:CONST:REORDER:NOROOT(0)
        DATA32
`?<Constant "P2P">`:
        DB "P2P"

        RSEG XDATA_ROM_C:CONST:REORDER:NOROOT(0)
        DATA8
`?<Constant "MAC: ">`:
        DB "MAC: "

        RSEG XDATA_ROM_C:CONST:REORDER:NOROOT(0)
        DATA8
`?<Constant "Network formation suc...">`:
        DB "Network formation successful!\015\012"

        RSEG XDATA_ROM_C:CONST:REORDER:NOROOT(0)
        DATA8
`?<Constant "Network formation fai...">`:
        DB "Network formation failed! Retrying...\015\012"

        RSEG XDATA_ROM_C:CONST:REORDER:NOROOT(0)
        DATA8
`?<Constant "Failure reason: ">`:
        DB "Failure reason: "

        RSEG XDATA_ROM_C:CONST:REORDER:NOROOT(0)
        DATA8
`?<Constant "No network found">`:
        DB "No network found"

        RSEG XDATA_ROM_C:CONST:REORDER:NOROOT(0)
        DATA8
`?<Constant "Formation failure">`:
        DB "Formation failure"

        RSEG XDATA_ROM_C:CONST:REORDER:NOROOT(0)
        DATA8
`?<Constant "TCLK exchange failure">`:
        DB "TCLK exchange failure"

        RSEG XDATA_ROM_C:CONST:REORDER:NOROOT(0)
        DATA8
`?<Constant "General failure">`:
        DB "General failure"

        RSEG XDATA_ROM_C:CONST:REORDER:NOROOT(0)
        DATA8
`?<Constant "Unknown error">`:
        DB "Unknown error"

        RSEG XDATA_ROM_C:CONST:REORDER:NOROOT(0)
        DATA8
`?<Constant "\\r\\n">`:
        DB "\015\012"

        RSEG XDATA_ROM_C:CONST:REORDER:NOROOT(0)
        DATA8
`?<Constant "Device joined the net...">`:
        DB "Device joined the network!\015\012"

        RSEG XDATA_ROM_C:CONST:REORDER:NOROOT(0)
        DATA8
`?<Constant "P2P Data: ">`:
        DB "P2P Data: "

        RSEG XDATA_ROM_C:CONST:REORDER:NOROOT(0)
        DATA8
`?<Constant " Count: ">`:
        DB " Count: "

        RSEG XDATA_ROM_C:CONST:REORDER:NOROOT(0)
        DATA8
`?<Constant "Broadcast Data: ">`:
        DB "Broadcast Data: "

        RSEG XDATA_ROM_C:CONST:REORDER:NOROOT(0)
        DATA8
`?<Constant "Groupcast Data: ">`:
        DB "Groupcast Data: "

        RSEG XDATA_ROM_C:CONST:REORDER:NOROOT(0)
        DATA32
__Constant_3e8:
        DD 1000

        RSEG XDATA_ROM_C:CONST:REORDER:NOROOT(0)
        DATA32
__Constant_bb8:
        DD 3000

        RSEG XDATA_ROM_C:CONST:REORDER:NOROOT(0)
        DATA32
__Constant_2710:
        DD 10000

        END
// 1153 
// 1154 /****************************************************************************
// 1155 ****************************************************************************/
// 1156 
// 1157 
// 
// 2 241 bytes in segment BANKED_CODE
//    60 bytes in segment BANK_RELAYS
//     3 bytes in segment SFR_AN
//    29 bytes in segment XDATA_I
//    29 bytes in segment XDATA_ID
//   304 bytes in segment XDATA_ROM_C
//    72 bytes in segment XDATA_Z
// 
//    89 bytes of CODE     memory
//   292 bytes of CONST    memory (+ 12 bytes shared)
//     0 bytes of DATA     memory (+  3 bytes shared)
// 2 241 bytes of HUGECODE memory
//   101 bytes of XDATA    memory
//
//Errors: none
//Warnings: 1
