///////////////////////////////////////////////////////////////////////////////
//
// IAR C/C++ Compiler V10.10.1.4655 for 8051              04/Feb/2026  00:32:04
// Copyright 2004-2017 IAR Systems AB.
// Standalone license - IAR Embedded Workbench for 8051
//
//    Core               =  plain
//    Code model         =  banked
//    Data model         =  large
//    Calling convention =  xdata reentrant
//    Constant location  =  data_rom
//    Dptr setup         =  1,16
//                          
//    Source file        =  
//        C:\Users\ASUS\Desktop\work\graduration project\software\Z-Stack
//        3.0.2\Projects\zstack\HomeAutomation\ZEM\Source\zcl_ZEM.c
//    Command line       =  
//        -f C:\Users\ASUS\AppData\Local\Temp\EWC5FA.tmp
//        ("C:\Users\ASUS\Desktop\work\graduration project\software\Z-Stack
//        3.0.2\Projects\zstack\HomeAutomation\ZEM\Source\zcl_ZEM.c" -D
//        BDB_REPORTING -D SECURE=1 -D TC_LINKKEY_JOIN -D NV_INIT -D NV_RESTORE
//        -D xZTOOL_P1 -D xMT_TASK -D xMT_APP_FUNC -D xMT_SYS_FUNC -D
//        xMT_ZDO_FUNC -D xMT_APP_CNF_FUNC -D LCD_SUPPORTED=DEBUG -D
//        MULTICAST_ENABLED=FALSE -D ZCL_READ -D ZCL_DISCOVER -D ZCL_WRITE -D
//        ZCL_BASIC -D ZCL_IDENTIFY -D ZCL_TEMPERATURE_MEASUREMENT -D
//        ZCL_GROUPS -D HAL_LED=TRUE -D HAL_UART=TRUE -D INT_HEAP_LEN=2048 -lC
//        "C:\Users\ASUS\Desktop\work\graduration project\software\Z-Stack
//        3.0.2\Projects\zstack\HomeAutomation\ZEM\CC2530DB\CoordinatorEB\List"
//        -lA "C:\Users\ASUS\Desktop\work\graduration project\software\Z-Stack
//        3.0.2\Projects\zstack\HomeAutomation\ZEM\CC2530DB\CoordinatorEB\List"
//        --diag_suppress Pe001,Pa010 -o
//        "C:\Users\ASUS\Desktop\work\graduration project\software\Z-Stack
//        3.0.2\Projects\zstack\HomeAutomation\ZEM\CC2530DB\CoordinatorEB\Obj"
//        -e --debug --core=plain --dptr=16,1 --data_model=large
//        --code_model=banked --calling_convention=xdata_reentrant
//        --place_constants=data_rom --nr_virtual_regs 16 -f
//        "C:\Users\ASUS\Desktop\work\graduration project\software\Z-Stack
//        3.0.2\Projects\zstack\HomeAutomation\ZEM\CC2530DB\..\..\..\Tools\CC2530DB\f8wCoord.cfg"
//        (-DCPU32MHZ -DROOT=__near_func -DMAC_CFG_APP_PENDING_QUEUE=TRUE
//        -DMAC_CFG_TX_DATA_MAX=5 -DMAC_CFG_TX_MAX=8 -DMAC_CFG_RX_MAX=5
//        -DZDO_COORDINATOR -DRTR_NWK) -f
//        "C:\Users\ASUS\Desktop\work\graduration project\software\Z-Stack
//        3.0.2\Projects\zstack\HomeAutomation\ZEM\CC2530DB\..\..\..\Tools\CC2530DB\f8wConfig.cfg"
//        (-DZIGBEEPRO -DSECURE=1 -DZG_SECURE_DYNAMIC=0 -DREFLECTOR
//        -DDEFAULT_CHANLIST=0x00000800 -DZDAPP_CONFIG_PAN_ID=0x1234
//        -DNWK_START_DELAY=100 -DEXTENDED_JOINING_RANDOM_MASK=0x007F
//        -DBEACON_REQUEST_DELAY=100 -DBEACON_REQ_DELAY_MASK=0x00FF
//        -DLINK_STATUS_JITTER_MASK=0x007F -DROUTE_EXPIRY_TIME=30
//        -DAPSC_ACK_WAIT_DURATION_POLLED=3000 -DNWK_INDIRECT_MSG_TIMEOUT=7
//        -DMAX_RREQ_ENTRIES=8 -DAPSC_MAX_FRAME_RETRIES=3
//        -DNWK_MAX_DATA_RETRIES=2 -DMAX_POLL_FAILURE_RETRIES=2 -DMAX_BCAST=9
//        -DAPS_MAX_GROUPS=16 -DMAX_RTG_ENTRIES=40 -DNWK_MAX_BINDING_ENTRIES=4
//        -DMAX_BINDING_CLUSTER_IDS=4 -DDEFAULT_KEY={0}
//        -DMAC_MAX_FRAME_SIZE=116 -DZDNWKMGR_MIN_TRANSMISSIONS=20
//        "-DCONST=const __code" -DGENERIC=__generic -DRFD_RCVC_ALWAYS_ON=FALSE
//        -DPOLL_RATE=1000 -DQUEUED_POLL_RATE=100 -DRESPONSE_POLL_RATE=100
//        -DREJOIN_POLL_RATE=440 -DREJOIN_BACKOFF=900000 -DREJOIN_SCAN=900000
//        -DENABLE_LED4_DISABLE_S1) -f "C:\Users\ASUS\Desktop\work\graduration
//        project\software\Z-Stack
//        3.0.2\Projects\zstack\HomeAutomation\ZEM\CC2530DB\..\..\..\Tools\CC2530DB\f8wZCL.cfg"
//        -I "C:\Users\ASUS\Desktop\work\graduration project\software\Z-Stack
//        3.0.2\Projects\zstack\HomeAutomation\ZEM\CC2530DB\" -I
//        "C:\Users\ASUS\Desktop\work\graduration project\software\Z-Stack
//        3.0.2\Projects\zstack\HomeAutomation\ZEM\CC2530DB\..\Source\" -I
//        "C:\Users\ASUS\Desktop\work\graduration project\software\Z-Stack
//        3.0.2\Projects\zstack\HomeAutomation\ZEM\CC2530DB\..\..\Source\" -I
//        "C:\Users\ASUS\Desktop\work\graduration project\software\Z-Stack
//        3.0.2\Projects\zstack\HomeAutomation\ZEM\CC2530DB\..\..\..\ZMain\TI2530DB\"
//        -I "C:\Users\ASUS\Desktop\work\graduration project\software\Z-Stack
//        3.0.2\Projects\zstack\HomeAutomation\ZEM\CC2530DB\..\..\..\..\..\Components\hal\include\"
//        -I "C:\Users\ASUS\Desktop\work\graduration project\software\Z-Stack
//        3.0.2\Projects\zstack\HomeAutomation\ZEM\CC2530DB\..\..\..\..\..\Components\hal\target\CC2530EB\"
//        -I "C:\Users\ASUS\Desktop\work\graduration project\software\Z-Stack
//        3.0.2\Projects\zstack\HomeAutomation\ZEM\CC2530DB\..\..\..\..\..\Components\mac\include\"
//        -I "C:\Users\ASUS\Desktop\work\graduration project\software\Z-Stack
//        3.0.2\Projects\zstack\HomeAutomation\ZEM\CC2530DB\..\..\..\..\..\Components\mac\high_level\"
//        -I "C:\Users\ASUS\Desktop\work\graduration project\software\Z-Stack
//        3.0.2\Projects\zstack\HomeAutomation\ZEM\CC2530DB\..\..\..\..\..\Components\mac\low_level\srf04\"
//        -I "C:\Users\ASUS\Desktop\work\graduration project\software\Z-Stack
//        3.0.2\Projects\zstack\HomeAutomation\ZEM\CC2530DB\..\..\..\..\..\Components\mac\low_level\srf04\single_chip\"
//        -I "C:\Users\ASUS\Desktop\work\graduration project\software\Z-Stack
//        3.0.2\Projects\zstack\HomeAutomation\ZEM\CC2530DB\..\..\..\..\..\Components\mt\"
//        -I "C:\Users\ASUS\Desktop\work\graduration project\software\Z-Stack
//        3.0.2\Projects\zstack\HomeAutomation\ZEM\CC2530DB\..\..\..\..\..\Components\osal\include\"
//        -I "C:\Users\ASUS\Desktop\work\graduration project\software\Z-Stack
//        3.0.2\Projects\zstack\HomeAutomation\ZEM\CC2530DB\..\..\..\..\..\Components\services\saddr\"
//        -I "C:\Users\ASUS\Desktop\work\graduration project\software\Z-Stack
//        3.0.2\Projects\zstack\HomeAutomation\ZEM\CC2530DB\..\..\..\..\..\Components\services\sdata\"
//        -I "C:\Users\ASUS\Desktop\work\graduration project\software\Z-Stack
//        3.0.2\Projects\zstack\HomeAutomation\ZEM\CC2530DB\..\..\..\..\..\Components\stack\af\"
//        -I "C:\Users\ASUS\Desktop\work\graduration project\software\Z-Stack
//        3.0.2\Projects\zstack\HomeAutomation\ZEM\CC2530DB\..\..\..\..\..\Components\stack\bdb\"
//        -I "C:\Users\ASUS\Desktop\work\graduration project\software\Z-Stack
//        3.0.2\Projects\zstack\HomeAutomation\ZEM\CC2530DB\..\..\..\..\..\Components\stack\gp\"
//        -I "C:\Users\ASUS\Desktop\work\graduration project\software\Z-Stack
//        3.0.2\Projects\zstack\HomeAutomation\ZEM\CC2530DB\..\..\..\..\..\Components\stack\nwk\"
//        -I "C:\Users\ASUS\Desktop\work\graduration project\software\Z-Stack
//        3.0.2\Projects\zstack\HomeAutomation\ZEM\CC2530DB\..\..\..\..\..\Components\stack\sapi\"
//        -I "C:\Users\ASUS\Desktop\work\graduration project\software\Z-Stack
//        3.0.2\Projects\zstack\HomeAutomation\ZEM\CC2530DB\..\..\..\..\..\Components\stack\sec\"
//        -I "C:\Users\ASUS\Desktop\work\graduration project\software\Z-Stack
//        3.0.2\Projects\zstack\HomeAutomation\ZEM\CC2530DB\..\..\..\..\..\Components\stack\sys\"
//        -I "C:\Users\ASUS\Desktop\work\graduration project\software\Z-Stack
//        3.0.2\Projects\zstack\HomeAutomation\ZEM\CC2530DB\..\..\..\..\..\Components\stack\zcl\"
//        -I "C:\Users\ASUS\Desktop\work\graduration project\software\Z-Stack
//        3.0.2\Projects\zstack\HomeAutomation\ZEM\CC2530DB\..\..\..\..\..\Components\stack\zdo\"
//        -I "C:\Users\ASUS\Desktop\work\graduration project\software\Z-Stack
//        3.0.2\Projects\zstack\HomeAutomation\ZEM\CC2530DB\..\..\..\..\..\Components\zmac\"
//        -I "C:\Users\ASUS\Desktop\work\graduration project\software\Z-Stack
//        3.0.2\Projects\zstack\HomeAutomation\ZEM\CC2530DB\..\..\..\..\..\Components\zmac\f8w\"
//        -Ohz --require_prototypes)
//    Locale             =  Chinese (Simplified)_China.936
//    List file          =  
//        C:\Users\ASUS\Desktop\work\graduration project\software\Z-Stack
//        3.0.2\Projects\zstack\HomeAutomation\ZEM\CC2530DB\CoordinatorEB\List\zcl_ZEM.s51
//
///////////////////////////////////////////////////////////////////////////////

        NAME zcl_ZEM

        RTMODEL "__SystemLibrary", "CLib"
        RTMODEL "__calling_convention", "xdata_reentrant"
        RTMODEL "__code_model", "banked"
        RTMODEL "__core", "plain"
        RTMODEL "__data_model", "large"
        RTMODEL "__dptr_size", "16"
        RTMODEL "__extended_stack", "disabled"
        RTMODEL "__location_for_constants", "data"
        RTMODEL "__number_of_dptrs", "1"
        RTMODEL "__register_banks", "*"
        RTMODEL "__rt_version", "1"

        RSEG DOVERLAY:DATA:NOROOT(0)
        RSEG IOVERLAY:IDATA:NOROOT(0)
        RSEG ISTACK:IDATA:NOROOT(0)
        RSEG PSTACK:XDATA:NOROOT(0)
        RSEG XSTACK:XDATA:NOROOT(0)

        EXTERN ?V0
        EXTERN ?V1
        EXTERN ?V2
        EXTERN ?V3
        EXTERN ?V4
        EXTERN ?V5
        EXTERN ?V6
        EXTERN ?V8
        EXTERN ?V9
        EXTERN ?V10
        EXTERN ?ALLOC_XSTACK8
        EXTERN ?BANKED_ENTER_XDATA
        EXTERN ?BANKED_LEAVE_XDATA
        EXTERN ?BDISPATCH
        EXTERN ?BRET
        EXTERN ?DEALLOC_XSTACK8
        EXTERN ?MOVE_LONG8_XDATA_XDATA
        EXTERN ?PUSH_XSTACK8_X_FOUR
        EXTERN ?PUSH_XSTACK_I_ONE
        EXTERN ?PUSH_XSTACK_I_THREE
        EXTERN ?PUSH_XSTACK_I_TWO
        EXTERN ?US_SWITCH_DENSE
        EXTERN ?XSP
        EXTERN ?XSTACK_DISP0_8
        EXTERN ?XSTACK_DISP100_8
        EXTERN ?XSTACK_DISP101_8
        EXTERN ?XSTACK_DISP102_8
        EXTERN __INIT_XDATA_I
        EXTERN __INIT_XDATA_Z

        FUNCTION `??zclSampleApp_BatteryWarningCB::?relay`,0203H
        FUNCTION `??zclZEM_AF_RxProc::?relay`,0203H
        FUNCTION `??zclZEM_BasicResetCB::?relay`,0203H
        PUBLIC `??zclZEM_Init::?relay`
        FUNCTION `??zclZEM_Init::?relay`,0203H
        FUNCTION `??zclZEM_ProcessCommissioningStatus::?relay`,0203H
        FUNCTION `??zclZEM_ProcessInDiscCmdsRspCmd::?relay`,0203H
        FUNCTION `??zclZEM_ProcessIncomingMsg::?relay`,0203H
        FUNCTION `??zclZEM_ReadAndSendMAC::?relay`,0203H
        FUNCTION `??zclZEM_UartCB::?relay`,0203H
        PUBLIC `??zclZEM_event_loop::?relay`
        FUNCTION `??zclZEM_event_loop::?relay`,0203H
        PUBWEAK P1DIR
        PUBWEAK P1SEL
        PUBWEAK PERCFG
        PUBWEAK __Constant_1388
        PUBWEAK __Constant_2710
        PUBWEAK __Constant_3e8
        PUBWEAK __Constant_bb8
        PUBLIC reportableChange
        FUNCTION zclSampleApp_BatteryWarningCB,0603H
        ARGFRAME XSTACK, 0, STACK
        FUNCTION zclZEM_AF_RxProc,0a1203H
        ARGFRAME XSTACK, 141, STACK
        ARGFRAME IOVERLAY, 0, STATIC
        ARGFRAME DOVERLAY, 0, STATIC
        LOCFRAME ISTACK, 1, STACK
        LOCFRAME XSTACK, 86, STACK
        FUNCTION zclZEM_BasicResetCB,021603H
        ARGFRAME XSTACK, 0, STACK
        LOCFRAME ISTACK, 2, STACK
        PUBLIC zclZEM_Init
        FUNCTION zclZEM_Init,0a1203H
        ARGFRAME XSTACK, 0, STACK
        LOCFRAME XSTACK, 45, STACK
        PUBLIC zclZEM_NwkState
        FUNCTION zclZEM_ProcessCommissioningStatus,021603H
        ARGFRAME XSTACK, 0, STACK
        LOCFRAME ISTACK, 2, STACK
        LOCFRAME XSTACK, 118, STACK
        FUNCTION zclZEM_ProcessInDiscCmdsRspCmd,0203H
        ARGFRAME XSTACK, 9, STACK
        ARGFRAME IOVERLAY, 0, STATIC
        ARGFRAME DOVERLAY, 0, STATIC
        LOCFRAME ISTACK, 2, STACK
        FUNCTION zclZEM_ProcessIncomingMsg,021203H
        ARGFRAME XSTACK, 141, STACK
        ARGFRAME IOVERLAY, 0, STATIC
        ARGFRAME DOVERLAY, 0, STATIC
        LOCFRAME XSTACK, 9, STACK
        FUNCTION zclZEM_ReadAndSendMAC,0a1203H
        ARGFRAME XSTACK, 39, STACK
        ARGFRAME IOVERLAY, 0, STATIC
        ARGFRAME DOVERLAY, 0, STATIC
        LOCFRAME ISTACK, 1, STACK
        LOCFRAME XSTACK, 71, STACK
        PUBLIC zclZEM_TaskID
        FUNCTION zclZEM_UartCB,021603H
        ARGFRAME XSTACK, 0, STACK
        LOCFRAME XSTACK, 9, STACK
        PUBLIC zclZEM_event_loop
        FUNCTION zclZEM_event_loop,0a1203H
        ARGFRAME XSTACK, 0, STACK
        LOCFRAME XSTACK, 150, STACK
        
          CFI Names cfiNames0
          CFI StackFrame CFA_SP SP IDATA
          CFI StackFrame CFA_PSP16 PSP16 XDATA
          CFI StackFrame CFA_XSP16 XSP16 XDATA
          CFI StaticOverlayFrame CFA_IOVERLAY IOVERLAY
          CFI StaticOverlayFrame CFA_DOVERLAY DOVERLAY
          CFI Resource `PSW.CY`:1, `B.BR0`:1, `B.BR1`:1, `B.BR2`:1, `B.BR3`:1
          CFI Resource `B.BR4`:1, `B.BR5`:1, `B.BR6`:1, `B.BR7`:1, `VB.BR8`:1
          CFI Resource `VB.BR9`:1, `VB.BR10`:1, `VB.BR11`:1, `VB.BR12`:1
          CFI Resource `VB.BR13`:1, `VB.BR14`:1, `VB.BR15`:1, VB:8, B:8, A:8
          CFI Resource PSW:8, DPL0:8, DPH0:8, R0:8, R1:8, R2:8, R3:8, R4:8, R5:8
          CFI Resource R6:8, R7:8, V0:8, V1:8, V2:8, V3:8, V4:8, V5:8, V6:8, V7:8
          CFI Resource V8:8, V9:8, V10:8, V11:8, V12:8, V13:8, V14:8, V15:8, SP:8
          CFI Resource PSPH:8, PSPL:8, PSP16:16, XSPH:8, XSPL:8, XSP16:16
          CFI VirtualResource ?RET:24
          CFI Resource ?BRET_EXT:8
          CFI VirtualResource ?RET_HIGH:8, ?RET_LOW:8
          CFI ResourceParts PSP16 PSPH, PSPL
          CFI ResourceParts XSP16 XSPH, XSPL
          CFI ResourceParts ?RET ?BRET_EXT, ?RET_HIGH, ?RET_LOW
          CFI EndNames cfiNames0
        
          CFI Common cfiCommon0 Using cfiNames0
          CFI CodeAlign 1
          CFI DataAlign -1
          CFI ReturnAddress ?RET CODE
          CFI CFA_DOVERLAY Used
          CFI CFA_IOVERLAY Used
          CFI CFA_SP SP+-3
          CFI CFA_PSP16 PSP16+0
          CFI CFA_XSP16 XSP16+0
          CFI `PSW.CY` SameValue
          CFI `B.BR0` SameValue
          CFI `B.BR1` SameValue
          CFI `B.BR2` SameValue
          CFI `B.BR3` SameValue
          CFI `B.BR4` SameValue
          CFI `B.BR5` SameValue
          CFI `B.BR6` SameValue
          CFI `B.BR7` SameValue
          CFI `VB.BR8` SameValue
          CFI `VB.BR9` SameValue
          CFI `VB.BR10` SameValue
          CFI `VB.BR11` SameValue
          CFI `VB.BR12` SameValue
          CFI `VB.BR13` SameValue
          CFI `VB.BR14` SameValue
          CFI `VB.BR15` SameValue
          CFI VB SameValue
          CFI B Undefined
          CFI A Undefined
          CFI PSW SameValue
          CFI DPL0 SameValue
          CFI DPH0 SameValue
          CFI R0 Undefined
          CFI R1 Undefined
          CFI R2 Undefined
          CFI R3 Undefined
          CFI R4 Undefined
          CFI R5 Undefined
          CFI R6 SameValue
          CFI R7 SameValue
          CFI V0 SameValue
          CFI V1 SameValue
          CFI V2 SameValue
          CFI V3 SameValue
          CFI V4 SameValue
          CFI V5 SameValue
          CFI V6 SameValue
          CFI V7 SameValue
          CFI V8 SameValue
          CFI V9 SameValue
          CFI V10 SameValue
          CFI V11 SameValue
          CFI V12 SameValue
          CFI V13 SameValue
          CFI V14 SameValue
          CFI V15 SameValue
          CFI PSPH Undefined
          CFI PSPL Undefined
          CFI XSPH Undefined
          CFI XSPL Undefined
          CFI ?RET Concat
          CFI ?BRET_EXT Frame(CFA_SP, 3)
          CFI ?RET_HIGH Frame(CFA_SP, 2)
          CFI ?RET_LOW Frame(CFA_SP, 1)
          CFI EndCommon cfiCommon0
        
        
          CFI Common cfiCommon1 Using cfiNames0
          CFI CodeAlign 1
          CFI DataAlign -1
          CFI ReturnAddress ?RET CODE
          CFI CFA_DOVERLAY Used
          CFI CFA_IOVERLAY Used
          CFI CFA_SP SP+-2
          CFI CFA_PSP16 PSP16+0
          CFI CFA_XSP16 XSP16+0
          CFI `PSW.CY` SameValue
          CFI `B.BR0` SameValue
          CFI `B.BR1` SameValue
          CFI `B.BR2` SameValue
          CFI `B.BR3` SameValue
          CFI `B.BR4` SameValue
          CFI `B.BR5` SameValue
          CFI `B.BR6` SameValue
          CFI `B.BR7` SameValue
          CFI `VB.BR8` SameValue
          CFI `VB.BR9` SameValue
          CFI `VB.BR10` SameValue
          CFI `VB.BR11` SameValue
          CFI `VB.BR12` SameValue
          CFI `VB.BR13` SameValue
          CFI `VB.BR14` SameValue
          CFI `VB.BR15` SameValue
          CFI VB SameValue
          CFI B SameValue
          CFI A SameValue
          CFI PSW SameValue
          CFI DPL0 SameValue
          CFI DPH0 SameValue
          CFI R0 SameValue
          CFI R1 SameValue
          CFI R2 SameValue
          CFI R3 SameValue
          CFI R4 SameValue
          CFI R5 SameValue
          CFI R6 SameValue
          CFI R7 SameValue
          CFI V0 SameValue
          CFI V1 SameValue
          CFI V2 SameValue
          CFI V3 SameValue
          CFI V4 SameValue
          CFI V5 SameValue
          CFI V6 SameValue
          CFI V7 SameValue
          CFI V8 SameValue
          CFI V9 SameValue
          CFI V10 SameValue
          CFI V11 SameValue
          CFI V12 SameValue
          CFI V13 SameValue
          CFI V14 SameValue
          CFI V15 SameValue
          CFI PSPH Undefined
          CFI PSPL Undefined
          CFI XSPH Undefined
          CFI XSPL Undefined
          CFI ?RET Concat
          CFI ?BRET_EXT SameValue
          CFI ?RET_HIGH Frame(CFA_SP, 2)
          CFI ?RET_LOW Frame(CFA_SP, 1)
          CFI EndCommon cfiCommon1
        
AF_DataRequest      SYMBOL "AF_DataRequest"
`??AF_DataRequest::?relay` SYMBOL "?relay", AF_DataRequest
HalLedBlink         SYMBOL "HalLedBlink"
`??HalLedBlink::?relay` SYMBOL "?relay", HalLedBlink
HalUARTOpen         SYMBOL "HalUARTOpen"
`??HalUARTOpen::?relay` SYMBOL "?relay", HalUARTOpen
HalUARTRead         SYMBOL "HalUARTRead"
`??HalUARTRead::?relay` SYMBOL "?relay", HalUARTRead
HalUARTWrite        SYMBOL "HalUARTWrite"
`??HalUARTWrite::?relay` SYMBOL "?relay", HalUARTWrite
Hal_UART_RxBufLen   SYMBOL "Hal_UART_RxBufLen"
`??Hal_UART_RxBufLen::?relay` SYMBOL "?relay", Hal_UART_RxBufLen
NLME_GetExtAddr     SYMBOL "NLME_GetExtAddr"
`??NLME_GetExtAddr::?relay` SYMBOL "?relay", NLME_GetExtAddr
NLME_PermitJoiningRequest SYMBOL "NLME_PermitJoiningRequest"
`??NLME_PermitJoiningRequest::?relay` SYMBOL "?relay", NLME_PermitJoiningRequest
RegisterForKeys     SYMBOL "RegisterForKeys"
`??RegisterForKeys::?relay` SYMBOL "?relay", RegisterForKeys
RegisterVoltageWarningCB SYMBOL "RegisterVoltageWarningCB"
`??RegisterVoltageWarningCB::?relay` SYMBOL "?relay", RegisterVoltageWarningCB
bdb_RegisterCommissioningStatusCB SYMBOL "bdb_RegisterCommissioningStatusCB"
`??bdb_RegisterCommissioningStatusCB::?relay` SYMBOL "?relay", bdb_RegisterCommissioningStatusCB
bdb_RegisterSimpleDescriptor SYMBOL "bdb_RegisterSimpleDescriptor"
`??bdb_RegisterSimpleDescriptor::?relay` SYMBOL "?relay", bdb_RegisterSimpleDescriptor
bdb_RepAddAttrCfgRecordDefaultToList SYMBOL "bdb_RepAddAttrCfgRecordDefaultToList"
`??bdb_RepAddAttrCfgRecordDefaultToList::?relay` SYMBOL "?relay", bdb_RepAddAttrCfgRecordDefaultToList
bdb_StartCommissioning SYMBOL "bdb_StartCommissioning"
`??bdb_StartCommissioning::?relay` SYMBOL "?relay", bdb_StartCommissioning
osal_mem_free       SYMBOL "osal_mem_free"
`??osal_mem_free::?relay` SYMBOL "?relay", osal_mem_free
osal_memcpy         SYMBOL "osal_memcpy"
`??osal_memcpy::?relay` SYMBOL "?relay", osal_memcpy
osal_msg_deallocate SYMBOL "osal_msg_deallocate"
`??osal_msg_deallocate::?relay` SYMBOL "?relay", osal_msg_deallocate
osal_msg_receive    SYMBOL "osal_msg_receive"
`??osal_msg_receive::?relay` SYMBOL "?relay", osal_msg_receive
osal_start_timerEx  SYMBOL "osal_start_timerEx"
`??osal_start_timerEx::?relay` SYMBOL "?relay", osal_start_timerEx
zclGeneral_RegisterCmdCallbacks SYMBOL "zclGeneral_RegisterCmdCallbacks"
`??zclGeneral_RegisterCmdCallbacks::?relay` SYMBOL "?relay", zclGeneral_RegisterCmdCallbacks
zclZEM_ResetAttributesToDefaultValues SYMBOL "zclZEM_ResetAttributesToDefaultValues"
`??zclZEM_ResetAttributesToDefaultValues::?relay` SYMBOL "?relay", zclZEM_ResetAttributesToDefaultValues
zcl_registerAttrList SYMBOL "zcl_registerAttrList"
`??zcl_registerAttrList::?relay` SYMBOL "?relay", zcl_registerAttrList
zcl_registerForMsg  SYMBOL "zcl_registerForMsg"
`??zcl_registerForMsg::?relay` SYMBOL "?relay", zcl_registerForMsg
zclZEM_Init         SYMBOL "zclZEM_Init"
`??zclZEM_Init::?relay` SYMBOL "?relay", zclZEM_Init
zclZEM_event_loop   SYMBOL "zclZEM_event_loop"
`??zclZEM_event_loop::?relay` SYMBOL "?relay", zclZEM_event_loop

        EXTERN `??AF_DataRequest::?relay`
        FUNCTION `??AF_DataRequest::?relay`,00H
        EXTERN `??HalLedBlink::?relay`
        FUNCTION `??HalLedBlink::?relay`,00H
        EXTERN `??HalUARTOpen::?relay`
        FUNCTION `??HalUARTOpen::?relay`,00H
        EXTERN `??HalUARTRead::?relay`
        FUNCTION `??HalUARTRead::?relay`,00H
        EXTERN `??HalUARTWrite::?relay`
        FUNCTION `??HalUARTWrite::?relay`,00H
        EXTERN `??Hal_UART_RxBufLen::?relay`
        FUNCTION `??Hal_UART_RxBufLen::?relay`,00H
        EXTERN `??NLME_GetExtAddr::?relay`
        FUNCTION `??NLME_GetExtAddr::?relay`,00H
        EXTERN `??NLME_PermitJoiningRequest::?relay`
        FUNCTION `??NLME_PermitJoiningRequest::?relay`,00H
        EXTERN `??RegisterForKeys::?relay`
        FUNCTION `??RegisterForKeys::?relay`,00H
        EXTERN `??RegisterVoltageWarningCB::?relay`
        FUNCTION `??RegisterVoltageWarningCB::?relay`,00H
        EXTERN `??bdb_RegisterCommissioningStatusCB::?relay`
        FUNCTION `??bdb_RegisterCommissioningStatusCB::?relay`,00H
        EXTERN `??bdb_RegisterSimpleDescriptor::?relay`
        FUNCTION `??bdb_RegisterSimpleDescriptor::?relay`,00H
        EXTERN `??bdb_RepAddAttrCfgRecordDefaultToList::?relay`
        FUNCTION `??bdb_RepAddAttrCfgRecordDefaultToList::?relay`,00H
        EXTERN `??bdb_StartCommissioning::?relay`
        FUNCTION `??bdb_StartCommissioning::?relay`,00H
        EXTERN `??osal_mem_free::?relay`
        FUNCTION `??osal_mem_free::?relay`,00H
        EXTERN `??osal_memcpy::?relay`
        FUNCTION `??osal_memcpy::?relay`,00H
        EXTERN `??osal_msg_deallocate::?relay`
        FUNCTION `??osal_msg_deallocate::?relay`,00H
        EXTERN `??osal_msg_receive::?relay`
        FUNCTION `??osal_msg_receive::?relay`,00H
        EXTERN `??osal_start_timerEx::?relay`
        FUNCTION `??osal_start_timerEx::?relay`,00H
        EXTERN `??zclGeneral_RegisterCmdCallbacks::?relay`
        FUNCTION `??zclGeneral_RegisterCmdCallbacks::?relay`,00H
        EXTERN `??zclZEM_ResetAttributesToDefaultValues::?relay`
        FUNCTION `??zclZEM_ResetAttributesToDefaultValues::?relay`,00H
        EXTERN `??zcl_registerAttrList::?relay`
        FUNCTION `??zcl_registerAttrList::?relay`,00H
        EXTERN `??zcl_registerForMsg::?relay`
        FUNCTION `??zcl_registerForMsg::?relay`,00H
        EXTERN AF_DataRequest
        FUNCTION AF_DataRequest,0202H
        ARGFRAME ISTACK, 0, STACK
        ARGFRAME PSTACK, 0, STACK
        ARGFRAME XSTACK, 150, STACK
        ARGFRAME IOVERLAY, 0, STATIC
        ARGFRAME DOVERLAY, 0, STATIC
        EXTERN HalLedBlink
        FUNCTION HalLedBlink,0202H
        ARGFRAME ISTACK, 0, STACK
        ARGFRAME PSTACK, 0, STACK
        ARGFRAME XSTACK, 141, STACK
        ARGFRAME IOVERLAY, 0, STATIC
        ARGFRAME DOVERLAY, 0, STATIC
        EXTERN HalUARTOpen
        FUNCTION HalUARTOpen,0202H
        ARGFRAME ISTACK, 0, STACK
        ARGFRAME PSTACK, 0, STACK
        ARGFRAME XSTACK, 39, STACK
        ARGFRAME IOVERLAY, 0, STATIC
        ARGFRAME DOVERLAY, 0, STATIC
        EXTERN HalUARTRead
        FUNCTION HalUARTRead,0202H
        ARGFRAME ISTACK, 0, STACK
        ARGFRAME PSTACK, 0, STACK
        ARGFRAME XSTACK, 9, STACK
        ARGFRAME IOVERLAY, 0, STATIC
        ARGFRAME DOVERLAY, 0, STATIC
        EXTERN HalUARTWrite
        FUNCTION HalUARTWrite,0202H
        ARGFRAME ISTACK, 2, STACK
        ARGFRAME PSTACK, 0, STACK
        ARGFRAME XSTACK, 141, STACK
        ARGFRAME IOVERLAY, 0, STATIC
        ARGFRAME DOVERLAY, 0, STATIC
        EXTERN Hal_UART_RxBufLen
        FUNCTION Hal_UART_RxBufLen,0202H
        ARGFRAME ISTACK, 0, STACK
        ARGFRAME PSTACK, 0, STACK
        ARGFRAME XSTACK, 9, STACK
        ARGFRAME IOVERLAY, 0, STATIC
        ARGFRAME DOVERLAY, 0, STATIC
        EXTERN NLME_GetExtAddr
        FUNCTION NLME_GetExtAddr,0202H
        ARGFRAME ISTACK, 0, STACK
        ARGFRAME PSTACK, 0, STACK
        ARGFRAME XSTACK, 68, STACK
        ARGFRAME IOVERLAY, 0, STATIC
        ARGFRAME DOVERLAY, 0, STATIC
        EXTERN NLME_PermitJoiningRequest
        FUNCTION NLME_PermitJoiningRequest,0202H
        ARGFRAME ISTACK, 0, STACK
        ARGFRAME PSTACK, 0, STACK
        ARGFRAME XSTACK, 39, STACK
        ARGFRAME IOVERLAY, 0, STATIC
        ARGFRAME DOVERLAY, 0, STATIC
        EXTERN RegisterForKeys
        FUNCTION RegisterForKeys,0202H
        ARGFRAME ISTACK, 0, STACK
        ARGFRAME PSTACK, 0, STACK
        ARGFRAME XSTACK, 39, STACK
        ARGFRAME IOVERLAY, 0, STATIC
        ARGFRAME DOVERLAY, 0, STATIC
        EXTERN RegisterVoltageWarningCB
        FUNCTION RegisterVoltageWarningCB,0202H
        ARGFRAME ISTACK, 0, STACK
        ARGFRAME PSTACK, 0, STACK
        ARGFRAME XSTACK, 39, STACK
        ARGFRAME IOVERLAY, 0, STATIC
        ARGFRAME DOVERLAY, 0, STATIC
        EXTERN bdb_RegisterCommissioningStatusCB
        FUNCTION bdb_RegisterCommissioningStatusCB,0202H
        ARGFRAME ISTACK, 0, STACK
        ARGFRAME PSTACK, 0, STACK
        ARGFRAME XSTACK, 39, STACK
        ARGFRAME IOVERLAY, 0, STATIC
        ARGFRAME DOVERLAY, 0, STATIC
        EXTERN bdb_RegisterSimpleDescriptor
        FUNCTION bdb_RegisterSimpleDescriptor,0202H
        ARGFRAME ISTACK, 0, STACK
        ARGFRAME PSTACK, 0, STACK
        ARGFRAME XSTACK, 39, STACK
        ARGFRAME IOVERLAY, 0, STATIC
        ARGFRAME DOVERLAY, 0, STATIC
        EXTERN bdb_RepAddAttrCfgRecordDefaultToList
        FUNCTION bdb_RepAddAttrCfgRecordDefaultToList,0202H
        ARGFRAME ISTACK, 0, STACK
        ARGFRAME PSTACK, 0, STACK
        ARGFRAME XSTACK, 45, STACK
        ARGFRAME IOVERLAY, 0, STATIC
        ARGFRAME DOVERLAY, 0, STATIC
        EXTERN bdb_StartCommissioning
        FUNCTION bdb_StartCommissioning,0202H
        ARGFRAME ISTACK, 2, STACK
        ARGFRAME PSTACK, 0, STACK
        ARGFRAME XSTACK, 114, STACK
        ARGFRAME IOVERLAY, 0, STATIC
        ARGFRAME DOVERLAY, 0, STATIC
        EXTERN osal_mem_free
        FUNCTION osal_mem_free,0202H
        ARGFRAME ISTACK, 0, STACK
        ARGFRAME PSTACK, 0, STACK
        ARGFRAME XSTACK, 9, STACK
        ARGFRAME IOVERLAY, 0, STATIC
        ARGFRAME DOVERLAY, 0, STATIC
        EXTERN osal_memcpy
        FUNCTION osal_memcpy,0202H
        ARGFRAME ISTACK, 0, STACK
        ARGFRAME PSTACK, 0, STACK
        ARGFRAME XSTACK, 86, STACK
        ARGFRAME IOVERLAY, 0, STATIC
        ARGFRAME DOVERLAY, 0, STATIC
        EXTERN osal_msg_deallocate
        FUNCTION osal_msg_deallocate,0202H
        ARGFRAME ISTACK, 0, STACK
        ARGFRAME PSTACK, 0, STACK
        ARGFRAME XSTACK, 141, STACK
        ARGFRAME IOVERLAY, 0, STATIC
        ARGFRAME DOVERLAY, 0, STATIC
        EXTERN osal_msg_receive
        FUNCTION osal_msg_receive,0202H
        ARGFRAME ISTACK, 0, STACK
        ARGFRAME PSTACK, 0, STACK
        ARGFRAME XSTACK, 141, STACK
        ARGFRAME IOVERLAY, 0, STATIC
        ARGFRAME DOVERLAY, 0, STATIC
        EXTERN osal_start_timerEx
        FUNCTION osal_start_timerEx,0202H
        ARGFRAME ISTACK, 2, STACK
        ARGFRAME PSTACK, 0, STACK
        ARGFRAME XSTACK, 145, STACK
        ARGFRAME IOVERLAY, 0, STATIC
        ARGFRAME DOVERLAY, 0, STATIC
        EXTERN zclGeneral_RegisterCmdCallbacks
        FUNCTION zclGeneral_RegisterCmdCallbacks,0202H
        ARGFRAME ISTACK, 0, STACK
        ARGFRAME PSTACK, 0, STACK
        ARGFRAME XSTACK, 39, STACK
        ARGFRAME IOVERLAY, 0, STATIC
        ARGFRAME DOVERLAY, 0, STATIC
        EXTERN zclZEM_Attrs
        EXTERN zclZEM_NumAttributes
        EXTERN zclZEM_ResetAttributesToDefaultValues
        FUNCTION zclZEM_ResetAttributesToDefaultValues,0202H
        ARGFRAME ISTACK, 2, STACK
        ARGFRAME PSTACK, 0, STACK
        ARGFRAME XSTACK, 39, STACK
        ARGFRAME IOVERLAY, 0, STATIC
        ARGFRAME DOVERLAY, 0, STATIC
        EXTERN zclZEM_SimpleDesc
        EXTERN zcl_registerAttrList
        FUNCTION zcl_registerAttrList,0202H
        ARGFRAME ISTACK, 0, STACK
        ARGFRAME PSTACK, 0, STACK
        ARGFRAME XSTACK, 39, STACK
        ARGFRAME IOVERLAY, 0, STATIC
        ARGFRAME DOVERLAY, 0, STATIC
        EXTERN zcl_registerForMsg
        FUNCTION zcl_registerForMsg,0202H
        ARGFRAME ISTACK, 0, STACK
        ARGFRAME PSTACK, 0, STACK
        ARGFRAME XSTACK, 39, STACK
        ARGFRAME IOVERLAY, 0, STATIC
        ARGFRAME DOVERLAY, 0, STATIC
        EXTERN zdpExternalStateTaskID

// C:\Users\ASUS\Desktop\work\graduration project\software\Z-Stack 3.0.2\Projects\zstack\HomeAutomation\ZEM\Source\zcl_ZEM.c
//    1 /*********************************************************************
//    2  * INCLUDES
//    3  */
//    4 #include "ZComDef.h"
//    5 #include "OSAL.h"
//    6 #include "AF.h"
//    7 #include "ZDApp.h"
//    8 #include "ZDObject.h"
//    9 #include "ZDProfile.h"
//   10 #include "MT_SYS.h"
//   11 
//   12 #include "zcl.h"
//   13 #include "zcl_general.h"
//   14 #include "zcl_ha.h"
//   15 #include "zcl_ms.h"
//   16 
//   17 #include "zcl_ZEM.h"
//   18 
//   19 #include "onboard.h"

        ASEGN SFR_AN:DATA:NOROOT,0f1H
// unsigned char volatile __sfr PERCFG
PERCFG:
        DATA8
        DS 1

        ASEGN SFR_AN:DATA:NOROOT,0f4H
// unsigned char volatile __sfr P1SEL
P1SEL:
        DATA8
        DS 1

        ASEGN SFR_AN:DATA:NOROOT,0feH
// unsigned char volatile __sfr P1DIR
P1DIR:
        DATA8
        DS 1
//   20 
//   21 /* HAL */
//   22 #include "hal_lcd.h"
//   23 #include "hal_led.h"
//   24 #include "hal_key.h"
//   25 #include "hal_uart.h"
//   26 
//   27 #include "bdb_interface.h"
//   28 #include "bdb_Reporting.h"
//   29    
//   30 /*********************************************************************
//   31  * MACROS
//   32  */
//   33 
//   34 // how often to report temperature
//   35 #define ZEM_REPORT_INTERVAL   10000
//   36 
//   37 #define GUI_LOCAL_TEMP    1
//   38 
//   39 #define APP_TITLE "   Temp Sensor  "
//   40 
//   41 /*********************************************************************
//   42  * CONSTANTS
//   43  */
//   44 
//   45 /*********************************************************************
//   46  * TYPEDEFS
//   47  */
//   48 
//   49 /*********************************************************************
//   50  * GLOBAL VARIABLES
//   51  */

        RSEG XDATA_Z:XDATA:NOROOT(0)
        DATA8
//   52 byte zclZEM_TaskID;
zclZEM_TaskID:
        DS 1
        REQUIRE __INIT_XDATA_Z
//   53 
//   54 extern int16 zdpExternalStateTaskID;
//   55 
//   56 // UART Buffer

        RSEG XDATA_Z:XDATA:NOROOT(0)
        DATA8
//   57 static uint8 zclZEM_UartBuf[ZCLZEM_UART_BUF_LEN];
zclZEM_UartBuf:
        DS 64
        REQUIRE __INIT_XDATA_Z
//   58 
//   59 /*********************************************************************
//   60  * GLOBAL FUNCTIONS
//   61  */
//   62 
//   63 /*********************************************************************
//   64  * LOCAL VARIABLES
//   65  */
//   66 

        RSEG XDATA_Z:XDATA:NOROOT(0)
        DATA8
//   67 uint8 zclZEM_NwkState = 0; // DEV_INIT
zclZEM_NwkState:
        DS 1
        REQUIRE __INIT_XDATA_Z
//   68 
//   69 //static uint8 aProcessCmd[] = { 1, 0, 0, 0 }; // used for reset command, { length + cmd0 + cmd1 + data }
//   70 
//   71 // Application Endpoint for data communication

        RSEG XDATA_I:XDATA:NOROOT(0)
//   72 static endPointDesc_t ZEM_AppEp =
ZEM_AppEp:
        DATA8
        DS 7
        REQUIRE `?<Initializer for ZEM_AppEp>`
        REQUIRE __INIT_XDATA_I
//   73 {
//   74   ZEM_ENDPOINT,                       // Application endpoint
//   75   0,
//   76   &zclZEM_TaskID,
//   77   &zclZEM_SimpleDesc,                 // Simple description for this application
//   78   (afNetworkLatencyReq_t)0            // No Network Latency req
//   79 };
//   80 #ifdef BDB_REPORTING
//   81 #if BDBREPORTING_MAX_ANALOG_ATTR_SIZE == 8
//   82   uint8 reportableChange[] = {0x2C, 0x01, 0x00, 0x00, 0x00, 0x00, 0x00, 0x00}; // 0x2C01 is 300 in int16
//   83 #endif
//   84 #if BDBREPORTING_MAX_ANALOG_ATTR_SIZE == 4

        RSEG XDATA_I:XDATA:NOROOT(0)
//   85   uint8 reportableChange[] = {0x2C, 0x01, 0x00, 0x00}; // 0x2C01 is 300 in int16
reportableChange:
        DATA32
        DS 4
        REQUIRE `?<Initializer for reportableChange>`
        REQUIRE __INIT_XDATA_I
//   86 #endif 
//   87 #if BDBREPORTING_MAX_ANALOG_ATTR_SIZE == 2
//   88   uint8 reportableChange[] = {0x2C, 0x01}; // 0x2C01 is 300 in int16
//   89 #endif 
//   90 #endif
//   91 
//   92 /*********************************************************************
//   93  * LOCAL FUNCTIONS
//   94  */
//   95 static void zclZEM_HandleKeys( byte shift, byte keys );
//   96 static void zclZEM_BasicResetCB( void );
//   97 
//   98 static void zclZEM_ProcessCommissioningStatus(bdbCommissioningModeMsg_t* bdbCommissioningModeMsg);
//   99 
//  100 // Functions to process ZCL Foundation incoming Command/Response messages
//  101 static void zclZEM_ProcessIncomingMsg( zclIncomingMsg_t *msg );
//  102 #ifdef ZCL_READ
//  103 static uint8 zclZEM_ProcessInReadRspCmd( zclIncomingMsg_t *pInMsg );
//  104 #endif
//  105 #ifdef ZCL_WRITE
//  106 static uint8 zclZEM_ProcessInWriteRspCmd( zclIncomingMsg_t *pInMsg );
//  107 #endif
//  108 static uint8 zclZEM_ProcessInDefaultRspCmd( zclIncomingMsg_t *pInMsg );
//  109 #ifdef ZCL_DISCOVER
//  110 static uint8 zclZEM_ProcessInDiscCmdsRspCmd( zclIncomingMsg_t *pInMsg );
//  111 static uint8 zclZEM_ProcessInDiscAttrsRspCmd( zclIncomingMsg_t *pInMsg );
//  112 static uint8 zclZEM_ProcessInDiscAttrsExtRspCmd( zclIncomingMsg_t *pInMsg );
//  113 #endif // ZCL_DISCOVER
//  114 
//  115 static void zclSampleApp_BatteryWarningCB( uint8 voltLevel);
//  116 
//  117 /*********************************************************************
//  118  * STATUS STRINGS
//  119  */
//  120 
//  121 /*********************************************************************
//  122  * CONSTANTS
//  123  */
//  124 
//  125 
//  126 /*********************************************************************
//  127  * ZCL General Profile Callback table
//  128  */

        RSEG XDATA_I:XDATA:NOROOT(0)
//  129 static zclGeneral_AppCallbacks_t zclZEM_CmdCallbacks =
zclZEM_CmdCallbacks:
        DATA8
        DS 18
        REQUIRE `?<Initializer for zclZEM_CmdCallbacks>`
        REQUIRE __INIT_XDATA_I
//  130 {
//  131   zclZEM_BasicResetCB,        // Basic Cluster Reset command
//  132   NULL,                                           // Identify Trigger Effect command
//  133   NULL,             				                      // On/Off cluster command
//  134   NULL,                                           // On/Off cluster enhanced command Off with Effect
//  135   NULL,                                           // On/Off cluster enhanced command On with Recall Global Scene
//  136   NULL,                                           // On/Off cluster enhanced command On with Timed Off
//  137 #ifdef ZCL_LEVEL_CTRL
//  138   NULL,                                           // Level Control Move to Level command
//  139   NULL,                                           // Level Control Move command
//  140   NULL,                                           // Level Control Step command
//  141   NULL,                                           // Level Control Stop command
//  142 #endif
//  143 #ifdef ZCL_GROUPS
//  144   NULL,                                           // Group Response commands
//  145 #endif
//  146 #ifdef ZCL_SCENES
//  147   NULL,                                           // Scene Store Request command
//  148   NULL,                                           // Scene Recall Request command
//  149   NULL,                                           // Scene Response command
//  150 #endif
//  151 #ifdef ZCL_ALARMS
//  152   NULL,                                           // Alarm (Response) commands
//  153 #endif
//  154 #ifdef SE_UK_EXT
//  155   NULL,                                           // Get Event Log command
//  156   NULL,                                           // Publish Event Log command
//  157 #endif
//  158   NULL,                                           // RSSI Location command
//  159   NULL                                            // RSSI Location Response command
//  160 };
//  161 
//  162 /*********************************************************************
//  163  * @fn          zclZEM_Init
//  164  *
//  165  * @brief       Initialization function for the zclGeneral layer.
//  166  *
//  167  * @param       none
//  168  *
//  169  * @return      none
//  170  */

        RSEG BANKED_CODE:HUGECODE:NOROOT(0)
//  171 void zclZEM_Init( byte task_id )
zclZEM_Init:
          CFI Block cfiBlock0 Using cfiCommon0
          CFI Function zclZEM_Init
        CODE
//  172 {
        FUNCALL zclZEM_Init, bdb_RegisterSimpleDescriptor
        LOCFRAME ISTACK, 0, STACK
        LOCFRAME PSTACK, 0, STACK
        LOCFRAME XSTACK, 39, STACK
        LOCFRAME IOVERLAY, 0, STATIC
        LOCFRAME DOVERLAY, 0, STATIC
        ARGFRAME ISTACK, 0, STACK
        ARGFRAME PSTACK, 0, STACK
        ARGFRAME XSTACK, 39, STACK
        ARGFRAME IOVERLAY, 0, STATIC
        ARGFRAME DOVERLAY, 0, STATIC
        FUNCALL zclZEM_Init, zclGeneral_RegisterCmdCallbacks
        LOCFRAME ISTACK, 0, STACK
        LOCFRAME PSTACK, 0, STACK
        LOCFRAME XSTACK, 39, STACK
        LOCFRAME IOVERLAY, 0, STATIC
        LOCFRAME DOVERLAY, 0, STATIC
        ARGFRAME ISTACK, 0, STACK
        ARGFRAME PSTACK, 0, STACK
        ARGFRAME XSTACK, 39, STACK
        ARGFRAME IOVERLAY, 0, STATIC
        ARGFRAME DOVERLAY, 0, STATIC
        FUNCALL zclZEM_Init, zclZEM_ResetAttributesToDefaultValues
        LOCFRAME ISTACK, 0, STACK
        LOCFRAME PSTACK, 0, STACK
        LOCFRAME XSTACK, 39, STACK
        LOCFRAME IOVERLAY, 0, STATIC
        LOCFRAME DOVERLAY, 0, STATIC
        ARGFRAME ISTACK, 0, STACK
        ARGFRAME PSTACK, 0, STACK
        ARGFRAME XSTACK, 39, STACK
        ARGFRAME IOVERLAY, 0, STATIC
        ARGFRAME DOVERLAY, 0, STATIC
        FUNCALL zclZEM_Init, zcl_registerAttrList
        LOCFRAME ISTACK, 0, STACK
        LOCFRAME PSTACK, 0, STACK
        LOCFRAME XSTACK, 39, STACK
        LOCFRAME IOVERLAY, 0, STATIC
        LOCFRAME DOVERLAY, 0, STATIC
        ARGFRAME ISTACK, 0, STACK
        ARGFRAME PSTACK, 0, STACK
        ARGFRAME XSTACK, 39, STACK
        ARGFRAME IOVERLAY, 0, STATIC
        ARGFRAME DOVERLAY, 0, STATIC
        FUNCALL zclZEM_Init, zcl_registerForMsg
        LOCFRAME ISTACK, 0, STACK
        LOCFRAME PSTACK, 0, STACK
        LOCFRAME XSTACK, 39, STACK
        LOCFRAME IOVERLAY, 0, STATIC
        LOCFRAME DOVERLAY, 0, STATIC
        ARGFRAME ISTACK, 0, STACK
        ARGFRAME PSTACK, 0, STACK
        ARGFRAME XSTACK, 39, STACK
        ARGFRAME IOVERLAY, 0, STATIC
        ARGFRAME DOVERLAY, 0, STATIC
        FUNCALL zclZEM_Init, RegisterVoltageWarningCB
        LOCFRAME ISTACK, 0, STACK
        LOCFRAME PSTACK, 0, STACK
        LOCFRAME XSTACK, 39, STACK
        LOCFRAME IOVERLAY, 0, STATIC
        LOCFRAME DOVERLAY, 0, STATIC
        ARGFRAME ISTACK, 0, STACK
        ARGFRAME PSTACK, 0, STACK
        ARGFRAME XSTACK, 39, STACK
        ARGFRAME IOVERLAY, 0, STATIC
        ARGFRAME DOVERLAY, 0, STATIC
        FUNCALL zclZEM_Init, RegisterForKeys
        LOCFRAME ISTACK, 0, STACK
        LOCFRAME PSTACK, 0, STACK
        LOCFRAME XSTACK, 39, STACK
        LOCFRAME IOVERLAY, 0, STATIC
        LOCFRAME DOVERLAY, 0, STATIC
        ARGFRAME ISTACK, 0, STACK
        ARGFRAME PSTACK, 0, STACK
        ARGFRAME XSTACK, 39, STACK
        ARGFRAME IOVERLAY, 0, STATIC
        ARGFRAME DOVERLAY, 0, STATIC
        FUNCALL zclZEM_Init, bdb_RegisterCommissioningStatusCB
        LOCFRAME ISTACK, 0, STACK
        LOCFRAME PSTACK, 0, STACK
        LOCFRAME XSTACK, 39, STACK
        LOCFRAME IOVERLAY, 0, STATIC
        LOCFRAME DOVERLAY, 0, STATIC
        ARGFRAME ISTACK, 0, STACK
        ARGFRAME PSTACK, 0, STACK
        ARGFRAME XSTACK, 39, STACK
        ARGFRAME IOVERLAY, 0, STATIC
        ARGFRAME DOVERLAY, 0, STATIC
        FUNCALL zclZEM_Init, bdb_StartCommissioning
        LOCFRAME ISTACK, 0, STACK
        LOCFRAME PSTACK, 0, STACK
        LOCFRAME XSTACK, 39, STACK
        LOCFRAME IOVERLAY, 0, STATIC
        LOCFRAME DOVERLAY, 0, STATIC
        ARGFRAME ISTACK, 0, STACK
        ARGFRAME PSTACK, 0, STACK
        ARGFRAME XSTACK, 39, STACK
        ARGFRAME IOVERLAY, 0, STATIC
        ARGFRAME DOVERLAY, 0, STATIC
        FUNCALL zclZEM_Init, NLME_PermitJoiningRequest
        LOCFRAME ISTACK, 0, STACK
        LOCFRAME PSTACK, 0, STACK
        LOCFRAME XSTACK, 39, STACK
        LOCFRAME IOVERLAY, 0, STATIC
        LOCFRAME DOVERLAY, 0, STATIC
        ARGFRAME ISTACK, 0, STACK
        ARGFRAME PSTACK, 0, STACK
        ARGFRAME XSTACK, 39, STACK
        ARGFRAME IOVERLAY, 0, STATIC
        ARGFRAME DOVERLAY, 0, STATIC
        FUNCALL zclZEM_Init, osal_start_timerEx
        LOCFRAME ISTACK, 0, STACK
        LOCFRAME PSTACK, 0, STACK
        LOCFRAME XSTACK, 43, STACK
        LOCFRAME IOVERLAY, 0, STATIC
        LOCFRAME DOVERLAY, 0, STATIC
        ARGFRAME ISTACK, 0, STACK
        ARGFRAME PSTACK, 0, STACK
        ARGFRAME XSTACK, 43, STACK
        ARGFRAME IOVERLAY, 0, STATIC
        ARGFRAME DOVERLAY, 0, STATIC
        FUNCALL zclZEM_Init, osal_start_timerEx
        LOCFRAME ISTACK, 0, STACK
        LOCFRAME PSTACK, 0, STACK
        LOCFRAME XSTACK, 43, STACK
        LOCFRAME IOVERLAY, 0, STATIC
        LOCFRAME DOVERLAY, 0, STATIC
        ARGFRAME ISTACK, 0, STACK
        ARGFRAME PSTACK, 0, STACK
        ARGFRAME XSTACK, 43, STACK
        ARGFRAME IOVERLAY, 0, STATIC
        ARGFRAME DOVERLAY, 0, STATIC
        FUNCALL zclZEM_Init, HalUARTOpen
        LOCFRAME ISTACK, 0, STACK
        LOCFRAME PSTACK, 0, STACK
        LOCFRAME XSTACK, 39, STACK
        LOCFRAME IOVERLAY, 0, STATIC
        LOCFRAME DOVERLAY, 0, STATIC
        ARGFRAME ISTACK, 0, STACK
        ARGFRAME PSTACK, 0, STACK
        ARGFRAME XSTACK, 39, STACK
        ARGFRAME IOVERLAY, 0, STATIC
        ARGFRAME DOVERLAY, 0, STATIC
        FUNCALL zclZEM_Init, zclZEM_ReadAndSendMAC
        LOCFRAME ISTACK, 0, STACK
        LOCFRAME PSTACK, 0, STACK
        LOCFRAME XSTACK, 39, STACK
        LOCFRAME IOVERLAY, 0, STATIC
        LOCFRAME DOVERLAY, 0, STATIC
        ARGFRAME ISTACK, 0, STACK
        ARGFRAME PSTACK, 0, STACK
        ARGFRAME XSTACK, 39, STACK
        ARGFRAME IOVERLAY, 0, STATIC
        ARGFRAME DOVERLAY, 0, STATIC
        FUNCALL zclZEM_Init, bdb_RepAddAttrCfgRecordDefaultToList
        LOCFRAME ISTACK, 0, STACK
        LOCFRAME PSTACK, 0, STACK
        LOCFRAME XSTACK, 45, STACK
        LOCFRAME IOVERLAY, 0, STATIC
        LOCFRAME DOVERLAY, 0, STATIC
        ARGFRAME ISTACK, 0, STACK
        ARGFRAME PSTACK, 0, STACK
        ARGFRAME XSTACK, 45, STACK
        ARGFRAME IOVERLAY, 0, STATIC
        ARGFRAME DOVERLAY, 0, STATIC
        FUNCALL zclZEM_Init, osal_start_timerEx
        LOCFRAME ISTACK, 0, STACK
        LOCFRAME PSTACK, 0, STACK
        LOCFRAME XSTACK, 43, STACK
        LOCFRAME IOVERLAY, 0, STATIC
        LOCFRAME DOVERLAY, 0, STATIC
        ARGFRAME ISTACK, 0, STACK
        ARGFRAME PSTACK, 0, STACK
        ARGFRAME XSTACK, 43, STACK
        ARGFRAME IOVERLAY, 0, STATIC
        ARGFRAME DOVERLAY, 0, STATIC
        REQUIRE ?V0
        REQUIRE ?V1
        MOV       A,#-0xa
        LCALL     ?BANKED_ENTER_XDATA
          CFI DPH0 load(1, XDATA, add(CFA_XSP16, literal(-1)))
          CFI DPL0 load(1, XDATA, add(CFA_XSP16, literal(-2)))
          CFI ?BRET_EXT load(1, XDATA, add(CFA_XSP16, literal(-3)))
          CFI ?RET_HIGH load(1, XDATA, add(CFA_XSP16, literal(-4)))
          CFI ?RET_LOW load(1, XDATA, add(CFA_XSP16, literal(-5)))
          CFI R7 load(1, XDATA, add(CFA_XSP16, literal(-6)))
          CFI V1 load(1, XDATA, add(CFA_XSP16, literal(-7)))
          CFI V0 load(1, XDATA, add(CFA_XSP16, literal(-8)))
          CFI VB load(1, XDATA, add(CFA_XSP16, literal(-9)))
          CFI R6 load(1, XDATA, add(CFA_XSP16, literal(-10)))
          CFI CFA_SP SP+0
          CFI CFA_XSP16 add(XSP16, 10)
        ; Saved register size: 10
        ; Auto size: 29
        MOV       A,#-0x1d
        LCALL     ?ALLOC_XSTACK8
          CFI CFA_XSP16 add(XSP16, 39)
        MOV       A,R1
//  173   zclZEM_TaskID = task_id;
        MOV       DPTR,#zclZEM_TaskID
        MOVX      @DPTR,A
//  174 
//  175   // Register the Simple Descriptor for this application
//  176   bdb_RegisterSimpleDescriptor( &zclZEM_SimpleDesc ); 
        ; Setup parameters for call to function bdb_RegisterSimpleDescriptor
        MOV       R2,#zclZEM_SimpleDesc & 0xff
        MOV       R3,#(zclZEM_SimpleDesc >> 8) & 0xff
        LCALL     `??bdb_RegisterSimpleDescriptor::?relay`; Banked call to: bdb_RegisterSimpleDescriptor
//  177   
//  178   // Register the ZCL General Cluster Library callback functions
//  179   zclGeneral_RegisterCmdCallbacks( ZEM_ENDPOINT, &zclZEM_CmdCallbacks );
        ; Setup parameters for call to function zclGeneral_RegisterCmdCallbacks
        MOV       R2,#zclZEM_CmdCallbacks & 0xff
        MOV       R3,#(zclZEM_CmdCallbacks >> 8) & 0xff
        MOV       R1,#0x8
        LCALL     `??zclGeneral_RegisterCmdCallbacks::?relay`; Banked call to: zclGeneral_RegisterCmdCallbacks
//  180 
//  181   // Register the application's attribute list
//  182   zclZEM_ResetAttributesToDefaultValues();
        ; Setup parameters for call to function zclZEM_ResetAttributesToDefaultValues
        LCALL     `??zclZEM_ResetAttributesToDefaultValues::?relay`; Banked call to: zclZEM_ResetAttributesToDefaultValues
//  183   zcl_registerAttrList( ZEM_ENDPOINT, zclZEM_NumAttributes, zclZEM_Attrs );
        ; Setup parameters for call to function zcl_registerAttrList
        MOV       R4,#zclZEM_Attrs & 0xff
        MOV       R5,#(zclZEM_Attrs >> 8) & 0xff
        MOV       DPTR,#zclZEM_NumAttributes
        CLR       A
        MOVC      A,@A+DPTR
        MOV       R2,A
        MOV       R1,#0x8
        LCALL     `??zcl_registerAttrList::?relay`; Banked call to: zcl_registerAttrList
//  184 
//  185   // Register the Application to receive the unprocessed Foundation command/response messages
//  186   zcl_registerForMsg( zclZEM_TaskID );
        ; Setup parameters for call to function zcl_registerForMsg
        MOV       DPTR,#zclZEM_TaskID
        MOVX      A,@DPTR
        MOV       R1,A
        LCALL     `??zcl_registerForMsg::?relay`; Banked call to: zcl_registerForMsg
//  187 
//  188   // Register low voltage NV memory protection application callback
//  189   RegisterVoltageWarningCB( zclSampleApp_BatteryWarningCB );
        ; Setup parameters for call to function RegisterVoltageWarningCB
        MOV       R2,#`??zclSampleApp_BatteryWarningCB::?relay` & 0xff
        MOV       R3,#(`??zclSampleApp_BatteryWarningCB::?relay` >> 8) & 0xff
        LCALL     `??RegisterVoltageWarningCB::?relay`; Banked call to: RegisterVoltageWarningCB
//  190 
//  191   // Register for all key events - This app will handle all key events
//  192   RegisterForKeys( zclZEM_TaskID );
        ; Setup parameters for call to function RegisterForKeys
        MOV       DPTR,#zclZEM_TaskID
        MOVX      A,@DPTR
        MOV       R1,A
        LCALL     `??RegisterForKeys::?relay`; Banked call to: RegisterForKeys
//  193 
//  194   bdb_RegisterCommissioningStatusCB( zclZEM_ProcessCommissioningStatus );
        ; Setup parameters for call to function bdb_RegisterCommissioningStatusCB
        MOV       R2,#`??zclZEM_ProcessCommissioningStatus::?relay` & 0xff
        MOV       R3,#(`??zclZEM_ProcessCommissioningStatus::?relay` >> 8) & 0xff
        LCALL     `??bdb_RegisterCommissioningStatusCB::?relay`; Banked call to: bdb_RegisterCommissioningStatusCB
//  195 
//  196 #ifdef ZDO_COORDINATOR
//  197   bdb_StartCommissioning( BDB_COMMISSIONING_MODE_NWK_FORMATION |
//  198                           BDB_COMMISSIONING_MODE_FINDING_BINDING );
        ; Setup parameters for call to function bdb_StartCommissioning
        MOV       R1,#0xc
        LCALL     `??bdb_StartCommissioning::?relay`; Banked call to: bdb_StartCommissioning
//  199   NLME_PermitJoiningRequest(255);
        ; Setup parameters for call to function NLME_PermitJoiningRequest
        MOV       R1,#-0x1
        LCALL     `??NLME_PermitJoiningRequest::?relay`; Banked call to: NLME_PermitJoiningRequest
//  200   // Broadcast
//  201   osal_start_timerEx(zclZEM_TaskID,
//  202                      ZEM_BROADCAST_EVT,
//  203                      ZEM_BROADCAST_PERIOD);
        ; Setup parameters for call to function osal_start_timerEx
        MOV       DPTR,#__Constant_3e8
        LCALL     ?PUSH_XSTACK8_X_FOUR
          CFI CFA_XSP16 add(XSP16, 43)
        MOV       R2,#-0x80
        MOV       R3,#0x0
        MOV       DPTR,#zclZEM_TaskID
        MOVX      A,@DPTR
        MOV       R1,A
        LCALL     `??osal_start_timerEx::?relay`; Banked call to: osal_start_timerEx
        MOV       A,#0x4
        LCALL     ?DEALLOC_XSTACK8
          CFI CFA_XSP16 add(XSP16, 39)
//  204   // groupcast
//  205   osal_start_timerEx(zclZEM_TaskID,
//  206                      ZEM_GROUPCAST_EVT,
//  207                      ZEM_GROUPCAST_PERIOD);
        ; Setup parameters for call to function osal_start_timerEx
        MOV       DPTR,#__Constant_3e8
        LCALL     ?PUSH_XSTACK8_X_FOUR
          CFI CFA_XSP16 add(XSP16, 43)
        MOV       R2,#0x0
        MOV       R3,#0x1
        MOV       DPTR,#zclZEM_TaskID
        MOVX      A,@DPTR
        MOV       R1,A
        LCALL     `??osal_start_timerEx::?relay`; Banked call to: osal_start_timerEx
        MOV       A,#0x4
        LCALL     ?DEALLOC_XSTACK8
          CFI CFA_XSP16 add(XSP16, 39)
//  208 #else
//  209   bdb_StartCommissioning( BDB_COMMISSIONING_MODE_NWK_STEERING |
//  210                           BDB_COMMISSIONING_MODE_FINDING_BINDING );
//  211   // Add group
//  212   aps_Group_t group = {
//  213     .ID = GROUP_ID,
//  214     .name = "",
//  215   };
//  216   aps_AddGroup(ZEM_ENDPOINT, &group);
//  217   // P2P
//  218   osal_start_timerEx(zclZEM_TaskID,
//  219                      ZEM_P2P_EVT,
//  220                      ZEM_P2P_PERIOD);
//  221 #endif
//  222 
//  223   // Initialize UART communication
//  224   zclZEM_InitUart();
        ORL       0xf1,#0x1
        ORL       0xf4,#0x30
        ORL       0xfe,#0x10
        ANL       0xfe,#0xdf
        MOV       DPL,?XSP + 0
        MOV       DPH,?XSP + 1
        MOV       A,#0x1
        MOVX      @DPTR,A
        LCALL     ?XSTACK_DISP0_8
        MOV       A,#0x4
        MOVX      @DPTR,A
        MOV       A,#0x2
        LCALL     ?XSTACK_DISP0_8
        CLR       A
        MOVX      @DPTR,A
        MOV       A,#0x3
        LCALL     ?XSTACK_DISP0_8
        CLR       A
        MOVX      @DPTR,A
        INC       DPTR
        MOVX      @DPTR,A
        MOV       A,#0xa
        LCALL     ?XSTACK_DISP0_8
        MOV       A,#0x40
        MOVX      @DPTR,A
        INC       DPTR
        CLR       A
        MOVX      @DPTR,A
        MOV       A,#0x12
        LCALL     ?XSTACK_DISP0_8
        CLR       A
        MOVX      @DPTR,A
        INC       DPTR
        MOVX      @DPTR,A
        MOV       A,#0x5
        LCALL     ?XSTACK_DISP0_8
        MOV       A,#0x6
        MOVX      @DPTR,A
        MOV       A,#0x16
        LCALL     ?XSTACK_DISP0_8
        MOV       A,#0x1
        MOVX      @DPTR,A
        MOV       A,#0x1b
        LCALL     ?XSTACK_DISP0_8
        MOV       A,#`??zclZEM_UartCB::?relay` & 0xff
        MOVX      @DPTR,A
        INC       DPTR
        MOV       A,#(`??zclZEM_UartCB::?relay` >> 8) & 0xff
        MOVX      @DPTR,A
        ; Setup parameters for call to function HalUARTOpen
        MOV       R2,?XSP + 0
        MOV       R3,?XSP + 1
        MOV       R1,#0x0
        LCALL     `??HalUARTOpen::?relay`; Banked call to: HalUARTOpen
//  225   
//  226   // Read and send MAC address
//  227   zclZEM_ReadAndSendMAC();
        ; Setup parameters for call to function zclZEM_ReadAndSendMAC
        LCALL     `??zclZEM_ReadAndSendMAC::?relay`; Banked call to: zclZEM_ReadAndSendMAC
//  228 
//  229 #ifdef BDB_REPORTING
//  230   //Adds the default configuration values for the temperature attribute of the ZCL_CLUSTER_ID_MS_TEMPERATURE_MEASUREMENT cluster, for endpoint ZEM_ENDPOINT
//  231   //Default maxReportingInterval value is 10 seconds
//  232   //Default minReportingInterval value is 3 seconds
//  233   //Default reportChange value is 300 (3 degrees)
//  234   bdb_RepAddAttrCfgRecordDefaultToList(ZEM_ENDPOINT, ZCL_CLUSTER_ID_MS_TEMPERATURE_MEASUREMENT, ATTRID_MS_TEMPERATURE_MEASURED_VALUE, 0, 10, reportableChange);
        ; Setup parameters for call to function bdb_RepAddAttrCfgRecordDefaultToList
        MOV       ?V0,#reportableChange & 0xff
        MOV       ?V1,#(reportableChange >> 8) & 0xff
        MOV       R0,#?V0
        LCALL     ?PUSH_XSTACK_I_TWO
          CFI CFA_XSP16 add(XSP16, 41)
        MOV       ?V0,#0xa
        MOV       ?V1,#0x0
        MOV       R0,#?V0
        LCALL     ?PUSH_XSTACK_I_TWO
          CFI CFA_XSP16 add(XSP16, 43)
        CLR       A
        MOV       ?V0,A
        MOV       R0,#?V0
        LCALL     ?PUSH_XSTACK_I_TWO
          CFI CFA_XSP16 add(XSP16, 45)
        MOV       R4,#0x0
        MOV       R5,#0x0
        MOV       R2,#0x2
        MOV       R3,#0x4
        MOV       R1,#0x8
        LCALL     `??bdb_RepAddAttrCfgRecordDefaultToList::?relay`; Banked call to: bdb_RepAddAttrCfgRecordDefaultToList
        MOV       A,#0x6
        LCALL     ?DEALLOC_XSTACK8
          CFI CFA_XSP16 add(XSP16, 39)
//  235 #endif
//  236   
//  237   zdpExternalStateTaskID = zclZEM_TaskID;
        MOV       DPTR,#zclZEM_TaskID
        MOVX      A,@DPTR
        MOV       DPTR,#zdpExternalStateTaskID
        MOVX      @DPTR,A
        INC       DPTR
        CLR       A
        MOVX      @DPTR,A
//  238    osal_start_timerEx(
//  239       zclZEM_TaskID,
//  240       ZEMAPP_EVT,
//  241       3000);
        ; Setup parameters for call to function osal_start_timerEx
        MOV       DPTR,#__Constant_bb8
        LCALL     ?PUSH_XSTACK8_X_FOUR
          CFI CFA_XSP16 add(XSP16, 43)
        MOV       R2,#-0x80
        MOV       R3,#0x0
        MOV       DPTR,#zclZEM_TaskID
        MOVX      A,@DPTR
        MOV       R1,A
        LCALL     `??osal_start_timerEx::?relay`; Banked call to: osal_start_timerEx
        MOV       A,#0x4
        LCALL     ?DEALLOC_XSTACK8
          CFI CFA_XSP16 add(XSP16, 39)
//  242 }
        MOV       A,#0x1d
        LCALL     ?DEALLOC_XSTACK8
          CFI CFA_XSP16 add(XSP16, 10)
        MOV       R7,#0x2
        LJMP      ?BANKED_LEAVE_XDATA
          CFI EndBlock cfiBlock0
        REQUIRE PERCFG
        REQUIRE P1SEL
        REQUIRE P1DIR
//  243 
//  244 /*********************************************************************
//  245  * @fn          zclSample_event_loop
//  246  *
//  247  * @brief       Event Loop Processor for zclGeneral.
//  248  *
//  249  * @param       none
//  250  *
//  251  * @return      none
//  252  */

        RSEG BANKED_CODE:HUGECODE:NOROOT(0)
//  253 uint16 zclZEM_event_loop( uint8 task_id, uint16 events )
zclZEM_event_loop:
          CFI Block cfiBlock1 Using cfiCommon0
          CFI Function zclZEM_event_loop
        CODE
//  254 {
        FUNCALL zclZEM_event_loop, HalUARTWrite
        LOCFRAME ISTACK, 0, STACK
        LOCFRAME PSTACK, 0, STACK
        LOCFRAME XSTACK, 141, STACK
        LOCFRAME IOVERLAY, 0, STATIC
        LOCFRAME DOVERLAY, 0, STATIC
        ARGFRAME ISTACK, 0, STACK
        ARGFRAME PSTACK, 0, STACK
        ARGFRAME XSTACK, 141, STACK
        ARGFRAME IOVERLAY, 0, STATIC
        ARGFRAME DOVERLAY, 0, STATIC
        FUNCALL zclZEM_event_loop, HalLedBlink
        LOCFRAME ISTACK, 0, STACK
        LOCFRAME PSTACK, 0, STACK
        LOCFRAME XSTACK, 141, STACK
        LOCFRAME IOVERLAY, 0, STATIC
        LOCFRAME DOVERLAY, 0, STATIC
        ARGFRAME ISTACK, 0, STACK
        ARGFRAME PSTACK, 0, STACK
        ARGFRAME XSTACK, 141, STACK
        ARGFRAME IOVERLAY, 0, STATIC
        ARGFRAME DOVERLAY, 0, STATIC
        FUNCALL zclZEM_event_loop, HalUARTWrite
        LOCFRAME ISTACK, 0, STACK
        LOCFRAME PSTACK, 0, STACK
        LOCFRAME XSTACK, 141, STACK
        LOCFRAME IOVERLAY, 0, STATIC
        LOCFRAME DOVERLAY, 0, STATIC
        ARGFRAME ISTACK, 0, STACK
        ARGFRAME PSTACK, 0, STACK
        ARGFRAME XSTACK, 141, STACK
        ARGFRAME IOVERLAY, 0, STATIC
        ARGFRAME DOVERLAY, 0, STATIC
        FUNCALL zclZEM_event_loop, osal_start_timerEx
        LOCFRAME ISTACK, 0, STACK
        LOCFRAME PSTACK, 0, STACK
        LOCFRAME XSTACK, 145, STACK
        LOCFRAME IOVERLAY, 0, STATIC
        LOCFRAME DOVERLAY, 0, STATIC
        ARGFRAME ISTACK, 0, STACK
        ARGFRAME PSTACK, 0, STACK
        ARGFRAME XSTACK, 145, STACK
        ARGFRAME IOVERLAY, 0, STATIC
        ARGFRAME DOVERLAY, 0, STATIC
        FUNCALL zclZEM_event_loop, osal_msg_deallocate
        LOCFRAME ISTACK, 0, STACK
        LOCFRAME PSTACK, 0, STACK
        LOCFRAME XSTACK, 141, STACK
        LOCFRAME IOVERLAY, 0, STATIC
        LOCFRAME DOVERLAY, 0, STATIC
        ARGFRAME ISTACK, 0, STACK
        ARGFRAME PSTACK, 0, STACK
        ARGFRAME XSTACK, 141, STACK
        ARGFRAME IOVERLAY, 0, STATIC
        ARGFRAME DOVERLAY, 0, STATIC
        FUNCALL zclZEM_event_loop, osal_msg_receive
        LOCFRAME ISTACK, 0, STACK
        LOCFRAME PSTACK, 0, STACK
        LOCFRAME XSTACK, 141, STACK
        LOCFRAME IOVERLAY, 0, STATIC
        LOCFRAME DOVERLAY, 0, STATIC
        ARGFRAME ISTACK, 0, STACK
        ARGFRAME PSTACK, 0, STACK
        ARGFRAME XSTACK, 141, STACK
        ARGFRAME IOVERLAY, 0, STATIC
        ARGFRAME DOVERLAY, 0, STATIC
        FUNCALL zclZEM_event_loop, zclZEM_ProcessIncomingMsg
        LOCFRAME ISTACK, 0, STACK
        LOCFRAME PSTACK, 0, STACK
        LOCFRAME XSTACK, 141, STACK
        LOCFRAME IOVERLAY, 0, STATIC
        LOCFRAME DOVERLAY, 0, STATIC
        ARGFRAME ISTACK, 0, STACK
        ARGFRAME PSTACK, 0, STACK
        ARGFRAME XSTACK, 141, STACK
        ARGFRAME IOVERLAY, 0, STATIC
        ARGFRAME DOVERLAY, 0, STATIC
        FUNCALL zclZEM_event_loop, zclZEM_AF_RxProc
        LOCFRAME ISTACK, 0, STACK
        LOCFRAME PSTACK, 0, STACK
        LOCFRAME XSTACK, 141, STACK
        LOCFRAME IOVERLAY, 0, STATIC
        LOCFRAME DOVERLAY, 0, STATIC
        ARGFRAME ISTACK, 0, STACK
        ARGFRAME PSTACK, 0, STACK
        ARGFRAME XSTACK, 141, STACK
        ARGFRAME IOVERLAY, 0, STATIC
        ARGFRAME DOVERLAY, 0, STATIC
        FUNCALL zclZEM_event_loop, AF_DataRequest
        LOCFRAME ISTACK, 0, STACK
        LOCFRAME PSTACK, 0, STACK
        LOCFRAME XSTACK, 150, STACK
        LOCFRAME IOVERLAY, 0, STATIC
        LOCFRAME DOVERLAY, 0, STATIC
        ARGFRAME ISTACK, 0, STACK
        ARGFRAME PSTACK, 0, STACK
        ARGFRAME XSTACK, 150, STACK
        ARGFRAME IOVERLAY, 0, STATIC
        ARGFRAME DOVERLAY, 0, STATIC
        FUNCALL zclZEM_event_loop, osal_start_timerEx
        LOCFRAME ISTACK, 0, STACK
        LOCFRAME PSTACK, 0, STACK
        LOCFRAME XSTACK, 145, STACK
        LOCFRAME IOVERLAY, 0, STATIC
        LOCFRAME DOVERLAY, 0, STATIC
        ARGFRAME ISTACK, 0, STACK
        ARGFRAME PSTACK, 0, STACK
        ARGFRAME XSTACK, 145, STACK
        ARGFRAME IOVERLAY, 0, STATIC
        ARGFRAME DOVERLAY, 0, STATIC
        FUNCALL zclZEM_event_loop, AF_DataRequest
        LOCFRAME ISTACK, 0, STACK
        LOCFRAME PSTACK, 0, STACK
        LOCFRAME XSTACK, 150, STACK
        LOCFRAME IOVERLAY, 0, STATIC
        LOCFRAME DOVERLAY, 0, STATIC
        ARGFRAME ISTACK, 0, STACK
        ARGFRAME PSTACK, 0, STACK
        ARGFRAME XSTACK, 150, STACK
        ARGFRAME IOVERLAY, 0, STATIC
        ARGFRAME DOVERLAY, 0, STATIC
        FUNCALL zclZEM_event_loop, osal_start_timerEx
        LOCFRAME ISTACK, 0, STACK
        LOCFRAME PSTACK, 0, STACK
        LOCFRAME XSTACK, 145, STACK
        LOCFRAME IOVERLAY, 0, STATIC
        LOCFRAME DOVERLAY, 0, STATIC
        ARGFRAME ISTACK, 0, STACK
        ARGFRAME PSTACK, 0, STACK
        ARGFRAME XSTACK, 145, STACK
        ARGFRAME IOVERLAY, 0, STATIC
        ARGFRAME DOVERLAY, 0, STATIC
        REQUIRE ?V0
        REQUIRE ?V1
        REQUIRE ?V2
        REQUIRE ?V3
        MOV       A,#-0xc
        LCALL     ?BANKED_ENTER_XDATA
          CFI DPH0 load(1, XDATA, add(CFA_XSP16, literal(-1)))
          CFI DPL0 load(1, XDATA, add(CFA_XSP16, literal(-2)))
          CFI ?BRET_EXT load(1, XDATA, add(CFA_XSP16, literal(-3)))
          CFI ?RET_HIGH load(1, XDATA, add(CFA_XSP16, literal(-4)))
          CFI ?RET_LOW load(1, XDATA, add(CFA_XSP16, literal(-5)))
          CFI R7 load(1, XDATA, add(CFA_XSP16, literal(-6)))
          CFI V3 load(1, XDATA, add(CFA_XSP16, literal(-7)))
          CFI V2 load(1, XDATA, add(CFA_XSP16, literal(-8)))
          CFI V1 load(1, XDATA, add(CFA_XSP16, literal(-9)))
          CFI V0 load(1, XDATA, add(CFA_XSP16, literal(-10)))
          CFI VB load(1, XDATA, add(CFA_XSP16, literal(-11)))
          CFI R6 load(1, XDATA, add(CFA_XSP16, literal(-12)))
          CFI CFA_SP SP+0
          CFI CFA_XSP16 add(XSP16, 12)
        ; Saved register size: 12
        ; Auto size: 129
        MOV       A,#0x7f
        LCALL     ?ALLOC_XSTACK8
          CFI CFA_XSP16 add(XSP16, 141)
        MOV       A,R2
        MOV       R6,A
        MOV       A,R3
        MOV       R7,A
//  255   afIncomingMSGPacket_t *MSGpkt;
//  256 
//  257   (void)task_id;  // Intentionally unreferenced parameter
//  258 
//  259   if ( events & SYS_EVENT_MSG )
        ANL       A,#0x80
        JNZ       ??zclZEM_event_loop_0
//  260   {
//  261     while ( (MSGpkt = (afIncomingMSGPacket_t *)osal_msg_receive( zclZEM_TaskID )) )
//  262     {
//  263       switch ( MSGpkt->hdr.event )
//  264       {
//  265         case ZCL_INCOMING_MSG:
//  266           // Incoming ZCL Foundation command/response messages
//  267           zclZEM_ProcessIncomingMsg( (zclIncomingMsg_t *)MSGpkt );
//  268           break;
//  269 
//  270         case AF_INCOMING_MSG_CMD:
//  271           // Incoming AF data messages
//  272           zclZEM_AF_RxProc( MSGpkt );
//  273           break;
//  274 
//  275         case KEY_CHANGE:
//  276           zclZEM_HandleKeys( ((keyChange_t *)MSGpkt)->state, ((keyChange_t *)MSGpkt)->keys );
//  277           break;
//  278 
//  279         case ZDO_STATE_CHANGE:
//  280           // 
//  281           {
//  282             uint8 newState = ((uint8*)MSGpkt)[0];
//  283             zclZEM_NwkState = newState; // 
//  284             
//  285             if (newState == 5) // DEV_END_DEVICE
//  286             {
//  287               // 
//  288               uint8 successMsg[] = "Network joined successfully!\r\n";
//  289               HalUARTWrite(HAL_UART_PORT_0, successMsg, sizeof(successMsg)-1);
//  290               
//  291               // MAC
//  292               #ifndef ZDO_COORDINATOR
//  293               zclZEM_SendMACToCoordinator();
//  294               #endif
//  295             }
//  296             else if (newState == 9) // DEV_NWK_ORPHAN
//  297             {
//  298               // 
//  299               #ifndef ZDO_COORDINATOR
//  300               {
//  301                 static uint8 retryCount = 0;
//  302                 if (retryCount < 3)
//  303                 {
//  304                   retryCount++;
//  305                   osal_start_timerEx(zclZEM_TaskID, ZEM_REJOIN_EVT, 2000);
//  306                 }
//  307               }
//  308               #endif
//  309             }
//  310           }
//  311           break;
//  312 
//  313         default:
//  314           break;
//  315       }
//  316 
//  317       // Release the memory
//  318       osal_msg_deallocate( (uint8 *)MSGpkt );
//  319     }
//  320 
//  321     // return unprocessed events
//  322     return (events ^ SYS_EVENT_MSG);
//  323   }
//  324 
//  325   // LEDSYS_EVENT_MSG
//  326   if(events & ZEMAPP_EVT)
        MOV       A,R6
        ANL       A,#0x80
        JNZ       $+5
        LJMP      ??zclZEM_event_loop_1 & 0xFFFF
//  327   {
//  328     uint8 debugMsg[] = "ZEMAPP_EVTLED...\r\n";
        MOV       DPTR,#`?<Constant "ZEMAPP_EVT\\344\\272\\213\\344\\273\\266`
        MOV       A,#0x53
        LCALL     ?XSTACK_DISP102_8
        MOV       A,#0x2e
        LCALL     ?MOVE_LONG8_XDATA_XDATA
//  329     HalUARTWrite(HAL_UART_PORT_0, debugMsg, sizeof(debugMsg)-1);
        ; Setup parameters for call to function HalUARTWrite
        MOV       R4,#0x2d
        MOV       R5,A
        MOV       A,#0x53
        LCALL     ?XSTACK_DISP101_8
        MOV       R1,#0x0
        LCALL     `??HalUARTWrite::?relay`; Banked call to: HalUARTWrite
//  330     
//  331     HalLedBlink(
//  332         HAL_LED_1, // LED1
//  333         10, // 10
//  334         50, // 50%LED
//  335         1000); // 1000ms
        ; Setup parameters for call to function HalLedBlink
        MOV       R4,#-0x18
        MOV       R5,#0x3
        MOV       R3,#0x32
        MOV       R2,#0xa
        MOV       R1,#0x1
        LCALL     `??HalLedBlink::?relay`; Banked call to: HalLedBlink
//  336         
//  337     uint8 debugMsg2[] = "LED...\r\n";
        MOV       DPTR,#`?<Constant "LED\\351\\227\\252\\347\\203\\201\\345\\22`
        MOV       A,#0x1a
        LCALL     ?XSTACK_DISP102_8
        MOV       A,#0x39
        LCALL     ?MOVE_LONG8_XDATA_XDATA
//  338     HalUARTWrite(HAL_UART_PORT_0, debugMsg2, sizeof(debugMsg2)-1);
        ; Setup parameters for call to function HalUARTWrite
        MOV       R4,#0x38
        MOV       R5,A
        MOV       A,#0x1a
        LCALL     ?XSTACK_DISP101_8
        MOV       R1,#0x0
        LCALL     `??HalUARTWrite::?relay`; Banked call to: HalUARTWrite
//  339     
//  340     // LED
//  341     osal_start_timerEx(zclZEM_TaskID, ZEMAPP_EVT, 10000);
        ; Setup parameters for call to function osal_start_timerEx
        MOV       DPTR,#__Constant_2710
        LCALL     ?PUSH_XSTACK8_X_FOUR
          CFI CFA_XSP16 add(XSP16, 145)
        MOV       R2,#-0x80
        MOV       R3,#0x0
        MOV       DPTR,#zclZEM_TaskID
        MOVX      A,@DPTR
        MOV       R1,A
        LCALL     `??osal_start_timerEx::?relay`; Banked call to: osal_start_timerEx
        MOV       A,#0x4
        LCALL     ?DEALLOC_XSTACK8
          CFI CFA_XSP16 add(XSP16, 141)
//  342     
//  343     return (events ^ ZEMAPP_EVT);
        MOV       A,R6
        XRL       A,#0x80
        MOV       R2,A
        MOV       A,R7
        LJMP      ??zclZEM_event_loop_2 & 0xFFFF
//  344   }
??zclZEM_event_loop_3:
        MOV       DPTR,#zclZEM_NwkState
        MOV       A,#-0x2f
        MOVX      @DPTR,A
??zclZEM_event_loop_4:
        ; Setup parameters for call to function osal_msg_deallocate
        MOV       R2,?V0
        MOV       R3,?V1
        LCALL     `??osal_msg_deallocate::?relay`; Banked call to: osal_msg_deallocate
??zclZEM_event_loop_0:
        ; Setup parameters for call to function osal_msg_receive
        MOV       DPTR,#zclZEM_TaskID
        MOVX      A,@DPTR
        MOV       R1,A
        LCALL     `??osal_msg_receive::?relay`; Banked call to: osal_msg_receive
        MOV       ?V0,R2
        MOV       ?V1,R3
        MOV       A,R2
        ORL       A,?V1
        JZ        ??zclZEM_event_loop_5
        MOV       DPL,R2
        MOV       DPH,R3
        MOVX      A,@DPTR
        ADD       A,#-0x1a
        JZ        ??zclZEM_event_loop_6
        ADD       A,#-0x1a
        JZ        ??zclZEM_event_loop_7
        ADD       A,#0x63
        JZ        ??zclZEM_event_loop_3
        SJMP      ??zclZEM_event_loop_4
??zclZEM_event_loop_7:
        ; Setup parameters for call to function zclZEM_ProcessIncomingMsg
        LCALL     `??zclZEM_ProcessIncomingMsg::?relay`; Banked call to: zclZEM_ProcessIncomingMsg
        SJMP      ??zclZEM_event_loop_4
??zclZEM_event_loop_6:
        ; Setup parameters for call to function zclZEM_AF_RxProc
        LCALL     `??zclZEM_AF_RxProc::?relay`; Banked call to: zclZEM_AF_RxProc
        SJMP      ??zclZEM_event_loop_4
??zclZEM_event_loop_5:
        MOV       A,R6
        MOV       R2,A
        MOV       A,R7
        XRL       A,#0x80
        LJMP      ??zclZEM_event_loop_2 & 0xFFFF
//  345   
//  346 #if ZG_BUILD_ENDDEVICE_TYPE    
//  347   if ( events & ZEM_END_DEVICE_REJOIN_EVT )
//  348   {
//  349     bdb_ZedAttemptRecoverNwk();
//  350     return ( events ^ ZEM_END_DEVICE_REJOIN_EVT );
//  351   }
//  352 #endif
//  353 
//  354   if ( events & ZEM_LCD_AUTO_UPDATE_EVT )
??zclZEM_event_loop_1:
        MOV       A,R6
        ANL       A,#0x10
        JZ        ??zclZEM_event_loop_8
//  355   {
//  356     return ( events ^ ZEM_LCD_AUTO_UPDATE_EVT );
        MOV       A,R6
        XRL       A,#0x10
        SJMP      ??zclZEM_event_loop_9
//  357   }
//  358 
//  359   if ( events & ZEM_KEY_AUTO_REPEAT_EVT )
??zclZEM_event_loop_8:
        MOV       A,R6
        ANL       A,#0x20
        JZ        ??zclZEM_event_loop_10
//  360   {
//  361     return ( events ^ ZEM_KEY_AUTO_REPEAT_EVT );
        MOV       A,R6
        XRL       A,#0x20
??zclZEM_event_loop_9:
        MOV       R2,A
        LJMP      ??zclZEM_event_loop_11 & 0xFFFF
//  362   }
//  363   
//  364   // Broadcast event
//  365   if ( events & ZEM_BROADCAST_EVT )
//  366   {
//  367     uint8 broadcastData[] = "Broadcast";
//  368     zclZEM_AF_Broadcast(CLUSTER_BROADCAST, 
//  369                         sizeof(broadcastData)-1, 
//  370                         broadcastData);
//  371     osal_start_timerEx(zclZEM_TaskID,
//  372                       ZEM_BROADCAST_EVT,
//  373                       ZEM_BROADCAST_PERIOD);
//  374     return ( events ^ ZEM_BROADCAST_EVT );
//  375   }
//  376   
//  377   // Groupcast event
//  378   if ( events & ZEM_GROUPCAST_EVT )
??zclZEM_event_loop_10:
        MOV       A,R7
        ANL       A,#0x1
        JNZ       $+5
        LJMP      ??zclZEM_event_loop_12 & 0xFFFF
//  379   {
//  380     uint8 groupcastData[] = "Groupcast";
        MOV       DPTR,#`?<Constant "Groupcast">`
        MOV       A,#0x10
        LCALL     ?XSTACK_DISP102_8
        MOV       A,#0xa
        LCALL     ?MOVE_LONG8_XDATA_XDATA
//  381     zclZEM_AF_Groupcast(GROUP_ID,
//  382                         CLUSTER_GROUPCAST,
//  383                         sizeof(groupcastData)-1, 
//  384                         groupcastData);
        MOV       A,#0x8
        LCALL     ?XSTACK_DISP0_8
        MOV       A,#0x1
        MOVX      @DPTR,A
        MOV       DPL,?XSP + 0
        MOV       DPH,?XSP + 1
        MOV       A,#0x15
        MOVX      @DPTR,A
        INC       DPTR
        CLR       A
        MOVX      @DPTR,A
        MOV       A,#0x9
        LCALL     ?XSTACK_DISP0_8
        MOV       A,#0x8
        MOVX      @DPTR,A
        MOV       DPTR,#??transferId_2
        LCALL     ?Subroutine9 & 0xFFFF
??CrossCallReturnLabel_7:
        LCALL     ?PUSH_XSTACK_I_ONE
          CFI CFA_XSP16 add(XSP16, 142)
        MOV       ?V0,#??transferId_2 & 0xff
        MOV       ?V1,#(??transferId_2 >> 8) & 0xff
        MOV       R0,#?V0
        LCALL     ?PUSH_XSTACK_I_TWO
          CFI CFA_XSP16 add(XSP16, 144)
        MOV       A,#0x13
        LCALL     ?XSTACK_DISP100_8
        MOV       ?V0,R0
        MOV       ?V1,R1
        MOV       R0,#?V0
        LCALL     ?PUSH_XSTACK_I_TWO
          CFI CFA_XSP16 add(XSP16, 146)
        MOV       ?V0,#0x9
        MOV       ?V1,#0x0
        MOV       R0,#?V0
        LCALL     ?PUSH_XSTACK_I_TWO
          CFI CFA_XSP16 add(XSP16, 148)
        MOV       ?V0,#0x2
        MOV       R0,#?V0
        LCALL     ?PUSH_XSTACK_I_TWO
          CFI CFA_XSP16 add(XSP16, 150)
        MOV       R1,#0x0
        MOV       R4,#ZEM_AppEp & 0xff
        MOV       R5,#(ZEM_AppEp >> 8) & 0xff
        MOV       A,#0x9
        LCALL     ?XSTACK_DISP101_8
        LCALL     `??AF_DataRequest::?relay`; Banked call to: AF_DataRequest
        MOV       A,#0x9
        LCALL     ?DEALLOC_XSTACK8
          CFI CFA_XSP16 add(XSP16, 141)
//  385     osal_start_timerEx(zclZEM_TaskID,
//  386                       ZEM_GROUPCAST_EVT,
//  387                       ZEM_GROUPCAST_PERIOD);
        ; Setup parameters for call to function osal_start_timerEx
        MOV       DPTR,#__Constant_3e8
        LCALL     ?PUSH_XSTACK8_X_FOUR
          CFI CFA_XSP16 add(XSP16, 145)
        MOV       R2,#0x0
        MOV       R3,#0x1
        MOV       DPTR,#zclZEM_TaskID
        MOVX      A,@DPTR
        MOV       R1,A
        LCALL     `??osal_start_timerEx::?relay`; Banked call to: osal_start_timerEx
        MOV       A,#0x4
        LCALL     ?DEALLOC_XSTACK8
          CFI CFA_XSP16 add(XSP16, 141)
//  388     return ( events ^ ZEM_GROUPCAST_EVT );
        MOV       A,R6
        MOV       R2,A
        MOV       A,R7
        XRL       A,#0x1
        LJMP      ??zclZEM_event_loop_2 & 0xFFFF
//  389   }
//  390   
//  391   // P2P event
//  392   if ( events & ZEM_P2P_EVT )
??zclZEM_event_loop_12:
        MOV       A,R7
        ANL       A,#0x2
        JNZ       $+5
        LJMP      ??zclZEM_event_loop_13 & 0xFFFF
//  393   {
//  394     uint8 p2pData[] = "P2P";
        MOV       DPTR,#`?<Constant "P2P">`
        MOV       A,#0xc
        LCALL     ?XSTACK_DISP102_8
        MOV       A,#0x4
        LCALL     ?MOVE_LONG8_XDATA_XDATA
//  395     zclZEM_AF_P2P(0x0000, // 0x0000
//  396                   CLUSTER_P2P,
//  397                   sizeof(p2pData)-1, 
//  398                   p2pData);
        MOV       A,#0x8
        LCALL     ?XSTACK_DISP0_8
        MOV       A,#0x2
        MOVX      @DPTR,A
        MOV       DPL,?XSP + 0
        MOV       DPH,?XSP + 1
        CLR       A
        MOVX      @DPTR,A
        INC       DPTR
        MOVX      @DPTR,A
        MOV       A,#0x9
        LCALL     ?XSTACK_DISP0_8
        MOV       A,#0x8
        MOVX      @DPTR,A
        MOV       DPTR,#??transferId
        LCALL     ?Subroutine9 & 0xFFFF
??CrossCallReturnLabel_8:
        LCALL     ?PUSH_XSTACK_I_ONE
          CFI CFA_XSP16 add(XSP16, 142)
        MOV       ?V0,#??transferId & 0xff
        MOV       ?V1,#(??transferId >> 8) & 0xff
        MOV       R0,#?V0
        LCALL     ?PUSH_XSTACK_I_TWO
          CFI CFA_XSP16 add(XSP16, 144)
        MOV       A,#0xf
        LCALL     ?XSTACK_DISP100_8
        MOV       ?V0,R0
        MOV       ?V1,R1
        MOV       R0,#?V0
        LCALL     ?PUSH_XSTACK_I_TWO
          CFI CFA_XSP16 add(XSP16, 146)
        MOV       ?V0,#0x3
        MOV       ?V1,#0x0
        MOV       R0,#?V0
        LCALL     ?PUSH_XSTACK_I_TWO
          CFI CFA_XSP16 add(XSP16, 148)
        CLR       A
        MOV       ?V0,A
        MOV       R0,#?V0
        LCALL     ?PUSH_XSTACK_I_TWO
          CFI CFA_XSP16 add(XSP16, 150)
        MOV       R1,#0x0
        MOV       R4,#ZEM_AppEp & 0xff
        MOV       R5,#(ZEM_AppEp >> 8) & 0xff
        MOV       A,#0x9
        LCALL     ?XSTACK_DISP101_8
        LCALL     `??AF_DataRequest::?relay`; Banked call to: AF_DataRequest
        MOV       A,#0x9
        LCALL     ?DEALLOC_XSTACK8
          CFI CFA_XSP16 add(XSP16, 141)
//  399     osal_start_timerEx(zclZEM_TaskID,
//  400                       ZEM_P2P_EVT,
//  401                       ZEM_P2P_PERIOD);
        ; Setup parameters for call to function osal_start_timerEx
        MOV       DPTR,#__Constant_3e8
        LCALL     ?PUSH_XSTACK8_X_FOUR
          CFI CFA_XSP16 add(XSP16, 145)
        MOV       R2,#0x0
        MOV       R3,#0x2
        MOV       DPTR,#zclZEM_TaskID
        MOVX      A,@DPTR
        MOV       R1,A
        LCALL     `??osal_start_timerEx::?relay`; Banked call to: osal_start_timerEx
        MOV       A,#0x4
        LCALL     ?DEALLOC_XSTACK8
          CFI CFA_XSP16 add(XSP16, 141)
//  402     return ( events ^ ZEM_P2P_EVT );
        MOV       A,R6
        MOV       R2,A
        MOV       A,R7
        XRL       A,#0x2
??zclZEM_event_loop_2:
        MOV       R3,A
        SJMP      ??zclZEM_event_loop_11
//  403   }
//  404   #ifdef ZDO_COORDINATOR
//  405     if ( events & ZEM_RETRY_FORMATION_EVT )//
//  406     {
//  407         // 
//  408         uint8 failMsg[] = "Network formation failed! Retrying...\r\n";
//  409         HalUARTWrite(HAL_UART_PORT_0, failMsg, sizeof(failMsg)-1);
//  410         
//  411         /*  */
//  412         bdb_StartCommissioning(BDB_COMMISSIONING_MODE_NWK_FORMATION |
//  413                                     BDB_COMMISSIONING_MODE_FINDING_BINDING );
//  414         
//  415         // 5 - 
//  416         osal_start_timerEx(zclZEM_TaskID, ZEM_RETRY_FORMATION_EVT, 5000);
//  417         
//  418       return ( events ^ ZEM_RETRY_FORMATION_EVT );
//  419     }
//  420   #else
//  421     if ( events & ZEM_REJOIN_EVT )//
//  422     {
//  423         // 
//  424         
//  425         /*  */
//  426         bdb_StartCommissioning(BDB_COMMISSIONING_MODE_NWK_STEERING |
//  427                                     BDB_COMMISSIONING_MODE_FINDING_BINDING );
//  428       return ( events ^ ZEM_REJOIN_EVT );
//  429     }
//  430   #endif
//  431 
//  432   // Discard unknown events
//  433   return 0;
??zclZEM_event_loop_13:
        MOV       R2,#0x0
        MOV       R3,#0x0
??zclZEM_event_loop_11:
        MOV       A,#-0x7f
          CFI EndBlock cfiBlock1
        REQUIRE ?Subroutine0
        ; // Fall through to label ?Subroutine0
//  434 }

        RSEG BANKED_CODE:HUGECODE:NOROOT(0)
?Subroutine0:
          CFI Block cfiBlock2 Using cfiCommon0
          CFI NoFunction
          CFI CFA_SP SP+0
          CFI CFA_XSP16 add(XSP16, 141)
          CFI VB load(1, XDATA, add(CFA_XSP16, literal(-11)))
          CFI DPL0 load(1, XDATA, add(CFA_XSP16, literal(-2)))
          CFI DPH0 load(1, XDATA, add(CFA_XSP16, literal(-1)))
          CFI R6 load(1, XDATA, add(CFA_XSP16, literal(-12)))
          CFI R7 load(1, XDATA, add(CFA_XSP16, literal(-6)))
          CFI V0 load(1, XDATA, add(CFA_XSP16, literal(-10)))
          CFI V1 load(1, XDATA, add(CFA_XSP16, literal(-9)))
          CFI V2 load(1, XDATA, add(CFA_XSP16, literal(-8)))
          CFI V3 load(1, XDATA, add(CFA_XSP16, literal(-7)))
          CFI ?BRET_EXT load(1, XDATA, add(CFA_XSP16, literal(-3)))
          CFI ?RET_HIGH load(1, XDATA, add(CFA_XSP16, literal(-4)))
          CFI ?RET_LOW load(1, XDATA, add(CFA_XSP16, literal(-5)))
          CFI Invalid
        LCALL     ?DEALLOC_XSTACK8
          CFI CFA_XSP16 add(XSP16, 12)
          CFI Valid
        MOV       R7,#0x4
        LJMP      ?BANKED_LEAVE_XDATA
          CFI EndBlock cfiBlock2

        RSEG BANKED_CODE:HUGECODE:NOROOT(0)
?Subroutine9:
          CFI Block cfiCond3 Using cfiCommon0
          CFI Function zclZEM_event_loop
          CFI Conditional ??CrossCallReturnLabel_7
          CFI R6 load(1, XDATA, add(CFA_XSP16, literal(-12)))
          CFI VB load(1, XDATA, add(CFA_XSP16, literal(-11)))
          CFI V0 load(1, XDATA, add(CFA_XSP16, literal(-10)))
          CFI V1 load(1, XDATA, add(CFA_XSP16, literal(-9)))
          CFI V2 load(1, XDATA, add(CFA_XSP16, literal(-8)))
          CFI V3 load(1, XDATA, add(CFA_XSP16, literal(-7)))
          CFI R7 load(1, XDATA, add(CFA_XSP16, literal(-6)))
          CFI ?RET_LOW load(1, XDATA, add(CFA_XSP16, literal(-5)))
          CFI ?RET_HIGH load(1, XDATA, add(CFA_XSP16, literal(-4)))
          CFI ?BRET_EXT load(1, XDATA, add(CFA_XSP16, literal(-3)))
          CFI DPL0 load(1, XDATA, add(CFA_XSP16, literal(-2)))
          CFI DPH0 load(1, XDATA, add(CFA_XSP16, literal(-1)))
          CFI CFA_SP SP+-2
          CFI CFA_XSP16 add(XSP16, 141)
          CFI Block cfiCond4 Using cfiCommon0
          CFI (cfiCond4) Function zclZEM_event_loop
          CFI (cfiCond4) Conditional ??CrossCallReturnLabel_8
          CFI (cfiCond4) R6 load(1, XDATA, add(CFA_XSP16, literal(-12)))
          CFI (cfiCond4) VB load(1, XDATA, add(CFA_XSP16, literal(-11)))
          CFI (cfiCond4) V0 load(1, XDATA, add(CFA_XSP16, literal(-10)))
          CFI (cfiCond4) V1 load(1, XDATA, add(CFA_XSP16, literal(-9)))
          CFI (cfiCond4) V2 load(1, XDATA, add(CFA_XSP16, literal(-8)))
          CFI (cfiCond4) V3 load(1, XDATA, add(CFA_XSP16, literal(-7)))
          CFI (cfiCond4) R7 load(1, XDATA, add(CFA_XSP16, literal(-6)))
          CFI (cfiCond4) ?RET_LOW load(1, XDATA, add(CFA_XSP16, literal(-5)))
          CFI (cfiCond4) ?RET_HIGH load(1, XDATA, add(CFA_XSP16, literal(-4)))
          CFI (cfiCond4) ?BRET_EXT load(1, XDATA, add(CFA_XSP16, literal(-3)))
          CFI (cfiCond4) DPL0 load(1, XDATA, add(CFA_XSP16, literal(-2)))
          CFI (cfiCond4) DPH0 load(1, XDATA, add(CFA_XSP16, literal(-1)))
          CFI (cfiCond4) CFA_SP SP+-2
          CFI (cfiCond4) CFA_XSP16 add(XSP16, 141)
          CFI Block cfiPicker5 Using cfiCommon1
          CFI (cfiPicker5) NoFunction
          CFI (cfiPicker5) Picker
        MOVX      A,@DPTR
        INC       A
        MOVX      @DPTR,A
        ; Setup parameters for call to function AF_DataRequest
        ; Setup parameters for call to function AF_DataRequest
        MOV       ?V0,#0x1e
        MOV       R0,#?V0
        RET
          CFI EndBlock cfiCond3
          CFI EndBlock cfiCond4
          CFI EndBlock cfiPicker5
//  435 
//  436 /*********************************************************************
//  437  * @fn      zclZEM_InitUart
//  438  *
//  439  * @brief   Initialize UART for communication
//  440  *
//  441  * @param   none
//  442  *
//  443  * @return  none
//  444  */
//  445 static void zclZEM_InitUart(void)
//  446 {
//  447   // UARTP1.4/P1.5
//  448   /********** 1. UART0P1.4/P1.5PERCFG **********/
//  449   // PERCFGbit0(U0CFG)1UART0Alternative 2(P1.4/P1.5)
//  450   PERCFG |= (1 << 0);  // PERCFG |= 0x01bit0
//  451 
//  452   /********** 2. P1.4/P1.5UART0P1 **********/
//  453   // P1SELbit4(P1.4)bit5(P1.5)1(UART)
//  454   P1SEL |= (1 << 4) | (1 << 5);  // P1SEL |= 0x30(00110000)
//  455   // P1DIRbit4(P1.4=TX)1bit5(P1.5=RX)0
//  456   P1DIR |= (1 << 4);   // P1.4(TX)
//  457   P1DIR &= ~(1 << 5);  // P1.5(RX)
//  458 
//  459   halUARTCfg_t uartConfig;
//  460   /* UART Configuration */
//  461   uartConfig.configured          = TRUE;      // Enable configuration
//  462   uartConfig.baudRate            = HAL_UART_BR_115200;  // Baud rate
//  463   uartConfig.flowControl         = FALSE;     // Disable hardware flow control
//  464   uartConfig.flowControlThreshold= 0;         // Flow control threshold
//  465   uartConfig.rx.maxBufSize       = ZCLZEM_UART_BUF_LEN;  // Receive buffer size
//  466   uartConfig.tx.maxBufSize       = 0;         // Transmit buffer size
//  467   uartConfig.idleTimeout         = 6;         // Default timeout
//  468   uartConfig.intEnable           = TRUE;      // Enable interrupt
//  469   uartConfig.callBackFunc        = zclZEM_UartCB;  // Set callback function
//  470   /* Start UART */
//  471   // UART0
//  472   HalUARTOpen(HAL_UART_PORT_0, &uartConfig);  // Open UART0 with configuration
//  473 }
//  474 
//  475 
//  476 void zclZEM_SendMACToCoordinator(void)
//  477 {
//  478   uint8* macAddr;
//  479   uint8 macData[10]; // MAC1 + 8MAC + 1
//  480   
//  481   // MAC
//  482   macAddr = NLME_GetExtAddr();
//  483   
//  484   // 
//  485   macData[0] = 0x01; // MAC
//  486   osal_memcpy(&macData[1], macAddr, 8); // MAC
//  487   macData[9] = 0x00; // 
//  488   
//  489   // 0x0000
//  490   zclZEM_AF_P2P(0x0000, // 
//  491                 CLUSTER_P2P, // 
//  492                 10, // 
//  493                 macData); // 
//  494   
//  495   // 
//  496   uint8 sendMsg[] = "MAC address sent to coordinator!\r\n";
//  497   HalUARTWrite(HAL_UART_PORT_0, sendMsg, sizeof(sendMsg)-1);
//  498 }
//  499 
//  500 /*********************************************************************
//  501  * @fn      zclZEM_ReadAndSendMAC
//  502  *
//  503  * @brief   Read MAC address and send it via UART
//  504  *
//  505  */

        RSEG BANKED_CODE:HUGECODE:NOROOT(0)
//  506 void zclZEM_ReadAndSendMAC(void)
zclZEM_ReadAndSendMAC:
          CFI Block cfiBlock6 Using cfiCommon0
          CFI Function zclZEM_ReadAndSendMAC
        CODE
//  507 {
        FUNCALL zclZEM_ReadAndSendMAC, NLME_GetExtAddr
        LOCFRAME ISTACK, 0, STACK
        LOCFRAME PSTACK, 0, STACK
        LOCFRAME XSTACK, 68, STACK
        LOCFRAME IOVERLAY, 0, STATIC
        LOCFRAME DOVERLAY, 0, STATIC
        ARGFRAME ISTACK, 0, STACK
        ARGFRAME PSTACK, 0, STACK
        ARGFRAME XSTACK, 68, STACK
        ARGFRAME IOVERLAY, 0, STATIC
        ARGFRAME DOVERLAY, 0, STATIC
        FUNCALL zclZEM_ReadAndSendMAC, osal_memcpy
        LOCFRAME ISTACK, 0, STACK
        LOCFRAME PSTACK, 0, STACK
        LOCFRAME XSTACK, 71, STACK
        LOCFRAME IOVERLAY, 0, STATIC
        LOCFRAME DOVERLAY, 0, STATIC
        ARGFRAME ISTACK, 0, STACK
        ARGFRAME PSTACK, 0, STACK
        ARGFRAME XSTACK, 71, STACK
        ARGFRAME IOVERLAY, 0, STATIC
        ARGFRAME DOVERLAY, 0, STATIC
        FUNCALL zclZEM_ReadAndSendMAC, HalUARTWrite
        LOCFRAME ISTACK, 0, STACK
        LOCFRAME PSTACK, 0, STACK
        LOCFRAME XSTACK, 68, STACK
        LOCFRAME IOVERLAY, 0, STATIC
        LOCFRAME DOVERLAY, 0, STATIC
        ARGFRAME ISTACK, 0, STACK
        ARGFRAME PSTACK, 0, STACK
        ARGFRAME XSTACK, 68, STACK
        ARGFRAME IOVERLAY, 0, STATIC
        ARGFRAME DOVERLAY, 0, STATIC
        REQUIRE ?V0
        REQUIRE ?V1
        REQUIRE ?V2
        REQUIRE ?V3
        MOV       A,#-0xc
        LCALL     ?BANKED_ENTER_XDATA
          CFI DPH0 load(1, XDATA, add(CFA_XSP16, literal(-1)))
          CFI DPL0 load(1, XDATA, add(CFA_XSP16, literal(-2)))
          CFI ?BRET_EXT load(1, XDATA, add(CFA_XSP16, literal(-3)))
          CFI ?RET_HIGH load(1, XDATA, add(CFA_XSP16, literal(-4)))
          CFI ?RET_LOW load(1, XDATA, add(CFA_XSP16, literal(-5)))
          CFI R7 load(1, XDATA, add(CFA_XSP16, literal(-6)))
          CFI V3 load(1, XDATA, add(CFA_XSP16, literal(-7)))
          CFI V2 load(1, XDATA, add(CFA_XSP16, literal(-8)))
          CFI V1 load(1, XDATA, add(CFA_XSP16, literal(-9)))
          CFI V0 load(1, XDATA, add(CFA_XSP16, literal(-10)))
          CFI VB load(1, XDATA, add(CFA_XSP16, literal(-11)))
          CFI R6 load(1, XDATA, add(CFA_XSP16, literal(-12)))
          CFI CFA_SP SP+0
          CFI CFA_XSP16 add(XSP16, 12)
        ; Saved register size: 12
        ; Auto size: 56
        MOV       A,#-0x38
        LCALL     ?ALLOC_XSTACK8
          CFI CFA_XSP16 add(XSP16, 68)
//  508   uint8* macAddr;
//  509   uint8 macStr[50]; // MAC
//  510   uint8 i, pos = 0;
//  511   
//  512   // Read MAC address from system
//  513   macAddr = NLME_GetExtAddr();
        ; Setup parameters for call to function NLME_GetExtAddr
        LCALL     `??NLME_GetExtAddr::?relay`; Banked call to: NLME_GetExtAddr
        MOV       ?V0,R2
        MOV       ?V1,R3
        MOV       R6,?V0
        MOV       R7,?V1
//  514   
//  515   // MAC
//  516   const uint8 header[] = "MAC: ";
        MOV       DPTR,#`?<Constant "MAC: ">`
        MOV       R4,?XSP + 0
        MOV       R5,?XSP + 1
        MOV       A,#0x6
        LCALL     ?MOVE_LONG8_XDATA_XDATA
//  517   osal_memcpy(macStr, header, 4);
        ; Setup parameters for call to function osal_memcpy
        MOV       R0,?XSP + 0
        MOV       R1,?XSP + 1
        MOV       ?V0,R0
        MOV       ?V1,R1
        MOV       ?V2,A
        MOV       R0,#?V0
        LCALL     ?PUSH_XSTACK_I_THREE
          CFI CFA_XSP16 add(XSP16, 71)
        MOV       R4,#0x4
        MOV       R5,#0x0
        MOV       A,#0x9
        LCALL     ?XSTACK_DISP101_8
        LCALL     `??osal_memcpy::?relay`; Banked call to: osal_memcpy
        MOV       A,#0x3
        LCALL     ?DEALLOC_XSTACK8
          CFI CFA_XSP16 add(XSP16, 68)
//  518   pos = 4;
        MOV       R0,#0x4
//  519   
//  520   // MAC
//  521   for (i = 0; i < 8; i++) {
        MOV       R4,#0x0
//  522     // 4
//  523     uint8 highNibble = (macAddr[i] >> 4) & 0x0F;
??zclZEM_ReadAndSendMAC_0:
        MOV       A,R4
        MOV       R2,A
        MOV       A,R6
        ADD       A,R2
        MOV       R2,A
        CLR       A
        ADDC      A,R7
        MOV       R3,A
        MOV       DPL,R2
        MOV       DPH,R3
        MOVX      A,@DPTR
        SWAP      A
        ANL       A,#0xf
        MOV       R1,A
//  524     macStr[pos++] = (highNibble < 10) ? ('0' + highNibble) : ('A' + highNibble - 10);
        MOV       ?V0,R0
        MOV       A,#0x1
        ADD       A,R0
        MOV       R0,A
        MOV       A,R1
        CLR       C
        SUBB      A,#0xa
        JNC       ??zclZEM_ReadAndSendMAC_1
        MOV       A,#0x30
        SJMP      ??zclZEM_ReadAndSendMAC_2
??zclZEM_ReadAndSendMAC_1:
        MOV       A,#0x37
??zclZEM_ReadAndSendMAC_2:
        ADD       A,R1
        PUSH      A
          CFI CFA_SP SP+-1
        MOV       A,?V0
        MOV       ?V2,A
        MOV       A,#0x6
        LCALL     ?XSTACK_DISP0_8
        MOV       A,DPL
        ADD       A,?V2
        MOV       DPL,A
        CLR       A
        ADDC      A,DPH
        MOV       DPH,A
        POP       A
          CFI CFA_SP SP+0
        MOVX      @DPTR,A
//  525     
//  526     // 4
//  527     uint8 lowNibble = macAddr[i] & 0x0F;
        MOV       DPL,R2
        MOV       DPH,R3
        MOVX      A,@DPTR
        ANL       A,#0xf
        MOV       R1,A
//  528     macStr[pos++] = (lowNibble < 10) ? ('0' + lowNibble) : ('A' + lowNibble - 10);
        MOV       ?V1,R0
        MOV       A,#0x1
        ADD       A,R0
        MOV       R0,A
        MOV       A,R1
        CLR       C
        SUBB      A,#0xa
        JNC       ??zclZEM_ReadAndSendMAC_3
        MOV       A,#0x30
        SJMP      ??zclZEM_ReadAndSendMAC_4
??zclZEM_ReadAndSendMAC_3:
        MOV       A,#0x37
??zclZEM_ReadAndSendMAC_4:
        ADD       A,R1
        MOV       R1,A
        MOV       R2,?V1
        MOV       A,#0x6
        LCALL     ?XSTACK_DISP0_8
        LCALL     ?Subroutine10 & 0xFFFF
??CrossCallReturnLabel_9:
        MOV       A,R1
        MOVX      @DPTR,A
//  529     
//  530     // 
//  531     if (i < 7) {
        MOV       A,R4
        CLR       C
        SUBB      A,#0x7
        JNC       ??zclZEM_ReadAndSendMAC_5
//  532       macStr[pos++] = ':';
        MOV       A,#0x6
        LCALL     ?XSTACK_DISP0_8
        LCALL     ?Subroutine11 & 0xFFFF
//  533     }
//  534   }
??CrossCallReturnLabel_11:
        MOV       A,#0x3a
        MOVX      @DPTR,A
        INC       R0
??zclZEM_ReadAndSendMAC_5:
        INC       R4
        MOV       A,R4
        CLR       C
        SUBB      A,#0x8
        JC        ??zclZEM_ReadAndSendMAC_0
//  535   
//  536   // 
//  537   macStr[pos++] = '\r';
        MOV       A,R0
        MOV       R2,A
        MOV       A,#0x6
        LCALL     ?XSTACK_DISP0_8
        LCALL     ?Subroutine10 & 0xFFFF
??CrossCallReturnLabel_10:
        MOV       A,#0xd
        MOVX      @DPTR,A
        INC       R0
//  538   macStr[pos++] = '\n';
        MOV       A,#0x6
        LCALL     ?XSTACK_DISP0_8
        LCALL     ?Subroutine11 & 0xFFFF
??CrossCallReturnLabel_12:
        MOV       A,#0xa
        MOVX      @DPTR,A
//  539   
//  540   // Send MAC address via UART
//  541   // UART0
//  542   HalUARTWrite(HAL_UART_PORT_0, macStr, pos);
        ; Setup parameters for call to function HalUARTWrite
        MOV       A,#0x1
        ADD       A,R0
        MOV       R4,A
        MOV       R5,#0x0
        MOV       A,#0x6
        LCALL     ?XSTACK_DISP101_8
        MOV       R1,#0x0
        LCALL     `??HalUARTWrite::?relay`; Banked call to: HalUARTWrite
//  543 }
        MOV       A,#0x38
        LJMP      ?Subroutine0 & 0xFFFF
          CFI EndBlock cfiBlock6

        RSEG BANKED_CODE:HUGECODE:NOROOT(0)
?Subroutine11:
          CFI Block cfiCond7 Using cfiCommon0
          CFI Function zclZEM_ReadAndSendMAC
          CFI Conditional ??CrossCallReturnLabel_11
          CFI R6 load(1, XDATA, add(CFA_XSP16, literal(-12)))
          CFI VB load(1, XDATA, add(CFA_XSP16, literal(-11)))
          CFI V0 load(1, XDATA, add(CFA_XSP16, literal(-10)))
          CFI V1 load(1, XDATA, add(CFA_XSP16, literal(-9)))
          CFI V2 load(1, XDATA, add(CFA_XSP16, literal(-8)))
          CFI V3 load(1, XDATA, add(CFA_XSP16, literal(-7)))
          CFI R7 load(1, XDATA, add(CFA_XSP16, literal(-6)))
          CFI ?RET_LOW load(1, XDATA, add(CFA_XSP16, literal(-5)))
          CFI ?RET_HIGH load(1, XDATA, add(CFA_XSP16, literal(-4)))
          CFI ?BRET_EXT load(1, XDATA, add(CFA_XSP16, literal(-3)))
          CFI DPL0 load(1, XDATA, add(CFA_XSP16, literal(-2)))
          CFI DPH0 load(1, XDATA, add(CFA_XSP16, literal(-1)))
          CFI CFA_SP SP+-2
          CFI CFA_XSP16 add(XSP16, 68)
          CFI Block cfiCond8 Using cfiCommon0
          CFI (cfiCond8) Function zclZEM_ReadAndSendMAC
          CFI (cfiCond8) Conditional ??CrossCallReturnLabel_12
          CFI (cfiCond8) R6 load(1, XDATA, add(CFA_XSP16, literal(-12)))
          CFI (cfiCond8) VB load(1, XDATA, add(CFA_XSP16, literal(-11)))
          CFI (cfiCond8) V0 load(1, XDATA, add(CFA_XSP16, literal(-10)))
          CFI (cfiCond8) V1 load(1, XDATA, add(CFA_XSP16, literal(-9)))
          CFI (cfiCond8) V2 load(1, XDATA, add(CFA_XSP16, literal(-8)))
          CFI (cfiCond8) V3 load(1, XDATA, add(CFA_XSP16, literal(-7)))
          CFI (cfiCond8) R7 load(1, XDATA, add(CFA_XSP16, literal(-6)))
          CFI (cfiCond8) ?RET_LOW load(1, XDATA, add(CFA_XSP16, literal(-5)))
          CFI (cfiCond8) ?RET_HIGH load(1, XDATA, add(CFA_XSP16, literal(-4)))
          CFI (cfiCond8) ?BRET_EXT load(1, XDATA, add(CFA_XSP16, literal(-3)))
          CFI (cfiCond8) DPL0 load(1, XDATA, add(CFA_XSP16, literal(-2)))
          CFI (cfiCond8) DPH0 load(1, XDATA, add(CFA_XSP16, literal(-1)))
          CFI (cfiCond8) CFA_SP SP+-2
          CFI (cfiCond8) CFA_XSP16 add(XSP16, 68)
          CFI Block cfiPicker9 Using cfiCommon1
          CFI (cfiPicker9) NoFunction
          CFI (cfiPicker9) Picker
        MOV       A,DPL
        ADD       A,R0
        MOV       DPL,A
        CLR       A
        ADDC      A,DPH
        MOV       DPH,A
        RET
          CFI EndBlock cfiCond7
          CFI EndBlock cfiCond8
          CFI EndBlock cfiPicker9

        RSEG BANKED_CODE:HUGECODE:NOROOT(0)
?Subroutine10:
          CFI Block cfiCond10 Using cfiCommon0
          CFI Function zclZEM_ReadAndSendMAC
          CFI Conditional ??CrossCallReturnLabel_9
          CFI R6 load(1, XDATA, add(CFA_XSP16, literal(-12)))
          CFI VB load(1, XDATA, add(CFA_XSP16, literal(-11)))
          CFI V0 load(1, XDATA, add(CFA_XSP16, literal(-10)))
          CFI V1 load(1, XDATA, add(CFA_XSP16, literal(-9)))
          CFI V2 load(1, XDATA, add(CFA_XSP16, literal(-8)))
          CFI V3 load(1, XDATA, add(CFA_XSP16, literal(-7)))
          CFI R7 load(1, XDATA, add(CFA_XSP16, literal(-6)))
          CFI ?RET_LOW load(1, XDATA, add(CFA_XSP16, literal(-5)))
          CFI ?RET_HIGH load(1, XDATA, add(CFA_XSP16, literal(-4)))
          CFI ?BRET_EXT load(1, XDATA, add(CFA_XSP16, literal(-3)))
          CFI DPL0 load(1, XDATA, add(CFA_XSP16, literal(-2)))
          CFI DPH0 load(1, XDATA, add(CFA_XSP16, literal(-1)))
          CFI CFA_SP SP+-2
          CFI CFA_XSP16 add(XSP16, 68)
          CFI Block cfiCond11 Using cfiCommon0
          CFI (cfiCond11) Function zclZEM_ReadAndSendMAC
          CFI (cfiCond11) Conditional ??CrossCallReturnLabel_10
          CFI (cfiCond11) R6 load(1, XDATA, add(CFA_XSP16, literal(-12)))
          CFI (cfiCond11) VB load(1, XDATA, add(CFA_XSP16, literal(-11)))
          CFI (cfiCond11) V0 load(1, XDATA, add(CFA_XSP16, literal(-10)))
          CFI (cfiCond11) V1 load(1, XDATA, add(CFA_XSP16, literal(-9)))
          CFI (cfiCond11) V2 load(1, XDATA, add(CFA_XSP16, literal(-8)))
          CFI (cfiCond11) V3 load(1, XDATA, add(CFA_XSP16, literal(-7)))
          CFI (cfiCond11) R7 load(1, XDATA, add(CFA_XSP16, literal(-6)))
          CFI (cfiCond11) ?RET_LOW load(1, XDATA, add(CFA_XSP16, literal(-5)))
          CFI (cfiCond11) ?RET_HIGH load(1, XDATA, add(CFA_XSP16, literal(-4)))
          CFI (cfiCond11) ?BRET_EXT load(1, XDATA, add(CFA_XSP16, literal(-3)))
          CFI (cfiCond11) DPL0 load(1, XDATA, add(CFA_XSP16, literal(-2)))
          CFI (cfiCond11) DPH0 load(1, XDATA, add(CFA_XSP16, literal(-1)))
          CFI (cfiCond11) CFA_SP SP+-2
          CFI (cfiCond11) CFA_XSP16 add(XSP16, 68)
          CFI Block cfiPicker12 Using cfiCommon1
          CFI (cfiPicker12) NoFunction
          CFI (cfiPicker12) Picker
        MOV       A,DPL
        ADD       A,R2
        MOV       DPL,A
        CLR       A
        ADDC      A,DPH
        MOV       DPH,A
        RET
          CFI EndBlock cfiCond10
          CFI EndBlock cfiCond11
          CFI EndBlock cfiPicker12
//  544 
//  545 /*********************************************************************
//  546  * @fn      zclZEM_UartCB
//  547  *
//  548  * @brief   UART callback function
//  549  *
//  550  * @param   port - UART port
//  551  * @param   event - UART event
//  552  *
//  553  * @return  none
//  554  */

        RSEG BANKED_CODE:HUGECODE:NOROOT(0)
//  555 static void zclZEM_UartCB(uint8 port, uint8 event)
zclZEM_UartCB:
          CFI Block cfiBlock13 Using cfiCommon0
          CFI Function zclZEM_UartCB
        CODE
//  556 {
        FUNCALL zclZEM_UartCB, Hal_UART_RxBufLen
        LOCFRAME ISTACK, 0, STACK
        LOCFRAME PSTACK, 0, STACK
        LOCFRAME XSTACK, 9, STACK
        LOCFRAME IOVERLAY, 0, STATIC
        LOCFRAME DOVERLAY, 0, STATIC
        ARGFRAME ISTACK, 0, STACK
        ARGFRAME PSTACK, 0, STACK
        ARGFRAME XSTACK, 9, STACK
        ARGFRAME IOVERLAY, 0, STATIC
        ARGFRAME DOVERLAY, 0, STATIC
        FUNCALL zclZEM_UartCB, HalUARTRead
        LOCFRAME ISTACK, 0, STACK
        LOCFRAME PSTACK, 0, STACK
        LOCFRAME XSTACK, 9, STACK
        LOCFRAME IOVERLAY, 0, STATIC
        LOCFRAME DOVERLAY, 0, STATIC
        ARGFRAME ISTACK, 0, STACK
        ARGFRAME PSTACK, 0, STACK
        ARGFRAME XSTACK, 9, STACK
        ARGFRAME IOVERLAY, 0, STATIC
        ARGFRAME DOVERLAY, 0, STATIC
        FUNCALL zclZEM_UartCB, HalUARTWrite
        LOCFRAME ISTACK, 0, STACK
        LOCFRAME PSTACK, 0, STACK
        LOCFRAME XSTACK, 9, STACK
        LOCFRAME IOVERLAY, 0, STATIC
        LOCFRAME DOVERLAY, 0, STATIC
        ARGFRAME ISTACK, 0, STACK
        ARGFRAME PSTACK, 0, STACK
        ARGFRAME XSTACK, 9, STACK
        ARGFRAME IOVERLAY, 0, STATIC
        ARGFRAME DOVERLAY, 0, STATIC
        MOV       A,#-0x9
        LCALL     ?BANKED_ENTER_XDATA
          CFI DPH0 load(1, XDATA, add(CFA_XSP16, literal(-1)))
          CFI DPL0 load(1, XDATA, add(CFA_XSP16, literal(-2)))
          CFI ?BRET_EXT load(1, XDATA, add(CFA_XSP16, literal(-3)))
          CFI ?RET_HIGH load(1, XDATA, add(CFA_XSP16, literal(-4)))
          CFI ?RET_LOW load(1, XDATA, add(CFA_XSP16, literal(-5)))
          CFI R7 load(1, XDATA, add(CFA_XSP16, literal(-6)))
          CFI V0 load(1, XDATA, add(CFA_XSP16, literal(-7)))
          CFI VB load(1, XDATA, add(CFA_XSP16, literal(-8)))
          CFI R6 load(1, XDATA, add(CFA_XSP16, literal(-9)))
          CFI CFA_SP SP+0
          CFI CFA_XSP16 add(XSP16, 9)
        ; Saved register size: 9
        ; Auto size: 0
//  557   // 
//  558   uint8 rxLen = Hal_UART_RxBufLen(HAL_UART_PORT_0); 
        ; Setup parameters for call to function Hal_UART_RxBufLen
        MOV       R1,#0x0
        LCALL     `??Hal_UART_RxBufLen::?relay`; Banked call to: Hal_UART_RxBufLen
        MOV       A,R2
//  559   if(rxLen != 0) // 0 
        JZ        ??zclZEM_UartCB_0
//  560   {
//  561     // 
//  562     HalUARTRead(HAL_UART_PORT_0, zclZEM_UartBuf, rxLen);
        MOV       R6,A
        ; Setup parameters for call to function HalUARTRead
        MOV       R4,A
        MOV       R5,#0x0
        MOV       R2,#zclZEM_UartBuf & 0xff
        MOV       R3,#(zclZEM_UartBuf >> 8) & 0xff
        MOV       R1,#0x0
        LCALL     `??HalUARTRead::?relay`; Banked call to: HalUARTRead
//  563     // 
//  564     HalUARTWrite(HAL_UART_PORT_0, zclZEM_UartBuf, rxLen);  
        ; Setup parameters for call to function HalUARTWrite
        MOV       A,R6
        MOV       R4,A
        MOV       R5,#0x0
        MOV       R2,#zclZEM_UartBuf & 0xff
        MOV       R3,#(zclZEM_UartBuf >> 8) & 0xff
        MOV       R1,#0x0
        LCALL     `??HalUARTWrite::?relay`; Banked call to: HalUARTWrite
//  565   }
//  566 }
??zclZEM_UartCB_0:
          CFI EndBlock cfiBlock13
        REQUIRE ?Subroutine1
        ; // Fall through to label ?Subroutine1

        RSEG BANKED_CODE:HUGECODE:NOROOT(0)
?Subroutine1:
          CFI Block cfiBlock14 Using cfiCommon0
          CFI NoFunction
          CFI CFA_SP SP+0
          CFI CFA_XSP16 add(XSP16, 9)
          CFI VB load(1, XDATA, add(CFA_XSP16, literal(-8)))
          CFI DPL0 load(1, XDATA, add(CFA_XSP16, literal(-2)))
          CFI DPH0 load(1, XDATA, add(CFA_XSP16, literal(-1)))
          CFI R6 load(1, XDATA, add(CFA_XSP16, literal(-9)))
          CFI R7 load(1, XDATA, add(CFA_XSP16, literal(-6)))
          CFI V0 load(1, XDATA, add(CFA_XSP16, literal(-7)))
          CFI ?BRET_EXT load(1, XDATA, add(CFA_XSP16, literal(-3)))
          CFI ?RET_HIGH load(1, XDATA, add(CFA_XSP16, literal(-4)))
          CFI ?RET_LOW load(1, XDATA, add(CFA_XSP16, literal(-5)))
        MOV       R7,#0x1
        LJMP      ?BANKED_LEAVE_XDATA
          CFI EndBlock cfiBlock14
//  567 
//  568 /*********************************************************************
//  569  * @fn      zclZEM_HandleKeys
//  570  *
//  571  * @brief   Handles all key events for this device.
//  572  *
//  573  * @param   shift - true if in shift/alt.
//  574  * @param   keys - bit field for key events. Valid entries:
//  575  *                 HAL_KEY_SW_5
//  576  *                 HAL_KEY_SW_4
//  577  *                 HAL_KEY_SW_3
//  578  *                 HAL_KEY_SW_2
//  579  *                 HAL_KEY_SW_1
//  580  *
//  581  * @return  none
//  582  */
//  583 static void zclZEM_HandleKeys( byte shift, byte keys )
//  584 {
//  585 }
//  586 
//  587 /*********************************************************************
//  588  * @fn      zclZEM_LcdDisplayMainMode
//  589  *
//  590  * @brief   Called to display the main screen on the LCD.
//  591  *
//  592  * @param   none
//  593  *
//  594  * @return  none
//  595  */

        RSEG BANKED_CODE:HUGECODE:NOROOT(0)
//  596 static void zclZEM_ProcessCommissioningStatus(bdbCommissioningModeMsg_t* bdbCommissioningModeMsg)
zclZEM_ProcessCommissioningStatus:
          CFI Block cfiBlock15 Using cfiCommon0
          CFI Function zclZEM_ProcessCommissioningStatus
        CODE
//  597 {
        FUNCALL zclZEM_ProcessCommissioningStatus, bdb_StartCommissioning
        LOCFRAME ISTACK, 2, STACK
        LOCFRAME PSTACK, 0, STACK
        LOCFRAME XSTACK, 114, STACK
        LOCFRAME IOVERLAY, 0, STATIC
        LOCFRAME DOVERLAY, 0, STATIC
        ARGFRAME ISTACK, 2, STACK
        ARGFRAME PSTACK, 0, STACK
        ARGFRAME XSTACK, 114, STACK
        ARGFRAME IOVERLAY, 0, STATIC
        ARGFRAME DOVERLAY, 0, STATIC
        FUNCALL zclZEM_ProcessCommissioningStatus, HalUARTWrite
        LOCFRAME ISTACK, 2, STACK
        LOCFRAME PSTACK, 0, STACK
        LOCFRAME XSTACK, 114, STACK
        LOCFRAME IOVERLAY, 0, STATIC
        LOCFRAME DOVERLAY, 0, STATIC
        ARGFRAME ISTACK, 2, STACK
        ARGFRAME PSTACK, 0, STACK
        ARGFRAME XSTACK, 114, STACK
        ARGFRAME IOVERLAY, 0, STATIC
        ARGFRAME DOVERLAY, 0, STATIC
        FUNCALL zclZEM_ProcessCommissioningStatus, HalUARTWrite
        LOCFRAME ISTACK, 2, STACK
        LOCFRAME PSTACK, 0, STACK
        LOCFRAME XSTACK, 114, STACK
        LOCFRAME IOVERLAY, 0, STATIC
        LOCFRAME DOVERLAY, 0, STATIC
        ARGFRAME ISTACK, 2, STACK
        ARGFRAME PSTACK, 0, STACK
        ARGFRAME XSTACK, 114, STACK
        ARGFRAME IOVERLAY, 0, STATIC
        ARGFRAME DOVERLAY, 0, STATIC
        FUNCALL zclZEM_ProcessCommissioningStatus, osal_start_timerEx
        LOCFRAME ISTACK, 2, STACK
        LOCFRAME PSTACK, 0, STACK
        LOCFRAME XSTACK, 118, STACK
        LOCFRAME IOVERLAY, 0, STATIC
        LOCFRAME DOVERLAY, 0, STATIC
        ARGFRAME ISTACK, 2, STACK
        ARGFRAME PSTACK, 0, STACK
        ARGFRAME XSTACK, 118, STACK
        ARGFRAME IOVERLAY, 0, STATIC
        ARGFRAME DOVERLAY, 0, STATIC
        FUNCALL zclZEM_ProcessCommissioningStatus, HalUARTWrite
        LOCFRAME ISTACK, 2, STACK
        LOCFRAME PSTACK, 0, STACK
        LOCFRAME XSTACK, 114, STACK
        LOCFRAME IOVERLAY, 0, STATIC
        LOCFRAME DOVERLAY, 0, STATIC
        ARGFRAME ISTACK, 2, STACK
        ARGFRAME PSTACK, 0, STACK
        ARGFRAME XSTACK, 114, STACK
        ARGFRAME IOVERLAY, 0, STATIC
        ARGFRAME DOVERLAY, 0, STATIC
        PUSH      DPL
          CFI DPL0 Frame(CFA_SP, 4)
          CFI CFA_SP SP+-4
        PUSH      DPH
          CFI DPH0 Frame(CFA_SP, 5)
          CFI CFA_SP SP+-5
        ; Saved register size: 2
        ; Auto size: 114
        MOV       A,#-0x72
        LCALL     ?ALLOC_XSTACK8
          CFI CFA_XSP16 add(XSP16, 114)
//  598     switch(bdbCommissioningModeMsg->bdbCommissioningMode)
        MOV       DPL,R2
        MOV       DPH,R3
        INC       DPTR
        MOVX      A,@DPTR
        DEC       A
        JZ        ??zclZEM_ProcessCommissioningStatus_0
        DEC       A
        JNZ       ??zclZEM_ProcessCommissioningStatus_1
//  599     {
//  600       case BDB_COMMISSIONING_FORMATION:
//  601         if(bdbCommissioningModeMsg->bdbCommissioningStatus == BDB_COMMISSIONING_SUCCESS)
        MOV       DPL,R2
        MOV       DPH,R3
        MOVX      A,@DPTR
        JNZ       ??zclZEM_ProcessCommissioningStatus_2
//  602         {
//  603           //After formation, perform nwk steering again plus the remaining commissioning modes that has not been process yet
//  604           bdb_StartCommissioning(BDB_COMMISSIONING_MODE_NWK_STEERING | bdbCommissioningModeMsg->bdbRemainingCommissioningModes);
        ; Setup parameters for call to function bdb_StartCommissioning
        INC       DPTR
        INC       DPTR
        MOVX      A,@DPTR
        ORL       A,#0x2
        MOV       R1,A
        LCALL     `??bdb_StartCommissioning::?relay`; Banked call to: bdb_StartCommissioning
//  605           // 
//  606           #ifdef ZDO_COORDINATOR
//  607           uint8 successMsg[] = "Network formation successful!\r\n";
        MOV       DPTR,#`?<Constant "Network formation suc...">`
        MOV       A,#0x52
        LCALL     ?XSTACK_DISP102_8
        MOV       A,#0x20
        LCALL     ?MOVE_LONG8_XDATA_XDATA
//  608           HalUARTWrite(HAL_UART_PORT_0, successMsg, sizeof(successMsg)-1);
        ; Setup parameters for call to function HalUARTWrite
        MOV       R4,#0x1f
        MOV       R5,A
        MOV       A,#0x52
        LCALL     ?XSTACK_DISP101_8
        MOV       R1,#0x0
        SJMP      ??zclZEM_ProcessCommissioningStatus_3
//  609           #endif
//  610         }
//  611         else
//  612         {
//  613           //Want to try other channels?
//  614           //try with bdb_setChannelAttribute
//  615           // 
//  616           #ifdef ZDO_COORDINATOR
//  617           uint8 failMsg[] = "Network formation failed! Retrying in 5 seconds...\r\n";
??zclZEM_ProcessCommissioningStatus_2:
        MOV       DPTR,#`?<Constant "Network formation fai...">_1`
        MOV       A,#0x1d
        LCALL     ?XSTACK_DISP102_8
        MOV       A,#0x35
        LCALL     ?MOVE_LONG8_XDATA_XDATA
//  618           HalUARTWrite(HAL_UART_PORT_0, failMsg, sizeof(failMsg)-1);
        ; Setup parameters for call to function HalUARTWrite
        MOV       R4,#0x34
        MOV       R5,A
        MOV       A,#0x1d
        LCALL     ?XSTACK_DISP101_8
        MOV       R1,#0x0
        LCALL     `??HalUARTWrite::?relay`; Banked call to: HalUARTWrite
//  619           
//  620           //  - 
//  621           osal_start_timerEx(zclZEM_TaskID, ZEM_RETRY_FORMATION_EVT, 5000);
        ; Setup parameters for call to function osal_start_timerEx
        MOV       DPTR,#__Constant_1388
        LCALL     ?PUSH_XSTACK8_X_FOUR
          CFI CFA_XSP16 add(XSP16, 118)
        MOV       R2,#0x0
        MOV       R3,#0x2
        MOV       DPTR,#zclZEM_TaskID
        MOVX      A,@DPTR
        MOV       R1,A
        LCALL     `??osal_start_timerEx::?relay`; Banked call to: osal_start_timerEx
        MOV       A,#0x4
        LCALL     ?DEALLOC_XSTACK8
          CFI CFA_XSP16 add(XSP16, 114)
        SJMP      ??zclZEM_ProcessCommissioningStatus_1
//  622           #endif
//  623         }
//  624       break;
//  625       case BDB_COMMISSIONING_NWK_STEERING:
//  626         if(bdbCommissioningModeMsg->bdbCommissioningStatus == BDB_COMMISSIONING_SUCCESS)
??zclZEM_ProcessCommissioningStatus_0:
        MOV       DPL,R2
        MOV       DPH,R3
        MOVX      A,@DPTR
        JNZ       ??zclZEM_ProcessCommissioningStatus_1
//  627         {
//  628           //YOUR JOB:
//  629           //We are on the nwk, what now?
//  630           // 
//  631           #ifdef ZDO_COORDINATOR
//  632           uint8 deviceJoinedMsg[] = "Device joined the network!\r\n";
        MOV       DPTR,#`?<Constant "Device joined the net...">`
        MOV       R4,?XSP + 0
        MOV       R5,?XSP + 1
        MOV       A,#0x1d
        LCALL     ?MOVE_LONG8_XDATA_XDATA
//  633           HalUARTWrite(HAL_UART_PORT_0, deviceJoinedMsg, sizeof(deviceJoinedMsg)-1);
        ; Setup parameters for call to function HalUARTWrite
        MOV       R4,#0x1c
        MOV       R5,A
        MOV       R2,?XSP + 0
        MOV       R3,?XSP + 1
        MOV       R1,A
??zclZEM_ProcessCommissioningStatus_3:
        LCALL     `??HalUARTWrite::?relay`; Banked call to: HalUARTWrite
//  634           #endif
//  635         }
//  636         else
//  637         {
//  638           // 
//  639           #ifdef ZDO_COORDINATOR
//  640           /*  */
//  641           #else
//  642           /*  */
//  643           uint8 failMsg[] = "Network steering failed! Retrying in 1 second...\r\n";
//  644           HalUARTWrite(HAL_UART_PORT_0, failMsg, sizeof(failMsg)-1);
//  645           
//  646           /*  */
//  647           osal_start_timerEx(zclZEM_TaskID, 
//  648                                     ZEM_REJOIN_EVT, 
//  649                                     ZEM_REJOIN_PERIOD);
//  650           #endif
//  651         }
//  652         break;
//  653       case BDB_COMMISSIONING_FINDING_BINDING:
//  654         if(bdbCommissioningModeMsg->bdbCommissioningStatus == BDB_COMMISSIONING_SUCCESS)
//  655         {
//  656           //YOUR JOB:
//  657         }
//  658         else
//  659         {
//  660           //YOUR JOB:
//  661           //retry?, wait for user interaction?
//  662         }
//  663       break;
//  664       case BDB_COMMISSIONING_INITIALIZATION:
//  665         //Initialization notification can only be successful. Failure on initialization 
//  666         //only happens for ZED and is notified as BDB_COMMISSIONING_PARENT_LOST notification
//  667         
//  668         //YOUR JOB:
//  669         //We are on a network, what now?
//  670         
//  671       break;
//  672 #if ZG_BUILD_ENDDEVICE_TYPE    
//  673     case BDB_COMMISSIONING_PARENT_LOST:
//  674       if(bdbCommissioningModeMsg->bdbCommissioningStatus == BDB_COMMISSIONING_NETWORK_RESTORED)
//  675       {
//  676         //We did recover from losing parent
//  677       }
//  678       else
//  679       {
//  680         //Parent not found, attempt to rejoin again after a fixed delay
//  681         //osal_start_timerEx(zclZEM_TaskID, SAMPLEAPP_END_DEVICE_REJOIN_EVT, SAMPLEAPP_END_DEVICE_REJOIN_DELAY);
//  682         
//  683         /*  */
//  684 #ifdef ZDO_COORDINATOR
//  685         /*  */
//  686 #else
//  687       /*  */
//  688       osal_start_timerEx(zclZEM_TaskID, 
//  689                         ZEM_REJOIN_EVT, 
//  690                         ZEM_REJOIN_PERIOD);
//  691 #endif
//  692       }
//  693     break;
//  694 #endif 
//  695     }
//  696 
//  697 }
??zclZEM_ProcessCommissioningStatus_1:
        MOV       A,#0x72
        LCALL     ?DEALLOC_XSTACK8
          CFI EndBlock cfiBlock15
        REQUIRE ?Subroutine2
        ; // Fall through to label ?Subroutine2

        RSEG BANKED_CODE:HUGECODE:NOROOT(0)
?Subroutine2:
          CFI Block cfiBlock16 Using cfiCommon0
          CFI NoFunction
          CFI CFA_SP SP+-5
          CFI DPL0 Frame(CFA_SP, 4)
          CFI DPH0 Frame(CFA_SP, 5)
        POP       DPH
          CFI CFA_SP SP+-4
          CFI DPH0 SameValue
        POP       DPL
          CFI CFA_SP SP+-3
          CFI DPL0 SameValue
        LJMP      ?BRET
          CFI EndBlock cfiBlock16
//  698 
//  699 /*********************************************************************
//  700  * @fn      zclZEM_BasicResetCB
//  701  *
//  702  * @brief   Callback from the ZCL General Cluster Library
//  703  *          to set all the Basic Cluster attributes to default values.
//  704  *
//  705  * @param   none
//  706  *
//  707  * @return  none
//  708  */

        RSEG BANKED_CODE:HUGECODE:NOROOT(0)
//  709 static void zclZEM_BasicResetCB( void )
zclZEM_BasicResetCB:
          CFI Block cfiBlock17 Using cfiCommon0
          CFI Function zclZEM_BasicResetCB
        CODE
//  710 {
        FUNCALL zclZEM_BasicResetCB, zclZEM_ResetAttributesToDefaultValues
        LOCFRAME ISTACK, 2, STACK
        LOCFRAME PSTACK, 0, STACK
        LOCFRAME XSTACK, 0, STACK
        LOCFRAME IOVERLAY, 0, STATIC
        LOCFRAME DOVERLAY, 0, STATIC
        ARGFRAME ISTACK, 2, STACK
        ARGFRAME PSTACK, 0, STACK
        ARGFRAME XSTACK, 0, STACK
        ARGFRAME IOVERLAY, 0, STATIC
        ARGFRAME DOVERLAY, 0, STATIC
        PUSH      DPL
          CFI DPL0 Frame(CFA_SP, 4)
          CFI CFA_SP SP+-4
        PUSH      DPH
          CFI DPH0 Frame(CFA_SP, 5)
          CFI CFA_SP SP+-5
        ; Saved register size: 2
        ; Auto size: 0
//  711   zclZEM_ResetAttributesToDefaultValues();
        ; Setup parameters for call to function zclZEM_ResetAttributesToDefaultValues
        LCALL     `??zclZEM_ResetAttributesToDefaultValues::?relay`; Banked call to: zclZEM_ResetAttributesToDefaultValues
//  712   
//  713 }
        SJMP      ?Subroutine2
          CFI EndBlock cfiBlock17
//  714 
//  715 /*********************************************************************
//  716  * @fn      zclSampleApp_BatteryWarningCB
//  717  *
//  718  * @brief   Called to handle battery-low situation.
//  719  *
//  720  * @param   voltLevel - level of severity
//  721  *
//  722  * @return  none
//  723  */

        RSEG BANKED_CODE:HUGECODE:NOROOT(0)
//  724 void zclSampleApp_BatteryWarningCB( uint8 voltLevel )
zclSampleApp_BatteryWarningCB:
          CFI Block cfiBlock18 Using cfiCommon0
          CFI Function zclSampleApp_BatteryWarningCB
        CODE
//  725 {
        ; Saved register size: 0
        ; Auto size: 0
//  726   if ( voltLevel == VOLT_LEVEL_CAUTIOUS )
//  727   {
//  728     // Send warning message to the gateway and blink LED
//  729   }
//  730   else if ( voltLevel == VOLT_LEVEL_BAD )
//  731   {
//  732     // Shut down the system
//  733   }
//  734 }
        LJMP      ?BRET
          CFI EndBlock cfiBlock18
//  735 
//  736 /******************************************************************************
//  737  *
//  738  *  Functions for processing ZCL Foundation incoming Command/Response messages
//  739  *
//  740  *****************************************************************************/
//  741 
//  742 /*********************************************************************
//  743  * @fn      zclZEM_ProcessIncomingMsg
//  744  *
//  745  * @brief   Process ZCL Foundation incoming message
//  746  *
//  747  * @param   pInMsg - pointer to the received message
//  748  *
//  749  * @return  none
//  750  */

        RSEG BANKED_CODE:HUGECODE:NOROOT(0)
//  751 static void zclZEM_ProcessIncomingMsg( zclIncomingMsg_t *pInMsg)
zclZEM_ProcessIncomingMsg:
          CFI Block cfiBlock19 Using cfiCommon0
          CFI Function zclZEM_ProcessIncomingMsg
        CODE
//  752 {
        FUNCALL zclZEM_ProcessIncomingMsg, zclZEM_ProcessInDiscCmdsRspCmd
        LOCFRAME ISTACK, 0, STACK
        LOCFRAME PSTACK, 0, STACK
        LOCFRAME XSTACK, 9, STACK
        LOCFRAME IOVERLAY, 0, STATIC
        LOCFRAME DOVERLAY, 0, STATIC
        ARGFRAME ISTACK, 0, STACK
        ARGFRAME PSTACK, 0, STACK
        ARGFRAME XSTACK, 9, STACK
        ARGFRAME IOVERLAY, 0, STATIC
        ARGFRAME DOVERLAY, 0, STATIC
        FUNCALL zclZEM_ProcessIncomingMsg, zclZEM_ProcessInDiscCmdsRspCmd
        LOCFRAME ISTACK, 0, STACK
        LOCFRAME PSTACK, 0, STACK
        LOCFRAME XSTACK, 9, STACK
        LOCFRAME IOVERLAY, 0, STATIC
        LOCFRAME DOVERLAY, 0, STATIC
        ARGFRAME ISTACK, 0, STACK
        ARGFRAME PSTACK, 0, STACK
        ARGFRAME XSTACK, 9, STACK
        ARGFRAME IOVERLAY, 0, STATIC
        ARGFRAME DOVERLAY, 0, STATIC
        FUNCALL zclZEM_ProcessIncomingMsg, osal_mem_free
        LOCFRAME ISTACK, 0, STACK
        LOCFRAME PSTACK, 0, STACK
        LOCFRAME XSTACK, 9, STACK
        LOCFRAME IOVERLAY, 0, STATIC
        LOCFRAME DOVERLAY, 0, STATIC
        ARGFRAME ISTACK, 0, STACK
        ARGFRAME PSTACK, 0, STACK
        ARGFRAME XSTACK, 9, STACK
        ARGFRAME IOVERLAY, 0, STATIC
        ARGFRAME DOVERLAY, 0, STATIC
        MOV       A,#-0x9
        LCALL     ?BANKED_ENTER_XDATA
          CFI DPH0 load(1, XDATA, add(CFA_XSP16, literal(-1)))
          CFI DPL0 load(1, XDATA, add(CFA_XSP16, literal(-2)))
          CFI ?BRET_EXT load(1, XDATA, add(CFA_XSP16, literal(-3)))
          CFI ?RET_HIGH load(1, XDATA, add(CFA_XSP16, literal(-4)))
          CFI ?RET_LOW load(1, XDATA, add(CFA_XSP16, literal(-5)))
          CFI R7 load(1, XDATA, add(CFA_XSP16, literal(-6)))
          CFI V0 load(1, XDATA, add(CFA_XSP16, literal(-7)))
          CFI VB load(1, XDATA, add(CFA_XSP16, literal(-8)))
          CFI R6 load(1, XDATA, add(CFA_XSP16, literal(-9)))
          CFI CFA_SP SP+0
          CFI CFA_XSP16 add(XSP16, 9)
        ; Saved register size: 9
        ; Auto size: 0
//  753   switch ( pInMsg->zclHdr.commandID )
        MOV       A,R2
        ADD       A,#0x17
        LCALL     ?Subroutine12 & 0xFFFF
??CrossCallReturnLabel_13:
        INC       DPTR
        INC       DPTR
        INC       DPTR
        MOVX      A,@DPTR
        DEC       A
        JZ        ??zclZEM_ProcessIncomingMsg_0
        ADD       A,#-0x3
        JZ        ??zclZEM_ProcessIncomingMsg_1
        ADD       A,#-0x9
        JZ        ??zclZEM_ProcessIncomingMsg_2
        ADD       A,#-0x5
        JZ        ??zclZEM_ProcessIncomingMsg_3
        ADD       A,#-0x2
        JZ        ??zclZEM_ProcessIncomingMsg_3
        ADD       A,#-0x2
        JZ        ??zclZEM_ProcessIncomingMsg_4
        SJMP      ??zclZEM_ProcessIncomingMsg_5
//  754   {
//  755 #ifdef ZCL_READ
//  756     case ZCL_CMD_READ_RSP:
//  757       zclZEM_ProcessInReadRspCmd( pInMsg );
??zclZEM_ProcessIncomingMsg_0:
        LCALL     ?Subroutine7 & 0xFFFF
??CrossCallReturnLabel_5:
        MOVX      A,@DPTR
        MOV       R1,A
        MOV       A,R0
        CLR       C
        SUBB      A,R1
        JNC       ??zclZEM_ProcessIncomingMsg_5
        INC       R0
        SJMP      ??CrossCallReturnLabel_5
//  758       break;
//  759 #endif
//  760 #ifdef ZCL_WRITE
//  761     case ZCL_CMD_WRITE_RSP:
//  762       zclZEM_ProcessInWriteRspCmd( pInMsg );
??zclZEM_ProcessIncomingMsg_1:
        LCALL     ?Subroutine7 & 0xFFFF
??CrossCallReturnLabel_6:
        MOVX      A,@DPTR
        MOV       R1,A
        MOV       A,R0
        CLR       C
        SUBB      A,R1
        JNC       ??zclZEM_ProcessIncomingMsg_5
        INC       R0
        SJMP      ??CrossCallReturnLabel_6
//  763       break;
//  764 #endif
//  765 #ifdef ZCL_REPORT
//  766     // See ZCL Test Applicaiton (zcl_testapp.c) for sample code on Attribute Reporting
//  767     case ZCL_CMD_CONFIG_REPORT:
//  768       //zclZEM_ProcessInConfigReportCmd( pInMsg );
//  769       break;
//  770       case ZCL_CMD_READ_REPORT_CFG:
//  771       //zclZEM_ProcessInReadReportCfgCmd( pInMsg );
//  772       break;
//  773     case ZCL_CMD_CONFIG_REPORT_RSP:
//  774       //zclZEM_ProcessInConfigReportRspCmd( pInMsg );
//  775       break;
//  776     case ZCL_CMD_READ_REPORT_CFG_RSP:
//  777       //zclZEM_ProcessInReadReportCfgRspCmd( pInMsg );
//  778       break;
//  779 
//  780     case ZCL_CMD_REPORT:
//  781       //zclZEM_ProcessInReportCmd( pInMsg );
//  782       break;
//  783 #endif
//  784     case ZCL_CMD_DEFAULT_RSP:
//  785       zclZEM_ProcessInDefaultRspCmd( pInMsg );
//  786       break;
//  787 #ifdef ZCL_DISCOVER
//  788     case ZCL_CMD_DISCOVER_CMDS_RECEIVED_RSP:
//  789       zclZEM_ProcessInDiscCmdsRspCmd( pInMsg );
??zclZEM_ProcessIncomingMsg_3:
        ; Setup parameters for call to function zclZEM_ProcessInDiscCmdsRspCmd
//  790       break;
//  791 
//  792     case ZCL_CMD_DISCOVER_CMDS_GEN_RSP:
//  793       zclZEM_ProcessInDiscCmdsRspCmd( pInMsg );
        ; Setup parameters for call to function zclZEM_ProcessInDiscCmdsRspCmd
        LCALL     `??zclZEM_ProcessInDiscCmdsRspCmd::?relay`; Banked call to: zclZEM_ProcessInDiscCmdsRspCmd
//  794       break;
        SJMP      ??zclZEM_ProcessIncomingMsg_5
//  795 
//  796     case ZCL_CMD_DISCOVER_ATTRS_RSP:
//  797       zclZEM_ProcessInDiscAttrsRspCmd( pInMsg );
??zclZEM_ProcessIncomingMsg_2:
        LCALL     ?Subroutine8 & 0xFFFF
??CrossCallReturnLabel_18:
        MOV       DPL,R0
        MOV       DPH,R1
        INC       DPTR
        MOVX      A,@DPTR
        MOV       R3,A
        MOV       A,R2
        CLR       C
        SUBB      A,R3
        JNC       ??zclZEM_ProcessIncomingMsg_5
        INC       R2
        SJMP      ??CrossCallReturnLabel_18
//  798       break;
//  799 
//  800     case ZCL_CMD_DISCOVER_ATTRS_EXT_RSP:
//  801       zclZEM_ProcessInDiscAttrsExtRspCmd( pInMsg );
??zclZEM_ProcessIncomingMsg_4:
        LCALL     ?Subroutine8 & 0xFFFF
//  802       break;
//  803 #endif
//  804     default:
//  805       break;
//  806   }
??CrossCallReturnLabel_19:
        SJMP      ??zclZEM_ProcessIncomingMsg_6
??zclZEM_ProcessIncomingMsg_7:
        INC       R2
??zclZEM_ProcessIncomingMsg_6:
        MOV       DPL,R0
        MOV       DPH,R1
        INC       DPTR
        MOVX      A,@DPTR
        MOV       R3,A
        MOV       A,R2
        CLR       C
        SUBB      A,R3
        JC        ??zclZEM_ProcessIncomingMsg_7
//  807 
//  808   if ( pInMsg->attrCmd )
??zclZEM_ProcessIncomingMsg_5:
        MOV       DPL,R6
        MOV       DPH,R7
        MOVX      A,@DPTR
        MOV       R2,A
        INC       DPTR
        MOVX      A,@DPTR
        MOV       R3,A
        MOV       A,R2
        ORL       A,R3
        JZ        ??zclZEM_ProcessIncomingMsg_8
//  809   {
//  810     osal_mem_free( pInMsg->attrCmd );
        ; Setup parameters for call to function osal_mem_free
        LCALL     `??osal_mem_free::?relay`; Banked call to: osal_mem_free
//  811   }
//  812 }
??zclZEM_ProcessIncomingMsg_8:
        LJMP      ?Subroutine1 & 0xFFFF
          CFI EndBlock cfiBlock19

        RSEG BANKED_CODE:HUGECODE:NOROOT(0)
?Subroutine8:
          CFI Block cfiCond20 Using cfiCommon0
          CFI Function zclZEM_ProcessIncomingMsg
          CFI Conditional ??CrossCallReturnLabel_18
          CFI R6 load(1, XDATA, add(CFA_XSP16, literal(-9)))
          CFI VB load(1, XDATA, add(CFA_XSP16, literal(-8)))
          CFI V0 load(1, XDATA, add(CFA_XSP16, literal(-7)))
          CFI R7 load(1, XDATA, add(CFA_XSP16, literal(-6)))
          CFI ?RET_LOW load(1, XDATA, add(CFA_XSP16, literal(-5)))
          CFI ?RET_HIGH load(1, XDATA, add(CFA_XSP16, literal(-4)))
          CFI ?BRET_EXT load(1, XDATA, add(CFA_XSP16, literal(-3)))
          CFI DPL0 load(1, XDATA, add(CFA_XSP16, literal(-2)))
          CFI DPH0 load(1, XDATA, add(CFA_XSP16, literal(-1)))
          CFI CFA_SP SP+-2
          CFI CFA_XSP16 add(XSP16, 9)
          CFI Block cfiCond21 Using cfiCommon0
          CFI (cfiCond21) Function zclZEM_ProcessIncomingMsg
          CFI (cfiCond21) Conditional ??CrossCallReturnLabel_19
          CFI (cfiCond21) R6 load(1, XDATA, add(CFA_XSP16, literal(-9)))
          CFI (cfiCond21) VB load(1, XDATA, add(CFA_XSP16, literal(-8)))
          CFI (cfiCond21) V0 load(1, XDATA, add(CFA_XSP16, literal(-7)))
          CFI (cfiCond21) R7 load(1, XDATA, add(CFA_XSP16, literal(-6)))
          CFI (cfiCond21) ?RET_LOW load(1, XDATA, add(CFA_XSP16, literal(-5)))
          CFI (cfiCond21) ?RET_HIGH load(1, XDATA, add(CFA_XSP16, literal(-4)))
          CFI (cfiCond21) ?BRET_EXT load(1, XDATA, add(CFA_XSP16, literal(-3)))
          CFI (cfiCond21) DPL0 load(1, XDATA, add(CFA_XSP16, literal(-2)))
          CFI (cfiCond21) DPH0 load(1, XDATA, add(CFA_XSP16, literal(-1)))
          CFI (cfiCond21) CFA_SP SP+-2
          CFI (cfiCond21) CFA_XSP16 add(XSP16, 9)
          CFI Block cfiPicker22 Using cfiCommon1
          CFI (cfiPicker22) NoFunction
          CFI (cfiPicker22) Picker
        MOV       DPL,R6
        MOV       DPH,R7
          CFI EndBlock cfiCond20
          CFI EndBlock cfiCond21
          CFI EndBlock cfiPicker22
        REQUIRE ??Subroutine15_0
        ; // Fall through to label ??Subroutine15_0

        RSEG BANKED_CODE:HUGECODE:NOROOT(0)
??Subroutine15_0:
          CFI Block cfiCond23 Using cfiCommon0
          CFI Function zclZEM_ProcessInDiscCmdsRspCmd
          CFI Conditional ??CrossCallReturnLabel_17
          CFI DPL0 Frame(CFA_SP, 4)
          CFI DPH0 Frame(CFA_SP, 5)
          CFI CFA_SP SP+-7
          CFI Block cfiCond24 Using cfiCommon0
          CFI (cfiCond24) Function zclZEM_ProcessIncomingMsg
          CFI (cfiCond24) Conditional ??CrossCallReturnLabel_18
          CFI (cfiCond24) R6 load(1, XDATA, add(CFA_XSP16, literal(-9)))
          CFI (cfiCond24) VB load(1, XDATA, add(CFA_XSP16, literal(-8)))
          CFI (cfiCond24) V0 load(1, XDATA, add(CFA_XSP16, literal(-7)))
          CFI (cfiCond24) R7 load(1, XDATA, add(CFA_XSP16, literal(-6)))
          CFI (cfiCond24) ?RET_LOW load(1, XDATA, add(CFA_XSP16, literal(-5)))
          CFI (cfiCond24) ?RET_HIGH load(1, XDATA, add(CFA_XSP16, literal(-4)))
          CFI (cfiCond24) ?BRET_EXT load(1, XDATA, add(CFA_XSP16, literal(-3)))
          CFI (cfiCond24) DPL0 load(1, XDATA, add(CFA_XSP16, literal(-2)))
          CFI (cfiCond24) DPH0 load(1, XDATA, add(CFA_XSP16, literal(-1)))
          CFI (cfiCond24) CFA_SP SP+-2
          CFI (cfiCond24) CFA_XSP16 add(XSP16, 9)
          CFI Block cfiCond25 Using cfiCommon0
          CFI (cfiCond25) Function zclZEM_ProcessIncomingMsg
          CFI (cfiCond25) Conditional ??CrossCallReturnLabel_19
          CFI (cfiCond25) R6 load(1, XDATA, add(CFA_XSP16, literal(-9)))
          CFI (cfiCond25) VB load(1, XDATA, add(CFA_XSP16, literal(-8)))
          CFI (cfiCond25) V0 load(1, XDATA, add(CFA_XSP16, literal(-7)))
          CFI (cfiCond25) R7 load(1, XDATA, add(CFA_XSP16, literal(-6)))
          CFI (cfiCond25) ?RET_LOW load(1, XDATA, add(CFA_XSP16, literal(-5)))
          CFI (cfiCond25) ?RET_HIGH load(1, XDATA, add(CFA_XSP16, literal(-4)))
          CFI (cfiCond25) ?BRET_EXT load(1, XDATA, add(CFA_XSP16, literal(-3)))
          CFI (cfiCond25) DPL0 load(1, XDATA, add(CFA_XSP16, literal(-2)))
          CFI (cfiCond25) DPH0 load(1, XDATA, add(CFA_XSP16, literal(-1)))
          CFI (cfiCond25) CFA_SP SP+-2
          CFI (cfiCond25) CFA_XSP16 add(XSP16, 9)
          CFI Block cfiPicker26 Using cfiCommon1
          CFI (cfiPicker26) NoFunction
          CFI (cfiPicker26) Picker
        MOVX      A,@DPTR
        MOV       R0,A
        INC       DPTR
        MOVX      A,@DPTR
        MOV       R1,A
        MOV       R2,#0x0
        RET
          CFI EndBlock cfiCond23
          CFI EndBlock cfiCond24
          CFI EndBlock cfiCond25
          CFI EndBlock cfiPicker26

        RSEG BANKED_CODE:HUGECODE:NOROOT(0)
?Subroutine7:
          CFI Block cfiCond27 Using cfiCommon0
          CFI Function zclZEM_ProcessIncomingMsg
          CFI Conditional ??CrossCallReturnLabel_5
          CFI R6 load(1, XDATA, add(CFA_XSP16, literal(-9)))
          CFI VB load(1, XDATA, add(CFA_XSP16, literal(-8)))
          CFI V0 load(1, XDATA, add(CFA_XSP16, literal(-7)))
          CFI R7 load(1, XDATA, add(CFA_XSP16, literal(-6)))
          CFI ?RET_LOW load(1, XDATA, add(CFA_XSP16, literal(-5)))
          CFI ?RET_HIGH load(1, XDATA, add(CFA_XSP16, literal(-4)))
          CFI ?BRET_EXT load(1, XDATA, add(CFA_XSP16, literal(-3)))
          CFI DPL0 load(1, XDATA, add(CFA_XSP16, literal(-2)))
          CFI DPH0 load(1, XDATA, add(CFA_XSP16, literal(-1)))
          CFI CFA_SP SP+-2
          CFI CFA_XSP16 add(XSP16, 9)
          CFI Block cfiCond28 Using cfiCommon0
          CFI (cfiCond28) Function zclZEM_ProcessIncomingMsg
          CFI (cfiCond28) Conditional ??CrossCallReturnLabel_6
          CFI (cfiCond28) R6 load(1, XDATA, add(CFA_XSP16, literal(-9)))
          CFI (cfiCond28) VB load(1, XDATA, add(CFA_XSP16, literal(-8)))
          CFI (cfiCond28) V0 load(1, XDATA, add(CFA_XSP16, literal(-7)))
          CFI (cfiCond28) R7 load(1, XDATA, add(CFA_XSP16, literal(-6)))
          CFI (cfiCond28) ?RET_LOW load(1, XDATA, add(CFA_XSP16, literal(-5)))
          CFI (cfiCond28) ?RET_HIGH load(1, XDATA, add(CFA_XSP16, literal(-4)))
          CFI (cfiCond28) ?BRET_EXT load(1, XDATA, add(CFA_XSP16, literal(-3)))
          CFI (cfiCond28) DPL0 load(1, XDATA, add(CFA_XSP16, literal(-2)))
          CFI (cfiCond28) DPH0 load(1, XDATA, add(CFA_XSP16, literal(-1)))
          CFI (cfiCond28) CFA_SP SP+-2
          CFI (cfiCond28) CFA_XSP16 add(XSP16, 9)
          CFI Block cfiPicker29 Using cfiCommon1
          CFI (cfiPicker29) NoFunction
          CFI (cfiPicker29) Picker
        MOV       DPL,R6
        MOV       DPH,R7
        MOVX      A,@DPTR
        MOV       R0,A
        INC       DPTR
        MOVX      A,@DPTR
        MOV       R1,A
        MOV       DPL,R0
        MOV       DPH,R1
        MOV       R0,#0x0
        RET
          CFI EndBlock cfiCond27
          CFI EndBlock cfiCond28
          CFI EndBlock cfiPicker29
//  813 
//  814 #ifdef ZCL_READ
//  815 /*********************************************************************
//  816  * @fn      zclZEM_ProcessInReadRspCmd
//  817  *
//  818  * @brief   Process the "Profile" Read Response Command
//  819  *
//  820  * @param   pInMsg - incoming message to process
//  821  *
//  822  * @return  none
//  823  */
//  824 static uint8 zclZEM_ProcessInReadRspCmd( zclIncomingMsg_t *pInMsg )
//  825 {
//  826   zclReadRspCmd_t *readRspCmd;
//  827   uint8 i;
//  828 
//  829   readRspCmd = (zclReadRspCmd_t *)pInMsg->attrCmd;
//  830   for ( i = 0; i < readRspCmd->numAttr; i++ )
//  831   {
//  832     // Notify the originator of the results of the original read attributes
//  833     // attempt and, for each successfull request, the value of the requested
//  834     // attribute
//  835   }
//  836 
//  837   return ( TRUE );
//  838 }
//  839 #endif // ZCL_READ
//  840 
//  841 #ifdef ZCL_WRITE
//  842 /*********************************************************************
//  843  * @fn      zclZEM_ProcessInWriteRspCmd
//  844  *
//  845  * @brief   Process the "Profile" Write Response Command
//  846  *
//  847  * @param   pInMsg - incoming message to process
//  848  *
//  849  * @return  none
//  850  */
//  851 static uint8 zclZEM_ProcessInWriteRspCmd( zclIncomingMsg_t *pInMsg )
//  852 {
//  853   zclWriteRspCmd_t *writeRspCmd;
//  854   uint8 i;
//  855 
//  856   writeRspCmd = (zclWriteRspCmd_t *)pInMsg->attrCmd;
//  857   for ( i = 0; i < writeRspCmd->numAttr; i++ )
//  858   {
//  859     // Notify the device of the results of the its original write attributes
//  860     // command.
//  861   }
//  862 
//  863   return ( TRUE );
//  864 }
//  865 #endif // ZCL_WRITE
//  866 
//  867 /*********************************************************************
//  868  * @fn      zclZEM_ProcessInDefaultRspCmd
//  869  *
//  870  * @brief   Process the "Profile" Default Response Command
//  871  *
//  872  * @param   pInMsg - incoming message to process
//  873  *
//  874  * @return  none
//  875  */
//  876 static uint8 zclZEM_ProcessInDefaultRspCmd( zclIncomingMsg_t *pInMsg )
//  877 {
//  878   // zclDefaultRspCmd_t *defaultRspCmd = (zclDefaultRspCmd_t *)pInMsg->attrCmd;
//  879 
//  880   // Device is notified of the Default Response command.
//  881   (void)pInMsg;
//  882 
//  883   return ( TRUE );
//  884 }
//  885 
//  886 #ifdef ZCL_DISCOVER
//  887 /*********************************************************************
//  888  * @fn      zclZEM_ProcessInDiscCmdsRspCmd
//  889  *
//  890  * @brief   Process the Discover Commands Response Command
//  891  *
//  892  * @param   pInMsg - incoming message to process
//  893  *
//  894  * @return  none
//  895  */

        RSEG BANKED_CODE:HUGECODE:NOROOT(0)
//  896 static uint8 zclZEM_ProcessInDiscCmdsRspCmd( zclIncomingMsg_t *pInMsg )
zclZEM_ProcessInDiscCmdsRspCmd:
          CFI Block cfiBlock30 Using cfiCommon0
          CFI Function zclZEM_ProcessInDiscCmdsRspCmd
        CODE
//  897 {
        PUSH      DPL
          CFI DPL0 Frame(CFA_SP, 4)
          CFI CFA_SP SP+-4
        PUSH      DPH
          CFI DPH0 Frame(CFA_SP, 5)
          CFI CFA_SP SP+-5
        ; Saved register size: 2
        ; Auto size: 0
//  898   zclDiscoverCmdsCmdRsp_t *discoverRspCmd;
//  899   uint8 i;
//  900 
//  901   discoverRspCmd = (zclDiscoverCmdsCmdRsp_t *)pInMsg->attrCmd;
        MOV       A,R2
        ADD       A,#0x17
        MOV       DPL,A
        CLR       A
        ADDC      A,R3
        MOV       DPH,A
        LCALL     ??Subroutine15_0 & 0xFFFF
//  902   for ( i = 0; i < discoverRspCmd->numCmd; i++ )
??CrossCallReturnLabel_17:
        SJMP      ??zclZEM_ProcessInDiscCmdsRspCmd_0
??zclZEM_ProcessInDiscCmdsRspCmd_1:
        INC       R2
??zclZEM_ProcessInDiscCmdsRspCmd_0:
        MOV       DPL,R0
        MOV       DPH,R1
        INC       DPTR
        INC       DPTR
        MOVX      A,@DPTR
        MOV       R3,A
        MOV       A,R2
        CLR       C
        SUBB      A,R3
        JC        ??zclZEM_ProcessInDiscCmdsRspCmd_1
//  903   {
//  904     // Device is notified of the result of its attribute discovery command.
//  905   }
//  906 
//  907   return ( TRUE );
        MOV       R1,#0x1
        LJMP      ?Subroutine2 & 0xFFFF
//  908 }
          CFI EndBlock cfiBlock30
//  909 
//  910 /*********************************************************************
//  911  * @fn      zclZEM_ProcessInDiscAttrsRspCmd
//  912  *
//  913  * @brief   Process the "Profile" Discover Attributes Response Command
//  914  *
//  915  * @param   pInMsg - incoming message to process
//  916  *
//  917  * @return  none
//  918  */
//  919 static uint8 zclZEM_ProcessInDiscAttrsRspCmd( zclIncomingMsg_t *pInMsg )
//  920 {
//  921   zclDiscoverAttrsRspCmd_t *discoverRspCmd;
//  922   uint8 i;
//  923 
//  924   discoverRspCmd = (zclDiscoverAttrsRspCmd_t *)pInMsg->attrCmd;
//  925   for ( i = 0; i < discoverRspCmd->numAttr; i++ )
//  926   {
//  927     // Device is notified of the result of its attribute discovery command.
//  928   }
//  929 
//  930   return ( TRUE );
//  931 }
//  932 
//  933 /*********************************************************************
//  934  * @fn      zclZEM_ProcessInDiscAttrsExtRspCmd
//  935  *
//  936  * @brief   Process the "Profile" Discover Attributes Extended Response Command
//  937  *
//  938  * @param   pInMsg - incoming message to process
//  939  *
//  940  * @return  none
//  941  */
//  942 static uint8 zclZEM_ProcessInDiscAttrsExtRspCmd( zclIncomingMsg_t *pInMsg )
//  943 {
//  944   zclDiscoverAttrsExtRsp_t *discoverRspCmd;
//  945   uint8 i;
//  946 
//  947   discoverRspCmd = (zclDiscoverAttrsExtRsp_t *)pInMsg->attrCmd;
//  948   for ( i = 0; i < discoverRspCmd->numAttr; i++ )
//  949   {
//  950     // Device is notified of the result of its attribute discovery command.
//  951   }
//  952 
//  953   return ( TRUE );
//  954 }
//  955 #endif // ZCL_DISCOVER
//  956 
//  957 
//  958 
//  959 
//  960 /*********************************************************************
//  961  * @fn      zclZEM_AF_P2P
//  962  *
//  963  * @brief   
//  964  *
//  965  * @param   destNwkAddr - 
//  966  * @param   cid - Cluster ID
//  967  * @param   len - 
//  968  * @param   data - 
//  969  *
//  970  * @return  none
//  971  */
//  972 static void zclZEM_AF_P2P(
//  973     uint16 destNwkAddr,
//  974     uint16 cid,
//  975     uint8 len,
//  976     uint8 *data)
//  977 {
//  978     afAddrType_t dstAddr; //

        RSEG XDATA_Z:XDATA:NOROOT(0)
        DATA8
//  979     static uint8 transferId = 0;//ID
??transferId:
        DS 1
        REQUIRE __INIT_XDATA_Z
//  980     
//  981     /* Destination */
//  982     dstAddr.addrMode = afAddr16Bit;// 16P2P
//  983     dstAddr.addr.shortAddr = destNwkAddr;//
//  984     dstAddr.endPoint = ZEM_ENDPOINT;//
//  985     
//  986     transferId++;
//  987     
//  988     AF_DataRequest(&dstAddr,
//  989         &ZEM_AppEp,//
//  990         cid,
//  991         len,
//  992         data,
//  993         &transferId,
//  994         AF_DISCV_ROUTE,//
//  995         AF_DEFAULT_RADIUS);//
//  996 }
//  997 
//  998 /*********************************************************************
//  999  * @fn      zclZEM_AF_Broadcast
// 1000  *
// 1001  * @brief   
// 1002  *
// 1003  * @param   cid - Cluster ID
// 1004  * @param   len - 
// 1005  * @param   data - 
// 1006  *
// 1007  * @return  none
// 1008  */
// 1009 static void zclZEM_AF_Broadcast(
// 1010     uint16 cid,
// 1011     uint8 len,
// 1012     uint8 *data)
// 1013 {
// 1014     afAddrType_t dstAddr;

        RSEG XDATA_Z:XDATA:NOROOT(0)
        DATA8
        DS 1
        REQUIRE __INIT_XDATA_Z
// 1015     static uint8 transferId = 0;
// 1016     
// 1017     /* Destination */
// 1018     dstAddr.addrMode = afAddrBroadcast;   // 
// 1019     dstAddr.addr.shortAddr = 0xFFFF; // 
// 1020     dstAddr.endPoint = ZEM_ENDPOINT; // 
// 1021     
// 1022     /* Transfer id */
// 1023     transferId++;
// 1024     
// 1025     /* Send */
// 1026     AF_DataRequest(&dstAddr,
// 1027         &ZEM_AppEp,//
// 1028         cid,
// 1029         len,
// 1030         data,
// 1031         &transferId,
// 1032         AF_TX_OPTIONS_NONE,
// 1033         AF_DEFAULT_RADIUS );//
// 1034 }
// 1035 
// 1036 /*********************************************************************
// 1037  * @fn      zclZEM_AF_Groupcast
// 1038  *
// 1039  * @brief   
// 1040  *
// 1041  * @param   groupId - ID
// 1042  * @param   cid - ClusterID
// 1043  * @param   len - 
// 1044  * @param   data - 
// 1045  *
// 1046  * @return  none
// 1047  */
// 1048 static void zclZEM_AF_Groupcast(
// 1049     uint16 groupId,
// 1050     uint16 cid,
// 1051     uint8 len,
// 1052     uint8 *data)
// 1053 {
// 1054     afAddrType_t dstAddr;

        RSEG XDATA_Z:XDATA:NOROOT(0)
        DATA8
// 1055     static uint8 transferId = 0;
??transferId_2:
        DS 1
        REQUIRE __INIT_XDATA_Z
// 1056     
// 1057     /* Destination */
// 1058     dstAddr.addrMode = afAddrGroup;//
// 1059     dstAddr.addr.shortAddr = groupId;
// 1060     dstAddr.endPoint = ZEM_ENDPOINT;//
// 1061     
// 1062     /* Transfer id */
// 1063     transferId++;
// 1064     
// 1065     /* Send */
// 1066     AF_DataRequest(&dstAddr,
// 1067         &ZEM_AppEp,//
// 1068         cid,
// 1069         len,
// 1070         data,
// 1071         &transferId,
// 1072         AF_TX_OPTIONS_NONE,
// 1073         AF_DEFAULT_RADIUS );//
// 1074 }
// 1075 
// 1076 /*********************************************************************
// 1077  * @fn      zclZEM_AF_RxProc
// 1078  *
// 1079  * @brief   
// 1080  *
// 1081  * @param   MSGpkt - 
// 1082  *
// 1083  * @return  none
// 1084  */

        RSEG BANKED_CODE:HUGECODE:NOROOT(0)
// 1085 static void zclZEM_AF_RxProc(afIncomingMSGPacket_t *MSGpkt)
zclZEM_AF_RxProc:
          CFI Block cfiBlock31 Using cfiCommon0
          CFI Function zclZEM_AF_RxProc
        CODE
// 1086 {
        FUNCALL zclZEM_AF_RxProc, osal_memcpy
        LOCFRAME ISTACK, 0, STACK
        LOCFRAME PSTACK, 0, STACK
        LOCFRAME XSTACK, 86, STACK
        LOCFRAME IOVERLAY, 0, STATIC
        LOCFRAME DOVERLAY, 0, STATIC
        ARGFRAME ISTACK, 0, STACK
        ARGFRAME PSTACK, 0, STACK
        ARGFRAME XSTACK, 86, STACK
        ARGFRAME IOVERLAY, 0, STATIC
        ARGFRAME DOVERLAY, 0, STATIC
        FUNCALL zclZEM_AF_RxProc, osal_memcpy
        LOCFRAME ISTACK, 0, STACK
        LOCFRAME PSTACK, 0, STACK
        LOCFRAME XSTACK, 86, STACK
        LOCFRAME IOVERLAY, 0, STATIC
        LOCFRAME DOVERLAY, 0, STATIC
        ARGFRAME ISTACK, 0, STACK
        ARGFRAME PSTACK, 0, STACK
        ARGFRAME XSTACK, 86, STACK
        ARGFRAME IOVERLAY, 0, STATIC
        ARGFRAME DOVERLAY, 0, STATIC
        FUNCALL zclZEM_AF_RxProc, osal_memcpy
        LOCFRAME ISTACK, 0, STACK
        LOCFRAME PSTACK, 0, STACK
        LOCFRAME XSTACK, 86, STACK
        LOCFRAME IOVERLAY, 0, STATIC
        LOCFRAME DOVERLAY, 0, STATIC
        ARGFRAME ISTACK, 0, STACK
        ARGFRAME PSTACK, 0, STACK
        ARGFRAME XSTACK, 86, STACK
        ARGFRAME IOVERLAY, 0, STATIC
        ARGFRAME DOVERLAY, 0, STATIC
        FUNCALL zclZEM_AF_RxProc, HalUARTWrite
        LOCFRAME ISTACK, 0, STACK
        LOCFRAME PSTACK, 0, STACK
        LOCFRAME XSTACK, 83, STACK
        LOCFRAME IOVERLAY, 0, STATIC
        LOCFRAME DOVERLAY, 0, STATIC
        ARGFRAME ISTACK, 0, STACK
        ARGFRAME PSTACK, 0, STACK
        ARGFRAME XSTACK, 83, STACK
        ARGFRAME IOVERLAY, 0, STATIC
        ARGFRAME DOVERLAY, 0, STATIC
        FUNCALL zclZEM_AF_RxProc, osal_memcpy
        LOCFRAME ISTACK, 0, STACK
        LOCFRAME PSTACK, 0, STACK
        LOCFRAME XSTACK, 86, STACK
        LOCFRAME IOVERLAY, 0, STATIC
        LOCFRAME DOVERLAY, 0, STATIC
        ARGFRAME ISTACK, 0, STACK
        ARGFRAME PSTACK, 0, STACK
        ARGFRAME XSTACK, 86, STACK
        ARGFRAME IOVERLAY, 0, STATIC
        ARGFRAME DOVERLAY, 0, STATIC
        FUNCALL zclZEM_AF_RxProc, osal_memcpy
        LOCFRAME ISTACK, 0, STACK
        LOCFRAME PSTACK, 0, STACK
        LOCFRAME XSTACK, 86, STACK
        LOCFRAME IOVERLAY, 0, STATIC
        LOCFRAME DOVERLAY, 0, STATIC
        ARGFRAME ISTACK, 0, STACK
        ARGFRAME PSTACK, 0, STACK
        ARGFRAME XSTACK, 86, STACK
        ARGFRAME IOVERLAY, 0, STATIC
        ARGFRAME DOVERLAY, 0, STATIC
        FUNCALL zclZEM_AF_RxProc, osal_memcpy
        LOCFRAME ISTACK, 0, STACK
        LOCFRAME PSTACK, 0, STACK
        LOCFRAME XSTACK, 86, STACK
        LOCFRAME IOVERLAY, 0, STATIC
        LOCFRAME DOVERLAY, 0, STATIC
        ARGFRAME ISTACK, 0, STACK
        ARGFRAME PSTACK, 0, STACK
        ARGFRAME XSTACK, 86, STACK
        ARGFRAME IOVERLAY, 0, STATIC
        ARGFRAME DOVERLAY, 0, STATIC
        FUNCALL zclZEM_AF_RxProc, HalUARTWrite
        LOCFRAME ISTACK, 0, STACK
        LOCFRAME PSTACK, 0, STACK
        LOCFRAME XSTACK, 83, STACK
        LOCFRAME IOVERLAY, 0, STATIC
        LOCFRAME DOVERLAY, 0, STATIC
        ARGFRAME ISTACK, 0, STACK
        ARGFRAME PSTACK, 0, STACK
        ARGFRAME XSTACK, 83, STACK
        ARGFRAME IOVERLAY, 0, STATIC
        ARGFRAME DOVERLAY, 0, STATIC
        FUNCALL zclZEM_AF_RxProc, osal_memcpy
        LOCFRAME ISTACK, 0, STACK
        LOCFRAME PSTACK, 0, STACK
        LOCFRAME XSTACK, 86, STACK
        LOCFRAME IOVERLAY, 0, STATIC
        LOCFRAME DOVERLAY, 0, STATIC
        ARGFRAME ISTACK, 0, STACK
        ARGFRAME PSTACK, 0, STACK
        ARGFRAME XSTACK, 86, STACK
        ARGFRAME IOVERLAY, 0, STATIC
        ARGFRAME DOVERLAY, 0, STATIC
        FUNCALL zclZEM_AF_RxProc, osal_memcpy
        LOCFRAME ISTACK, 0, STACK
        LOCFRAME PSTACK, 0, STACK
        LOCFRAME XSTACK, 86, STACK
        LOCFRAME IOVERLAY, 0, STATIC
        LOCFRAME DOVERLAY, 0, STATIC
        ARGFRAME ISTACK, 0, STACK
        ARGFRAME PSTACK, 0, STACK
        ARGFRAME XSTACK, 86, STACK
        ARGFRAME IOVERLAY, 0, STATIC
        ARGFRAME DOVERLAY, 0, STATIC
        FUNCALL zclZEM_AF_RxProc, osal_memcpy
        LOCFRAME ISTACK, 0, STACK
        LOCFRAME PSTACK, 0, STACK
        LOCFRAME XSTACK, 86, STACK
        LOCFRAME IOVERLAY, 0, STATIC
        LOCFRAME DOVERLAY, 0, STATIC
        ARGFRAME ISTACK, 0, STACK
        ARGFRAME PSTACK, 0, STACK
        ARGFRAME XSTACK, 86, STACK
        ARGFRAME IOVERLAY, 0, STATIC
        ARGFRAME DOVERLAY, 0, STATIC
        FUNCALL zclZEM_AF_RxProc, HalUARTWrite
        LOCFRAME ISTACK, 0, STACK
        LOCFRAME PSTACK, 0, STACK
        LOCFRAME XSTACK, 83, STACK
        LOCFRAME IOVERLAY, 0, STATIC
        LOCFRAME DOVERLAY, 0, STATIC
        ARGFRAME ISTACK, 0, STACK
        ARGFRAME PSTACK, 0, STACK
        ARGFRAME XSTACK, 83, STACK
        ARGFRAME IOVERLAY, 0, STATIC
        ARGFRAME DOVERLAY, 0, STATIC
        REQUIRE ?V0
        REQUIRE ?V1
        REQUIRE ?V2
        REQUIRE ?V3
        REQUIRE ?V4
        REQUIRE ?V5
        REQUIRE ?V6
        REQUIRE ?V8
        REQUIRE ?V9
        REQUIRE ?V10
        MOV       A,#-0x13
        LCALL     ?BANKED_ENTER_XDATA
          CFI DPH0 load(1, XDATA, add(CFA_XSP16, literal(-1)))
          CFI DPL0 load(1, XDATA, add(CFA_XSP16, literal(-2)))
          CFI ?BRET_EXT load(1, XDATA, add(CFA_XSP16, literal(-3)))
          CFI ?RET_HIGH load(1, XDATA, add(CFA_XSP16, literal(-4)))
          CFI ?RET_LOW load(1, XDATA, add(CFA_XSP16, literal(-5)))
          CFI R7 load(1, XDATA, add(CFA_XSP16, literal(-6)))
          CFI V10 load(1, XDATA, add(CFA_XSP16, literal(-7)))
          CFI V9 load(1, XDATA, add(CFA_XSP16, literal(-8)))
          CFI V8 load(1, XDATA, add(CFA_XSP16, literal(-9)))
          CFI V7 load(1, XDATA, add(CFA_XSP16, literal(-10)))
          CFI V6 load(1, XDATA, add(CFA_XSP16, literal(-11)))
          CFI V5 load(1, XDATA, add(CFA_XSP16, literal(-12)))
          CFI V4 load(1, XDATA, add(CFA_XSP16, literal(-13)))
          CFI V3 load(1, XDATA, add(CFA_XSP16, literal(-14)))
          CFI V2 load(1, XDATA, add(CFA_XSP16, literal(-15)))
          CFI V1 load(1, XDATA, add(CFA_XSP16, literal(-16)))
          CFI V0 load(1, XDATA, add(CFA_XSP16, literal(-17)))
          CFI VB load(1, XDATA, add(CFA_XSP16, literal(-18)))
          CFI R6 load(1, XDATA, add(CFA_XSP16, literal(-19)))
          CFI CFA_SP SP+0
          CFI CFA_XSP16 add(XSP16, 19)
        ; Saved register size: 19
        ; Auto size: 64
        MOV       A,#-0x40
        LCALL     ?ALLOC_XSTACK8
          CFI CFA_XSP16 add(XSP16, 83)
// 1087     /**/
// 1088     static uint8 p2pCnt = 0;
// 1089     /**/
// 1090     static uint8 bcCnt = 0;
// 1091     /**/
// 1092     static uint8 gcCnt = 0;
// 1093     
// 1094     switch( MSGpkt->clusterId )  // Cluster ID
        MOV       ?V4,#`?<Constant " Count: ">` & 0xff
        MOV       ?V5,#(`?<Constant " Count: ">` >> 8) & 0xff
        MOV       ?V6,#0x0
        MOV       A,R2
        ADD       A,#0x22
        MOV       ?V0,A
        CLR       A
        ADDC      A,R3
        MOV       ?V1,A
        MOV       A,R2
        ADD       A,#0x20
        LCALL     ?Subroutine12 & 0xFFFF
??CrossCallReturnLabel_14:
        MOVX      A,@DPTR
        MOV       ?V2,A
        INC       DPTR
        MOVX      A,@DPTR
        MOV       ?V3,A
        MOV       R0,#?V2
        LCALL     ?US_SWITCH_DENSE
`?<Jumptable for zclZEM_AF_RxProc>_0`:
        DATA
        DATA16
        DATA
        DATA16
        DW        0
        DATA
        DATA8
        DATA
        DATA8
        DB        2
        DATA
        DATA16
        DATA
        DATA16
        DW        ??zclZEM_AF_RxProc_0
        DATA
        DATA16
        DATA
        DATA16
        DW        ??zclZEM_AF_RxProc_1
        DATA
        DATA16
        DATA
        DATA16
        DW        ??zclZEM_AF_RxProc_2
        DATA
        DATA16
        DATA
        DATA16
        DW        ??zclZEM_AF_RxProc_3
        CODE
// 1095     {
// 1096         case CLUSTER_P2P:
// 1097             p2pCnt++;  // P2P
??zclZEM_AF_RxProc_1:
        MOV       DPTR,#??p2pCnt
        MOVX      A,@DPTR
        INC       A
        MOVX      @DPTR,A
// 1098             // 
// 1099             {
// 1100                 uint8 p2pMsg[64];
// 1101                 osal_memcpy(p2pMsg, "P2P Data: ", 10);
        ; Setup parameters for call to function osal_memcpy
        MOV       ?V8,#`?<Constant "P2P Data: ">` & 0xff
        MOV       ?V9,#(`?<Constant "P2P Data: ">` >> 8) & 0xff
        MOV       ?V10,#0x0
        MOV       R0,#?V8
        LCALL     ?PUSH_XSTACK_I_THREE
          CFI CFA_XSP16 add(XSP16, 86)
        MOV       R4,#0xa
        MOV       R5,#0x0
        MOV       A,#0x3
        LCALL     ?XSTACK_DISP101_8
        LCALL     `??osal_memcpy::?relay`; Banked call to: osal_memcpy
        MOV       A,#0x3
        LCALL     ?DEALLOC_XSTACK8
          CFI CFA_XSP16 add(XSP16, 83)
// 1102                 osal_memcpy(p2pMsg + 10, MSGpkt->cmd.Data, MSGpkt->cmd.DataLength);
        ; Setup parameters for call to function osal_memcpy
        LCALL     ?Subroutine4 & 0xFFFF
??CrossCallReturnLabel_0:
        LCALL     ?PUSH_XSTACK_I_THREE
          CFI CFA_XSP16 add(XSP16, 86)
        MOV       DPL,R6
        MOV       DPH,R7
        MOVX      A,@DPTR
        MOV       R4,A
        INC       DPTR
        MOVX      A,@DPTR
        MOV       R5,A
        MOV       A,#0xd
        LCALL     ?XSTACK_DISP0_8
        MOV       R2,DPL
        MOV       R3,DPH
        LCALL     `??osal_memcpy::?relay`; Banked call to: osal_memcpy
        MOV       A,#0x3
        LCALL     ?DEALLOC_XSTACK8
          CFI CFA_XSP16 add(XSP16, 83)
// 1103                 osal_memcpy(p2pMsg + 10 + MSGpkt->cmd.DataLength, " Count: ", 8);
        ; Setup parameters for call to function osal_memcpy
        MOV       R0,#?V4
        LCALL     ?PUSH_XSTACK_I_THREE
          CFI CFA_XSP16 add(XSP16, 86)
        MOV       R4,#0x8
        MOV       R5,#0x0
        MOV       DPL,R6
        MOV       DPH,R7
        MOV       A,#0x3
        LCALL     ?XSTACK_DISP100_8
        MOV       ?V1,R1
        LCALL     ??Subroutine16_0 & 0xFFFF
??CrossCallReturnLabel_20:
        ADD       A,#0xa
        MOV       R2,A
        CLR       A
        ADDC      A,R1
        MOV       R3,A
        LCALL     `??osal_memcpy::?relay`; Banked call to: osal_memcpy
        MOV       A,#0x3
        LCALL     ?DEALLOC_XSTACK8
          CFI CFA_XSP16 add(XSP16, 83)
// 1104                 p2pMsg[18 + MSGpkt->cmd.DataLength] = '0' + p2pCnt;
        MOV       DPTR,#??p2pCnt
        MOVX      A,@DPTR
        ADD       A,#0x30
        PUSH      A
          CFI CFA_SP SP+-1
        LCALL     ?Subroutine6 & 0xFFFF
// 1105                 p2pMsg[19 + MSGpkt->cmd.DataLength] = '\r';
// 1106                 p2pMsg[20 + MSGpkt->cmd.DataLength] = '\n';
// 1107                 HalUARTWrite(HAL_UART_PORT_0, p2pMsg, 21 + MSGpkt->cmd.DataLength);
// 1108             }
??CrossCallReturnLabel_21:
        ADD       A,#0x12
        MOV       DPL,A
        CLR       A
        ADDC      A,R1
        MOV       DPH,A
        POP       A
          CFI CFA_SP SP+0
        LCALL     ??Subroutine17_0 & 0xFFFF
??CrossCallReturnLabel_27:
        ADD       A,#0x13
        LCALL     ?Subroutine3 & 0xFFFF
??CrossCallReturnLabel_25:
        ADD       A,#0x14
        LCALL     ?Subroutine13 & 0xFFFF
??CrossCallReturnLabel_15:
        ADD       A,#0x15
        LJMP      ??zclZEM_AF_RxProc_4 & 0xFFFF
// 1109             break;
// 1110         case CLUSTER_BROADCAST:
// 1111             bcCnt++;  // 
??zclZEM_AF_RxProc_2:
        MOV       DPTR,#??bcCnt
        MOVX      A,@DPTR
        INC       A
        MOVX      @DPTR,A
// 1112             // 
// 1113             {
// 1114                 uint8 bcMsg[64];
// 1115                 osal_memcpy(bcMsg, "Broadcast Data: ", 16);
        ; Setup parameters for call to function osal_memcpy
        MOV       ?V8,#`?<Constant "Broadcast Data: ">` & 0xff
        MOV       ?V9,#(`?<Constant "Broadcast Data: ">` >> 8) & 0xff
        MOV       ?V10,#0x0
        MOV       R0,#?V8
        LCALL     ?PUSH_XSTACK_I_THREE
          CFI CFA_XSP16 add(XSP16, 86)
        MOV       R4,#0x10
        MOV       R5,#0x0
        MOV       A,#0x3
        LCALL     ?XSTACK_DISP101_8
        LCALL     `??osal_memcpy::?relay`; Banked call to: osal_memcpy
        MOV       A,#0x3
        LCALL     ?DEALLOC_XSTACK8
          CFI CFA_XSP16 add(XSP16, 83)
// 1116                 osal_memcpy(bcMsg + 16, MSGpkt->cmd.Data, MSGpkt->cmd.DataLength);
        ; Setup parameters for call to function osal_memcpy
        LCALL     ?Subroutine4 & 0xFFFF
??CrossCallReturnLabel_1:
        LCALL     ?PUSH_XSTACK_I_THREE
          CFI CFA_XSP16 add(XSP16, 86)
        MOV       DPL,R6
        MOV       DPH,R7
        MOVX      A,@DPTR
        MOV       R4,A
        INC       DPTR
        MOVX      A,@DPTR
        MOV       R5,A
        MOV       A,#0x13
        LCALL     ?XSTACK_DISP0_8
        MOV       R2,DPL
        MOV       R3,DPH
        LCALL     `??osal_memcpy::?relay`; Banked call to: osal_memcpy
        MOV       A,#0x3
        LCALL     ?DEALLOC_XSTACK8
          CFI CFA_XSP16 add(XSP16, 83)
// 1117                 osal_memcpy(bcMsg + 16 + MSGpkt->cmd.DataLength, " Count: ", 8);
        ; Setup parameters for call to function osal_memcpy
        MOV       R0,#?V4
        LCALL     ?PUSH_XSTACK_I_THREE
          CFI CFA_XSP16 add(XSP16, 86)
        MOV       R4,#0x8
        MOV       R5,#0x0
        MOV       DPL,R6
        MOV       DPH,R7
        MOV       A,#0x3
        LCALL     ?XSTACK_DISP100_8
        LCALL     ?Subroutine5 & 0xFFFF
??CrossCallReturnLabel_3:
        LCALL     `??osal_memcpy::?relay`; Banked call to: osal_memcpy
        MOV       A,#0x3
        LCALL     ?DEALLOC_XSTACK8
          CFI CFA_XSP16 add(XSP16, 83)
// 1118                 bcMsg[24 + MSGpkt->cmd.DataLength] = '0' + bcCnt;
        MOV       DPTR,#??bcCnt
        SJMP      ??zclZEM_AF_RxProc_5
// 1119                 bcMsg[25 + MSGpkt->cmd.DataLength] = '\r';
// 1120                 bcMsg[26 + MSGpkt->cmd.DataLength] = '\n';
// 1121                 HalUARTWrite(HAL_UART_PORT_0, bcMsg, 27 + MSGpkt->cmd.DataLength);
// 1122             }
// 1123             break;
// 1124         case CLUSTER_GROUPCAST:
// 1125             gcCnt++;  // 
??zclZEM_AF_RxProc_3:
        MOV       DPTR,#??gcCnt
        MOVX      A,@DPTR
        INC       A
        MOVX      @DPTR,A
// 1126             // 
// 1127             {
// 1128                 uint8 gcMsg[64];
// 1129                 osal_memcpy(gcMsg, "Groupcast Data: ", 16);
        ; Setup parameters for call to function osal_memcpy
        MOV       ?V8,#`?<Constant "Groupcast Data: ">` & 0xff
        MOV       ?V9,#(`?<Constant "Groupcast Data: ">` >> 8) & 0xff
        MOV       ?V10,#0x0
        MOV       R0,#?V8
        LCALL     ?PUSH_XSTACK_I_THREE
          CFI CFA_XSP16 add(XSP16, 86)
        MOV       R4,#0x10
        MOV       R5,#0x0
        MOV       A,#0x3
        LCALL     ?XSTACK_DISP101_8
        LCALL     `??osal_memcpy::?relay`; Banked call to: osal_memcpy
        MOV       A,#0x3
        LCALL     ?DEALLOC_XSTACK8
          CFI CFA_XSP16 add(XSP16, 83)
// 1130                 osal_memcpy(gcMsg + 16, MSGpkt->cmd.Data, MSGpkt->cmd.DataLength);
        ; Setup parameters for call to function osal_memcpy
        LCALL     ?Subroutine4 & 0xFFFF
??CrossCallReturnLabel_2:
        LCALL     ?PUSH_XSTACK_I_THREE
          CFI CFA_XSP16 add(XSP16, 86)
        MOV       DPL,R6
        MOV       DPH,R7
        MOVX      A,@DPTR
        MOV       R4,A
        INC       DPTR
        MOVX      A,@DPTR
        MOV       R5,A
        MOV       A,#0x13
        LCALL     ?XSTACK_DISP0_8
        MOV       R2,DPL
        MOV       R3,DPH
        LCALL     `??osal_memcpy::?relay`; Banked call to: osal_memcpy
        MOV       A,#0x3
        LCALL     ?DEALLOC_XSTACK8
          CFI CFA_XSP16 add(XSP16, 83)
// 1131                 osal_memcpy(gcMsg + 16 + MSGpkt->cmd.DataLength, " Count: ", 8);
        ; Setup parameters for call to function osal_memcpy
        MOV       R0,#?V4
        LCALL     ?PUSH_XSTACK_I_THREE
          CFI CFA_XSP16 add(XSP16, 86)
        MOV       R4,#0x8
        MOV       R5,#0x0
        MOV       DPL,R6
        MOV       DPH,R7
        MOV       A,#0x3
        LCALL     ?XSTACK_DISP100_8
        LCALL     ?Subroutine5 & 0xFFFF
??CrossCallReturnLabel_4:
        LCALL     `??osal_memcpy::?relay`; Banked call to: osal_memcpy
        MOV       A,#0x3
        LCALL     ?DEALLOC_XSTACK8
          CFI CFA_XSP16 add(XSP16, 83)
// 1132                 gcMsg[24 + MSGpkt->cmd.DataLength] = '0' + gcCnt;
        MOV       DPTR,#??gcCnt
??zclZEM_AF_RxProc_5:
        MOVX      A,@DPTR
        ADD       A,#0x30
        PUSH      A
          CFI CFA_SP SP+-1
// 1133                 gcMsg[25 + MSGpkt->cmd.DataLength] = '\r';
// 1134                 gcMsg[26 + MSGpkt->cmd.DataLength] = '\n';
// 1135                 HalUARTWrite(HAL_UART_PORT_0, gcMsg, 27 + MSGpkt->cmd.DataLength);
// 1136             }
        LCALL     ?Subroutine6 & 0xFFFF
??CrossCallReturnLabel_22:
        ADD       A,#0x18
        MOV       DPL,A
        CLR       A
        ADDC      A,R1
        MOV       DPH,A
        POP       A
          CFI CFA_SP SP+0
        LCALL     ??Subroutine17_0 & 0xFFFF
??CrossCallReturnLabel_28:
        ADD       A,#0x19
        LCALL     ?Subroutine3 & 0xFFFF
??CrossCallReturnLabel_26:
        ADD       A,#0x1a
        LCALL     ?Subroutine13 & 0xFFFF
??CrossCallReturnLabel_16:
        ADD       A,#0x1b
??zclZEM_AF_RxProc_4:
        MOV       R4,A
        INC       DPTR
        MOVX      A,@DPTR
        ADDC      A,#0x0
        MOV       R5,A
        MOV       R2,?XSP + 0
        MOV       R3,?XSP + 1
        MOV       R1,#0x0
        LCALL     `??HalUARTWrite::?relay`; Banked call to: HalUARTWrite
// 1137             break;
// 1138         default:
// 1139             break;
// 1140     }
// 1141 }
??zclZEM_AF_RxProc_0:
        MOV       A,#0x40
        LCALL     ?DEALLOC_XSTACK8
          CFI CFA_XSP16 add(XSP16, 19)
        MOV       R7,#0xb
        LJMP      ?BANKED_LEAVE_XDATA
          CFI EndBlock cfiBlock31

        RSEG BANKED_CODE:HUGECODE:NOROOT(0)
?Subroutine13:
          CFI Block cfiCond32 Using cfiCommon0
          CFI Function zclZEM_AF_RxProc
          CFI Conditional ??CrossCallReturnLabel_15
          CFI R6 load(1, XDATA, add(CFA_XSP16, literal(-19)))
          CFI VB load(1, XDATA, add(CFA_XSP16, literal(-18)))
          CFI V0 load(1, XDATA, add(CFA_XSP16, literal(-17)))
          CFI V1 load(1, XDATA, add(CFA_XSP16, literal(-16)))
          CFI V2 load(1, XDATA, add(CFA_XSP16, literal(-15)))
          CFI V3 load(1, XDATA, add(CFA_XSP16, literal(-14)))
          CFI V4 load(1, XDATA, add(CFA_XSP16, literal(-13)))
          CFI V5 load(1, XDATA, add(CFA_XSP16, literal(-12)))
          CFI V6 load(1, XDATA, add(CFA_XSP16, literal(-11)))
          CFI V7 load(1, XDATA, add(CFA_XSP16, literal(-10)))
          CFI V8 load(1, XDATA, add(CFA_XSP16, literal(-9)))
          CFI V9 load(1, XDATA, add(CFA_XSP16, literal(-8)))
          CFI V10 load(1, XDATA, add(CFA_XSP16, literal(-7)))
          CFI R7 load(1, XDATA, add(CFA_XSP16, literal(-6)))
          CFI ?RET_LOW load(1, XDATA, add(CFA_XSP16, literal(-5)))
          CFI ?RET_HIGH load(1, XDATA, add(CFA_XSP16, literal(-4)))
          CFI ?BRET_EXT load(1, XDATA, add(CFA_XSP16, literal(-3)))
          CFI DPL0 load(1, XDATA, add(CFA_XSP16, literal(-2)))
          CFI DPH0 load(1, XDATA, add(CFA_XSP16, literal(-1)))
          CFI CFA_SP SP+-2
          CFI CFA_XSP16 add(XSP16, 83)
          CFI Block cfiCond33 Using cfiCommon0
          CFI (cfiCond33) Function zclZEM_AF_RxProc
          CFI (cfiCond33) Conditional ??CrossCallReturnLabel_16
          CFI (cfiCond33) R6 load(1, XDATA, add(CFA_XSP16, literal(-19)))
          CFI (cfiCond33) VB load(1, XDATA, add(CFA_XSP16, literal(-18)))
          CFI (cfiCond33) V0 load(1, XDATA, add(CFA_XSP16, literal(-17)))
          CFI (cfiCond33) V1 load(1, XDATA, add(CFA_XSP16, literal(-16)))
          CFI (cfiCond33) V2 load(1, XDATA, add(CFA_XSP16, literal(-15)))
          CFI (cfiCond33) V3 load(1, XDATA, add(CFA_XSP16, literal(-14)))
          CFI (cfiCond33) V4 load(1, XDATA, add(CFA_XSP16, literal(-13)))
          CFI (cfiCond33) V5 load(1, XDATA, add(CFA_XSP16, literal(-12)))
          CFI (cfiCond33) V6 load(1, XDATA, add(CFA_XSP16, literal(-11)))
          CFI (cfiCond33) V7 load(1, XDATA, add(CFA_XSP16, literal(-10)))
          CFI (cfiCond33) V8 load(1, XDATA, add(CFA_XSP16, literal(-9)))
          CFI (cfiCond33) V9 load(1, XDATA, add(CFA_XSP16, literal(-8)))
          CFI (cfiCond33) V10 load(1, XDATA, add(CFA_XSP16, literal(-7)))
          CFI (cfiCond33) R7 load(1, XDATA, add(CFA_XSP16, literal(-6)))
          CFI (cfiCond33) ?RET_LOW load(1, XDATA, add(CFA_XSP16, literal(-5)))
          CFI (cfiCond33) ?RET_HIGH load(1, XDATA, add(CFA_XSP16, literal(-4)))
          CFI (cfiCond33) ?BRET_EXT load(1, XDATA, add(CFA_XSP16, literal(-3)))
          CFI (cfiCond33) DPL0 load(1, XDATA, add(CFA_XSP16, literal(-2)))
          CFI (cfiCond33) DPH0 load(1, XDATA, add(CFA_XSP16, literal(-1)))
          CFI (cfiCond33) CFA_SP SP+-2
          CFI (cfiCond33) CFA_XSP16 add(XSP16, 83)
          CFI Block cfiPicker34 Using cfiCommon1
          CFI (cfiPicker34) NoFunction
          CFI (cfiPicker34) Picker
        MOV       DPL,A
        CLR       A
        ADDC      A,R1
        MOV       DPH,A
        MOV       A,#0xa
        MOVX      @DPTR,A
        ; Setup parameters for call to function HalUARTWrite
        ; Setup parameters for call to function HalUARTWrite
        MOV       DPL,R6
        MOV       DPH,R7
        MOVX      A,@DPTR
        RET
          CFI EndBlock cfiCond32
          CFI EndBlock cfiCond33
          CFI EndBlock cfiPicker34

        RSEG BANKED_CODE:HUGECODE:NOROOT(0)
?Subroutine12:
          CFI Block cfiCond35 Using cfiCommon0
          CFI Function zclZEM_ProcessIncomingMsg
          CFI Conditional ??CrossCallReturnLabel_13
          CFI R6 load(1, XDATA, add(CFA_XSP16, literal(-9)))
          CFI VB load(1, XDATA, add(CFA_XSP16, literal(-8)))
          CFI V0 load(1, XDATA, add(CFA_XSP16, literal(-7)))
          CFI R7 load(1, XDATA, add(CFA_XSP16, literal(-6)))
          CFI ?RET_LOW load(1, XDATA, add(CFA_XSP16, literal(-5)))
          CFI ?RET_HIGH load(1, XDATA, add(CFA_XSP16, literal(-4)))
          CFI ?BRET_EXT load(1, XDATA, add(CFA_XSP16, literal(-3)))
          CFI DPL0 load(1, XDATA, add(CFA_XSP16, literal(-2)))
          CFI DPH0 load(1, XDATA, add(CFA_XSP16, literal(-1)))
          CFI CFA_SP SP+-2
          CFI CFA_XSP16 add(XSP16, 9)
          CFI Block cfiCond36 Using cfiCommon0
          CFI (cfiCond36) Function zclZEM_AF_RxProc
          CFI (cfiCond36) Conditional ??CrossCallReturnLabel_14
          CFI (cfiCond36) R6 load(1, XDATA, add(CFA_XSP16, literal(-19)))
          CFI (cfiCond36) VB load(1, XDATA, add(CFA_XSP16, literal(-18)))
          CFI (cfiCond36) V0 load(1, XDATA, add(CFA_XSP16, literal(-17)))
          CFI (cfiCond36) V1 load(1, XDATA, add(CFA_XSP16, literal(-16)))
          CFI (cfiCond36) V2 load(1, XDATA, add(CFA_XSP16, literal(-15)))
          CFI (cfiCond36) V3 load(1, XDATA, add(CFA_XSP16, literal(-14)))
          CFI (cfiCond36) V4 load(1, XDATA, add(CFA_XSP16, literal(-13)))
          CFI (cfiCond36) V5 load(1, XDATA, add(CFA_XSP16, literal(-12)))
          CFI (cfiCond36) V6 load(1, XDATA, add(CFA_XSP16, literal(-11)))
          CFI (cfiCond36) V7 load(1, XDATA, add(CFA_XSP16, literal(-10)))
          CFI (cfiCond36) V8 load(1, XDATA, add(CFA_XSP16, literal(-9)))
          CFI (cfiCond36) V9 load(1, XDATA, add(CFA_XSP16, literal(-8)))
          CFI (cfiCond36) V10 load(1, XDATA, add(CFA_XSP16, literal(-7)))
          CFI (cfiCond36) R7 load(1, XDATA, add(CFA_XSP16, literal(-6)))
          CFI (cfiCond36) ?RET_LOW load(1, XDATA, add(CFA_XSP16, literal(-5)))
          CFI (cfiCond36) ?RET_HIGH load(1, XDATA, add(CFA_XSP16, literal(-4)))
          CFI (cfiCond36) ?BRET_EXT load(1, XDATA, add(CFA_XSP16, literal(-3)))
          CFI (cfiCond36) DPL0 load(1, XDATA, add(CFA_XSP16, literal(-2)))
          CFI (cfiCond36) DPH0 load(1, XDATA, add(CFA_XSP16, literal(-1)))
          CFI (cfiCond36) CFA_SP SP+-2
          CFI (cfiCond36) CFA_XSP16 add(XSP16, 83)
          CFI Block cfiPicker37 Using cfiCommon1
          CFI (cfiPicker37) NoFunction
          CFI (cfiPicker37) Picker
        MOV       R0,A
        CLR       A
        ADDC      A,R3
        MOV       R1,A
        MOV       A,R0
        MOV       R6,A
        MOV       A,R1
        MOV       R7,A
        MOV       DPL,R2
        MOV       DPH,R3
        INC       DPTR
        INC       DPTR
        INC       DPTR
        INC       DPTR
        RET
          CFI EndBlock cfiCond35
          CFI EndBlock cfiCond36
          CFI EndBlock cfiPicker37

        RSEG BANKED_CODE:HUGECODE:NOROOT(0)
?Subroutine6:
          CFI Block cfiCond38 Using cfiCommon0
          CFI Function zclZEM_AF_RxProc
          CFI Conditional ??CrossCallReturnLabel_21
          CFI R6 load(1, XDATA, add(CFA_XSP16, literal(-19)))
          CFI VB load(1, XDATA, add(CFA_XSP16, literal(-18)))
          CFI V0 load(1, XDATA, add(CFA_XSP16, literal(-17)))
          CFI V1 load(1, XDATA, add(CFA_XSP16, literal(-16)))
          CFI V2 load(1, XDATA, add(CFA_XSP16, literal(-15)))
          CFI V3 load(1, XDATA, add(CFA_XSP16, literal(-14)))
          CFI V4 load(1, XDATA, add(CFA_XSP16, literal(-13)))
          CFI V5 load(1, XDATA, add(CFA_XSP16, literal(-12)))
          CFI V6 load(1, XDATA, add(CFA_XSP16, literal(-11)))
          CFI V7 load(1, XDATA, add(CFA_XSP16, literal(-10)))
          CFI V8 load(1, XDATA, add(CFA_XSP16, literal(-9)))
          CFI V9 load(1, XDATA, add(CFA_XSP16, literal(-8)))
          CFI V10 load(1, XDATA, add(CFA_XSP16, literal(-7)))
          CFI R7 load(1, XDATA, add(CFA_XSP16, literal(-6)))
          CFI ?RET_LOW load(1, XDATA, add(CFA_XSP16, literal(-5)))
          CFI ?RET_HIGH load(1, XDATA, add(CFA_XSP16, literal(-4)))
          CFI ?BRET_EXT load(1, XDATA, add(CFA_XSP16, literal(-3)))
          CFI DPL0 load(1, XDATA, add(CFA_XSP16, literal(-2)))
          CFI DPH0 load(1, XDATA, add(CFA_XSP16, literal(-1)))
          CFI CFA_XSP16 add(XSP16, 83)
          CFI Block cfiCond39 Using cfiCommon0
          CFI (cfiCond39) Function zclZEM_AF_RxProc
          CFI (cfiCond39) Conditional ??CrossCallReturnLabel_22
          CFI (cfiCond39) R6 load(1, XDATA, add(CFA_XSP16, literal(-19)))
          CFI (cfiCond39) VB load(1, XDATA, add(CFA_XSP16, literal(-18)))
          CFI (cfiCond39) V0 load(1, XDATA, add(CFA_XSP16, literal(-17)))
          CFI (cfiCond39) V1 load(1, XDATA, add(CFA_XSP16, literal(-16)))
          CFI (cfiCond39) V2 load(1, XDATA, add(CFA_XSP16, literal(-15)))
          CFI (cfiCond39) V3 load(1, XDATA, add(CFA_XSP16, literal(-14)))
          CFI (cfiCond39) V4 load(1, XDATA, add(CFA_XSP16, literal(-13)))
          CFI (cfiCond39) V5 load(1, XDATA, add(CFA_XSP16, literal(-12)))
          CFI (cfiCond39) V6 load(1, XDATA, add(CFA_XSP16, literal(-11)))
          CFI (cfiCond39) V7 load(1, XDATA, add(CFA_XSP16, literal(-10)))
          CFI (cfiCond39) V8 load(1, XDATA, add(CFA_XSP16, literal(-9)))
          CFI (cfiCond39) V9 load(1, XDATA, add(CFA_XSP16, literal(-8)))
          CFI (cfiCond39) V10 load(1, XDATA, add(CFA_XSP16, literal(-7)))
          CFI (cfiCond39) R7 load(1, XDATA, add(CFA_XSP16, literal(-6)))
          CFI (cfiCond39) ?RET_LOW load(1, XDATA, add(CFA_XSP16, literal(-5)))
          CFI (cfiCond39) ?RET_HIGH load(1, XDATA, add(CFA_XSP16, literal(-4)))
          CFI (cfiCond39) ?BRET_EXT load(1, XDATA, add(CFA_XSP16, literal(-3)))
          CFI (cfiCond39) DPL0 load(1, XDATA, add(CFA_XSP16, literal(-2)))
          CFI (cfiCond39) DPH0 load(1, XDATA, add(CFA_XSP16, literal(-1)))
          CFI (cfiCond39) CFA_XSP16 add(XSP16, 83)
          CFI Block cfiPicker40 Using cfiCommon1
          CFI (cfiPicker40) NoFunction
          CFI (cfiPicker40) Picker
        MOV       DPL,R6
        MOV       DPH,R7
        MOV       R0,?XSP + 0
        MOV       ?V0,R0
          CFI EndBlock cfiCond38
          CFI EndBlock cfiCond39
          CFI EndBlock cfiPicker40
        REQUIRE ??Subroutine16_0
        ; // Fall through to label ??Subroutine16_0

        RSEG BANKED_CODE:HUGECODE:NOROOT(0)
??Subroutine16_0:
          CFI Block cfiCond41 Using cfiCommon0
          CFI Function zclZEM_AF_RxProc
          CFI Conditional ??CrossCallReturnLabel_20
          CFI R6 load(1, XDATA, add(CFA_XSP16, literal(-19)))
          CFI VB load(1, XDATA, add(CFA_XSP16, literal(-18)))
          CFI V0 load(1, XDATA, add(CFA_XSP16, literal(-17)))
          CFI V1 load(1, XDATA, add(CFA_XSP16, literal(-16)))
          CFI V2 load(1, XDATA, add(CFA_XSP16, literal(-15)))
          CFI V3 load(1, XDATA, add(CFA_XSP16, literal(-14)))
          CFI V4 load(1, XDATA, add(CFA_XSP16, literal(-13)))
          CFI V5 load(1, XDATA, add(CFA_XSP16, literal(-12)))
          CFI V6 load(1, XDATA, add(CFA_XSP16, literal(-11)))
          CFI V7 load(1, XDATA, add(CFA_XSP16, literal(-10)))
          CFI V8 load(1, XDATA, add(CFA_XSP16, literal(-9)))
          CFI V9 load(1, XDATA, add(CFA_XSP16, literal(-8)))
          CFI V10 load(1, XDATA, add(CFA_XSP16, literal(-7)))
          CFI R7 load(1, XDATA, add(CFA_XSP16, literal(-6)))
          CFI ?RET_LOW load(1, XDATA, add(CFA_XSP16, literal(-5)))
          CFI ?RET_HIGH load(1, XDATA, add(CFA_XSP16, literal(-4)))
          CFI ?BRET_EXT load(1, XDATA, add(CFA_XSP16, literal(-3)))
          CFI DPL0 load(1, XDATA, add(CFA_XSP16, literal(-2)))
          CFI DPH0 load(1, XDATA, add(CFA_XSP16, literal(-1)))
          CFI CFA_SP SP+-2
          CFI CFA_XSP16 add(XSP16, 86)
          CFI Block cfiCond42 Using cfiCommon0
          CFI (cfiCond42) Function zclZEM_AF_RxProc
          CFI (cfiCond42) Conditional ??CrossCallReturnLabel_21
          CFI (cfiCond42) R6 load(1, XDATA, add(CFA_XSP16, literal(-19)))
          CFI (cfiCond42) VB load(1, XDATA, add(CFA_XSP16, literal(-18)))
          CFI (cfiCond42) V0 load(1, XDATA, add(CFA_XSP16, literal(-17)))
          CFI (cfiCond42) V1 load(1, XDATA, add(CFA_XSP16, literal(-16)))
          CFI (cfiCond42) V2 load(1, XDATA, add(CFA_XSP16, literal(-15)))
          CFI (cfiCond42) V3 load(1, XDATA, add(CFA_XSP16, literal(-14)))
          CFI (cfiCond42) V4 load(1, XDATA, add(CFA_XSP16, literal(-13)))
          CFI (cfiCond42) V5 load(1, XDATA, add(CFA_XSP16, literal(-12)))
          CFI (cfiCond42) V6 load(1, XDATA, add(CFA_XSP16, literal(-11)))
          CFI (cfiCond42) V7 load(1, XDATA, add(CFA_XSP16, literal(-10)))
          CFI (cfiCond42) V8 load(1, XDATA, add(CFA_XSP16, literal(-9)))
          CFI (cfiCond42) V9 load(1, XDATA, add(CFA_XSP16, literal(-8)))
          CFI (cfiCond42) V10 load(1, XDATA, add(CFA_XSP16, literal(-7)))
          CFI (cfiCond42) R7 load(1, XDATA, add(CFA_XSP16, literal(-6)))
          CFI (cfiCond42) ?RET_LOW load(1, XDATA, add(CFA_XSP16, literal(-5)))
          CFI (cfiCond42) ?RET_HIGH load(1, XDATA, add(CFA_XSP16, literal(-4)))
          CFI (cfiCond42) ?BRET_EXT load(1, XDATA, add(CFA_XSP16, literal(-3)))
          CFI (cfiCond42) DPL0 load(1, XDATA, add(CFA_XSP16, literal(-2)))
          CFI (cfiCond42) DPH0 load(1, XDATA, add(CFA_XSP16, literal(-1)))
          CFI (cfiCond42) CFA_XSP16 add(XSP16, 83)
          CFI Block cfiCond43 Using cfiCommon0
          CFI (cfiCond43) Function zclZEM_AF_RxProc
          CFI (cfiCond43) Conditional ??CrossCallReturnLabel_22
          CFI (cfiCond43) R6 load(1, XDATA, add(CFA_XSP16, literal(-19)))
          CFI (cfiCond43) VB load(1, XDATA, add(CFA_XSP16, literal(-18)))
          CFI (cfiCond43) V0 load(1, XDATA, add(CFA_XSP16, literal(-17)))
          CFI (cfiCond43) V1 load(1, XDATA, add(CFA_XSP16, literal(-16)))
          CFI (cfiCond43) V2 load(1, XDATA, add(CFA_XSP16, literal(-15)))
          CFI (cfiCond43) V3 load(1, XDATA, add(CFA_XSP16, literal(-14)))
          CFI (cfiCond43) V4 load(1, XDATA, add(CFA_XSP16, literal(-13)))
          CFI (cfiCond43) V5 load(1, XDATA, add(CFA_XSP16, literal(-12)))
          CFI (cfiCond43) V6 load(1, XDATA, add(CFA_XSP16, literal(-11)))
          CFI (cfiCond43) V7 load(1, XDATA, add(CFA_XSP16, literal(-10)))
          CFI (cfiCond43) V8 load(1, XDATA, add(CFA_XSP16, literal(-9)))
          CFI (cfiCond43) V9 load(1, XDATA, add(CFA_XSP16, literal(-8)))
          CFI (cfiCond43) V10 load(1, XDATA, add(CFA_XSP16, literal(-7)))
          CFI (cfiCond43) R7 load(1, XDATA, add(CFA_XSP16, literal(-6)))
          CFI (cfiCond43) ?RET_LOW load(1, XDATA, add(CFA_XSP16, literal(-5)))
          CFI (cfiCond43) ?RET_HIGH load(1, XDATA, add(CFA_XSP16, literal(-4)))
          CFI (cfiCond43) ?BRET_EXT load(1, XDATA, add(CFA_XSP16, literal(-3)))
          CFI (cfiCond43) DPL0 load(1, XDATA, add(CFA_XSP16, literal(-2)))
          CFI (cfiCond43) DPH0 load(1, XDATA, add(CFA_XSP16, literal(-1)))
          CFI (cfiCond43) CFA_XSP16 add(XSP16, 83)
          CFI Block cfiPicker44 Using cfiCommon1
          CFI (cfiPicker44) NoFunction
          CFI (cfiPicker44) Picker
        LCALL     ?Subroutine14 & 0xFFFF
??CrossCallReturnLabel_24:
        RET
          CFI EndBlock cfiCond41
          CFI EndBlock cfiCond42
          CFI EndBlock cfiCond43
          CFI EndBlock cfiPicker44

        RSEG BANKED_CODE:HUGECODE:NOROOT(0)
?Subroutine14:
          CFI Block cfiCond45 Using cfiCommon0
          CFI Function zclZEM_AF_RxProc
          CFI Conditional ??CrossCallReturnLabel_24, ??CrossCallReturnLabel_21
          CFI R6 load(1, XDATA, add(CFA_XSP16, literal(-19)))
          CFI VB load(1, XDATA, add(CFA_XSP16, literal(-18)))
          CFI V0 load(1, XDATA, add(CFA_XSP16, literal(-17)))
          CFI V1 load(1, XDATA, add(CFA_XSP16, literal(-16)))
          CFI V2 load(1, XDATA, add(CFA_XSP16, literal(-15)))
          CFI V3 load(1, XDATA, add(CFA_XSP16, literal(-14)))
          CFI V4 load(1, XDATA, add(CFA_XSP16, literal(-13)))
          CFI V5 load(1, XDATA, add(CFA_XSP16, literal(-12)))
          CFI V6 load(1, XDATA, add(CFA_XSP16, literal(-11)))
          CFI V7 load(1, XDATA, add(CFA_XSP16, literal(-10)))
          CFI V8 load(1, XDATA, add(CFA_XSP16, literal(-9)))
          CFI V9 load(1, XDATA, add(CFA_XSP16, literal(-8)))
          CFI V10 load(1, XDATA, add(CFA_XSP16, literal(-7)))
          CFI R7 load(1, XDATA, add(CFA_XSP16, literal(-6)))
          CFI ?RET_LOW load(1, XDATA, add(CFA_XSP16, literal(-5)))
          CFI ?RET_HIGH load(1, XDATA, add(CFA_XSP16, literal(-4)))
          CFI ?BRET_EXT load(1, XDATA, add(CFA_XSP16, literal(-3)))
          CFI DPL0 load(1, XDATA, add(CFA_XSP16, literal(-2)))
          CFI DPH0 load(1, XDATA, add(CFA_XSP16, literal(-1)))
          CFI CFA_SP SP+-5
          CFI CFA_XSP16 add(XSP16, 83)
          CFI Block cfiCond46 Using cfiCommon0
          CFI (cfiCond46) Function zclZEM_AF_RxProc
          CFI (cfiCond46) Conditional ??CrossCallReturnLabel_24, ??CrossCallReturnLabel_22
          CFI (cfiCond46) R6 load(1, XDATA, add(CFA_XSP16, literal(-19)))
          CFI (cfiCond46) VB load(1, XDATA, add(CFA_XSP16, literal(-18)))
          CFI (cfiCond46) V0 load(1, XDATA, add(CFA_XSP16, literal(-17)))
          CFI (cfiCond46) V1 load(1, XDATA, add(CFA_XSP16, literal(-16)))
          CFI (cfiCond46) V2 load(1, XDATA, add(CFA_XSP16, literal(-15)))
          CFI (cfiCond46) V3 load(1, XDATA, add(CFA_XSP16, literal(-14)))
          CFI (cfiCond46) V4 load(1, XDATA, add(CFA_XSP16, literal(-13)))
          CFI (cfiCond46) V5 load(1, XDATA, add(CFA_XSP16, literal(-12)))
          CFI (cfiCond46) V6 load(1, XDATA, add(CFA_XSP16, literal(-11)))
          CFI (cfiCond46) V7 load(1, XDATA, add(CFA_XSP16, literal(-10)))
          CFI (cfiCond46) V8 load(1, XDATA, add(CFA_XSP16, literal(-9)))
          CFI (cfiCond46) V9 load(1, XDATA, add(CFA_XSP16, literal(-8)))
          CFI (cfiCond46) V10 load(1, XDATA, add(CFA_XSP16, literal(-7)))
          CFI (cfiCond46) R7 load(1, XDATA, add(CFA_XSP16, literal(-6)))
          CFI (cfiCond46) ?RET_LOW load(1, XDATA, add(CFA_XSP16, literal(-5)))
          CFI (cfiCond46) ?RET_HIGH load(1, XDATA, add(CFA_XSP16, literal(-4)))
          CFI (cfiCond46) ?BRET_EXT load(1, XDATA, add(CFA_XSP16, literal(-3)))
          CFI (cfiCond46) DPL0 load(1, XDATA, add(CFA_XSP16, literal(-2)))
          CFI (cfiCond46) DPH0 load(1, XDATA, add(CFA_XSP16, literal(-1)))
          CFI (cfiCond46) CFA_SP SP+-5
          CFI (cfiCond46) CFA_XSP16 add(XSP16, 83)
          CFI Block cfiCond47 Using cfiCommon0
          CFI (cfiCond47) Function zclZEM_AF_RxProc
          CFI (cfiCond47) Conditional ??CrossCallReturnLabel_24, ??CrossCallReturnLabel_20
          CFI (cfiCond47) R6 load(1, XDATA, add(CFA_XSP16, literal(-19)))
          CFI (cfiCond47) VB load(1, XDATA, add(CFA_XSP16, literal(-18)))
          CFI (cfiCond47) V0 load(1, XDATA, add(CFA_XSP16, literal(-17)))
          CFI (cfiCond47) V1 load(1, XDATA, add(CFA_XSP16, literal(-16)))
          CFI (cfiCond47) V2 load(1, XDATA, add(CFA_XSP16, literal(-15)))
          CFI (cfiCond47) V3 load(1, XDATA, add(CFA_XSP16, literal(-14)))
          CFI (cfiCond47) V4 load(1, XDATA, add(CFA_XSP16, literal(-13)))
          CFI (cfiCond47) V5 load(1, XDATA, add(CFA_XSP16, literal(-12)))
          CFI (cfiCond47) V6 load(1, XDATA, add(CFA_XSP16, literal(-11)))
          CFI (cfiCond47) V7 load(1, XDATA, add(CFA_XSP16, literal(-10)))
          CFI (cfiCond47) V8 load(1, XDATA, add(CFA_XSP16, literal(-9)))
          CFI (cfiCond47) V9 load(1, XDATA, add(CFA_XSP16, literal(-8)))
          CFI (cfiCond47) V10 load(1, XDATA, add(CFA_XSP16, literal(-7)))
          CFI (cfiCond47) R7 load(1, XDATA, add(CFA_XSP16, literal(-6)))
          CFI (cfiCond47) ?RET_LOW load(1, XDATA, add(CFA_XSP16, literal(-5)))
          CFI (cfiCond47) ?RET_HIGH load(1, XDATA, add(CFA_XSP16, literal(-4)))
          CFI (cfiCond47) ?BRET_EXT load(1, XDATA, add(CFA_XSP16, literal(-3)))
          CFI (cfiCond47) DPL0 load(1, XDATA, add(CFA_XSP16, literal(-2)))
          CFI (cfiCond47) DPH0 load(1, XDATA, add(CFA_XSP16, literal(-1)))
          CFI (cfiCond47) CFA_SP SP+-4
          CFI (cfiCond47) CFA_XSP16 add(XSP16, 86)
          CFI Block cfiCond48 Using cfiCommon0
          CFI (cfiCond48) Function zclZEM_AF_RxProc
          CFI (cfiCond48) Conditional ??CrossCallReturnLabel_23, ??CrossCallReturnLabel_3
          CFI (cfiCond48) R6 load(1, XDATA, add(CFA_XSP16, literal(-19)))
          CFI (cfiCond48) VB load(1, XDATA, add(CFA_XSP16, literal(-18)))
          CFI (cfiCond48) V0 load(1, XDATA, add(CFA_XSP16, literal(-17)))
          CFI (cfiCond48) V1 load(1, XDATA, add(CFA_XSP16, literal(-16)))
          CFI (cfiCond48) V2 load(1, XDATA, add(CFA_XSP16, literal(-15)))
          CFI (cfiCond48) V3 load(1, XDATA, add(CFA_XSP16, literal(-14)))
          CFI (cfiCond48) V4 load(1, XDATA, add(CFA_XSP16, literal(-13)))
          CFI (cfiCond48) V5 load(1, XDATA, add(CFA_XSP16, literal(-12)))
          CFI (cfiCond48) V6 load(1, XDATA, add(CFA_XSP16, literal(-11)))
          CFI (cfiCond48) V7 load(1, XDATA, add(CFA_XSP16, literal(-10)))
          CFI (cfiCond48) V8 load(1, XDATA, add(CFA_XSP16, literal(-9)))
          CFI (cfiCond48) V9 load(1, XDATA, add(CFA_XSP16, literal(-8)))
          CFI (cfiCond48) V10 load(1, XDATA, add(CFA_XSP16, literal(-7)))
          CFI (cfiCond48) R7 load(1, XDATA, add(CFA_XSP16, literal(-6)))
          CFI (cfiCond48) ?RET_LOW load(1, XDATA, add(CFA_XSP16, literal(-5)))
          CFI (cfiCond48) ?RET_HIGH load(1, XDATA, add(CFA_XSP16, literal(-4)))
          CFI (cfiCond48) ?BRET_EXT load(1, XDATA, add(CFA_XSP16, literal(-3)))
          CFI (cfiCond48) DPL0 load(1, XDATA, add(CFA_XSP16, literal(-2)))
          CFI (cfiCond48) DPH0 load(1, XDATA, add(CFA_XSP16, literal(-1)))
          CFI (cfiCond48) CFA_SP SP+-4
          CFI (cfiCond48) CFA_XSP16 add(XSP16, 86)
          CFI Block cfiCond49 Using cfiCommon0
          CFI (cfiCond49) Function zclZEM_AF_RxProc
          CFI (cfiCond49) Conditional ??CrossCallReturnLabel_23, ??CrossCallReturnLabel_4
          CFI (cfiCond49) R6 load(1, XDATA, add(CFA_XSP16, literal(-19)))
          CFI (cfiCond49) VB load(1, XDATA, add(CFA_XSP16, literal(-18)))
          CFI (cfiCond49) V0 load(1, XDATA, add(CFA_XSP16, literal(-17)))
          CFI (cfiCond49) V1 load(1, XDATA, add(CFA_XSP16, literal(-16)))
          CFI (cfiCond49) V2 load(1, XDATA, add(CFA_XSP16, literal(-15)))
          CFI (cfiCond49) V3 load(1, XDATA, add(CFA_XSP16, literal(-14)))
          CFI (cfiCond49) V4 load(1, XDATA, add(CFA_XSP16, literal(-13)))
          CFI (cfiCond49) V5 load(1, XDATA, add(CFA_XSP16, literal(-12)))
          CFI (cfiCond49) V6 load(1, XDATA, add(CFA_XSP16, literal(-11)))
          CFI (cfiCond49) V7 load(1, XDATA, add(CFA_XSP16, literal(-10)))
          CFI (cfiCond49) V8 load(1, XDATA, add(CFA_XSP16, literal(-9)))
          CFI (cfiCond49) V9 load(1, XDATA, add(CFA_XSP16, literal(-8)))
          CFI (cfiCond49) V10 load(1, XDATA, add(CFA_XSP16, literal(-7)))
          CFI (cfiCond49) R7 load(1, XDATA, add(CFA_XSP16, literal(-6)))
          CFI (cfiCond49) ?RET_LOW load(1, XDATA, add(CFA_XSP16, literal(-5)))
          CFI (cfiCond49) ?RET_HIGH load(1, XDATA, add(CFA_XSP16, literal(-4)))
          CFI (cfiCond49) ?BRET_EXT load(1, XDATA, add(CFA_XSP16, literal(-3)))
          CFI (cfiCond49) DPL0 load(1, XDATA, add(CFA_XSP16, literal(-2)))
          CFI (cfiCond49) DPH0 load(1, XDATA, add(CFA_XSP16, literal(-1)))
          CFI (cfiCond49) CFA_SP SP+-4
          CFI (cfiCond49) CFA_XSP16 add(XSP16, 86)
          CFI Block cfiPicker50 Using cfiCommon1
          CFI (cfiPicker50) NoFunction
          CFI (cfiPicker50) Picker
        MOVX      A,@DPTR
        ADD       A,R0
        MOV       R0,A
        INC       DPTR
        MOVX      A,@DPTR
        ADDC      A,?V1
        MOV       R1,A
        MOV       A,R0
        RET
          CFI EndBlock cfiCond45
          CFI EndBlock cfiCond46
          CFI EndBlock cfiCond47
          CFI EndBlock cfiCond48
          CFI EndBlock cfiCond49
          CFI EndBlock cfiPicker50

        RSEG BANKED_CODE:HUGECODE:NOROOT(0)
?Subroutine5:
          CFI Block cfiCond51 Using cfiCommon0
          CFI Function zclZEM_AF_RxProc
          CFI Conditional ??CrossCallReturnLabel_3
          CFI R6 load(1, XDATA, add(CFA_XSP16, literal(-19)))
          CFI VB load(1, XDATA, add(CFA_XSP16, literal(-18)))
          CFI V0 load(1, XDATA, add(CFA_XSP16, literal(-17)))
          CFI V1 load(1, XDATA, add(CFA_XSP16, literal(-16)))
          CFI V2 load(1, XDATA, add(CFA_XSP16, literal(-15)))
          CFI V3 load(1, XDATA, add(CFA_XSP16, literal(-14)))
          CFI V4 load(1, XDATA, add(CFA_XSP16, literal(-13)))
          CFI V5 load(1, XDATA, add(CFA_XSP16, literal(-12)))
          CFI V6 load(1, XDATA, add(CFA_XSP16, literal(-11)))
          CFI V7 load(1, XDATA, add(CFA_XSP16, literal(-10)))
          CFI V8 load(1, XDATA, add(CFA_XSP16, literal(-9)))
          CFI V9 load(1, XDATA, add(CFA_XSP16, literal(-8)))
          CFI V10 load(1, XDATA, add(CFA_XSP16, literal(-7)))
          CFI R7 load(1, XDATA, add(CFA_XSP16, literal(-6)))
          CFI ?RET_LOW load(1, XDATA, add(CFA_XSP16, literal(-5)))
          CFI ?RET_HIGH load(1, XDATA, add(CFA_XSP16, literal(-4)))
          CFI ?BRET_EXT load(1, XDATA, add(CFA_XSP16, literal(-3)))
          CFI DPL0 load(1, XDATA, add(CFA_XSP16, literal(-2)))
          CFI DPH0 load(1, XDATA, add(CFA_XSP16, literal(-1)))
          CFI CFA_SP SP+-2
          CFI CFA_XSP16 add(XSP16, 86)
          CFI Block cfiCond52 Using cfiCommon0
          CFI (cfiCond52) Function zclZEM_AF_RxProc
          CFI (cfiCond52) Conditional ??CrossCallReturnLabel_4
          CFI (cfiCond52) R6 load(1, XDATA, add(CFA_XSP16, literal(-19)))
          CFI (cfiCond52) VB load(1, XDATA, add(CFA_XSP16, literal(-18)))
          CFI (cfiCond52) V0 load(1, XDATA, add(CFA_XSP16, literal(-17)))
          CFI (cfiCond52) V1 load(1, XDATA, add(CFA_XSP16, literal(-16)))
          CFI (cfiCond52) V2 load(1, XDATA, add(CFA_XSP16, literal(-15)))
          CFI (cfiCond52) V3 load(1, XDATA, add(CFA_XSP16, literal(-14)))
          CFI (cfiCond52) V4 load(1, XDATA, add(CFA_XSP16, literal(-13)))
          CFI (cfiCond52) V5 load(1, XDATA, add(CFA_XSP16, literal(-12)))
          CFI (cfiCond52) V6 load(1, XDATA, add(CFA_XSP16, literal(-11)))
          CFI (cfiCond52) V7 load(1, XDATA, add(CFA_XSP16, literal(-10)))
          CFI (cfiCond52) V8 load(1, XDATA, add(CFA_XSP16, literal(-9)))
          CFI (cfiCond52) V9 load(1, XDATA, add(CFA_XSP16, literal(-8)))
          CFI (cfiCond52) V10 load(1, XDATA, add(CFA_XSP16, literal(-7)))
          CFI (cfiCond52) R7 load(1, XDATA, add(CFA_XSP16, literal(-6)))
          CFI (cfiCond52) ?RET_LOW load(1, XDATA, add(CFA_XSP16, literal(-5)))
          CFI (cfiCond52) ?RET_HIGH load(1, XDATA, add(CFA_XSP16, literal(-4)))
          CFI (cfiCond52) ?BRET_EXT load(1, XDATA, add(CFA_XSP16, literal(-3)))
          CFI (cfiCond52) DPL0 load(1, XDATA, add(CFA_XSP16, literal(-2)))
          CFI (cfiCond52) DPH0 load(1, XDATA, add(CFA_XSP16, literal(-1)))
          CFI (cfiCond52) CFA_SP SP+-2
          CFI (cfiCond52) CFA_XSP16 add(XSP16, 86)
          CFI Block cfiPicker53 Using cfiCommon1
          CFI (cfiPicker53) NoFunction
          CFI (cfiPicker53) Picker
        MOV       ?V1,R1
        LCALL     ?Subroutine14 & 0xFFFF
??CrossCallReturnLabel_23:
        ADD       A,#0x10
        MOV       R2,A
        CLR       A
        ADDC      A,R1
        MOV       R3,A
        RET
          CFI EndBlock cfiCond51
          CFI EndBlock cfiCond52
          CFI EndBlock cfiPicker53

        RSEG BANKED_CODE:HUGECODE:NOROOT(0)
?Subroutine4:
          CFI Block cfiCond54 Using cfiCommon0
          CFI Function zclZEM_AF_RxProc
          CFI Conditional ??CrossCallReturnLabel_0
          CFI R6 load(1, XDATA, add(CFA_XSP16, literal(-19)))
          CFI VB load(1, XDATA, add(CFA_XSP16, literal(-18)))
          CFI V0 load(1, XDATA, add(CFA_XSP16, literal(-17)))
          CFI V1 load(1, XDATA, add(CFA_XSP16, literal(-16)))
          CFI V2 load(1, XDATA, add(CFA_XSP16, literal(-15)))
          CFI V3 load(1, XDATA, add(CFA_XSP16, literal(-14)))
          CFI V4 load(1, XDATA, add(CFA_XSP16, literal(-13)))
          CFI V5 load(1, XDATA, add(CFA_XSP16, literal(-12)))
          CFI V6 load(1, XDATA, add(CFA_XSP16, literal(-11)))
          CFI V7 load(1, XDATA, add(CFA_XSP16, literal(-10)))
          CFI V8 load(1, XDATA, add(CFA_XSP16, literal(-9)))
          CFI V9 load(1, XDATA, add(CFA_XSP16, literal(-8)))
          CFI V10 load(1, XDATA, add(CFA_XSP16, literal(-7)))
          CFI R7 load(1, XDATA, add(CFA_XSP16, literal(-6)))
          CFI ?RET_LOW load(1, XDATA, add(CFA_XSP16, literal(-5)))
          CFI ?RET_HIGH load(1, XDATA, add(CFA_XSP16, literal(-4)))
          CFI ?BRET_EXT load(1, XDATA, add(CFA_XSP16, literal(-3)))
          CFI DPL0 load(1, XDATA, add(CFA_XSP16, literal(-2)))
          CFI DPH0 load(1, XDATA, add(CFA_XSP16, literal(-1)))
          CFI CFA_SP SP+-2
          CFI CFA_XSP16 add(XSP16, 83)
          CFI Block cfiCond55 Using cfiCommon0
          CFI (cfiCond55) Function zclZEM_AF_RxProc
          CFI (cfiCond55) Conditional ??CrossCallReturnLabel_1
          CFI (cfiCond55) R6 load(1, XDATA, add(CFA_XSP16, literal(-19)))
          CFI (cfiCond55) VB load(1, XDATA, add(CFA_XSP16, literal(-18)))
          CFI (cfiCond55) V0 load(1, XDATA, add(CFA_XSP16, literal(-17)))
          CFI (cfiCond55) V1 load(1, XDATA, add(CFA_XSP16, literal(-16)))
          CFI (cfiCond55) V2 load(1, XDATA, add(CFA_XSP16, literal(-15)))
          CFI (cfiCond55) V3 load(1, XDATA, add(CFA_XSP16, literal(-14)))
          CFI (cfiCond55) V4 load(1, XDATA, add(CFA_XSP16, literal(-13)))
          CFI (cfiCond55) V5 load(1, XDATA, add(CFA_XSP16, literal(-12)))
          CFI (cfiCond55) V6 load(1, XDATA, add(CFA_XSP16, literal(-11)))
          CFI (cfiCond55) V7 load(1, XDATA, add(CFA_XSP16, literal(-10)))
          CFI (cfiCond55) V8 load(1, XDATA, add(CFA_XSP16, literal(-9)))
          CFI (cfiCond55) V9 load(1, XDATA, add(CFA_XSP16, literal(-8)))
          CFI (cfiCond55) V10 load(1, XDATA, add(CFA_XSP16, literal(-7)))
          CFI (cfiCond55) R7 load(1, XDATA, add(CFA_XSP16, literal(-6)))
          CFI (cfiCond55) ?RET_LOW load(1, XDATA, add(CFA_XSP16, literal(-5)))
          CFI (cfiCond55) ?RET_HIGH load(1, XDATA, add(CFA_XSP16, literal(-4)))
          CFI (cfiCond55) ?BRET_EXT load(1, XDATA, add(CFA_XSP16, literal(-3)))
          CFI (cfiCond55) DPL0 load(1, XDATA, add(CFA_XSP16, literal(-2)))
          CFI (cfiCond55) DPH0 load(1, XDATA, add(CFA_XSP16, literal(-1)))
          CFI (cfiCond55) CFA_SP SP+-2
          CFI (cfiCond55) CFA_XSP16 add(XSP16, 83)
          CFI Block cfiCond56 Using cfiCommon0
          CFI (cfiCond56) Function zclZEM_AF_RxProc
          CFI (cfiCond56) Conditional ??CrossCallReturnLabel_2
          CFI (cfiCond56) R6 load(1, XDATA, add(CFA_XSP16, literal(-19)))
          CFI (cfiCond56) VB load(1, XDATA, add(CFA_XSP16, literal(-18)))
          CFI (cfiCond56) V0 load(1, XDATA, add(CFA_XSP16, literal(-17)))
          CFI (cfiCond56) V1 load(1, XDATA, add(CFA_XSP16, literal(-16)))
          CFI (cfiCond56) V2 load(1, XDATA, add(CFA_XSP16, literal(-15)))
          CFI (cfiCond56) V3 load(1, XDATA, add(CFA_XSP16, literal(-14)))
          CFI (cfiCond56) V4 load(1, XDATA, add(CFA_XSP16, literal(-13)))
          CFI (cfiCond56) V5 load(1, XDATA, add(CFA_XSP16, literal(-12)))
          CFI (cfiCond56) V6 load(1, XDATA, add(CFA_XSP16, literal(-11)))
          CFI (cfiCond56) V7 load(1, XDATA, add(CFA_XSP16, literal(-10)))
          CFI (cfiCond56) V8 load(1, XDATA, add(CFA_XSP16, literal(-9)))
          CFI (cfiCond56) V9 load(1, XDATA, add(CFA_XSP16, literal(-8)))
          CFI (cfiCond56) V10 load(1, XDATA, add(CFA_XSP16, literal(-7)))
          CFI (cfiCond56) R7 load(1, XDATA, add(CFA_XSP16, literal(-6)))
          CFI (cfiCond56) ?RET_LOW load(1, XDATA, add(CFA_XSP16, literal(-5)))
          CFI (cfiCond56) ?RET_HIGH load(1, XDATA, add(CFA_XSP16, literal(-4)))
          CFI (cfiCond56) ?BRET_EXT load(1, XDATA, add(CFA_XSP16, literal(-3)))
          CFI (cfiCond56) DPL0 load(1, XDATA, add(CFA_XSP16, literal(-2)))
          CFI (cfiCond56) DPH0 load(1, XDATA, add(CFA_XSP16, literal(-1)))
          CFI (cfiCond56) CFA_SP SP+-2
          CFI (cfiCond56) CFA_XSP16 add(XSP16, 83)
          CFI Block cfiPicker57 Using cfiCommon1
          CFI (cfiPicker57) NoFunction
          CFI (cfiPicker57) Picker
        MOV       DPL,?V0
        MOV       DPH,?V1
        MOVX      A,@DPTR
        MOV       ?V0,A
        INC       DPTR
        MOVX      A,@DPTR
        MOV       ?V1,A
        MOV       ?V2,#0x0
        MOV       R0,#?V0
        RET
          CFI EndBlock cfiCond54
          CFI EndBlock cfiCond55
          CFI EndBlock cfiCond56
          CFI EndBlock cfiPicker57

        RSEG BANKED_CODE:HUGECODE:NOROOT(0)
?Subroutine3:
          CFI Block cfiCond58 Using cfiCommon0
          CFI Function zclZEM_AF_RxProc
          CFI Conditional ??CrossCallReturnLabel_25
          CFI R6 load(1, XDATA, add(CFA_XSP16, literal(-19)))
          CFI VB load(1, XDATA, add(CFA_XSP16, literal(-18)))
          CFI V0 load(1, XDATA, add(CFA_XSP16, literal(-17)))
          CFI V1 load(1, XDATA, add(CFA_XSP16, literal(-16)))
          CFI V2 load(1, XDATA, add(CFA_XSP16, literal(-15)))
          CFI V3 load(1, XDATA, add(CFA_XSP16, literal(-14)))
          CFI V4 load(1, XDATA, add(CFA_XSP16, literal(-13)))
          CFI V5 load(1, XDATA, add(CFA_XSP16, literal(-12)))
          CFI V6 load(1, XDATA, add(CFA_XSP16, literal(-11)))
          CFI V7 load(1, XDATA, add(CFA_XSP16, literal(-10)))
          CFI V8 load(1, XDATA, add(CFA_XSP16, literal(-9)))
          CFI V9 load(1, XDATA, add(CFA_XSP16, literal(-8)))
          CFI V10 load(1, XDATA, add(CFA_XSP16, literal(-7)))
          CFI R7 load(1, XDATA, add(CFA_XSP16, literal(-6)))
          CFI ?RET_LOW load(1, XDATA, add(CFA_XSP16, literal(-5)))
          CFI ?RET_HIGH load(1, XDATA, add(CFA_XSP16, literal(-4)))
          CFI ?BRET_EXT load(1, XDATA, add(CFA_XSP16, literal(-3)))
          CFI DPL0 load(1, XDATA, add(CFA_XSP16, literal(-2)))
          CFI DPH0 load(1, XDATA, add(CFA_XSP16, literal(-1)))
          CFI CFA_SP SP+-2
          CFI CFA_XSP16 add(XSP16, 83)
          CFI Block cfiCond59 Using cfiCommon0
          CFI (cfiCond59) Function zclZEM_AF_RxProc
          CFI (cfiCond59) Conditional ??CrossCallReturnLabel_26
          CFI (cfiCond59) R6 load(1, XDATA, add(CFA_XSP16, literal(-19)))
          CFI (cfiCond59) VB load(1, XDATA, add(CFA_XSP16, literal(-18)))
          CFI (cfiCond59) V0 load(1, XDATA, add(CFA_XSP16, literal(-17)))
          CFI (cfiCond59) V1 load(1, XDATA, add(CFA_XSP16, literal(-16)))
          CFI (cfiCond59) V2 load(1, XDATA, add(CFA_XSP16, literal(-15)))
          CFI (cfiCond59) V3 load(1, XDATA, add(CFA_XSP16, literal(-14)))
          CFI (cfiCond59) V4 load(1, XDATA, add(CFA_XSP16, literal(-13)))
          CFI (cfiCond59) V5 load(1, XDATA, add(CFA_XSP16, literal(-12)))
          CFI (cfiCond59) V6 load(1, XDATA, add(CFA_XSP16, literal(-11)))
          CFI (cfiCond59) V7 load(1, XDATA, add(CFA_XSP16, literal(-10)))
          CFI (cfiCond59) V8 load(1, XDATA, add(CFA_XSP16, literal(-9)))
          CFI (cfiCond59) V9 load(1, XDATA, add(CFA_XSP16, literal(-8)))
          CFI (cfiCond59) V10 load(1, XDATA, add(CFA_XSP16, literal(-7)))
          CFI (cfiCond59) R7 load(1, XDATA, add(CFA_XSP16, literal(-6)))
          CFI (cfiCond59) ?RET_LOW load(1, XDATA, add(CFA_XSP16, literal(-5)))
          CFI (cfiCond59) ?RET_HIGH load(1, XDATA, add(CFA_XSP16, literal(-4)))
          CFI (cfiCond59) ?BRET_EXT load(1, XDATA, add(CFA_XSP16, literal(-3)))
          CFI (cfiCond59) DPL0 load(1, XDATA, add(CFA_XSP16, literal(-2)))
          CFI (cfiCond59) DPH0 load(1, XDATA, add(CFA_XSP16, literal(-1)))
          CFI (cfiCond59) CFA_SP SP+-2
          CFI (cfiCond59) CFA_XSP16 add(XSP16, 83)
          CFI Block cfiPicker60 Using cfiCommon1
          CFI (cfiPicker60) NoFunction
          CFI (cfiPicker60) Picker
        MOV       DPL,A
        CLR       A
        ADDC      A,R1
        MOV       DPH,A
        MOV       A,#0xd
          CFI EndBlock cfiCond58
          CFI EndBlock cfiCond59
          CFI EndBlock cfiPicker60
        REQUIRE ??Subroutine17_0
        ; // Fall through to label ??Subroutine17_0

        RSEG BANKED_CODE:HUGECODE:NOROOT(0)
??Subroutine17_0:
          CFI Block cfiCond61 Using cfiCommon0
          CFI Function zclZEM_AF_RxProc
          CFI Conditional ??CrossCallReturnLabel_27
          CFI R6 load(1, XDATA, add(CFA_XSP16, literal(-19)))
          CFI VB load(1, XDATA, add(CFA_XSP16, literal(-18)))
          CFI V0 load(1, XDATA, add(CFA_XSP16, literal(-17)))
          CFI V1 load(1, XDATA, add(CFA_XSP16, literal(-16)))
          CFI V2 load(1, XDATA, add(CFA_XSP16, literal(-15)))
          CFI V3 load(1, XDATA, add(CFA_XSP16, literal(-14)))
          CFI V4 load(1, XDATA, add(CFA_XSP16, literal(-13)))
          CFI V5 load(1, XDATA, add(CFA_XSP16, literal(-12)))
          CFI V6 load(1, XDATA, add(CFA_XSP16, literal(-11)))
          CFI V7 load(1, XDATA, add(CFA_XSP16, literal(-10)))
          CFI V8 load(1, XDATA, add(CFA_XSP16, literal(-9)))
          CFI V9 load(1, XDATA, add(CFA_XSP16, literal(-8)))
          CFI V10 load(1, XDATA, add(CFA_XSP16, literal(-7)))
          CFI R7 load(1, XDATA, add(CFA_XSP16, literal(-6)))
          CFI ?RET_LOW load(1, XDATA, add(CFA_XSP16, literal(-5)))
          CFI ?RET_HIGH load(1, XDATA, add(CFA_XSP16, literal(-4)))
          CFI ?BRET_EXT load(1, XDATA, add(CFA_XSP16, literal(-3)))
          CFI DPL0 load(1, XDATA, add(CFA_XSP16, literal(-2)))
          CFI DPH0 load(1, XDATA, add(CFA_XSP16, literal(-1)))
          CFI CFA_SP SP+-2
          CFI CFA_XSP16 add(XSP16, 83)
          CFI Block cfiCond62 Using cfiCommon0
          CFI (cfiCond62) Function zclZEM_AF_RxProc
          CFI (cfiCond62) Conditional ??CrossCallReturnLabel_28
          CFI (cfiCond62) R6 load(1, XDATA, add(CFA_XSP16, literal(-19)))
          CFI (cfiCond62) VB load(1, XDATA, add(CFA_XSP16, literal(-18)))
          CFI (cfiCond62) V0 load(1, XDATA, add(CFA_XSP16, literal(-17)))
          CFI (cfiCond62) V1 load(1, XDATA, add(CFA_XSP16, literal(-16)))
          CFI (cfiCond62) V2 load(1, XDATA, add(CFA_XSP16, literal(-15)))
          CFI (cfiCond62) V3 load(1, XDATA, add(CFA_XSP16, literal(-14)))
          CFI (cfiCond62) V4 load(1, XDATA, add(CFA_XSP16, literal(-13)))
          CFI (cfiCond62) V5 load(1, XDATA, add(CFA_XSP16, literal(-12)))
          CFI (cfiCond62) V6 load(1, XDATA, add(CFA_XSP16, literal(-11)))
          CFI (cfiCond62) V7 load(1, XDATA, add(CFA_XSP16, literal(-10)))
          CFI (cfiCond62) V8 load(1, XDATA, add(CFA_XSP16, literal(-9)))
          CFI (cfiCond62) V9 load(1, XDATA, add(CFA_XSP16, literal(-8)))
          CFI (cfiCond62) V10 load(1, XDATA, add(CFA_XSP16, literal(-7)))
          CFI (cfiCond62) R7 load(1, XDATA, add(CFA_XSP16, literal(-6)))
          CFI (cfiCond62) ?RET_LOW load(1, XDATA, add(CFA_XSP16, literal(-5)))
          CFI (cfiCond62) ?RET_HIGH load(1, XDATA, add(CFA_XSP16, literal(-4)))
          CFI (cfiCond62) ?BRET_EXT load(1, XDATA, add(CFA_XSP16, literal(-3)))
          CFI (cfiCond62) DPL0 load(1, XDATA, add(CFA_XSP16, literal(-2)))
          CFI (cfiCond62) DPH0 load(1, XDATA, add(CFA_XSP16, literal(-1)))
          CFI (cfiCond62) CFA_SP SP+-2
          CFI (cfiCond62) CFA_XSP16 add(XSP16, 83)
          CFI Block cfiCond63 Using cfiCommon0
          CFI (cfiCond63) Function zclZEM_AF_RxProc
          CFI (cfiCond63) Conditional ??CrossCallReturnLabel_25
          CFI (cfiCond63) R6 load(1, XDATA, add(CFA_XSP16, literal(-19)))
          CFI (cfiCond63) VB load(1, XDATA, add(CFA_XSP16, literal(-18)))
          CFI (cfiCond63) V0 load(1, XDATA, add(CFA_XSP16, literal(-17)))
          CFI (cfiCond63) V1 load(1, XDATA, add(CFA_XSP16, literal(-16)))
          CFI (cfiCond63) V2 load(1, XDATA, add(CFA_XSP16, literal(-15)))
          CFI (cfiCond63) V3 load(1, XDATA, add(CFA_XSP16, literal(-14)))
          CFI (cfiCond63) V4 load(1, XDATA, add(CFA_XSP16, literal(-13)))
          CFI (cfiCond63) V5 load(1, XDATA, add(CFA_XSP16, literal(-12)))
          CFI (cfiCond63) V6 load(1, XDATA, add(CFA_XSP16, literal(-11)))
          CFI (cfiCond63) V7 load(1, XDATA, add(CFA_XSP16, literal(-10)))
          CFI (cfiCond63) V8 load(1, XDATA, add(CFA_XSP16, literal(-9)))
          CFI (cfiCond63) V9 load(1, XDATA, add(CFA_XSP16, literal(-8)))
          CFI (cfiCond63) V10 load(1, XDATA, add(CFA_XSP16, literal(-7)))
          CFI (cfiCond63) R7 load(1, XDATA, add(CFA_XSP16, literal(-6)))
          CFI (cfiCond63) ?RET_LOW load(1, XDATA, add(CFA_XSP16, literal(-5)))
          CFI (cfiCond63) ?RET_HIGH load(1, XDATA, add(CFA_XSP16, literal(-4)))
          CFI (cfiCond63) ?BRET_EXT load(1, XDATA, add(CFA_XSP16, literal(-3)))
          CFI (cfiCond63) DPL0 load(1, XDATA, add(CFA_XSP16, literal(-2)))
          CFI (cfiCond63) DPH0 load(1, XDATA, add(CFA_XSP16, literal(-1)))
          CFI (cfiCond63) CFA_SP SP+-2
          CFI (cfiCond63) CFA_XSP16 add(XSP16, 83)
          CFI Block cfiCond64 Using cfiCommon0
          CFI (cfiCond64) Function zclZEM_AF_RxProc
          CFI (cfiCond64) Conditional ??CrossCallReturnLabel_26
          CFI (cfiCond64) R6 load(1, XDATA, add(CFA_XSP16, literal(-19)))
          CFI (cfiCond64) VB load(1, XDATA, add(CFA_XSP16, literal(-18)))
          CFI (cfiCond64) V0 load(1, XDATA, add(CFA_XSP16, literal(-17)))
          CFI (cfiCond64) V1 load(1, XDATA, add(CFA_XSP16, literal(-16)))
          CFI (cfiCond64) V2 load(1, XDATA, add(CFA_XSP16, literal(-15)))
          CFI (cfiCond64) V3 load(1, XDATA, add(CFA_XSP16, literal(-14)))
          CFI (cfiCond64) V4 load(1, XDATA, add(CFA_XSP16, literal(-13)))
          CFI (cfiCond64) V5 load(1, XDATA, add(CFA_XSP16, literal(-12)))
          CFI (cfiCond64) V6 load(1, XDATA, add(CFA_XSP16, literal(-11)))
          CFI (cfiCond64) V7 load(1, XDATA, add(CFA_XSP16, literal(-10)))
          CFI (cfiCond64) V8 load(1, XDATA, add(CFA_XSP16, literal(-9)))
          CFI (cfiCond64) V9 load(1, XDATA, add(CFA_XSP16, literal(-8)))
          CFI (cfiCond64) V10 load(1, XDATA, add(CFA_XSP16, literal(-7)))
          CFI (cfiCond64) R7 load(1, XDATA, add(CFA_XSP16, literal(-6)))
          CFI (cfiCond64) ?RET_LOW load(1, XDATA, add(CFA_XSP16, literal(-5)))
          CFI (cfiCond64) ?RET_HIGH load(1, XDATA, add(CFA_XSP16, literal(-4)))
          CFI (cfiCond64) ?BRET_EXT load(1, XDATA, add(CFA_XSP16, literal(-3)))
          CFI (cfiCond64) DPL0 load(1, XDATA, add(CFA_XSP16, literal(-2)))
          CFI (cfiCond64) DPH0 load(1, XDATA, add(CFA_XSP16, literal(-1)))
          CFI (cfiCond64) CFA_SP SP+-2
          CFI (cfiCond64) CFA_XSP16 add(XSP16, 83)
          CFI Block cfiPicker65 Using cfiCommon1
          CFI (cfiPicker65) NoFunction
          CFI (cfiPicker65) Picker
        MOVX      @DPTR,A
        MOV       DPL,R6
        MOV       DPH,R7
        MOVX      A,@DPTR
        ADD       A,?V0
        MOV       R0,A
        INC       DPTR
        MOVX      A,@DPTR
        ADDC      A,?V1
        MOV       R1,A
        MOV       A,R0
        RET
          CFI EndBlock cfiCond61
          CFI EndBlock cfiCond62
          CFI EndBlock cfiCond63
          CFI EndBlock cfiCond64
          CFI EndBlock cfiPicker65

        RSEG XDATA_Z:XDATA:NOROOT(0)
        DATA8
??p2pCnt:
        DS 1
        REQUIRE __INIT_XDATA_Z

        RSEG XDATA_Z:XDATA:NOROOT(0)
        DATA8
??bcCnt:
        DS 1
        REQUIRE __INIT_XDATA_Z

        RSEG XDATA_Z:XDATA:NOROOT(0)
        DATA8
??gcCnt:
        DS 1
        REQUIRE __INIT_XDATA_Z

        RSEG XDATA_ID:CODE:NOROOT(0)
`?<Initializer for ZEM_AppEp>`:
        DATA8
        DB 8
        DB 0
        DATA16
        DW zclZEM_TaskID
        DW zclZEM_SimpleDesc
        DATA8
        DB 0

        RSEG XDATA_ID:CODE:NOROOT(0)
`?<Initializer for reportableChange>`:
        DATA8
        DB 44
        DB 1
        DB 0
        DB 0

        RSEG XDATA_ID:CODE:NOROOT(0)
`?<Initializer for zclZEM_CmdCallbacks>`:
        DATA16
        DW `??zclZEM_BasicResetCB::?relay`
        DW 0H
        DW 0H
        DW 0H
        DW 0H
        DW 0H
        DW 0H
        DW 0H
        DW 0H

        RSEG BANK_RELAYS:CODE:REORDER:NOROOT(0)
`??zclZEM_Init::?relay`:
        CODE
        LCALL   ?BDISPATCH
        DATA24
        DC24    zclZEM_Init

        RSEG BANK_RELAYS:CODE:REORDER:NOROOT(0)
`??zclZEM_event_loop::?relay`:
        CODE
        LCALL   ?BDISPATCH
        DATA24
        DC24    zclZEM_event_loop

        RSEG BANK_RELAYS:CODE:REORDER:NOROOT(0)
`??zclZEM_ReadAndSendMAC::?relay`:
        CODE
        LCALL   ?BDISPATCH
        DATA24
        DC24    zclZEM_ReadAndSendMAC

        RSEG BANK_RELAYS:CODE:REORDER:NOROOT(0)
`??zclZEM_UartCB::?relay`:
        CODE
        LCALL   ?BDISPATCH
        DATA24
        DC24    zclZEM_UartCB

        RSEG BANK_RELAYS:CODE:REORDER:NOROOT(0)
`??zclZEM_ProcessCommissioningStatus::?relay`:
        CODE
        LCALL   ?BDISPATCH
        DATA24
        DC24    zclZEM_ProcessCommissioningStatus

        RSEG BANK_RELAYS:CODE:REORDER:NOROOT(0)
`??zclZEM_BasicResetCB::?relay`:
        CODE
        LCALL   ?BDISPATCH
        DATA24
        DC24    zclZEM_BasicResetCB

        RSEG BANK_RELAYS:CODE:REORDER:NOROOT(0)
`??zclSampleApp_BatteryWarningCB::?relay`:
        CODE
        LCALL   ?BDISPATCH
        DATA24
        DC24    zclSampleApp_BatteryWarningCB

        RSEG BANK_RELAYS:CODE:REORDER:NOROOT(0)
`??zclZEM_ProcessIncomingMsg::?relay`:
        CODE
        LCALL   ?BDISPATCH
        DATA24
        DC24    zclZEM_ProcessIncomingMsg

        RSEG BANK_RELAYS:CODE:REORDER:NOROOT(0)
`??zclZEM_ProcessInDiscCmdsRspCmd::?relay`:
        CODE
        LCALL   ?BDISPATCH
        DATA24
        DC24    zclZEM_ProcessInDiscCmdsRspCmd

        RSEG BANK_RELAYS:CODE:REORDER:NOROOT(0)
`??zclZEM_AF_RxProc::?relay`:
        CODE
        LCALL   ?BDISPATCH
        DATA24
        DC24    zclZEM_AF_RxProc

        RSEG XDATA_ROM_C:CONST:REORDER:NOROOT(0)
        DATA8
`?<Constant "ZEMAPP_EVT\\344\\272\\213\\344\\273\\266`:
        DB "ZEMAPP_EVT\344\272\213\344\273\266\350\247\246\345\217\221\357\274\214\345\274\200\345\247\213LED\351\227\252\347\203\201...\015\012"

        RSEG XDATA_ROM_C:CONST:REORDER:NOROOT(0)
        DATA8
`?<Constant "LED\\351\\227\\252\\347\\203\\201\\345\\22`:
        DB 4CH, 45H, 44H, 0E9H, 97H, 0AAH, 0E7H, 83H
        DB 81H, 0E5H, 91H, 0BDH, 0E4H, 0BBH, 0A4H, 0E5H
        DB 0B7H, 0B2H, 0E5H, 8FH, 91H, 0E9H, 80H, 81H
        DB 0EFH, 0BCH, 8CH, 0E8H, 0AEH, 0BEH, 0E7H, 0BDH
        DB 0AEH, 0E4H, 0B8H, 8BH, 0E4H, 0B8H, 80H, 0E6H
        DB 0ACH, 0A1H, 0E5H, 0AEH, 9AH, 0E6H, 97H, 0B6H
        DB 0E5H, 99H, 0A8H, 2EH, 2EH, 2EH, 0DH, 0AH
        DB 0

        RSEG XDATA_ROM_C:CONST:REORDER:NOROOT(0)
        DATA8
        DB "Broadcast"

        RSEG XDATA_ROM_C:CONST:REORDER:NOROOT(0)
        DATA8
`?<Constant "Groupcast">`:
        DB "Groupcast"

        RSEG XDATA_ROM_C:CONST:REORDER:NOROOT(0)
        DATA32
`?<Constant "P2P">`:
        DB "P2P"

        RSEG XDATA_ROM_C:CONST:REORDER:NOROOT(0)
        DATA8
        DB "Network formation failed! Retrying...\015\012"

        RSEG XDATA_ROM_C:CONST:REORDER:NOROOT(0)
        DATA8
`?<Constant "MAC: ">`:
        DB "MAC: "

        RSEG XDATA_ROM_C:CONST:REORDER:NOROOT(0)
        DATA8
`?<Constant "Network formation suc...">`:
        DB "Network formation successful!\015\012"

        RSEG XDATA_ROM_C:CONST:REORDER:NOROOT(0)
        DATA8
`?<Constant "Network formation fai...">_1`:
        DB 4EH, 65H, 74H, 77H, 6FH, 72H, 6BH, 20H
        DB 66H, 6FH, 72H, 6DH, 61H, 74H, 69H, 6FH
        DB 6EH, 20H, 66H, 61H, 69H, 6CH, 65H, 64H
        DB 21H, 20H, 52H, 65H, 74H, 72H, 79H, 69H
        DB 6EH, 67H, 20H, 69H, 6EH, 20H, 35H, 20H
        DB 73H, 65H, 63H, 6FH, 6EH, 64H, 73H, 2EH
        DB 2EH, 2EH, 0DH, 0AH, 0

        RSEG XDATA_ROM_C:CONST:REORDER:NOROOT(0)
        DATA8
`?<Constant "Device joined the net...">`:
        DB "Device joined the network!\015\012"

        RSEG XDATA_ROM_C:CONST:REORDER:NOROOT(0)
        DATA8
`?<Constant "P2P Data: ">`:
        DB "P2P Data: "

        RSEG XDATA_ROM_C:CONST:REORDER:NOROOT(0)
        DATA8
`?<Constant " Count: ">`:
        DB " Count: "

        RSEG XDATA_ROM_C:CONST:REORDER:NOROOT(0)
        DATA8
`?<Constant "Broadcast Data: ">`:
        DB "Broadcast Data: "

        RSEG XDATA_ROM_C:CONST:REORDER:NOROOT(0)
        DATA8
`?<Constant "Groupcast Data: ">`:
        DB "Groupcast Data: "

        RSEG XDATA_ROM_C:CONST:REORDER:NOROOT(0)
        DATA32
__Constant_3e8:
        DD 1000

        RSEG XDATA_ROM_C:CONST:REORDER:NOROOT(0)
        DATA32
__Constant_bb8:
        DD 3000

        RSEG XDATA_ROM_C:CONST:REORDER:NOROOT(0)
        DATA32
__Constant_2710:
        DD 10000

        RSEG XDATA_ROM_C:CONST:REORDER:NOROOT(0)
        DATA32
__Constant_1388:
        DD 5000

        END
// 1142 
// 1143 /****************************************************************************
// 1144 ****************************************************************************/
// 1145 
// 1146 
// 
// 2 104 bytes in segment BANKED_CODE
//    60 bytes in segment BANK_RELAYS
//     3 bytes in segment SFR_AN
//    29 bytes in segment XDATA_I
//    29 bytes in segment XDATA_ID
//   357 bytes in segment XDATA_ROM_C
//    72 bytes in segment XDATA_Z
// 
//    89 bytes of CODE     memory
//   341 bytes of CONST    memory (+ 16 bytes shared)
//     0 bytes of DATA     memory (+  3 bytes shared)
// 2 104 bytes of HUGECODE memory
//   101 bytes of XDATA    memory
//
//Errors: none
//Warnings: 1
