///////////////////////////////////////////////////////////////////////////////
//
// IAR C/C++ Compiler V10.10.1.4655 for 8051              04/Feb/2026  17:09:07
// Copyright 2004-2017 IAR Systems AB.
// Standalone license - IAR Embedded Workbench for 8051
//
//    Core               =  plain
//    Code model         =  banked
//    Data model         =  large
//    Calling convention =  xdata reentrant
//    Constant location  =  data_rom
//    Dptr setup         =  1,16
//                          
//    Source file        =  
//        D:\project\Z-Stack
//        3.0.2\Projects\zstack\HomeAutomation\ZEM\Source\zcl_ZEM_data.c
//    Command line       =  
//        -f C:\Users\KLF\AppData\Local\Temp\EW65F0.tmp ("D:\project\Z-Stack
//        3.0.2\Projects\zstack\HomeAutomation\ZEM\Source\zcl_ZEM_data.c" -D
//        BDB_REPORTING -D SECURE=1 -D TC_LINKKEY_JOIN -D NV_INIT -D NV_RESTORE
//        -D xZTOOL_P1 -D xMT_TASK -D xMT_APP_FUNC -D xMT_SYS_FUNC -D
//        xMT_ZDO_FUNC -D xMT_APP_CNF_FUNC -D LCD_SUPPORTED=DEBUG -D
//        MULTICAST_ENABLED=FALSE -D ZCL_READ -D ZCL_DISCOVER -D ZCL_WRITE -D
//        ZCL_BASIC -D ZCL_IDENTIFY -D ZCL_TEMPERATURE_MEASUREMENT -D
//        ZCL_GROUPS -D HAL_LED=TRUE -D HAL_UART=TRUE -D INT_HEAP_LEN=2048 -lC
//        "D:\project\Z-Stack
//        3.0.2\Projects\zstack\HomeAutomation\ZEM\CC2530DB\CoordinatorEB\List"
//        -lA "D:\project\Z-Stack
//        3.0.2\Projects\zstack\HomeAutomation\ZEM\CC2530DB\CoordinatorEB\List"
//        --diag_suppress Pe001,Pa010 -o "D:\project\Z-Stack
//        3.0.2\Projects\zstack\HomeAutomation\ZEM\CC2530DB\CoordinatorEB\Obj"
//        -e --debug --core=plain --dptr=16,1 --data_model=large
//        --code_model=banked --calling_convention=xdata_reentrant
//        --place_constants=data_rom --nr_virtual_regs 16 -f
//        "D:\project\Z-Stack
//        3.0.2\Projects\zstack\HomeAutomation\ZEM\CC2530DB\..\..\..\Tools\CC2530DB\f8wCoord.cfg"
//        (-DCPU32MHZ -DROOT=__near_func -DMAC_CFG_APP_PENDING_QUEUE=TRUE
//        -DMAC_CFG_TX_DATA_MAX=5 -DMAC_CFG_TX_MAX=8 -DMAC_CFG_RX_MAX=5
//        -DZDO_COORDINATOR -DRTR_NWK) -f "D:\project\Z-Stack
//        3.0.2\Projects\zstack\HomeAutomation\ZEM\CC2530DB\..\..\..\Tools\CC2530DB\f8wConfig.cfg"
//        (-DZIGBEEPRO -DSECURE=1 -DZG_SECURE_DYNAMIC=0 -DREFLECTOR
//        -DDEFAULT_CHANLIST=0x00100000 -DZDAPP_CONFIG_PAN_ID=0x1234
//        -DNWK_START_DELAY=100 -DEXTENDED_JOINING_RANDOM_MASK=0x007F
//        -DBEACON_REQUEST_DELAY=100 -DBEACON_REQ_DELAY_MASK=0x00FF
//        -DLINK_STATUS_JITTER_MASK=0x007F -DROUTE_EXPIRY_TIME=30
//        -DAPSC_ACK_WAIT_DURATION_POLLED=3000 -DNWK_INDIRECT_MSG_TIMEOUT=7
//        -DMAX_RREQ_ENTRIES=8 -DAPSC_MAX_FRAME_RETRIES=3
//        -DNWK_MAX_DATA_RETRIES=2 -DMAX_POLL_FAILURE_RETRIES=2 -DMAX_BCAST=9
//        -DAPS_MAX_GROUPS=16 -DMAX_RTG_ENTRIES=40 -DNWK_MAX_BINDING_ENTRIES=4
//        -DMAX_BINDING_CLUSTER_IDS=4 -DDEFAULT_KEY={0}
//        -DMAC_MAX_FRAME_SIZE=116 -DZDNWKMGR_MIN_TRANSMISSIONS=20
//        "-DCONST=const __code" -DGENERIC=__generic -DRFD_RCVC_ALWAYS_ON=FALSE
//        -DPOLL_RATE=1000 -DQUEUED_POLL_RATE=100 -DRESPONSE_POLL_RATE=100
//        -DREJOIN_POLL_RATE=440 -DREJOIN_BACKOFF=900000 -DREJOIN_SCAN=900000
//        -DENABLE_LED4_DISABLE_S1) -f "D:\project\Z-Stack
//        3.0.2\Projects\zstack\HomeAutomation\ZEM\CC2530DB\..\..\..\Tools\CC2530DB\f8wZCL.cfg"
//        -I "D:\project\Z-Stack
//        3.0.2\Projects\zstack\HomeAutomation\ZEM\CC2530DB\" -I
//        "D:\project\Z-Stack
//        3.0.2\Projects\zstack\HomeAutomation\ZEM\CC2530DB\..\Source\" -I
//        "D:\project\Z-Stack
//        3.0.2\Projects\zstack\HomeAutomation\ZEM\CC2530DB\..\..\Source\" -I
//        "D:\project\Z-Stack
//        3.0.2\Projects\zstack\HomeAutomation\ZEM\CC2530DB\..\..\..\ZMain\TI2530DB\"
//        -I "D:\project\Z-Stack
//        3.0.2\Projects\zstack\HomeAutomation\ZEM\CC2530DB\..\..\..\..\..\Components\hal\include\"
//        -I "D:\project\Z-Stack
//        3.0.2\Projects\zstack\HomeAutomation\ZEM\CC2530DB\..\..\..\..\..\Components\hal\target\CC2530EB\"
//        -I "D:\project\Z-Stack
//        3.0.2\Projects\zstack\HomeAutomation\ZEM\CC2530DB\..\..\..\..\..\Components\mac\include\"
//        -I "D:\project\Z-Stack
//        3.0.2\Projects\zstack\HomeAutomation\ZEM\CC2530DB\..\..\..\..\..\Components\mac\high_level\"
//        -I "D:\project\Z-Stack
//        3.0.2\Projects\zstack\HomeAutomation\ZEM\CC2530DB\..\..\..\..\..\Components\mac\low_level\srf04\"
//        -I "D:\project\Z-Stack
//        3.0.2\Projects\zstack\HomeAutomation\ZEM\CC2530DB\..\..\..\..\..\Components\mac\low_level\srf04\single_chip\"
//        -I "D:\project\Z-Stack
//        3.0.2\Projects\zstack\HomeAutomation\ZEM\CC2530DB\..\..\..\..\..\Components\mt\"
//        -I "D:\project\Z-Stack
//        3.0.2\Projects\zstack\HomeAutomation\ZEM\CC2530DB\..\..\..\..\..\Components\osal\include\"
//        -I "D:\project\Z-Stack
//        3.0.2\Projects\zstack\HomeAutomation\ZEM\CC2530DB\..\..\..\..\..\Components\services\saddr\"
//        -I "D:\project\Z-Stack
//        3.0.2\Projects\zstack\HomeAutomation\ZEM\CC2530DB\..\..\..\..\..\Components\services\sdata\"
//        -I "D:\project\Z-Stack
//        3.0.2\Projects\zstack\HomeAutomation\ZEM\CC2530DB\..\..\..\..\..\Components\stack\af\"
//        -I "D:\project\Z-Stack
//        3.0.2\Projects\zstack\HomeAutomation\ZEM\CC2530DB\..\..\..\..\..\Components\stack\bdb\"
//        -I "D:\project\Z-Stack
//        3.0.2\Projects\zstack\HomeAutomation\ZEM\CC2530DB\..\..\..\..\..\Components\stack\gp\"
//        -I "D:\project\Z-Stack
//        3.0.2\Projects\zstack\HomeAutomation\ZEM\CC2530DB\..\..\..\..\..\Components\stack\nwk\"
//        -I "D:\project\Z-Stack
//        3.0.2\Projects\zstack\HomeAutomation\ZEM\CC2530DB\..\..\..\..\..\Components\stack\sapi\"
//        -I "D:\project\Z-Stack
//        3.0.2\Projects\zstack\HomeAutomation\ZEM\CC2530DB\..\..\..\..\..\Components\stack\sec\"
//        -I "D:\project\Z-Stack
//        3.0.2\Projects\zstack\HomeAutomation\ZEM\CC2530DB\..\..\..\..\..\Components\stack\sys\"
//        -I "D:\project\Z-Stack
//        3.0.2\Projects\zstack\HomeAutomation\ZEM\CC2530DB\..\..\..\..\..\Components\stack\zcl\"
//        -I "D:\project\Z-Stack
//        3.0.2\Projects\zstack\HomeAutomation\ZEM\CC2530DB\..\..\..\..\..\Components\stack\zdo\"
//        -I "D:\project\Z-Stack
//        3.0.2\Projects\zstack\HomeAutomation\ZEM\CC2530DB\..\..\..\..\..\Components\zmac\"
//        -I "D:\project\Z-Stack
//        3.0.2\Projects\zstack\HomeAutomation\ZEM\CC2530DB\..\..\..\..\..\Components\zmac\f8w\"
//        -Ohz --require_prototypes)
//    Locale             =  Chinese (Simplified)_China.936
//    List file          =  
//        D:\project\Z-Stack
//        3.0.2\Projects\zstack\HomeAutomation\ZEM\CC2530DB\CoordinatorEB\List\zcl_ZEM_data.s51
//
///////////////////////////////////////////////////////////////////////////////

        NAME zcl_ZEM_data

        RTMODEL "__SystemLibrary", "CLib"
        RTMODEL "__calling_convention", "xdata_reentrant"
        RTMODEL "__code_model", "banked"
        RTMODEL "__core", "plain"
        RTMODEL "__data_model", "large"
        RTMODEL "__dptr_size", "16"
        RTMODEL "__extended_stack", "disabled"
        RTMODEL "__location_for_constants", "data"
        RTMODEL "__number_of_dptrs", "1"
        RTMODEL "__register_banks", "*"
        RTMODEL "__rt_version", "1"

        RSEG DOVERLAY:DATA:NOROOT(0)
        RSEG IOVERLAY:IDATA:NOROOT(0)
        RSEG ISTACK:IDATA:NOROOT(0)
        RSEG PSTACK:XDATA:NOROOT(0)
        RSEG XSTACK:XDATA:NOROOT(0)

        EXTERN ?BDISPATCH
        EXTERN ?BRET
        EXTERN __INIT_XDATA_I
        EXTERN __INIT_XDATA_Z

        PUBLIC `??zclZEM_ResetAttributesToDefaultValues::?relay`
        FUNCTION `??zclZEM_ResetAttributesToDefaultValues::?relay`,0203H
        PUBLIC zclZEM_Attrs
        PUBLIC zclZEM_DateCode
        PUBLIC zclZEM_DeviceEnable
        PUBLIC zclZEM_HWRevision
        PUBLIC zclZEM_IdentifyTime
        PUBLIC zclZEM_InClusterList
        PUBLIC zclZEM_LocationDescription
        PUBLIC zclZEM_ManufacturerName
        PUBLIC zclZEM_MaxMeasuredValue
        PUBLIC zclZEM_MeasuredValue
        PUBLIC zclZEM_MinMeasuredValue
        PUBLIC zclZEM_ModelId
        PUBLIC zclZEM_NumAttributes
        PUBLIC zclZEM_OutClusterList
        PUBLIC zclZEM_PhysicalEnvironment
        PUBLIC zclZEM_PowerSource
        PUBLIC zclZEM_ResetAttributesToDefaultValues
        FUNCTION zclZEM_ResetAttributesToDefaultValues,0203H
        ARGFRAME XSTACK, 0, STACK
        LOCFRAME ISTACK, 2, STACK
        PUBLIC zclZEM_SimpleDesc
        PUBLIC zclZEM_ZCLVersion
        PUBLIC zclZEM_clusterRevision_all
        
          CFI Names cfiNames0
          CFI StackFrame CFA_SP SP IDATA
          CFI StackFrame CFA_PSP16 PSP16 XDATA
          CFI StackFrame CFA_XSP16 XSP16 XDATA
          CFI StaticOverlayFrame CFA_IOVERLAY IOVERLAY
          CFI StaticOverlayFrame CFA_DOVERLAY DOVERLAY
          CFI Resource `PSW.CY`:1, `B.BR0`:1, `B.BR1`:1, `B.BR2`:1, `B.BR3`:1
          CFI Resource `B.BR4`:1, `B.BR5`:1, `B.BR6`:1, `B.BR7`:1, `VB.BR8`:1
          CFI Resource `VB.BR9`:1, `VB.BR10`:1, `VB.BR11`:1, `VB.BR12`:1
          CFI Resource `VB.BR13`:1, `VB.BR14`:1, `VB.BR15`:1, VB:8, B:8, A:8
          CFI Resource PSW:8, DPL0:8, DPH0:8, R0:8, R1:8, R2:8, R3:8, R4:8, R5:8
          CFI Resource R6:8, R7:8, V0:8, V1:8, V2:8, V3:8, V4:8, V5:8, V6:8, V7:8
          CFI Resource V8:8, V9:8, V10:8, V11:8, V12:8, V13:8, V14:8, V15:8, SP:8
          CFI Resource PSPH:8, PSPL:8, PSP16:16, XSPH:8, XSPL:8, XSP16:16
          CFI VirtualResource ?RET:24
          CFI Resource ?BRET_EXT:8
          CFI VirtualResource ?RET_HIGH:8, ?RET_LOW:8
          CFI ResourceParts PSP16 PSPH, PSPL
          CFI ResourceParts XSP16 XSPH, XSPL
          CFI ResourceParts ?RET ?BRET_EXT, ?RET_HIGH, ?RET_LOW
          CFI EndNames cfiNames0
        
          CFI Common cfiCommon0 Using cfiNames0
          CFI CodeAlign 1
          CFI DataAlign -1
          CFI ReturnAddress ?RET CODE
          CFI CFA_DOVERLAY Used
          CFI CFA_IOVERLAY Used
          CFI CFA_SP SP+-3
          CFI CFA_PSP16 PSP16+0
          CFI CFA_XSP16 XSP16+0
          CFI `PSW.CY` SameValue
          CFI `B.BR0` SameValue
          CFI `B.BR1` SameValue
          CFI `B.BR2` SameValue
          CFI `B.BR3` SameValue
          CFI `B.BR4` SameValue
          CFI `B.BR5` SameValue
          CFI `B.BR6` SameValue
          CFI `B.BR7` SameValue
          CFI `VB.BR8` SameValue
          CFI `VB.BR9` SameValue
          CFI `VB.BR10` SameValue
          CFI `VB.BR11` SameValue
          CFI `VB.BR12` SameValue
          CFI `VB.BR13` SameValue
          CFI `VB.BR14` SameValue
          CFI `VB.BR15` SameValue
          CFI VB SameValue
          CFI B Undefined
          CFI A Undefined
          CFI PSW SameValue
          CFI DPL0 SameValue
          CFI DPH0 SameValue
          CFI R0 Undefined
          CFI R1 Undefined
          CFI R2 Undefined
          CFI R3 Undefined
          CFI R4 Undefined
          CFI R5 Undefined
          CFI R6 SameValue
          CFI R7 SameValue
          CFI V0 SameValue
          CFI V1 SameValue
          CFI V2 SameValue
          CFI V3 SameValue
          CFI V4 SameValue
          CFI V5 SameValue
          CFI V6 SameValue
          CFI V7 SameValue
          CFI V8 SameValue
          CFI V9 SameValue
          CFI V10 SameValue
          CFI V11 SameValue
          CFI V12 SameValue
          CFI V13 SameValue
          CFI V14 SameValue
          CFI V15 SameValue
          CFI PSPH Undefined
          CFI PSPL Undefined
          CFI XSPH Undefined
          CFI XSPL Undefined
          CFI ?RET Concat
          CFI ?BRET_EXT Frame(CFA_SP, 3)
          CFI ?RET_HIGH Frame(CFA_SP, 2)
          CFI ?RET_LOW Frame(CFA_SP, 1)
          CFI EndCommon cfiCommon0
        
zclZEM_ResetAttributesToDefaultValues SYMBOL "zclZEM_ResetAttributesToDefaultValues"
`??zclZEM_ResetAttributesToDefaultValues::?relay` SYMBOL "?relay", zclZEM_ResetAttributesToDefaultValues

// D:\project\Z-Stack 3.0.2\Projects\zstack\HomeAutomation\ZEM\Source\zcl_ZEM_data.c
//    1 
//    2 
//    3 /*********************************************************************
//    4  * INCLUDES
//    5  */
//    6 #include "ZComDef.h"
//    7 #include "OSAL.h"
//    8 #include "AF.h"
//    9 #include "ZDConfig.h"
//   10 
//   11 #include "zcl.h"
//   12 #include "zcl_general.h"
//   13 #include "zcl_ha.h"
//   14 #include "zcl_ms.h"
//   15 
//   16 #include "zcl_ZEM.h"
//   17 
//   18 /*********************************************************************
//   19  * CONSTANTS
//   20  */
//   21 
//   22 #define ZEM_DEVICE_VERSION     0
//   23 #define ZEM_FLAGS              0
//   24 
//   25 #define ZEM_HWVERSION          1
//   26 #define ZEM_ZCLVERSION         1
//   27 
//   28 #define ZEM_MAX_MEASURED_VALUE  2700  // 27.00C
//   29 #define ZEM_MIN_MEASURED_VALUE  1700  // 17.00C
//   30 
//   31 #define ZEM_MEASURED_VALUE      2000  // 20.00C
//   32 
//   33 /*********************************************************************
//   34  * TYPEDEFS
//   35  */
//   36 
//   37 /*********************************************************************
//   38  * MACROS
//   39  */
//   40 
//   41 /*********************************************************************
//   42  * GLOBAL VARIABLES
//   43  */
//   44 
//   45 // Global attributes

        RSEG XDATA_ROM_C:CONST:REORDER:NOROOT(0)
        DATA16
//   46 const uint16 zclZEM_clusterRevision_all = 0x0001; 
zclZEM_clusterRevision_all:
        DW 1
//   47 
//   48 // Basic Cluster

        RSEG XDATA_ROM_C:CONST:REORDER:NOROOT(0)
        DATA8
//   49 const uint8 zclZEM_HWRevision = ZEM_HWVERSION;
zclZEM_HWRevision:
        DB 1

        RSEG XDATA_ROM_C:CONST:REORDER:NOROOT(0)
        DATA8
//   50 const uint8 zclZEM_ZCLVersion = ZEM_ZCLVERSION;
zclZEM_ZCLVersion:
        DB 1

        RSEG XDATA_ROM_C:CONST:REORDER:NOROOT(0)
        DATA8
//   51 const uint8 zclZEM_ManufacturerName[] = { 16, 'T','e','x','a','s','I','n','s','t','r','u','m','e','n','t','s' };
zclZEM_ManufacturerName:
        DB 16
        DB 84
        DB 101
        DB 120
        DB 97
        DB 115
        DB 73
        DB 110
        DB 115
        DB 116
        DB 114
        DB 117
        DB 109
        DB 101
        DB 110
        DB 116
        DB 115

        RSEG XDATA_ROM_C:CONST:REORDER:NOROOT(0)
        DATA8
//   52 const uint8 zclZEM_ModelId[] = { 16, 'T','I','0','0','0','1',' ',' ',' ',' ',' ',' ',' ',' ',' ',' ' };
zclZEM_ModelId:
        DB 16
        DB 84
        DB 73
        DB 48
        DB 48
        DB 48
        DB 49
        DB 32
        DB 32
        DB 32
        DB 32
        DB 32
        DB 32
        DB 32
        DB 32
        DB 32
        DB 32

        RSEG XDATA_ROM_C:CONST:REORDER:NOROOT(0)
        DATA8
//   53 const uint8 zclZEM_DateCode[] = { 16, '2','0','0','6','0','8','3','1',' ',' ',' ',' ',' ',' ',' ',' ' };
zclZEM_DateCode:
        DB 16
        DB 50
        DB 48
        DB 48
        DB 54
        DB 48
        DB 56
        DB 51
        DB 49
        DB 32
        DB 32
        DB 32
        DB 32
        DB 32
        DB 32
        DB 32
        DB 32

        RSEG XDATA_ROM_C:CONST:REORDER:NOROOT(0)
        DATA8
//   54 const uint8 zclZEM_PowerSource = POWER_SOURCE_MAINS_1_PHASE;
zclZEM_PowerSource:
        DB 1
//   55 

        RSEG XDATA_Z:XDATA:NOROOT(0)
        DATA8
//   56 uint8 zclZEM_LocationDescription[17];
zclZEM_LocationDescription:
        DS 17
        REQUIRE __INIT_XDATA_Z

        RSEG XDATA_Z:XDATA:NOROOT(0)
        DATA8
//   57 uint8 zclZEM_PhysicalEnvironment;
zclZEM_PhysicalEnvironment:
        DS 1
        REQUIRE __INIT_XDATA_Z

        RSEG XDATA_Z:XDATA:NOROOT(0)
        DATA8
//   58 uint8 zclZEM_DeviceEnable;
zclZEM_DeviceEnable:
        DS 1
        REQUIRE __INIT_XDATA_Z
//   59 
//   60 // Identify Cluster

        RSEG XDATA_Z:XDATA:NOROOT(0)
        DATA16
//   61 uint16 zclZEM_IdentifyTime;
zclZEM_IdentifyTime:
        DS 2
        REQUIRE __INIT_XDATA_Z
//   62 
//   63 // Temperature Sensor Cluster

        RSEG XDATA_Z:XDATA:NOROOT(0)
        DATA16
//   64 int16 zclZEM_MeasuredValue;
zclZEM_MeasuredValue:
        DS 2
        REQUIRE __INIT_XDATA_Z

        RSEG XDATA_ROM_C:CONST:REORDER:NOROOT(0)
        DATA16
//   65 const int16 zclZEM_MinMeasuredValue = ZEM_MIN_MEASURED_VALUE; 
zclZEM_MinMeasuredValue:
        DW 1700

        RSEG XDATA_ROM_C:CONST:REORDER:NOROOT(0)
        DATA16
//   66 const uint16 zclZEM_MaxMeasuredValue = ZEM_MAX_MEASURED_VALUE;
zclZEM_MaxMeasuredValue:
        DW 2700
//   67 
//   68 /*********************************************************************
//   69  * ATTRIBUTE DEFINITIONS - Uses REAL cluster IDs
//   70  */
//   71 
//   72 // NOTE: The attributes listed in the AttrRec must be in ascending order 
//   73 // per cluster to allow right function of the Foundation discovery commands
//   74 

        RSEG CODE_C:CODE:REORDER:NOROOT(0)
        DATA8
//   75 CONST zclAttrRec_t zclZEM_Attrs[] =
zclZEM_Attrs:
        DATA16
        DW 0
        DW 0
        DATA8
        DB 32
        DB 1
        DATA16
        DW zclZEM_ZCLVersion
        DW 0
        DW 3
        DATA8
        DB 32
        DB 1
        DATA16
        DW zclZEM_HWRevision
        DW 0
        DW 4
        DATA8
        DB 66
        DB 1
        DATA16
        DW zclZEM_ManufacturerName
        DW 0
        DW 5
        DATA8
        DB 66
        DB 1
        DATA16
        DW zclZEM_ModelId
        DW 0
        DW 6
        DATA8
        DB 66
        DB 1
        DATA16
        DW zclZEM_DateCode
        DW 0
        DW 7
        DATA8
        DB 48
        DB 1
        DATA16
        DW zclZEM_PowerSource
        DW 0
        DW 16
        DATA8
        DB 66
        DB 3
        DATA16
        DW zclZEM_LocationDescription
        DW 0
        DW 17
        DATA8
        DB 48
        DB 3
        DATA16
        DW zclZEM_PhysicalEnvironment
        DW 0
        DW 18
        DATA8
        DB 16
        DB 3
        DATA16
        DW zclZEM_DeviceEnable
        DW 0
        DW 65533
        DATA8
        DB 33
        DB 1
        DATA16
        DW zclZEM_clusterRevision_all
        DW 3
        DW 0
        DATA8
        DB 33
        DB 3
        DATA16
        DW zclZEM_IdentifyTime
        DW 3
        DW 65533
        DATA8
        DB 33
        DB 65
        DATA16
        DW zclZEM_clusterRevision_all
        DW 1026
        DW 0
        DATA8
        DB 41
        DB 5
        DATA16
        DW zclZEM_MeasuredValue
        DW 1026
        DW 1
        DATA8
        DB 41
        DB 1
        DATA16
        DW zclZEM_MinMeasuredValue
        DW 1026
        DW 2
        DATA8
        DB 41
        DB 1
        DATA16
        DW zclZEM_MaxMeasuredValue
        DW 1026
        DW 65533
        DATA8
        DB 33
        DB 1
        DATA16
        DW zclZEM_clusterRevision_all
//   76 {
//   77   // *** General Basic Cluster Attributes ***
//   78   {
//   79     ZCL_CLUSTER_ID_GEN_BASIC,
//   80     { // Attribute record
//   81       ATTRID_BASIC_ZCL_VERSION,
//   82       ZCL_DATATYPE_UINT8,
//   83       ACCESS_CONTROL_READ,
//   84       (void *)&zclZEM_ZCLVersion
//   85     }
//   86   },
//   87   {
//   88     ZCL_CLUSTER_ID_GEN_BASIC,             // Cluster IDs - defined in the foundation (ie. zcl.h)
//   89     {  // Attribute record
//   90       ATTRID_BASIC_HW_VERSION,            // Attribute ID - Found in Cluster Library header (ie. zcl_general.h)
//   91       ZCL_DATATYPE_UINT8,                 // Data Type - found in zcl.h
//   92       ACCESS_CONTROL_READ,                // Variable access control - found in zcl.h
//   93       (void *)&zclZEM_HWRevision  // Pointer to attribute variable
//   94     }
//   95   },
//   96   {
//   97     ZCL_CLUSTER_ID_GEN_BASIC,
//   98     { // Attribute record
//   99       ATTRID_BASIC_MANUFACTURER_NAME,
//  100       ZCL_DATATYPE_CHAR_STR,
//  101       ACCESS_CONTROL_READ,
//  102       (void *)zclZEM_ManufacturerName
//  103     }
//  104   },
//  105   {
//  106     ZCL_CLUSTER_ID_GEN_BASIC,
//  107     { // Attribute record
//  108       ATTRID_BASIC_MODEL_ID,
//  109       ZCL_DATATYPE_CHAR_STR,
//  110       ACCESS_CONTROL_READ,
//  111       (void *)zclZEM_ModelId
//  112     }
//  113   },
//  114   {
//  115     ZCL_CLUSTER_ID_GEN_BASIC,
//  116     { // Attribute record
//  117       ATTRID_BASIC_DATE_CODE,
//  118       ZCL_DATATYPE_CHAR_STR,
//  119       ACCESS_CONTROL_READ,
//  120       (void *)zclZEM_DateCode
//  121     }
//  122   },
//  123   {
//  124     ZCL_CLUSTER_ID_GEN_BASIC,
//  125     { // Attribute record
//  126       ATTRID_BASIC_POWER_SOURCE,
//  127       ZCL_DATATYPE_ENUM8,
//  128       ACCESS_CONTROL_READ,
//  129       (void *)&zclZEM_PowerSource
//  130     }
//  131   },
//  132   {
//  133     ZCL_CLUSTER_ID_GEN_BASIC,
//  134     { // Attribute record
//  135       ATTRID_BASIC_LOCATION_DESC,
//  136       ZCL_DATATYPE_CHAR_STR,
//  137       (ACCESS_CONTROL_READ | ACCESS_CONTROL_WRITE),
//  138       (void *)zclZEM_LocationDescription
//  139     }
//  140   },
//  141   {
//  142     ZCL_CLUSTER_ID_GEN_BASIC,
//  143     { // Attribute record
//  144       ATTRID_BASIC_PHYSICAL_ENV,
//  145       ZCL_DATATYPE_ENUM8,
//  146       (ACCESS_CONTROL_READ | ACCESS_CONTROL_WRITE),
//  147       (void *)&zclZEM_PhysicalEnvironment
//  148     }
//  149   },
//  150   {
//  151     ZCL_CLUSTER_ID_GEN_BASIC,
//  152     { // Attribute record
//  153       ATTRID_BASIC_DEVICE_ENABLED,
//  154       ZCL_DATATYPE_BOOLEAN,
//  155       (ACCESS_CONTROL_READ | ACCESS_CONTROL_WRITE),
//  156       (void *)&zclZEM_DeviceEnable
//  157     }
//  158   },
//  159   {
//  160     ZCL_CLUSTER_ID_GEN_BASIC,
//  161     {  // Attribute record
//  162       ATTRID_CLUSTER_REVISION,
//  163       ZCL_DATATYPE_UINT16,
//  164       ACCESS_CONTROL_READ,
//  165       (void *)&zclZEM_clusterRevision_all
//  166     }
//  167   },
//  168   // *** Identify Cluster Attribute ***
//  169   {
//  170     ZCL_CLUSTER_ID_GEN_IDENTIFY,
//  171     { // Attribute record
//  172       ATTRID_IDENTIFY_TIME,
//  173       ZCL_DATATYPE_UINT16,
//  174       (ACCESS_CONTROL_READ | ACCESS_CONTROL_WRITE),
//  175       (void *)&zclZEM_IdentifyTime
//  176     }
//  177   },
//  178   {
//  179     ZCL_CLUSTER_ID_GEN_IDENTIFY,
//  180     {  // Attribute record
//  181       ATTRID_CLUSTER_REVISION,
//  182       ZCL_DATATYPE_UINT16,
//  183       ACCESS_CONTROL_READ | ACCESS_GLOBAL,
//  184       (void *)&zclZEM_clusterRevision_all
//  185     }
//  186   },
//  187 
//  188   // *** Temperature Measurement Attriubtes ***
//  189   {
//  190     ZCL_CLUSTER_ID_MS_TEMPERATURE_MEASUREMENT,
//  191     { // Attribute record
//  192       ATTRID_MS_TEMPERATURE_MEASURED_VALUE,
//  193       ZCL_DATATYPE_INT16,
//  194       ACCESS_CONTROL_READ | ACCESS_REPORTABLE,
//  195       (void *)&zclZEM_MeasuredValue
//  196     }
//  197   },
//  198   {
//  199     ZCL_CLUSTER_ID_MS_TEMPERATURE_MEASUREMENT,
//  200     { // Attribute record
//  201       ATTRID_MS_TEMPERATURE_MIN_MEASURED_VALUE,
//  202       ZCL_DATATYPE_INT16,
//  203       ACCESS_CONTROL_READ,
//  204       (void *)&zclZEM_MinMeasuredValue
//  205     }
//  206   },
//  207   {
//  208     ZCL_CLUSTER_ID_MS_TEMPERATURE_MEASUREMENT,
//  209     { // Attribute record
//  210       ATTRID_MS_TEMPERATURE_MAX_MEASURED_VALUE,
//  211       ZCL_DATATYPE_INT16,
//  212       ACCESS_CONTROL_READ,
//  213       (void *)&zclZEM_MaxMeasuredValue
//  214     }
//  215   },
//  216 
//  217   {
//  218     ZCL_CLUSTER_ID_MS_TEMPERATURE_MEASUREMENT,
//  219     {  // Attribute record
//  220       ATTRID_CLUSTER_REVISION,
//  221       ZCL_DATATYPE_UINT16,
//  222       ACCESS_CONTROL_READ,
//  223       (void *)&zclZEM_clusterRevision_all
//  224     }
//  225   },
//  226 };
//  227 

        RSEG CODE_C:CODE:REORDER:NOROOT(0)
        DATA8
//  228 uint8 CONST zclZEM_NumAttributes = ( sizeof(zclZEM_Attrs) / sizeof(zclZEM_Attrs[0]) );
zclZEM_NumAttributes:
        DB 16
//  229 
//  230 /*********************************************************************
//  231  * SIMPLE DESCRIPTOR
//  232  */
//  233 // This is the Cluster ID List and should be filled with Application
//  234 // specific cluster IDs.
//  235 #define ZCLZEM_MAX_INCLUSTERS       3

        RSEG XDATA_ROM_C:CONST:REORDER:NOROOT(0)
        DATA8
//  236 const cId_t zclZEM_InClusterList[ZCLZEM_MAX_INCLUSTERS] =
zclZEM_InClusterList:
        DATA16
        DW 0
        DW 3
        DW 1026
//  237 {
//  238   ZCL_CLUSTER_ID_GEN_BASIC,
//  239   ZCL_CLUSTER_ID_GEN_IDENTIFY,
//  240   ZCL_CLUSTER_ID_MS_TEMPERATURE_MEASUREMENT
//  241 };
//  242 
//  243 #define ZCLZEM_MAX_OUTCLUSTERS       1

        RSEG XDATA_ROM_C:CONST:REORDER:NOROOT(0)
        DATA16
//  244 const cId_t zclZEM_OutClusterList[ZCLZEM_MAX_OUTCLUSTERS] =
zclZEM_OutClusterList:
        DW 3
//  245 {
//  246   ZCL_CLUSTER_ID_GEN_IDENTIFY
//  247 };
//  248 

        RSEG XDATA_I:XDATA:NOROOT(0)
//  249 SimpleDescriptionFormat_t zclZEM_SimpleDesc =
zclZEM_SimpleDesc:
        DATA8
        DS 12
        REQUIRE `?<Initializer for zclZEM_SimpleDesc>`
        REQUIRE __INIT_XDATA_I
//  250 {
//  251   ZEM_ENDPOINT,                  //  int Endpoint;
//  252   ZCL_HA_PROFILE_ID,                                 //  uint16 AppProfId[2];
//  253   ZCL_HA_DEVICEID_TEMPERATURE_SENSOR,                //  uint16 AppDeviceId[2];
//  254   ZEM_DEVICE_VERSION,            //  int   AppDevVer:4;
//  255   ZEM_FLAGS,                     //  int   AppFlags:4;
//  256   ZCLZEM_MAX_INCLUSTERS,         //  byte  AppNumInClusters;
//  257   (cId_t *)zclZEM_InClusterList, //  byte *pAppInClusterList;
//  258   ZCLZEM_MAX_OUTCLUSTERS,        //  byte  AppNumInClusters;
//  259   (cId_t *)zclZEM_OutClusterList //  byte *pAppInClusterList;
//  260 };
//  261  
//  262 /*********************************************************************
//  263  * GLOBAL FUNCTIONS
//  264  */
//  265 
//  266 /*********************************************************************
//  267  * LOCAL FUNCTIONS
//  268  */
//  269 
//  270 /*********************************************************************
//  271  * @fn      zclSampleLight_ResetAttributesToDefaultValues
//  272  *
//  273  * @brief   Reset all writable attributes to their default values.
//  274  *
//  275  * @param   none
//  276  *
//  277  * @return  none
//  278  */

        RSEG BANKED_CODE:HUGECODE:NOROOT(0)
//  279 void zclZEM_ResetAttributesToDefaultValues(void)
zclZEM_ResetAttributesToDefaultValues:
          CFI Block cfiBlock0 Using cfiCommon0
          CFI Function zclZEM_ResetAttributesToDefaultValues
        CODE
//  280 {
        PUSH      DPL
          CFI DPL0 Frame(CFA_SP, 4)
          CFI CFA_SP SP+-4
        PUSH      DPH
          CFI DPH0 Frame(CFA_SP, 5)
          CFI CFA_SP SP+-5
        ; Saved register size: 2
        ; Auto size: 0
//  281   int i;
//  282   
//  283   zclZEM_LocationDescription[0] = 16;
        MOV       DPTR,#zclZEM_LocationDescription
        MOV       A,#0x10
        MOVX      @DPTR,A
//  284   for (i = 1; i <= 16; i++)
//  285   {
//  286     zclZEM_LocationDescription[i] = ' ';
        MOV       A,#0x20
        INC       DPTR
        MOV       R0,#0x10
??zclZEM_ResetAttributesToDefaultValues_0:
        MOVX      @DPTR,A
        INC       DPTR
        DJNZ      R0,??zclZEM_ResetAttributesToDefaultValues_0
//  287   }
//  288   
//  289   zclZEM_PhysicalEnvironment = PHY_UNSPECIFIED_ENV;
        MOV       DPTR,#zclZEM_PhysicalEnvironment
        CLR       A
        MOVX      @DPTR,A
//  290   zclZEM_DeviceEnable = DEVICE_ENABLED;
        MOV       DPTR,#zclZEM_DeviceEnable
        INC       A
        MOVX      @DPTR,A
//  291   
//  292 #ifdef ZCL_IDENTIFY
//  293   zclZEM_IdentifyTime = 0;
        MOV       DPTR,#zclZEM_IdentifyTime
        CLR       A
        MOVX      @DPTR,A
        INC       DPTR
        MOVX      @DPTR,A
//  294 #endif
//  295   
//  296   zclZEM_MeasuredValue = ZEM_MEASURED_VALUE;
        MOV       DPTR,#zclZEM_MeasuredValue
        MOV       A,#-0x30
        MOVX      @DPTR,A
        INC       DPTR
        MOV       A,#0x7
        MOVX      @DPTR,A
//  297   
//  298 }
        POP       DPH
          CFI DPH0 SameValue
          CFI CFA_SP SP+-4
        POP       DPL
          CFI DPL0 SameValue
          CFI CFA_SP SP+-3
        LJMP      ?BRET
          CFI EndBlock cfiBlock0

        RSEG XDATA_ID:CODE:NOROOT(0)
`?<Initializer for zclZEM_SimpleDesc>`:
        DATA8
        DB 8
        DATA16
        DW 260
        DW 770
        DATA8
        DB 0
        DB 3
        DATA16
        DW zclZEM_InClusterList
        DATA8
        DB 1
        DATA16
        DW zclZEM_OutClusterList

        RSEG BANK_RELAYS:CODE:REORDER:NOROOT(0)
`??zclZEM_ResetAttributesToDefaultValues::?relay`:
        CODE
        LCALL   ?BDISPATCH
        DATA24
        DC24    zclZEM_ResetAttributesToDefaultValues

        END
//  299 
//  300 /****************************************************************************
//  301 ****************************************************************************/
//  302 
//  303 
// 
//  53 bytes in segment BANKED_CODE
//   6 bytes in segment BANK_RELAYS
// 129 bytes in segment CODE_C
//  12 bytes in segment XDATA_I
//  12 bytes in segment XDATA_ID
//  68 bytes in segment XDATA_ROM_C
//  23 bytes in segment XDATA_Z
// 
// 147 bytes of CODE     memory
//  68 bytes of CONST    memory
//  53 bytes of HUGECODE memory
//  35 bytes of XDATA    memory
//
//Errors: none
//Warnings: none
