///////////////////////////////////////////////////////////////////////////////
//
// IAR C/C++ Compiler V10.10.1.4655 for 8051              06/Feb/2026  15:02:58
// Copyright 2004-2017 IAR Systems AB.
// Standalone license - IAR Embedded Workbench for 8051
//
//    Core               =  plain
//    Code model         =  banked
//    Data model         =  large
//    Calling convention =  xdata reentrant
//    Constant location  =  data_rom
//    Dptr setup         =  1,16
//                          
//    Source file        =  
//        D:\project\Z-Stack
//        3.0.2\Projects\zstack\HomeAutomation\ZEM\Source\zcl_ZEM.c
//    Command line       =  
//        -f C:\Users\KLF\AppData\Local\Temp\EWA208.tmp ("D:\project\Z-Stack
//        3.0.2\Projects\zstack\HomeAutomation\ZEM\Source\zcl_ZEM.c" -D
//        BDB_REPORTING -D xZTOOL_P1 -D xMT_TASK -D xMT_APP_FUNC -D
//        xMT_SYS_FUNC -D xMT_ZDO_FUNC -D xMT_APP_CNF_FUNC -D
//        LCD_SUPPORTED=DEBUG -D MULTICAST_ENABLED=FALSE -D ZCL_READ -D
//        ZCL_DISCOVER -D ZCL_WRITE -D ZCL_BASIC -D ZCL_IDENTIFY -D
//        ZCL_TEMPERATURE_MEASUREMENT -D ZCL_GROUPS -D HAL_LED=TRUE -D
//        HAL_UART=TRUE -D INT_HEAP_LEN=2048 -lC "D:\project\Z-Stack
//        3.0.2\Projects\zstack\HomeAutomation\ZEM\CC2530DB\CoordinatorEB\List"
//        -lA "D:\project\Z-Stack
//        3.0.2\Projects\zstack\HomeAutomation\ZEM\CC2530DB\CoordinatorEB\List"
//        --diag_suppress Pe001,Pa010 -o "D:\project\Z-Stack
//        3.0.2\Projects\zstack\HomeAutomation\ZEM\CC2530DB\CoordinatorEB\Obj"
//        -e --debug --core=plain --dptr=16,1 --data_model=large
//        --code_model=banked --calling_convention=xdata_reentrant
//        --place_constants=data_rom --nr_virtual_regs 16 -f
//        "D:\project\Z-Stack
//        3.0.2\Projects\zstack\HomeAutomation\ZEM\CC2530DB\..\..\..\Tools\CC2530DB\f8wCoord.cfg"
//        (-DCPU32MHZ -DROOT=__near_func -DMAC_CFG_APP_PENDING_QUEUE=TRUE
//        -DMAC_CFG_TX_DATA_MAX=5 -DMAC_CFG_TX_MAX=8 -DMAC_CFG_RX_MAX=5
//        -DZDO_COORDINATOR -DRTR_NWK) -f "D:\project\Z-Stack
//        3.0.2\Projects\zstack\HomeAutomation\ZEM\CC2530DB\..\..\..\Tools\CC2530DB\f8wConfig.cfg"
//        (-DZIGBEEPRO -DSECURE=1 -DZG_SECURE_DYNAMIC=0 -DREFLECTOR
//        -DDEFAULT_CHANLIST=0x00100000 -DZDAPP_CONFIG_PAN_ID=0x1234
//        -DNWK_START_DELAY=100 -DEXTENDED_JOINING_RANDOM_MASK=0x007F
//        -DBEACON_REQUEST_DELAY=100 -DBEACON_REQ_DELAY_MASK=0x00FF
//        -DLINK_STATUS_JITTER_MASK=0x007F -DROUTE_EXPIRY_TIME=30
//        -DAPSC_ACK_WAIT_DURATION_POLLED=3000 -DNWK_INDIRECT_MSG_TIMEOUT=7
//        -DMAX_RREQ_ENTRIES=8 -DAPSC_MAX_FRAME_RETRIES=3
//        -DNWK_MAX_DATA_RETRIES=2 -DMAX_POLL_FAILURE_RETRIES=2 -DMAX_BCAST=9
//        -DAPS_MAX_GROUPS=16 -DMAX_RTG_ENTRIES=40 -DNWK_MAX_BINDING_ENTRIES=4
//        -DMAX_BINDING_CLUSTER_IDS=4 -DDEFAULT_KEY={0}
//        -DMAC_MAX_FRAME_SIZE=116 -DZDNWKMGR_MIN_TRANSMISSIONS=20
//        "-DCONST=const __code" -DGENERIC=__generic -DRFD_RCVC_ALWAYS_ON=FALSE
//        -DPOLL_RATE=1000 -DQUEUED_POLL_RATE=100 -DRESPONSE_POLL_RATE=100
//        -DREJOIN_POLL_RATE=440 -DREJOIN_BACKOFF=900000 -DREJOIN_SCAN=900000
//        -DENABLE_LED4_DISABLE_S1) -f "D:\project\Z-Stack
//        3.0.2\Projects\zstack\HomeAutomation\ZEM\CC2530DB\..\..\..\Tools\CC2530DB\f8wZCL.cfg"
//        -I "D:\project\Z-Stack
//        3.0.2\Projects\zstack\HomeAutomation\ZEM\CC2530DB\" -I
//        "D:\project\Z-Stack
//        3.0.2\Projects\zstack\HomeAutomation\ZEM\CC2530DB\..\Source\" -I
//        "D:\project\Z-Stack
//        3.0.2\Projects\zstack\HomeAutomation\ZEM\CC2530DB\..\..\Source\" -I
//        "D:\project\Z-Stack
//        3.0.2\Projects\zstack\HomeAutomation\ZEM\CC2530DB\..\..\..\ZMain\TI2530DB\"
//        -I "D:\project\Z-Stack
//        3.0.2\Projects\zstack\HomeAutomation\ZEM\CC2530DB\..\..\..\..\..\Components\hal\include\"
//        -I "D:\project\Z-Stack
//        3.0.2\Projects\zstack\HomeAutomation\ZEM\CC2530DB\..\..\..\..\..\Components\hal\target\CC2530EB\"
//        -I "D:\project\Z-Stack
//        3.0.2\Projects\zstack\HomeAutomation\ZEM\CC2530DB\..\..\..\..\..\Components\mac\include\"
//        -I "D:\project\Z-Stack
//        3.0.2\Projects\zstack\HomeAutomation\ZEM\CC2530DB\..\..\..\..\..\Components\mac\high_level\"
//        -I "D:\project\Z-Stack
//        3.0.2\Projects\zstack\HomeAutomation\ZEM\CC2530DB\..\..\..\..\..\Components\mac\low_level\srf04\"
//        -I "D:\project\Z-Stack
//        3.0.2\Projects\zstack\HomeAutomation\ZEM\CC2530DB\..\..\..\..\..\Components\mac\low_level\srf04\single_chip\"
//        -I "D:\project\Z-Stack
//        3.0.2\Projects\zstack\HomeAutomation\ZEM\CC2530DB\..\..\..\..\..\Components\mt\"
//        -I "D:\project\Z-Stack
//        3.0.2\Projects\zstack\HomeAutomation\ZEM\CC2530DB\..\..\..\..\..\Components\osal\include\"
//        -I "D:\project\Z-Stack
//        3.0.2\Projects\zstack\HomeAutomation\ZEM\CC2530DB\..\..\..\..\..\Components\services\saddr\"
//        -I "D:\project\Z-Stack
//        3.0.2\Projects\zstack\HomeAutomation\ZEM\CC2530DB\..\..\..\..\..\Components\services\sdata\"
//        -I "D:\project\Z-Stack
//        3.0.2\Projects\zstack\HomeAutomation\ZEM\CC2530DB\..\..\..\..\..\Components\stack\af\"
//        -I "D:\project\Z-Stack
//        3.0.2\Projects\zstack\HomeAutomation\ZEM\CC2530DB\..\..\..\..\..\Components\stack\bdb\"
//        -I "D:\project\Z-Stack
//        3.0.2\Projects\zstack\HomeAutomation\ZEM\CC2530DB\..\..\..\..\..\Components\stack\gp\"
//        -I "D:\project\Z-Stack
//        3.0.2\Projects\zstack\HomeAutomation\ZEM\CC2530DB\..\..\..\..\..\Components\stack\nwk\"
//        -I "D:\project\Z-Stack
//        3.0.2\Projects\zstack\HomeAutomation\ZEM\CC2530DB\..\..\..\..\..\Components\stack\sapi\"
//        -I "D:\project\Z-Stack
//        3.0.2\Projects\zstack\HomeAutomation\ZEM\CC2530DB\..\..\..\..\..\Components\stack\sec\"
//        -I "D:\project\Z-Stack
//        3.0.2\Projects\zstack\HomeAutomation\ZEM\CC2530DB\..\..\..\..\..\Components\stack\sys\"
//        -I "D:\project\Z-Stack
//        3.0.2\Projects\zstack\HomeAutomation\ZEM\CC2530DB\..\..\..\..\..\Components\stack\zcl\"
//        -I "D:\project\Z-Stack
//        3.0.2\Projects\zstack\HomeAutomation\ZEM\CC2530DB\..\..\..\..\..\Components\stack\zdo\"
//        -I "D:\project\Z-Stack
//        3.0.2\Projects\zstack\HomeAutomation\ZEM\CC2530DB\..\..\..\..\..\Components\zmac\"
//        -I "D:\project\Z-Stack
//        3.0.2\Projects\zstack\HomeAutomation\ZEM\CC2530DB\..\..\..\..\..\Components\zmac\f8w\"
//        -Ohz --require_prototypes)
//    Locale             =  Chinese (Simplified)_China.936
//    List file          =  
//        D:\project\Z-Stack
//        3.0.2\Projects\zstack\HomeAutomation\ZEM\CC2530DB\CoordinatorEB\List\zcl_ZEM.s51
//
///////////////////////////////////////////////////////////////////////////////

        NAME zcl_ZEM

        RTMODEL "__SystemLibrary", "CLib"
        RTMODEL "__calling_convention", "xdata_reentrant"
        RTMODEL "__code_model", "banked"
        RTMODEL "__core", "plain"
        RTMODEL "__data_model", "large"
        RTMODEL "__dptr_size", "16"
        RTMODEL "__extended_stack", "disabled"
        RTMODEL "__location_for_constants", "data"
        RTMODEL "__number_of_dptrs", "1"
        RTMODEL "__register_banks", "*"
        RTMODEL "__rt_version", "1"

        RSEG DOVERLAY:DATA:NOROOT(0)
        RSEG IOVERLAY:IDATA:NOROOT(0)
        RSEG ISTACK:IDATA:NOROOT(0)
        RSEG PSTACK:XDATA:NOROOT(0)
        RSEG XSTACK:XDATA:NOROOT(0)

        EXTERN ?V0
        EXTERN ?V1
        EXTERN ?V2
        EXTERN ?V3
        EXTERN ?V4
        EXTERN ?V5
        EXTERN ?V6
        EXTERN ?V8
        EXTERN ?V9
        EXTERN ?V10
        EXTERN ?ALLOC_XSTACK8
        EXTERN ?BANKED_ENTER_XDATA
        EXTERN ?BANKED_LEAVE_XDATA
        EXTERN ?BDISPATCH
        EXTERN ?BRET
        EXTERN ?DEALLOC_XSTACK8
        EXTERN ?MOVE_LONG8_XDATA_XDATA
        EXTERN ?PUSH_XSTACK8_X_FOUR
        EXTERN ?PUSH_XSTACK_I_ONE
        EXTERN ?PUSH_XSTACK_I_THREE
        EXTERN ?PUSH_XSTACK_I_TWO
        EXTERN ?US_SWITCH_DENSE
        EXTERN ?XSP
        EXTERN ?XSTACK_DISP0_8
        EXTERN ?XSTACK_DISP100_8
        EXTERN ?XSTACK_DISP101_8
        EXTERN ?XSTACK_DISP102_8
        EXTERN __INIT_XDATA_I
        EXTERN __INIT_XDATA_Z

        FUNCTION `??zclSampleApp_BatteryWarningCB::?relay`,0203H
        FUNCTION `??zclZEM_AF_RxProc::?relay`,0203H
        FUNCTION `??zclZEM_BasicResetCB::?relay`,0203H
        PUBLIC `??zclZEM_Init::?relay`
        FUNCTION `??zclZEM_Init::?relay`,0203H
        FUNCTION `??zclZEM_ProcessCommissioningStatus::?relay`,0203H
        FUNCTION `??zclZEM_ProcessInDiscCmdsRspCmd::?relay`,0203H
        FUNCTION `??zclZEM_ProcessIncomingMsg::?relay`,0203H
        FUNCTION `??zclZEM_ReadAndSendMAC::?relay`,0203H
        FUNCTION `??zclZEM_UartCB::?relay`,0203H
        PUBLIC `??zclZEM_event_loop::?relay`
        FUNCTION `??zclZEM_event_loop::?relay`,0203H
        PUBWEAK P1DIR
        PUBWEAK P1SEL
        PUBWEAK PERCFG
        PUBWEAK __Constant_3e8
        PUBWEAK __Constant_7d0
        PUBLIC reportableChange
        FUNCTION zclSampleApp_BatteryWarningCB,0603H
        ARGFRAME XSTACK, 0, STACK
        FUNCTION zclZEM_AF_RxProc,0a1203H
        ARGFRAME XSTACK, 269, STACK
        ARGFRAME IOVERLAY, 0, STATIC
        ARGFRAME DOVERLAY, 0, STATIC
        LOCFRAME ISTACK, 1, STACK
        LOCFRAME XSTACK, 116, STACK
        FUNCTION zclZEM_BasicResetCB,021603H
        ARGFRAME XSTACK, 0, STACK
        LOCFRAME ISTACK, 2, STACK
        PUBLIC zclZEM_Init
        FUNCTION zclZEM_Init,0a1203H
        ARGFRAME XSTACK, 0, STACK
        LOCFRAME XSTACK, 45, STACK
        PUBLIC zclZEM_NwkState
        FUNCTION zclZEM_ProcessCommissioningStatus,0a1603H
        ARGFRAME XSTACK, 0, STACK
        LOCFRAME ISTACK, 1, STACK
        LOCFRAME XSTACK, 126, STACK
        FUNCTION zclZEM_ProcessInDiscCmdsRspCmd,0203H
        ARGFRAME XSTACK, 9, STACK
        ARGFRAME IOVERLAY, 0, STATIC
        ARGFRAME DOVERLAY, 0, STATIC
        LOCFRAME ISTACK, 2, STACK
        FUNCTION zclZEM_ProcessIncomingMsg,021203H
        ARGFRAME XSTACK, 269, STACK
        ARGFRAME IOVERLAY, 0, STATIC
        ARGFRAME DOVERLAY, 0, STATIC
        LOCFRAME XSTACK, 9, STACK
        FUNCTION zclZEM_ReadAndSendMAC,0a1203H
        ARGFRAME XSTACK, 39, STACK
        ARGFRAME IOVERLAY, 0, STATIC
        ARGFRAME DOVERLAY, 0, STATIC
        LOCFRAME ISTACK, 1, STACK
        LOCFRAME XSTACK, 71, STACK
        PUBLIC zclZEM_TaskID
        FUNCTION zclZEM_UartCB,021603H
        ARGFRAME XSTACK, 0, STACK
        LOCFRAME XSTACK, 9, STACK
        PUBLIC zclZEM_event_loop
        FUNCTION zclZEM_event_loop,0a1203H
        ARGFRAME XSTACK, 0, STACK
        LOCFRAME ISTACK, 1, STACK
        LOCFRAME XSTACK, 278, STACK
        
          CFI Names cfiNames0
          CFI StackFrame CFA_SP SP IDATA
          CFI StackFrame CFA_PSP16 PSP16 XDATA
          CFI StackFrame CFA_XSP16 XSP16 XDATA
          CFI StaticOverlayFrame CFA_IOVERLAY IOVERLAY
          CFI StaticOverlayFrame CFA_DOVERLAY DOVERLAY
          CFI Resource `PSW.CY`:1, `B.BR0`:1, `B.BR1`:1, `B.BR2`:1, `B.BR3`:1
          CFI Resource `B.BR4`:1, `B.BR5`:1, `B.BR6`:1, `B.BR7`:1, `VB.BR8`:1
          CFI Resource `VB.BR9`:1, `VB.BR10`:1, `VB.BR11`:1, `VB.BR12`:1
          CFI Resource `VB.BR13`:1, `VB.BR14`:1, `VB.BR15`:1, VB:8, B:8, A:8
          CFI Resource PSW:8, DPL0:8, DPH0:8, R0:8, R1:8, R2:8, R3:8, R4:8, R5:8
          CFI Resource R6:8, R7:8, V0:8, V1:8, V2:8, V3:8, V4:8, V5:8, V6:8, V7:8
          CFI Resource V8:8, V9:8, V10:8, V11:8, V12:8, V13:8, V14:8, V15:8, SP:8
          CFI Resource PSPH:8, PSPL:8, PSP16:16, XSPH:8, XSPL:8, XSP16:16
          CFI VirtualResource ?RET:24
          CFI Resource ?BRET_EXT:8
          CFI VirtualResource ?RET_HIGH:8, ?RET_LOW:8
          CFI ResourceParts PSP16 PSPH, PSPL
          CFI ResourceParts XSP16 XSPH, XSPL
          CFI ResourceParts ?RET ?BRET_EXT, ?RET_HIGH, ?RET_LOW
          CFI EndNames cfiNames0
        
          CFI Common cfiCommon0 Using cfiNames0
          CFI CodeAlign 1
          CFI DataAlign -1
          CFI ReturnAddress ?RET CODE
          CFI CFA_DOVERLAY Used
          CFI CFA_IOVERLAY Used
          CFI CFA_SP SP+-3
          CFI CFA_PSP16 PSP16+0
          CFI CFA_XSP16 XSP16+0
          CFI `PSW.CY` SameValue
          CFI `B.BR0` SameValue
          CFI `B.BR1` SameValue
          CFI `B.BR2` SameValue
          CFI `B.BR3` SameValue
          CFI `B.BR4` SameValue
          CFI `B.BR5` SameValue
          CFI `B.BR6` SameValue
          CFI `B.BR7` SameValue
          CFI `VB.BR8` SameValue
          CFI `VB.BR9` SameValue
          CFI `VB.BR10` SameValue
          CFI `VB.BR11` SameValue
          CFI `VB.BR12` SameValue
          CFI `VB.BR13` SameValue
          CFI `VB.BR14` SameValue
          CFI `VB.BR15` SameValue
          CFI VB SameValue
          CFI B Undefined
          CFI A Undefined
          CFI PSW SameValue
          CFI DPL0 SameValue
          CFI DPH0 SameValue
          CFI R0 Undefined
          CFI R1 Undefined
          CFI R2 Undefined
          CFI R3 Undefined
          CFI R4 Undefined
          CFI R5 Undefined
          CFI R6 SameValue
          CFI R7 SameValue
          CFI V0 SameValue
          CFI V1 SameValue
          CFI V2 SameValue
          CFI V3 SameValue
          CFI V4 SameValue
          CFI V5 SameValue
          CFI V6 SameValue
          CFI V7 SameValue
          CFI V8 SameValue
          CFI V9 SameValue
          CFI V10 SameValue
          CFI V11 SameValue
          CFI V12 SameValue
          CFI V13 SameValue
          CFI V14 SameValue
          CFI V15 SameValue
          CFI PSPH Undefined
          CFI PSPL Undefined
          CFI XSPH Undefined
          CFI XSPL Undefined
          CFI ?RET Concat
          CFI ?BRET_EXT Frame(CFA_SP, 3)
          CFI ?RET_HIGH Frame(CFA_SP, 2)
          CFI ?RET_LOW Frame(CFA_SP, 1)
          CFI EndCommon cfiCommon0
        
        
          CFI Common cfiCommon1 Using cfiNames0
          CFI CodeAlign 1
          CFI DataAlign -1
          CFI ReturnAddress ?RET CODE
          CFI CFA_DOVERLAY Used
          CFI CFA_IOVERLAY Used
          CFI CFA_SP SP+-2
          CFI CFA_PSP16 PSP16+0
          CFI CFA_XSP16 XSP16+0
          CFI `PSW.CY` SameValue
          CFI `B.BR0` SameValue
          CFI `B.BR1` SameValue
          CFI `B.BR2` SameValue
          CFI `B.BR3` SameValue
          CFI `B.BR4` SameValue
          CFI `B.BR5` SameValue
          CFI `B.BR6` SameValue
          CFI `B.BR7` SameValue
          CFI `VB.BR8` SameValue
          CFI `VB.BR9` SameValue
          CFI `VB.BR10` SameValue
          CFI `VB.BR11` SameValue
          CFI `VB.BR12` SameValue
          CFI `VB.BR13` SameValue
          CFI `VB.BR14` SameValue
          CFI `VB.BR15` SameValue
          CFI VB SameValue
          CFI B SameValue
          CFI A SameValue
          CFI PSW SameValue
          CFI DPL0 SameValue
          CFI DPH0 SameValue
          CFI R0 SameValue
          CFI R1 SameValue
          CFI R2 SameValue
          CFI R3 SameValue
          CFI R4 SameValue
          CFI R5 SameValue
          CFI R6 SameValue
          CFI R7 SameValue
          CFI V0 SameValue
          CFI V1 SameValue
          CFI V2 SameValue
          CFI V3 SameValue
          CFI V4 SameValue
          CFI V5 SameValue
          CFI V6 SameValue
          CFI V7 SameValue
          CFI V8 SameValue
          CFI V9 SameValue
          CFI V10 SameValue
          CFI V11 SameValue
          CFI V12 SameValue
          CFI V13 SameValue
          CFI V14 SameValue
          CFI V15 SameValue
          CFI PSPH Undefined
          CFI PSPL Undefined
          CFI XSPH Undefined
          CFI XSPL Undefined
          CFI ?RET Concat
          CFI ?BRET_EXT SameValue
          CFI ?RET_HIGH Frame(CFA_SP, 2)
          CFI ?RET_LOW Frame(CFA_SP, 1)
          CFI EndCommon cfiCommon1
        
AF_DataRequest      SYMBOL "AF_DataRequest"
`??AF_DataRequest::?relay` SYMBOL "?relay", AF_DataRequest
HalLedSet           SYMBOL "HalLedSet"
`??HalLedSet::?relay` SYMBOL "?relay", HalLedSet
HalUARTOpen         SYMBOL "HalUARTOpen"
`??HalUARTOpen::?relay` SYMBOL "?relay", HalUARTOpen
HalUARTRead         SYMBOL "HalUARTRead"
`??HalUARTRead::?relay` SYMBOL "?relay", HalUARTRead
HalUARTWrite        SYMBOL "HalUARTWrite"
`??HalUARTWrite::?relay` SYMBOL "?relay", HalUARTWrite
Hal_UART_RxBufLen   SYMBOL "Hal_UART_RxBufLen"
`??Hal_UART_RxBufLen::?relay` SYMBOL "?relay", Hal_UART_RxBufLen
NLME_GetExtAddr     SYMBOL "NLME_GetExtAddr"
`??NLME_GetExtAddr::?relay` SYMBOL "?relay", NLME_GetExtAddr
NLME_GetShortAddr   SYMBOL "NLME_GetShortAddr"
`??NLME_GetShortAddr::?relay` SYMBOL "?relay", NLME_GetShortAddr
NLME_PermitJoiningRequest SYMBOL "NLME_PermitJoiningRequest"
`??NLME_PermitJoiningRequest::?relay` SYMBOL "?relay", NLME_PermitJoiningRequest
NLME_SetDefaultNV   SYMBOL "NLME_SetDefaultNV"
`??NLME_SetDefaultNV::?relay` SYMBOL "?relay", NLME_SetDefaultNV
RegisterForKeys     SYMBOL "RegisterForKeys"
`??RegisterForKeys::?relay` SYMBOL "?relay", RegisterForKeys
RegisterVoltageWarningCB SYMBOL "RegisterVoltageWarningCB"
`??RegisterVoltageWarningCB::?relay` SYMBOL "?relay", RegisterVoltageWarningCB
afRegister          SYMBOL "afRegister"
`??afRegister::?relay` SYMBOL "?relay", afRegister
bdb_RegisterCommissioningStatusCB SYMBOL "bdb_RegisterCommissioningStatusCB"
`??bdb_RegisterCommissioningStatusCB::?relay` SYMBOL "?relay", bdb_RegisterCommissioningStatusCB
bdb_RegisterSimpleDescriptor SYMBOL "bdb_RegisterSimpleDescriptor"
`??bdb_RegisterSimpleDescriptor::?relay` SYMBOL "?relay", bdb_RegisterSimpleDescriptor
bdb_RepAddAttrCfgRecordDefaultToList SYMBOL "bdb_RepAddAttrCfgRecordDefaultToList"
`??bdb_RepAddAttrCfgRecordDefaultToList::?relay` SYMBOL "?relay", bdb_RepAddAttrCfgRecordDefaultToList
bdb_StartCommissioning SYMBOL "bdb_StartCommissioning"
`??bdb_StartCommissioning::?relay` SYMBOL "?relay", bdb_StartCommissioning
osal_mem_free       SYMBOL "osal_mem_free"
`??osal_mem_free::?relay` SYMBOL "?relay", osal_mem_free
osal_memcpy         SYMBOL "osal_memcpy"
`??osal_memcpy::?relay` SYMBOL "?relay", osal_memcpy
osal_msg_deallocate SYMBOL "osal_msg_deallocate"
`??osal_msg_deallocate::?relay` SYMBOL "?relay", osal_msg_deallocate
osal_msg_receive    SYMBOL "osal_msg_receive"
`??osal_msg_receive::?relay` SYMBOL "?relay", osal_msg_receive
osal_start_timerEx  SYMBOL "osal_start_timerEx"
`??osal_start_timerEx::?relay` SYMBOL "?relay", osal_start_timerEx
zclGeneral_RegisterCmdCallbacks SYMBOL "zclGeneral_RegisterCmdCallbacks"
`??zclGeneral_RegisterCmdCallbacks::?relay` SYMBOL "?relay", zclGeneral_RegisterCmdCallbacks
zclZEM_ResetAttributesToDefaultValues SYMBOL "zclZEM_ResetAttributesToDefaultValues"
`??zclZEM_ResetAttributesToDefaultValues::?relay` SYMBOL "?relay", zclZEM_ResetAttributesToDefaultValues
zcl_registerAttrList SYMBOL "zcl_registerAttrList"
`??zcl_registerAttrList::?relay` SYMBOL "?relay", zcl_registerAttrList
zcl_registerForMsg  SYMBOL "zcl_registerForMsg"
`??zcl_registerForMsg::?relay` SYMBOL "?relay", zcl_registerForMsg
zclZEM_Init         SYMBOL "zclZEM_Init"
`??zclZEM_Init::?relay` SYMBOL "?relay", zclZEM_Init
zclZEM_event_loop   SYMBOL "zclZEM_event_loop"
`??zclZEM_event_loop::?relay` SYMBOL "?relay", zclZEM_event_loop

        EXTERN `??AF_DataRequest::?relay`
        FUNCTION `??AF_DataRequest::?relay`,00H
        EXTERN `??HalLedSet::?relay`
        FUNCTION `??HalLedSet::?relay`,00H
        EXTERN `??HalUARTOpen::?relay`
        FUNCTION `??HalUARTOpen::?relay`,00H
        EXTERN `??HalUARTRead::?relay`
        FUNCTION `??HalUARTRead::?relay`,00H
        EXTERN `??HalUARTWrite::?relay`
        FUNCTION `??HalUARTWrite::?relay`,00H
        EXTERN `??Hal_UART_RxBufLen::?relay`
        FUNCTION `??Hal_UART_RxBufLen::?relay`,00H
        EXTERN `??NLME_GetExtAddr::?relay`
        FUNCTION `??NLME_GetExtAddr::?relay`,00H
        EXTERN `??NLME_GetShortAddr::?relay`
        FUNCTION `??NLME_GetShortAddr::?relay`,00H
        EXTERN `??NLME_PermitJoiningRequest::?relay`
        FUNCTION `??NLME_PermitJoiningRequest::?relay`,00H
        EXTERN `??NLME_SetDefaultNV::?relay`
        FUNCTION `??NLME_SetDefaultNV::?relay`,00H
        EXTERN `??RegisterForKeys::?relay`
        FUNCTION `??RegisterForKeys::?relay`,00H
        EXTERN `??RegisterVoltageWarningCB::?relay`
        FUNCTION `??RegisterVoltageWarningCB::?relay`,00H
        EXTERN `??afRegister::?relay`
        FUNCTION `??afRegister::?relay`,00H
        EXTERN `??bdb_RegisterCommissioningStatusCB::?relay`
        FUNCTION `??bdb_RegisterCommissioningStatusCB::?relay`,00H
        EXTERN `??bdb_RegisterSimpleDescriptor::?relay`
        FUNCTION `??bdb_RegisterSimpleDescriptor::?relay`,00H
        EXTERN `??bdb_RepAddAttrCfgRecordDefaultToList::?relay`
        FUNCTION `??bdb_RepAddAttrCfgRecordDefaultToList::?relay`,00H
        EXTERN `??bdb_StartCommissioning::?relay`
        FUNCTION `??bdb_StartCommissioning::?relay`,00H
        EXTERN `??osal_mem_free::?relay`
        FUNCTION `??osal_mem_free::?relay`,00H
        EXTERN `??osal_memcpy::?relay`
        FUNCTION `??osal_memcpy::?relay`,00H
        EXTERN `??osal_msg_deallocate::?relay`
        FUNCTION `??osal_msg_deallocate::?relay`,00H
        EXTERN `??osal_msg_receive::?relay`
        FUNCTION `??osal_msg_receive::?relay`,00H
        EXTERN `??osal_start_timerEx::?relay`
        FUNCTION `??osal_start_timerEx::?relay`,00H
        EXTERN `??zclGeneral_RegisterCmdCallbacks::?relay`
        FUNCTION `??zclGeneral_RegisterCmdCallbacks::?relay`,00H
        EXTERN `??zclZEM_ResetAttributesToDefaultValues::?relay`
        FUNCTION `??zclZEM_ResetAttributesToDefaultValues::?relay`,00H
        EXTERN `??zcl_registerAttrList::?relay`
        FUNCTION `??zcl_registerAttrList::?relay`,00H
        EXTERN `??zcl_registerForMsg::?relay`
        FUNCTION `??zcl_registerForMsg::?relay`,00H
        EXTERN AF_DataRequest
        FUNCTION AF_DataRequest,0202H
        ARGFRAME ISTACK, 0, STACK
        ARGFRAME PSTACK, 0, STACK
        ARGFRAME XSTACK, 278, STACK
        ARGFRAME IOVERLAY, 0, STATIC
        ARGFRAME DOVERLAY, 0, STATIC
        EXTERN HalLedSet
        FUNCTION HalLedSet,0202H
        ARGFRAME ISTACK, 0, STACK
        ARGFRAME PSTACK, 0, STACK
        ARGFRAME XSTACK, 122, STACK
        ARGFRAME IOVERLAY, 0, STATIC
        ARGFRAME DOVERLAY, 0, STATIC
        EXTERN HalUARTOpen
        FUNCTION HalUARTOpen,0202H
        ARGFRAME ISTACK, 0, STACK
        ARGFRAME PSTACK, 0, STACK
        ARGFRAME XSTACK, 39, STACK
        ARGFRAME IOVERLAY, 0, STATIC
        ARGFRAME DOVERLAY, 0, STATIC
        EXTERN HalUARTRead
        FUNCTION HalUARTRead,0202H
        ARGFRAME ISTACK, 0, STACK
        ARGFRAME PSTACK, 0, STACK
        ARGFRAME XSTACK, 9, STACK
        ARGFRAME IOVERLAY, 0, STATIC
        ARGFRAME DOVERLAY, 0, STATIC
        EXTERN HalUARTWrite
        FUNCTION HalUARTWrite,0202H
        ARGFRAME ISTACK, 0, STACK
        ARGFRAME PSTACK, 0, STACK
        ARGFRAME XSTACK, 269, STACK
        ARGFRAME IOVERLAY, 0, STATIC
        ARGFRAME DOVERLAY, 0, STATIC
        EXTERN Hal_UART_RxBufLen
        FUNCTION Hal_UART_RxBufLen,0202H
        ARGFRAME ISTACK, 0, STACK
        ARGFRAME PSTACK, 0, STACK
        ARGFRAME XSTACK, 9, STACK
        ARGFRAME IOVERLAY, 0, STATIC
        ARGFRAME DOVERLAY, 0, STATIC
        EXTERN NLME_GetExtAddr
        FUNCTION NLME_GetExtAddr,0202H
        ARGFRAME ISTACK, 0, STACK
        ARGFRAME PSTACK, 0, STACK
        ARGFRAME XSTACK, 269, STACK
        ARGFRAME IOVERLAY, 0, STATIC
        ARGFRAME DOVERLAY, 0, STATIC
        EXTERN NLME_GetShortAddr
        FUNCTION NLME_GetShortAddr,0202H
        ARGFRAME ISTACK, 0, STACK
        ARGFRAME PSTACK, 0, STACK
        ARGFRAME XSTACK, 122, STACK
        ARGFRAME IOVERLAY, 0, STATIC
        ARGFRAME DOVERLAY, 0, STATIC
        EXTERN NLME_PermitJoiningRequest
        FUNCTION NLME_PermitJoiningRequest,0202H
        ARGFRAME ISTACK, 0, STACK
        ARGFRAME PSTACK, 0, STACK
        ARGFRAME XSTACK, 122, STACK
        ARGFRAME IOVERLAY, 0, STATIC
        ARGFRAME DOVERLAY, 0, STATIC
        EXTERN NLME_SetDefaultNV
        FUNCTION NLME_SetDefaultNV,0202H
        ARGFRAME ISTACK, 0, STACK
        ARGFRAME PSTACK, 0, STACK
        ARGFRAME XSTACK, 39, STACK
        ARGFRAME IOVERLAY, 0, STATIC
        ARGFRAME DOVERLAY, 0, STATIC
        EXTERN RegisterForKeys
        FUNCTION RegisterForKeys,0202H
        ARGFRAME ISTACK, 0, STACK
        ARGFRAME PSTACK, 0, STACK
        ARGFRAME XSTACK, 39, STACK
        ARGFRAME IOVERLAY, 0, STATIC
        ARGFRAME DOVERLAY, 0, STATIC
        EXTERN RegisterVoltageWarningCB
        FUNCTION RegisterVoltageWarningCB,0202H
        ARGFRAME ISTACK, 0, STACK
        ARGFRAME PSTACK, 0, STACK
        ARGFRAME XSTACK, 39, STACK
        ARGFRAME IOVERLAY, 0, STATIC
        ARGFRAME DOVERLAY, 0, STATIC
        EXTERN _NIB
        EXTERN afRegister
        FUNCTION afRegister,0202H
        ARGFRAME ISTACK, 0, STACK
        ARGFRAME PSTACK, 0, STACK
        ARGFRAME XSTACK, 39, STACK
        ARGFRAME IOVERLAY, 0, STATIC
        ARGFRAME DOVERLAY, 0, STATIC
        EXTERN bdb_RegisterCommissioningStatusCB
        FUNCTION bdb_RegisterCommissioningStatusCB,0202H
        ARGFRAME ISTACK, 0, STACK
        ARGFRAME PSTACK, 0, STACK
        ARGFRAME XSTACK, 39, STACK
        ARGFRAME IOVERLAY, 0, STATIC
        ARGFRAME DOVERLAY, 0, STATIC
        EXTERN bdb_RegisterSimpleDescriptor
        FUNCTION bdb_RegisterSimpleDescriptor,0202H
        ARGFRAME ISTACK, 0, STACK
        ARGFRAME PSTACK, 0, STACK
        ARGFRAME XSTACK, 39, STACK
        ARGFRAME IOVERLAY, 0, STATIC
        ARGFRAME DOVERLAY, 0, STATIC
        EXTERN bdb_RepAddAttrCfgRecordDefaultToList
        FUNCTION bdb_RepAddAttrCfgRecordDefaultToList,0202H
        ARGFRAME ISTACK, 0, STACK
        ARGFRAME PSTACK, 0, STACK
        ARGFRAME XSTACK, 45, STACK
        ARGFRAME IOVERLAY, 0, STATIC
        ARGFRAME DOVERLAY, 0, STATIC
        EXTERN bdb_StartCommissioning
        FUNCTION bdb_StartCommissioning,0202H
        ARGFRAME ISTACK, 0, STACK
        ARGFRAME PSTACK, 0, STACK
        ARGFRAME XSTACK, 269, STACK
        ARGFRAME IOVERLAY, 0, STATIC
        ARGFRAME DOVERLAY, 0, STATIC
        EXTERN devState
        EXTERN osal_mem_free
        FUNCTION osal_mem_free,0202H
        ARGFRAME ISTACK, 0, STACK
        ARGFRAME PSTACK, 0, STACK
        ARGFRAME XSTACK, 9, STACK
        ARGFRAME IOVERLAY, 0, STATIC
        ARGFRAME DOVERLAY, 0, STATIC
        EXTERN osal_memcpy
        FUNCTION osal_memcpy,0202H
        ARGFRAME ISTACK, 0, STACK
        ARGFRAME PSTACK, 0, STACK
        ARGFRAME XSTACK, 272, STACK
        ARGFRAME IOVERLAY, 0, STATIC
        ARGFRAME DOVERLAY, 0, STATIC
        EXTERN osal_msg_deallocate
        FUNCTION osal_msg_deallocate,0202H
        ARGFRAME ISTACK, 0, STACK
        ARGFRAME PSTACK, 0, STACK
        ARGFRAME XSTACK, 269, STACK
        ARGFRAME IOVERLAY, 0, STATIC
        ARGFRAME DOVERLAY, 0, STATIC
        EXTERN osal_msg_receive
        FUNCTION osal_msg_receive,0202H
        ARGFRAME ISTACK, 0, STACK
        ARGFRAME PSTACK, 0, STACK
        ARGFRAME XSTACK, 269, STACK
        ARGFRAME IOVERLAY, 0, STATIC
        ARGFRAME DOVERLAY, 0, STATIC
        EXTERN osal_start_timerEx
        FUNCTION osal_start_timerEx,0202H
        ARGFRAME ISTACK, 0, STACK
        ARGFRAME PSTACK, 0, STACK
        ARGFRAME XSTACK, 273, STACK
        ARGFRAME IOVERLAY, 0, STATIC
        ARGFRAME DOVERLAY, 0, STATIC
        EXTERN zclGeneral_RegisterCmdCallbacks
        FUNCTION zclGeneral_RegisterCmdCallbacks,0202H
        ARGFRAME ISTACK, 0, STACK
        ARGFRAME PSTACK, 0, STACK
        ARGFRAME XSTACK, 39, STACK
        ARGFRAME IOVERLAY, 0, STATIC
        ARGFRAME DOVERLAY, 0, STATIC
        EXTERN zclZEM_Attrs
        EXTERN zclZEM_NumAttributes
        EXTERN zclZEM_ResetAttributesToDefaultValues
        FUNCTION zclZEM_ResetAttributesToDefaultValues,0202H
        ARGFRAME ISTACK, 2, STACK
        ARGFRAME PSTACK, 0, STACK
        ARGFRAME XSTACK, 39, STACK
        ARGFRAME IOVERLAY, 0, STATIC
        ARGFRAME DOVERLAY, 0, STATIC
        EXTERN zclZEM_SimpleDesc
        EXTERN zcl_registerAttrList
        FUNCTION zcl_registerAttrList,0202H
        ARGFRAME ISTACK, 0, STACK
        ARGFRAME PSTACK, 0, STACK
        ARGFRAME XSTACK, 39, STACK
        ARGFRAME IOVERLAY, 0, STATIC
        ARGFRAME DOVERLAY, 0, STATIC
        EXTERN zcl_registerForMsg
        FUNCTION zcl_registerForMsg,0202H
        ARGFRAME ISTACK, 0, STACK
        ARGFRAME PSTACK, 0, STACK
        ARGFRAME XSTACK, 39, STACK
        ARGFRAME IOVERLAY, 0, STATIC
        ARGFRAME DOVERLAY, 0, STATIC
        EXTERN zdpExternalStateTaskID

// D:\project\Z-Stack 3.0.2\Projects\zstack\HomeAutomation\ZEM\Source\zcl_ZEM.c
//    1 /*********************************************************************
//    2  * INCLUDES
//    3  */
//    4 #include "ZComDef.h"
//    5 #include "OSAL.h"
//    6 #include "AF.h"
//    7 #include "ZDApp.h"
//    8 #include "ZDObject.h"
//    9 #include "ZDProfile.h"
//   10 #include "MT_SYS.h"
//   11 
//   12 #include "zcl.h"
//   13 #include "zcl_general.h"
//   14 #include "zcl_ha.h"
//   15 #include "zcl_ms.h"
//   16 
//   17 #include "zcl_ZEM.h"
//   18 
//   19 #include "onboard.h"

        ASEGN SFR_AN:DATA:NOROOT,0f1H
// unsigned char volatile __sfr PERCFG
PERCFG:
        DATA8
        DS 1

        ASEGN SFR_AN:DATA:NOROOT,0f4H
// unsigned char volatile __sfr P1SEL
P1SEL:
        DATA8
        DS 1

        ASEGN SFR_AN:DATA:NOROOT,0feH
// unsigned char volatile __sfr P1DIR
P1DIR:
        DATA8
        DS 1
//   20 
//   21 /* HAL */
//   22 #include "hal_lcd.h"
//   23 #include "hal_led.h"
//   24 #include "hal_key.h"
//   25 #include "hal_uart.h"
//   26 
//   27 #include "bdb_interface.h"
//   28 #include "bdb_Reporting.h"
//   29    
//   30 /*********************************************************************
//   31  * MACROS
//   32  */
//   33 
//   34 // how often to report temperature
//   35 #define ZEM_REPORT_INTERVAL   10000
//   36 
//   37 #define GUI_LOCAL_TEMP    1
//   38 
//   39 #define APP_TITLE "   Temp Sensor  "
//   40 
//   41 /*********************************************************************
//   42  * CONSTANTS
//   43  */
//   44 
//   45 /*********************************************************************
//   46  * TYPEDEFS
//   47  */
//   48 
//   49 /*********************************************************************
//   50  * GLOBAL VARIABLES
//   51  */

        RSEG XDATA_Z:XDATA:NOROOT(0)
        DATA8
//   52 byte zclZEM_TaskID;
zclZEM_TaskID:
        DS 1
        REQUIRE __INIT_XDATA_Z
//   53 
//   54 extern int16 zdpExternalStateTaskID;
//   55 
//   56 // UART Buffer

        RSEG XDATA_Z:XDATA:NOROOT(0)
        DATA8
//   57 static uint8 zclZEM_UartBuf[ZCLZEM_UART_BUF_LEN];
zclZEM_UartBuf:
        DS 64
        REQUIRE __INIT_XDATA_Z
//   58 
//   59 /*********************************************************************
//   60  * GLOBAL FUNCTIONS
//   61  */
//   62 
//   63 /*********************************************************************
//   64  * LOCAL VARIABLES
//   65  */
//   66 

        RSEG XDATA_Z:XDATA:NOROOT(0)
        DATA8
//   67 uint8 zclZEM_NwkState = 0; // DEV_INIT
zclZEM_NwkState:
        DS 1
        REQUIRE __INIT_XDATA_Z
//   68 
//   69 //static uint8 aProcessCmd[] = { 1, 0, 0, 0 }; // used for reset command, { length + cmd0 + cmd1 + data }
//   70 
//   71 // Application Endpoint for data communication

        RSEG XDATA_I:XDATA:NOROOT(0)
//   72 static endPointDesc_t ZEM_AppEp =
ZEM_AppEp:
        DATA8
        DS 7
        REQUIRE `?<Initializer for ZEM_AppEp>`
        REQUIRE __INIT_XDATA_I
//   73 {
//   74   ZEM_ENDPOINT,                       // Application endpoint
//   75   0,
//   76   &zclZEM_TaskID,
//   77   (SimpleDescriptionFormat_t *)&zclZEM_SimpleDesc,                 // Simple description for this application
//   78   (afNetworkLatencyReq_t)0            // No Network Latency req
//   79 };
//   80 #ifdef BDB_REPORTING
//   81 #if BDBREPORTING_MAX_ANALOG_ATTR_SIZE == 8
//   82   uint8 reportableChange[] = {0x2C, 0x01, 0x00, 0x00, 0x00, 0x00, 0x00, 0x00}; // 0x2C01 is 300 in int16
//   83 #endif
//   84 #if BDBREPORTING_MAX_ANALOG_ATTR_SIZE == 4

        RSEG XDATA_I:XDATA:NOROOT(0)
//   85   uint8 reportableChange[] = {0x2C, 0x01, 0x00, 0x00}; // 0x2C01 is 300 in int16
reportableChange:
        DATA32
        DS 4
        REQUIRE `?<Initializer for reportableChange>`
        REQUIRE __INIT_XDATA_I
//   86 #endif 
//   87 #if BDBREPORTING_MAX_ANALOG_ATTR_SIZE == 2
//   88   uint8 reportableChange[] = {0x2C, 0x01}; // 0x2C01 is 300 in int16
//   89 #endif 
//   90 #endif
//   91 
//   92 /*********************************************************************
//   93  * LOCAL FUNCTIONS
//   94  */
//   95 static void zclZEM_HandleKeys( byte shift, byte keys );
//   96 static void zclZEM_BasicResetCB( void );
//   97 
//   98 static void zclZEM_ProcessCommissioningStatus(bdbCommissioningModeMsg_t* bdbCommissioningModeMsg);
//   99 
//  100 // Functions to process ZCL Foundation incoming Command/Response messages
//  101 static void zclZEM_ProcessIncomingMsg( zclIncomingMsg_t *msg );
//  102 #ifdef ZCL_READ
//  103 static uint8 zclZEM_ProcessInReadRspCmd( zclIncomingMsg_t *pInMsg );
//  104 #endif
//  105 #ifdef ZCL_WRITE
//  106 static uint8 zclZEM_ProcessInWriteRspCmd( zclIncomingMsg_t *pInMsg );
//  107 #endif
//  108 static uint8 zclZEM_ProcessInDefaultRspCmd( zclIncomingMsg_t *pInMsg );
//  109 #ifdef ZCL_DISCOVER
//  110 static uint8 zclZEM_ProcessInDiscCmdsRspCmd( zclIncomingMsg_t *pInMsg );
//  111 static uint8 zclZEM_ProcessInDiscAttrsRspCmd( zclIncomingMsg_t *pInMsg );
//  112 static uint8 zclZEM_ProcessInDiscAttrsExtRspCmd( zclIncomingMsg_t *pInMsg );
//  113 #endif // ZCL_DISCOVER
//  114 
//  115 static void zclSampleApp_BatteryWarningCB( uint8 voltLevel);
//  116 
//  117 /*********************************************************************
//  118  * STATUS STRINGS
//  119  */
//  120 
//  121 /*********************************************************************
//  122  * CONSTANTS
//  123  */
//  124 
//  125 
//  126 /*********************************************************************
//  127  * ZCL General Profile Callback table
//  128  */

        RSEG XDATA_I:XDATA:NOROOT(0)
//  129 static zclGeneral_AppCallbacks_t zclZEM_CmdCallbacks =
zclZEM_CmdCallbacks:
        DATA8
        DS 18
        REQUIRE `?<Initializer for zclZEM_CmdCallbacks>`
        REQUIRE __INIT_XDATA_I
//  130 {
//  131   zclZEM_BasicResetCB,        // Basic Cluster Reset command
//  132   NULL,                                           // Identify Trigger Effect command
//  133   NULL,             				                      // On/Off cluster command
//  134   NULL,                                           // On/Off cluster enhanced command Off with Effect
//  135   NULL,                                           // On/Off cluster enhanced command On with Recall Global Scene
//  136   NULL,                                           // On/Off cluster enhanced command On with Timed Off
//  137 #ifdef ZCL_LEVEL_CTRL
//  138   NULL,                                           // Level Control Move to Level command
//  139   NULL,                                           // Level Control Move command
//  140   NULL,                                           // Level Control Step command
//  141   NULL,                                           // Level Control Stop command
//  142 #endif
//  143 #ifdef ZCL_GROUPS
//  144   NULL,                                           // Group Response commands
//  145 #endif
//  146 #ifdef ZCL_SCENES
//  147   NULL,                                           // Scene Store Request command
//  148   NULL,                                           // Scene Recall Request command
//  149   NULL,                                           // Scene Response command
//  150 #endif
//  151 #ifdef ZCL_ALARMS
//  152   NULL,                                           // Alarm (Response) commands
//  153 #endif
//  154 #ifdef SE_UK_EXT
//  155   NULL,                                           // Get Event Log command
//  156   NULL,                                           // Publish Event Log command
//  157 #endif
//  158   NULL,                                           // RSSI Location command
//  159   NULL                                            // RSSI Location Response command
//  160 };
//  161 
//  162 /*********************************************************************
//  163  * @fn          zclZEM_Init
//  164  *
//  165  * @brief       Initialization function for the zclGeneral layer.
//  166  *
//  167  * @param       none
//  168  *
//  169  * @return      none
//  170  */

        RSEG BANKED_CODE:HUGECODE:NOROOT(0)
//  171 void zclZEM_Init( byte task_id )
zclZEM_Init:
          CFI Block cfiBlock0 Using cfiCommon0
          CFI Function zclZEM_Init
        CODE
//  172 {
        FUNCALL zclZEM_Init, bdb_RegisterSimpleDescriptor
        LOCFRAME ISTACK, 0, STACK
        LOCFRAME PSTACK, 0, STACK
        LOCFRAME XSTACK, 39, STACK
        LOCFRAME IOVERLAY, 0, STATIC
        LOCFRAME DOVERLAY, 0, STATIC
        ARGFRAME ISTACK, 0, STACK
        ARGFRAME PSTACK, 0, STACK
        ARGFRAME XSTACK, 39, STACK
        ARGFRAME IOVERLAY, 0, STATIC
        ARGFRAME DOVERLAY, 0, STATIC
        FUNCALL zclZEM_Init, zclGeneral_RegisterCmdCallbacks
        LOCFRAME ISTACK, 0, STACK
        LOCFRAME PSTACK, 0, STACK
        LOCFRAME XSTACK, 39, STACK
        LOCFRAME IOVERLAY, 0, STATIC
        LOCFRAME DOVERLAY, 0, STATIC
        ARGFRAME ISTACK, 0, STACK
        ARGFRAME PSTACK, 0, STACK
        ARGFRAME XSTACK, 39, STACK
        ARGFRAME IOVERLAY, 0, STATIC
        ARGFRAME DOVERLAY, 0, STATIC
        FUNCALL zclZEM_Init, zclZEM_ResetAttributesToDefaultValues
        LOCFRAME ISTACK, 0, STACK
        LOCFRAME PSTACK, 0, STACK
        LOCFRAME XSTACK, 39, STACK
        LOCFRAME IOVERLAY, 0, STATIC
        LOCFRAME DOVERLAY, 0, STATIC
        ARGFRAME ISTACK, 0, STACK
        ARGFRAME PSTACK, 0, STACK
        ARGFRAME XSTACK, 39, STACK
        ARGFRAME IOVERLAY, 0, STATIC
        ARGFRAME DOVERLAY, 0, STATIC
        FUNCALL zclZEM_Init, zcl_registerAttrList
        LOCFRAME ISTACK, 0, STACK
        LOCFRAME PSTACK, 0, STACK
        LOCFRAME XSTACK, 39, STACK
        LOCFRAME IOVERLAY, 0, STATIC
        LOCFRAME DOVERLAY, 0, STATIC
        ARGFRAME ISTACK, 0, STACK
        ARGFRAME PSTACK, 0, STACK
        ARGFRAME XSTACK, 39, STACK
        ARGFRAME IOVERLAY, 0, STATIC
        ARGFRAME DOVERLAY, 0, STATIC
        FUNCALL zclZEM_Init, zcl_registerForMsg
        LOCFRAME ISTACK, 0, STACK
        LOCFRAME PSTACK, 0, STACK
        LOCFRAME XSTACK, 39, STACK
        LOCFRAME IOVERLAY, 0, STATIC
        LOCFRAME DOVERLAY, 0, STATIC
        ARGFRAME ISTACK, 0, STACK
        ARGFRAME PSTACK, 0, STACK
        ARGFRAME XSTACK, 39, STACK
        ARGFRAME IOVERLAY, 0, STATIC
        ARGFRAME DOVERLAY, 0, STATIC
        FUNCALL zclZEM_Init, RegisterVoltageWarningCB
        LOCFRAME ISTACK, 0, STACK
        LOCFRAME PSTACK, 0, STACK
        LOCFRAME XSTACK, 39, STACK
        LOCFRAME IOVERLAY, 0, STATIC
        LOCFRAME DOVERLAY, 0, STATIC
        ARGFRAME ISTACK, 0, STACK
        ARGFRAME PSTACK, 0, STACK
        ARGFRAME XSTACK, 39, STACK
        ARGFRAME IOVERLAY, 0, STATIC
        ARGFRAME DOVERLAY, 0, STATIC
        FUNCALL zclZEM_Init, RegisterForKeys
        LOCFRAME ISTACK, 0, STACK
        LOCFRAME PSTACK, 0, STACK
        LOCFRAME XSTACK, 39, STACK
        LOCFRAME IOVERLAY, 0, STATIC
        LOCFRAME DOVERLAY, 0, STATIC
        ARGFRAME ISTACK, 0, STACK
        ARGFRAME PSTACK, 0, STACK
        ARGFRAME XSTACK, 39, STACK
        ARGFRAME IOVERLAY, 0, STATIC
        ARGFRAME DOVERLAY, 0, STATIC
        FUNCALL zclZEM_Init, bdb_RegisterCommissioningStatusCB
        LOCFRAME ISTACK, 0, STACK
        LOCFRAME PSTACK, 0, STACK
        LOCFRAME XSTACK, 39, STACK
        LOCFRAME IOVERLAY, 0, STATIC
        LOCFRAME DOVERLAY, 0, STATIC
        ARGFRAME ISTACK, 0, STACK
        ARGFRAME PSTACK, 0, STACK
        ARGFRAME XSTACK, 39, STACK
        ARGFRAME IOVERLAY, 0, STATIC
        ARGFRAME DOVERLAY, 0, STATIC
        FUNCALL zclZEM_Init, afRegister
        LOCFRAME ISTACK, 0, STACK
        LOCFRAME PSTACK, 0, STACK
        LOCFRAME XSTACK, 39, STACK
        LOCFRAME IOVERLAY, 0, STATIC
        LOCFRAME DOVERLAY, 0, STATIC
        ARGFRAME ISTACK, 0, STACK
        ARGFRAME PSTACK, 0, STACK
        ARGFRAME XSTACK, 39, STACK
        ARGFRAME IOVERLAY, 0, STATIC
        ARGFRAME DOVERLAY, 0, STATIC
        FUNCALL zclZEM_Init, NLME_SetDefaultNV
        LOCFRAME ISTACK, 0, STACK
        LOCFRAME PSTACK, 0, STACK
        LOCFRAME XSTACK, 39, STACK
        LOCFRAME IOVERLAY, 0, STATIC
        LOCFRAME DOVERLAY, 0, STATIC
        ARGFRAME ISTACK, 0, STACK
        ARGFRAME PSTACK, 0, STACK
        ARGFRAME XSTACK, 39, STACK
        ARGFRAME IOVERLAY, 0, STATIC
        ARGFRAME DOVERLAY, 0, STATIC
        FUNCALL zclZEM_Init, HalUARTOpen
        LOCFRAME ISTACK, 0, STACK
        LOCFRAME PSTACK, 0, STACK
        LOCFRAME XSTACK, 39, STACK
        LOCFRAME IOVERLAY, 0, STATIC
        LOCFRAME DOVERLAY, 0, STATIC
        ARGFRAME ISTACK, 0, STACK
        ARGFRAME PSTACK, 0, STACK
        ARGFRAME XSTACK, 39, STACK
        ARGFRAME IOVERLAY, 0, STATIC
        ARGFRAME DOVERLAY, 0, STATIC
        FUNCALL zclZEM_Init, bdb_StartCommissioning
        LOCFRAME ISTACK, 0, STACK
        LOCFRAME PSTACK, 0, STACK
        LOCFRAME XSTACK, 39, STACK
        LOCFRAME IOVERLAY, 0, STATIC
        LOCFRAME DOVERLAY, 0, STATIC
        ARGFRAME ISTACK, 0, STACK
        ARGFRAME PSTACK, 0, STACK
        ARGFRAME XSTACK, 39, STACK
        ARGFRAME IOVERLAY, 0, STATIC
        ARGFRAME DOVERLAY, 0, STATIC
        FUNCALL zclZEM_Init, NLME_PermitJoiningRequest
        LOCFRAME ISTACK, 0, STACK
        LOCFRAME PSTACK, 0, STACK
        LOCFRAME XSTACK, 39, STACK
        LOCFRAME IOVERLAY, 0, STATIC
        LOCFRAME DOVERLAY, 0, STATIC
        ARGFRAME ISTACK, 0, STACK
        ARGFRAME PSTACK, 0, STACK
        ARGFRAME XSTACK, 39, STACK
        ARGFRAME IOVERLAY, 0, STATIC
        ARGFRAME DOVERLAY, 0, STATIC
        FUNCALL zclZEM_Init, zclZEM_ReadAndSendMAC
        LOCFRAME ISTACK, 0, STACK
        LOCFRAME PSTACK, 0, STACK
        LOCFRAME XSTACK, 39, STACK
        LOCFRAME IOVERLAY, 0, STATIC
        LOCFRAME DOVERLAY, 0, STATIC
        ARGFRAME ISTACK, 0, STACK
        ARGFRAME PSTACK, 0, STACK
        ARGFRAME XSTACK, 39, STACK
        ARGFRAME IOVERLAY, 0, STATIC
        ARGFRAME DOVERLAY, 0, STATIC
        FUNCALL zclZEM_Init, bdb_RepAddAttrCfgRecordDefaultToList
        LOCFRAME ISTACK, 0, STACK
        LOCFRAME PSTACK, 0, STACK
        LOCFRAME XSTACK, 45, STACK
        LOCFRAME IOVERLAY, 0, STATIC
        LOCFRAME DOVERLAY, 0, STATIC
        ARGFRAME ISTACK, 0, STACK
        ARGFRAME PSTACK, 0, STACK
        ARGFRAME XSTACK, 45, STACK
        ARGFRAME IOVERLAY, 0, STATIC
        ARGFRAME DOVERLAY, 0, STATIC
        FUNCALL zclZEM_Init, osal_start_timerEx
        LOCFRAME ISTACK, 0, STACK
        LOCFRAME PSTACK, 0, STACK
        LOCFRAME XSTACK, 43, STACK
        LOCFRAME IOVERLAY, 0, STATIC
        LOCFRAME DOVERLAY, 0, STATIC
        ARGFRAME ISTACK, 0, STACK
        ARGFRAME PSTACK, 0, STACK
        ARGFRAME XSTACK, 43, STACK
        ARGFRAME IOVERLAY, 0, STATIC
        ARGFRAME DOVERLAY, 0, STATIC
        REQUIRE ?V0
        REQUIRE ?V1
        MOV       A,#-0xa
        LCALL     ?BANKED_ENTER_XDATA
          CFI DPH0 load(1, XDATA, add(CFA_XSP16, literal(-1)))
          CFI DPL0 load(1, XDATA, add(CFA_XSP16, literal(-2)))
          CFI ?BRET_EXT load(1, XDATA, add(CFA_XSP16, literal(-3)))
          CFI ?RET_HIGH load(1, XDATA, add(CFA_XSP16, literal(-4)))
          CFI ?RET_LOW load(1, XDATA, add(CFA_XSP16, literal(-5)))
          CFI R7 load(1, XDATA, add(CFA_XSP16, literal(-6)))
          CFI V1 load(1, XDATA, add(CFA_XSP16, literal(-7)))
          CFI V0 load(1, XDATA, add(CFA_XSP16, literal(-8)))
          CFI VB load(1, XDATA, add(CFA_XSP16, literal(-9)))
          CFI R6 load(1, XDATA, add(CFA_XSP16, literal(-10)))
          CFI CFA_SP SP+0
          CFI CFA_XSP16 add(XSP16, 10)
        ; Saved register size: 10
        ; Auto size: 29
        MOV       A,#-0x1d
        LCALL     ?ALLOC_XSTACK8
          CFI CFA_XSP16 add(XSP16, 39)
        MOV       A,R1
//  173   zclZEM_TaskID = task_id;
        MOV       DPTR,#zclZEM_TaskID
        MOVX      @DPTR,A
//  174 
//  175   // Register the Simple Descriptor for this application
//  176   bdb_RegisterSimpleDescriptor( &zclZEM_SimpleDesc ); 
        ; Setup parameters for call to function bdb_RegisterSimpleDescriptor
        MOV       R2,#zclZEM_SimpleDesc & 0xff
        MOV       R3,#(zclZEM_SimpleDesc >> 8) & 0xff
        LCALL     `??bdb_RegisterSimpleDescriptor::?relay`; Banked call to: bdb_RegisterSimpleDescriptor
//  177   
//  178   // Register the ZCL General Cluster Library callback functions
//  179   zclGeneral_RegisterCmdCallbacks( ZEM_ENDPOINT, &zclZEM_CmdCallbacks );
        ; Setup parameters for call to function zclGeneral_RegisterCmdCallbacks
        MOV       R2,#zclZEM_CmdCallbacks & 0xff
        MOV       R3,#(zclZEM_CmdCallbacks >> 8) & 0xff
        MOV       R1,#0x8
        LCALL     `??zclGeneral_RegisterCmdCallbacks::?relay`; Banked call to: zclGeneral_RegisterCmdCallbacks
//  180 
//  181   // Register the application's attribute list
//  182   zclZEM_ResetAttributesToDefaultValues();
        ; Setup parameters for call to function zclZEM_ResetAttributesToDefaultValues
        LCALL     `??zclZEM_ResetAttributesToDefaultValues::?relay`; Banked call to: zclZEM_ResetAttributesToDefaultValues
//  183   zcl_registerAttrList( ZEM_ENDPOINT, zclZEM_NumAttributes, zclZEM_Attrs );
        ; Setup parameters for call to function zcl_registerAttrList
        MOV       R4,#zclZEM_Attrs & 0xff
        MOV       R5,#(zclZEM_Attrs >> 8) & 0xff
        MOV       DPTR,#zclZEM_NumAttributes
        CLR       A
        MOVC      A,@A+DPTR
        MOV       R2,A
        MOV       R1,#0x8
        LCALL     `??zcl_registerAttrList::?relay`; Banked call to: zcl_registerAttrList
//  184 
//  185   // Register the Application to receive the unprocessed Foundation command/response messages
//  186   zcl_registerForMsg( zclZEM_TaskID );
        ; Setup parameters for call to function zcl_registerForMsg
        MOV       DPTR,#zclZEM_TaskID
        MOVX      A,@DPTR
        MOV       R1,A
        LCALL     `??zcl_registerForMsg::?relay`; Banked call to: zcl_registerForMsg
//  187 
//  188   // Register low voltage NV memory protection application callback
//  189   RegisterVoltageWarningCB( zclSampleApp_BatteryWarningCB );
        ; Setup parameters for call to function RegisterVoltageWarningCB
        MOV       R2,#`??zclSampleApp_BatteryWarningCB::?relay` & 0xff
        MOV       R3,#(`??zclSampleApp_BatteryWarningCB::?relay` >> 8) & 0xff
        LCALL     `??RegisterVoltageWarningCB::?relay`; Banked call to: RegisterVoltageWarningCB
//  190 
//  191   // Register for all key events - This app will handle all key events
//  192   RegisterForKeys( zclZEM_TaskID );
        ; Setup parameters for call to function RegisterForKeys
        MOV       DPTR,#zclZEM_TaskID
        MOVX      A,@DPTR
        MOV       R1,A
        LCALL     `??RegisterForKeys::?relay`; Banked call to: RegisterForKeys
//  193 
//  194   bdb_RegisterCommissioningStatusCB( zclZEM_ProcessCommissioningStatus );
        ; Setup parameters for call to function bdb_RegisterCommissioningStatusCB
        MOV       R2,#`??zclZEM_ProcessCommissioningStatus::?relay` & 0xff
        MOV       R3,#(`??zclZEM_ProcessCommissioningStatus::?relay` >> 8) & 0xff
        LCALL     `??bdb_RegisterCommissioningStatusCB::?relay`; Banked call to: bdb_RegisterCommissioningStatusCB
//  195 
//  196   // Register the endpoint with AF (Application Framework)
//  197   afRegister( &ZEM_AppEp  );
        ; Setup parameters for call to function afRegister
        MOV       R2,#ZEM_AppEp & 0xff
        MOV       R3,#(ZEM_AppEp >> 8) & 0xff
        LCALL     `??afRegister::?relay`; Banked call to: afRegister
//  198   
//  199   // 清除之前保存的网络信息，确保每次启动都重新组网
//  200   NLME_SetDefaultNV();
        ; Setup parameters for call to function NLME_SetDefaultNV
        LCALL     `??NLME_SetDefaultNV::?relay`; Banked call to: NLME_SetDefaultNV
//  201   
//  202   // Initialize UART communication
//  203   zclZEM_InitUart();
        ORL       0xf1,#0x1
        ORL       0xf4,#0x30
        ORL       0xfe,#0x10
        ANL       0xfe,#0xdf
        MOV       DPL,?XSP + 0
        MOV       DPH,?XSP + 1
        MOV       A,#0x1
        MOVX      @DPTR,A
        LCALL     ?XSTACK_DISP0_8
        MOV       A,#0x4
        MOVX      @DPTR,A
        MOV       A,#0x2
        LCALL     ?XSTACK_DISP0_8
        CLR       A
        MOVX      @DPTR,A
        MOV       A,#0x3
        LCALL     ?XSTACK_DISP0_8
        CLR       A
        MOVX      @DPTR,A
        INC       DPTR
        MOVX      @DPTR,A
        MOV       A,#0xa
        LCALL     ?XSTACK_DISP0_8
        MOV       A,#0x40
        MOVX      @DPTR,A
        INC       DPTR
        CLR       A
        MOVX      @DPTR,A
        MOV       A,#0x12
        LCALL     ?XSTACK_DISP0_8
        CLR       A
        MOVX      @DPTR,A
        INC       DPTR
        MOVX      @DPTR,A
        MOV       A,#0x5
        LCALL     ?XSTACK_DISP0_8
        MOV       A,#0x6
        MOVX      @DPTR,A
        MOV       A,#0x16
        LCALL     ?XSTACK_DISP0_8
        MOV       A,#0x1
        MOVX      @DPTR,A
        MOV       A,#0x1b
        LCALL     ?XSTACK_DISP0_8
        MOV       A,#`??zclZEM_UartCB::?relay` & 0xff
        MOVX      @DPTR,A
        INC       DPTR
        MOV       A,#(`??zclZEM_UartCB::?relay` >> 8) & 0xff
        MOVX      @DPTR,A
        ; Setup parameters for call to function HalUARTOpen
        MOV       R2,?XSP + 0
        MOV       R3,?XSP + 1
        MOV       R1,#0x0
        LCALL     `??HalUARTOpen::?relay`; Banked call to: HalUARTOpen
//  204 
//  205 #ifdef ZDO_COORDINATOR
//  206   bdb_StartCommissioning( BDB_COMMISSIONING_MODE_NWK_FORMATION |
//  207                           BDB_COMMISSIONING_MODE_FINDING_BINDING );
        ; Setup parameters for call to function bdb_StartCommissioning
        MOV       R1,#0xc
        LCALL     `??bdb_StartCommissioning::?relay`; Banked call to: bdb_StartCommissioning
//  208   NLME_PermitJoiningRequest(255);
        ; Setup parameters for call to function NLME_PermitJoiningRequest
        MOV       R1,#-0x1
        LCALL     `??NLME_PermitJoiningRequest::?relay`; Banked call to: NLME_PermitJoiningRequest
//  209 
//  210 #else
//  211   bdb_StartCommissioning( BDB_COMMISSIONING_MODE_NWK_STEERING |
//  212                           BDB_COMMISSIONING_MODE_FINDING_BINDING );
//  213 #endif
//  214   
//  215   // Read and send MAC address
//  216   zclZEM_ReadAndSendMAC();
        ; Setup parameters for call to function zclZEM_ReadAndSendMAC
        LCALL     `??zclZEM_ReadAndSendMAC::?relay`; Banked call to: zclZEM_ReadAndSendMAC
//  217 
//  218 #ifdef BDB_REPORTING
//  219   //Adds the default configuration values for the temperature attribute of the ZCL_CLUSTER_ID_MS_TEMPERATURE_MEASUREMENT cluster, for endpoint ZEM_ENDPOINT
//  220   //Default maxReportingInterval value is 10 seconds
//  221   //Default minReportingInterval value is 3 seconds
//  222   //Default reportChange value is 300 (3 degrees)
//  223   bdb_RepAddAttrCfgRecordDefaultToList(ZEM_ENDPOINT, ZCL_CLUSTER_ID_MS_TEMPERATURE_MEASUREMENT, ATTRID_MS_TEMPERATURE_MEASURED_VALUE, 0, 10, reportableChange);
        ; Setup parameters for call to function bdb_RepAddAttrCfgRecordDefaultToList
        MOV       ?V0,#reportableChange & 0xff
        MOV       ?V1,#(reportableChange >> 8) & 0xff
        MOV       R0,#?V0
        LCALL     ?PUSH_XSTACK_I_TWO
          CFI CFA_XSP16 add(XSP16, 41)
        MOV       ?V0,#0xa
        MOV       ?V1,#0x0
        MOV       R0,#?V0
        LCALL     ?PUSH_XSTACK_I_TWO
          CFI CFA_XSP16 add(XSP16, 43)
        CLR       A
        MOV       ?V0,A
        MOV       R0,#?V0
        LCALL     ?PUSH_XSTACK_I_TWO
          CFI CFA_XSP16 add(XSP16, 45)
        MOV       R4,#0x0
        MOV       R5,#0x0
        MOV       R2,#0x2
        MOV       R3,#0x4
        MOV       R1,#0x8
        LCALL     `??bdb_RepAddAttrCfgRecordDefaultToList::?relay`; Banked call to: bdb_RepAddAttrCfgRecordDefaultToList
        MOV       A,#0x6
        LCALL     ?DEALLOC_XSTACK8
          CFI CFA_XSP16 add(XSP16, 39)
//  224 #endif
//  225   
//  226   zdpExternalStateTaskID = zclZEM_TaskID;
        MOV       DPTR,#zclZEM_TaskID
        MOVX      A,@DPTR
        MOV       DPTR,#zdpExternalStateTaskID
        MOVX      @DPTR,A
        INC       DPTR
        CLR       A
        MOVX      @DPTR,A
//  227    osal_start_timerEx(
//  228       zclZEM_TaskID,
//  229       ZEMAPP_EVT,
//  230       2000);
        ; Setup parameters for call to function osal_start_timerEx
        MOV       DPTR,#__Constant_7d0
        LCALL     ?PUSH_XSTACK8_X_FOUR
          CFI CFA_XSP16 add(XSP16, 43)
        MOV       R2,#-0x80
        MOV       R3,#0x0
        MOV       DPTR,#zclZEM_TaskID
        MOVX      A,@DPTR
        MOV       R1,A
        LCALL     `??osal_start_timerEx::?relay`; Banked call to: osal_start_timerEx
        MOV       A,#0x4
        LCALL     ?DEALLOC_XSTACK8
          CFI CFA_XSP16 add(XSP16, 39)
//  231 }
        MOV       A,#0x1d
          CFI EndBlock cfiBlock0
        REQUIRE ?Subroutine0
        REQUIRE PERCFG
        REQUIRE P1SEL
        REQUIRE P1DIR
        ; // Fall through to label ?Subroutine0

        RSEG BANKED_CODE:HUGECODE:NOROOT(0)
?Subroutine0:
          CFI Block cfiBlock1 Using cfiCommon0
          CFI NoFunction
          CFI CFA_SP SP+0
          CFI CFA_XSP16 add(XSP16, 39)
          CFI VB load(1, XDATA, add(CFA_XSP16, literal(-9)))
          CFI DPL0 load(1, XDATA, add(CFA_XSP16, literal(-2)))
          CFI DPH0 load(1, XDATA, add(CFA_XSP16, literal(-1)))
          CFI R6 load(1, XDATA, add(CFA_XSP16, literal(-10)))
          CFI R7 load(1, XDATA, add(CFA_XSP16, literal(-6)))
          CFI V0 load(1, XDATA, add(CFA_XSP16, literal(-8)))
          CFI V1 load(1, XDATA, add(CFA_XSP16, literal(-7)))
          CFI ?BRET_EXT load(1, XDATA, add(CFA_XSP16, literal(-3)))
          CFI ?RET_HIGH load(1, XDATA, add(CFA_XSP16, literal(-4)))
          CFI ?RET_LOW load(1, XDATA, add(CFA_XSP16, literal(-5)))
          CFI Invalid
        LCALL     ?DEALLOC_XSTACK8
          CFI CFA_XSP16 add(XSP16, 10)
          CFI Valid
        MOV       R7,#0x2
        LJMP      ?BANKED_LEAVE_XDATA
          CFI EndBlock cfiBlock1
//  232 
//  233 /*********************************************************************
//  234  * @fn          zclSample_event_loop
//  235  *
//  236  * @brief       Event Loop Processor for zclGeneral.
//  237  *
//  238  * @param       none
//  239  *
//  240  * @return      none
//  241  */

        RSEG BANKED_CODE:HUGECODE:NOROOT(0)
//  242 uint16 zclZEM_event_loop( uint8 task_id, uint16 events )
zclZEM_event_loop:
          CFI Block cfiBlock2 Using cfiCommon0
          CFI Function zclZEM_event_loop
        CODE
//  243 {
        FUNCALL zclZEM_event_loop, NLME_GetExtAddr
        LOCFRAME ISTACK, 0, STACK
        LOCFRAME PSTACK, 0, STACK
        LOCFRAME XSTACK, 269, STACK
        LOCFRAME IOVERLAY, 0, STATIC
        LOCFRAME DOVERLAY, 0, STATIC
        ARGFRAME ISTACK, 0, STACK
        ARGFRAME PSTACK, 0, STACK
        ARGFRAME XSTACK, 269, STACK
        ARGFRAME IOVERLAY, 0, STATIC
        ARGFRAME DOVERLAY, 0, STATIC
        FUNCALL zclZEM_event_loop, zclZEM_AF_RxProc
        LOCFRAME ISTACK, 0, STACK
        LOCFRAME PSTACK, 0, STACK
        LOCFRAME XSTACK, 269, STACK
        LOCFRAME IOVERLAY, 0, STATIC
        LOCFRAME DOVERLAY, 0, STATIC
        ARGFRAME ISTACK, 0, STACK
        ARGFRAME PSTACK, 0, STACK
        ARGFRAME XSTACK, 269, STACK
        ARGFRAME IOVERLAY, 0, STATIC
        ARGFRAME DOVERLAY, 0, STATIC
        FUNCALL zclZEM_event_loop, osal_msg_deallocate
        LOCFRAME ISTACK, 0, STACK
        LOCFRAME PSTACK, 0, STACK
        LOCFRAME XSTACK, 269, STACK
        LOCFRAME IOVERLAY, 0, STATIC
        LOCFRAME DOVERLAY, 0, STATIC
        ARGFRAME ISTACK, 0, STACK
        ARGFRAME PSTACK, 0, STACK
        ARGFRAME XSTACK, 269, STACK
        ARGFRAME IOVERLAY, 0, STATIC
        ARGFRAME DOVERLAY, 0, STATIC
        FUNCALL zclZEM_event_loop, osal_msg_receive
        LOCFRAME ISTACK, 0, STACK
        LOCFRAME PSTACK, 0, STACK
        LOCFRAME XSTACK, 269, STACK
        LOCFRAME IOVERLAY, 0, STATIC
        LOCFRAME DOVERLAY, 0, STATIC
        ARGFRAME ISTACK, 0, STACK
        ARGFRAME PSTACK, 0, STACK
        ARGFRAME XSTACK, 269, STACK
        ARGFRAME IOVERLAY, 0, STATIC
        ARGFRAME DOVERLAY, 0, STATIC
        FUNCALL zclZEM_event_loop, zclZEM_ProcessIncomingMsg
        LOCFRAME ISTACK, 0, STACK
        LOCFRAME PSTACK, 0, STACK
        LOCFRAME XSTACK, 269, STACK
        LOCFRAME IOVERLAY, 0, STATIC
        LOCFRAME DOVERLAY, 0, STATIC
        ARGFRAME ISTACK, 0, STACK
        ARGFRAME PSTACK, 0, STACK
        ARGFRAME XSTACK, 269, STACK
        ARGFRAME IOVERLAY, 0, STATIC
        ARGFRAME DOVERLAY, 0, STATIC
        FUNCALL zclZEM_event_loop, HalUARTWrite
        LOCFRAME ISTACK, 0, STACK
        LOCFRAME PSTACK, 0, STACK
        LOCFRAME XSTACK, 269, STACK
        LOCFRAME IOVERLAY, 0, STATIC
        LOCFRAME DOVERLAY, 0, STATIC
        ARGFRAME ISTACK, 0, STACK
        ARGFRAME PSTACK, 0, STACK
        ARGFRAME XSTACK, 269, STACK
        ARGFRAME IOVERLAY, 0, STATIC
        ARGFRAME DOVERLAY, 0, STATIC
        FUNCALL zclZEM_event_loop, osal_start_timerEx
        LOCFRAME ISTACK, 0, STACK
        LOCFRAME PSTACK, 0, STACK
        LOCFRAME XSTACK, 273, STACK
        LOCFRAME IOVERLAY, 0, STATIC
        LOCFRAME DOVERLAY, 0, STATIC
        ARGFRAME ISTACK, 0, STACK
        ARGFRAME PSTACK, 0, STACK
        ARGFRAME XSTACK, 273, STACK
        ARGFRAME IOVERLAY, 0, STATIC
        ARGFRAME DOVERLAY, 0, STATIC
        FUNCALL zclZEM_event_loop, AF_DataRequest
        LOCFRAME ISTACK, 0, STACK
        LOCFRAME PSTACK, 0, STACK
        LOCFRAME XSTACK, 278, STACK
        LOCFRAME IOVERLAY, 0, STATIC
        LOCFRAME DOVERLAY, 0, STATIC
        ARGFRAME ISTACK, 0, STACK
        ARGFRAME PSTACK, 0, STACK
        ARGFRAME XSTACK, 278, STACK
        ARGFRAME IOVERLAY, 0, STATIC
        ARGFRAME DOVERLAY, 0, STATIC
        FUNCALL zclZEM_event_loop, osal_start_timerEx
        LOCFRAME ISTACK, 0, STACK
        LOCFRAME PSTACK, 0, STACK
        LOCFRAME XSTACK, 273, STACK
        LOCFRAME IOVERLAY, 0, STATIC
        LOCFRAME DOVERLAY, 0, STATIC
        ARGFRAME ISTACK, 0, STACK
        ARGFRAME PSTACK, 0, STACK
        ARGFRAME XSTACK, 273, STACK
        ARGFRAME IOVERLAY, 0, STATIC
        ARGFRAME DOVERLAY, 0, STATIC
        FUNCALL zclZEM_event_loop, AF_DataRequest
        LOCFRAME ISTACK, 0, STACK
        LOCFRAME PSTACK, 0, STACK
        LOCFRAME XSTACK, 278, STACK
        LOCFRAME IOVERLAY, 0, STATIC
        LOCFRAME DOVERLAY, 0, STATIC
        ARGFRAME ISTACK, 0, STACK
        ARGFRAME PSTACK, 0, STACK
        ARGFRAME XSTACK, 278, STACK
        ARGFRAME IOVERLAY, 0, STATIC
        ARGFRAME DOVERLAY, 0, STATIC
        FUNCALL zclZEM_event_loop, osal_start_timerEx
        LOCFRAME ISTACK, 0, STACK
        LOCFRAME PSTACK, 0, STACK
        LOCFRAME XSTACK, 273, STACK
        LOCFRAME IOVERLAY, 0, STATIC
        LOCFRAME DOVERLAY, 0, STATIC
        ARGFRAME ISTACK, 0, STACK
        ARGFRAME PSTACK, 0, STACK
        ARGFRAME XSTACK, 273, STACK
        ARGFRAME IOVERLAY, 0, STATIC
        ARGFRAME DOVERLAY, 0, STATIC
        FUNCALL zclZEM_event_loop, HalUARTWrite
        LOCFRAME ISTACK, 0, STACK
        LOCFRAME PSTACK, 0, STACK
        LOCFRAME XSTACK, 269, STACK
        LOCFRAME IOVERLAY, 0, STATIC
        LOCFRAME DOVERLAY, 0, STATIC
        ARGFRAME ISTACK, 0, STACK
        ARGFRAME PSTACK, 0, STACK
        ARGFRAME XSTACK, 269, STACK
        ARGFRAME IOVERLAY, 0, STATIC
        ARGFRAME DOVERLAY, 0, STATIC
        FUNCALL zclZEM_event_loop, HalUARTWrite
        LOCFRAME ISTACK, 0, STACK
        LOCFRAME PSTACK, 0, STACK
        LOCFRAME XSTACK, 269, STACK
        LOCFRAME IOVERLAY, 0, STATIC
        LOCFRAME DOVERLAY, 0, STATIC
        ARGFRAME ISTACK, 0, STACK
        ARGFRAME PSTACK, 0, STACK
        ARGFRAME XSTACK, 269, STACK
        ARGFRAME IOVERLAY, 0, STATIC
        ARGFRAME DOVERLAY, 0, STATIC
        FUNCALL zclZEM_event_loop, NLME_GetExtAddr
        LOCFRAME ISTACK, 0, STACK
        LOCFRAME PSTACK, 0, STACK
        LOCFRAME XSTACK, 269, STACK
        LOCFRAME IOVERLAY, 0, STATIC
        LOCFRAME DOVERLAY, 0, STATIC
        ARGFRAME ISTACK, 0, STACK
        ARGFRAME PSTACK, 0, STACK
        ARGFRAME XSTACK, 269, STACK
        ARGFRAME IOVERLAY, 0, STATIC
        ARGFRAME DOVERLAY, 0, STATIC
        FUNCALL zclZEM_event_loop, osal_memcpy
        LOCFRAME ISTACK, 0, STACK
        LOCFRAME PSTACK, 0, STACK
        LOCFRAME XSTACK, 272, STACK
        LOCFRAME IOVERLAY, 0, STATIC
        LOCFRAME DOVERLAY, 0, STATIC
        ARGFRAME ISTACK, 0, STACK
        ARGFRAME PSTACK, 0, STACK
        ARGFRAME XSTACK, 272, STACK
        ARGFRAME IOVERLAY, 0, STATIC
        ARGFRAME DOVERLAY, 0, STATIC
        FUNCALL zclZEM_event_loop, AF_DataRequest
        LOCFRAME ISTACK, 0, STACK
        LOCFRAME PSTACK, 0, STACK
        LOCFRAME XSTACK, 278, STACK
        LOCFRAME IOVERLAY, 0, STATIC
        LOCFRAME DOVERLAY, 0, STATIC
        ARGFRAME ISTACK, 0, STACK
        ARGFRAME PSTACK, 0, STACK
        ARGFRAME XSTACK, 278, STACK
        ARGFRAME IOVERLAY, 0, STATIC
        ARGFRAME DOVERLAY, 0, STATIC
        FUNCALL zclZEM_event_loop, HalUARTWrite
        LOCFRAME ISTACK, 0, STACK
        LOCFRAME PSTACK, 0, STACK
        LOCFRAME XSTACK, 269, STACK
        LOCFRAME IOVERLAY, 0, STATIC
        LOCFRAME DOVERLAY, 0, STATIC
        ARGFRAME ISTACK, 0, STACK
        ARGFRAME PSTACK, 0, STACK
        ARGFRAME XSTACK, 269, STACK
        ARGFRAME IOVERLAY, 0, STATIC
        ARGFRAME DOVERLAY, 0, STATIC
        FUNCALL zclZEM_event_loop, osal_start_timerEx
        LOCFRAME ISTACK, 0, STACK
        LOCFRAME PSTACK, 0, STACK
        LOCFRAME XSTACK, 273, STACK
        LOCFRAME IOVERLAY, 0, STATIC
        LOCFRAME DOVERLAY, 0, STATIC
        ARGFRAME ISTACK, 0, STACK
        ARGFRAME PSTACK, 0, STACK
        ARGFRAME XSTACK, 273, STACK
        ARGFRAME IOVERLAY, 0, STATIC
        ARGFRAME DOVERLAY, 0, STATIC
        FUNCALL zclZEM_event_loop, bdb_StartCommissioning
        LOCFRAME ISTACK, 0, STACK
        LOCFRAME PSTACK, 0, STACK
        LOCFRAME XSTACK, 269, STACK
        LOCFRAME IOVERLAY, 0, STATIC
        LOCFRAME DOVERLAY, 0, STATIC
        ARGFRAME ISTACK, 0, STACK
        ARGFRAME PSTACK, 0, STACK
        ARGFRAME XSTACK, 269, STACK
        ARGFRAME IOVERLAY, 0, STATIC
        ARGFRAME DOVERLAY, 0, STATIC
        REQUIRE ?V0
        REQUIRE ?V1
        REQUIRE ?V2
        REQUIRE ?V3
        REQUIRE ?V4
        REQUIRE ?V5
        REQUIRE ?V6
        MOV       A,#-0xf
        LCALL     ?BANKED_ENTER_XDATA
          CFI DPH0 load(1, XDATA, add(CFA_XSP16, literal(-1)))
          CFI DPL0 load(1, XDATA, add(CFA_XSP16, literal(-2)))
          CFI ?BRET_EXT load(1, XDATA, add(CFA_XSP16, literal(-3)))
          CFI ?RET_HIGH load(1, XDATA, add(CFA_XSP16, literal(-4)))
          CFI ?RET_LOW load(1, XDATA, add(CFA_XSP16, literal(-5)))
          CFI R7 load(1, XDATA, add(CFA_XSP16, literal(-6)))
          CFI V6 load(1, XDATA, add(CFA_XSP16, literal(-7)))
          CFI V5 load(1, XDATA, add(CFA_XSP16, literal(-8)))
          CFI V4 load(1, XDATA, add(CFA_XSP16, literal(-9)))
          CFI V3 load(1, XDATA, add(CFA_XSP16, literal(-10)))
          CFI V2 load(1, XDATA, add(CFA_XSP16, literal(-11)))
          CFI V1 load(1, XDATA, add(CFA_XSP16, literal(-12)))
          CFI V0 load(1, XDATA, add(CFA_XSP16, literal(-13)))
          CFI VB load(1, XDATA, add(CFA_XSP16, literal(-14)))
          CFI R6 load(1, XDATA, add(CFA_XSP16, literal(-15)))
          CFI CFA_SP SP+0
          CFI CFA_XSP16 add(XSP16, 15)
        ; Saved register size: 15
        ; Auto size: 254
        MOV       A,#0x2
        LCALL     ?ALLOC_XSTACK8
          CFI CFA_XSP16 add(XSP16, 269)
        MOV       A,R2
        MOV       R6,A
        MOV       A,R3
        MOV       R7,A
//  244   afIncomingMSGPacket_t *MSGpkt;
//  245 
//  246   (void)task_id;  // Intentionally unreferenced parameter
//  247 
//  248   if ( events & SYS_EVENT_MSG )
        ANL       A,#0x80
        JNZ       ??zclZEM_event_loop_0
//  249   {
//  250     while ( (MSGpkt = (afIncomingMSGPacket_t *)osal_msg_receive( zclZEM_TaskID )) )
//  251     {
//  252       
//  253       switch ( MSGpkt->hdr.event )
//  254       {
//  255         case ZCL_INCOMING_MSG:
//  256           // Incoming ZCL Foundation command/response messages
//  257           zclZEM_ProcessIncomingMsg( (zclIncomingMsg_t *)MSGpkt );
//  258           break;
//  259 
//  260         case AF_INCOMING_MSG_CMD:
//  261           // Incoming AF data messages
//  262           zclZEM_AF_RxProc( MSGpkt );
//  263           break;
//  264 
//  265         case KEY_CHANGE:
//  266           zclZEM_HandleKeys( ((keyChange_t *)MSGpkt)->state, ((keyChange_t *)MSGpkt)->keys );
//  267           break;
//  268 
//  269         case ZDO_STATE_CHANGE:
//  270           break;
//  271 
//  272         default:
//  273           break;
//  274       }
//  275 
//  276       // Release the memory
//  277       osal_msg_deallocate( (uint8 *)MSGpkt );
//  278     }
//  279 
//  280     // return unprocessed events
//  281     return (events ^ SYS_EVENT_MSG);
//  282   }
//  283 
//  284   // 先处理LED闪烁事件，确保不会被SYS_EVENT_MSG阻塞
//  285   if(events & ZEMAPP_EVT)
        MOV       A,R6
        ANL       A,#0x80
        JNZ       $+5
        LJMP      ??zclZEM_event_loop_1 & 0xFFFF
//  286   { 
//  287     static uint8 sendType = 0; // 0: 发送格式1, 1: 发送格式2, 2: 发送格式3
//  288     uint8* macAddr = NLME_GetExtAddr();
        ; Setup parameters for call to function NLME_GetExtAddr
        LCALL     `??NLME_GetExtAddr::?relay`; Banked call to: NLME_GetExtAddr
        MOV       ?V2,R2
        MOV       ?V3,R3
//  289     uint8 macStr[100]; // 足够存储MAC地址字符串
//  290     uint8 i, pos = 0;
//  291     
//  292     // 添加起始分隔符
//  293     macStr[pos++] = '/';
        MOV       A,#-0x66
        LCALL     ?XSTACK_DISP0_8
        MOV       A,#0x2f
        MOVX      @DPTR,A
        MOV       R0,#0x1
//  294     
//  295     // 添加设备自身MAC地址（16个十六进制字符）- 小端序
//  296     for (int i = 7; i >= 0; i--) {
        MOV       R4,#0x7
        MOV       R5,#0x0
//  297       // 转换高4位
//  298       uint8 highNibble = (macAddr[i] >> 4) & 0x0F;
??zclZEM_event_loop_2:
        MOV       A,?V2
        ADD       A,R4
        MOV       R2,A
        MOV       A,?V3
        ADDC      A,R5
        MOV       R3,A
        MOV       DPL,R2
        MOV       DPH,R3
        MOVX      A,@DPTR
        SWAP      A
        ANL       A,#0xf
        MOV       R1,A
//  299       macStr[pos++] = (highNibble < 10) ? ('0' + highNibble) : ('A' + highNibble - 10);
        LCALL     ?Subroutine16 & 0xFFFF
??CrossCallReturnLabel_45:
        JNC       ??zclZEM_event_loop_3
        MOV       A,#0x30
        SJMP      ??zclZEM_event_loop_4
??zclZEM_event_loop_5:
        ; Setup parameters for call to function zclZEM_AF_RxProc
        LCALL     `??zclZEM_AF_RxProc::?relay`; Banked call to: zclZEM_AF_RxProc
??zclZEM_event_loop_6:
        ; Setup parameters for call to function osal_msg_deallocate
        MOV       R2,?V2
        MOV       R3,?V3
        LCALL     `??osal_msg_deallocate::?relay`; Banked call to: osal_msg_deallocate
??zclZEM_event_loop_0:
        ; Setup parameters for call to function osal_msg_receive
        MOV       DPTR,#zclZEM_TaskID
        MOVX      A,@DPTR
        MOV       R1,A
        LCALL     `??osal_msg_receive::?relay`; Banked call to: osal_msg_receive
        MOV       ?V2,R2
        MOV       ?V3,R3
        MOV       A,R2
        ORL       A,?V3
        JZ        ??zclZEM_event_loop_7
        MOV       DPL,R2
        MOV       DPH,R3
        MOVX      A,@DPTR
        ADD       A,#-0x1a
        JZ        ??zclZEM_event_loop_5
        ADD       A,#-0x1a
        JNZ       ??zclZEM_event_loop_6
        ; Setup parameters for call to function zclZEM_ProcessIncomingMsg
        LCALL     `??zclZEM_ProcessIncomingMsg::?relay`; Banked call to: zclZEM_ProcessIncomingMsg
        SJMP      ??zclZEM_event_loop_6
??zclZEM_event_loop_7:
        MOV       A,R6
        MOV       R2,A
        MOV       A,R7
        XRL       A,#0x80
        LJMP      ??zclZEM_event_loop_8 & 0xFFFF
??zclZEM_event_loop_3:
        MOV       A,#0x37
??zclZEM_event_loop_4:
        ADD       A,R1
        PUSH      A
          CFI CFA_SP SP+-1
        MOV       A,?V1
        MOV       ?V4,A
        MOV       A,#-0x66
        LCALL     ?XSTACK_DISP0_8
        MOV       A,DPL
        ADD       A,?V4
        LCALL     ??Subroutine24_0 & 0xFFFF
??CrossCallReturnLabel_35:
        POP       A
          CFI CFA_SP SP+0
        LCALL     ?Subroutine6 & 0xFFFF
//  300       
//  301       // 转换低4位
//  302       uint8 lowNibble = macAddr[i] & 0x0F;
//  303       macStr[pos++] = (lowNibble < 10) ? ('0' + lowNibble) : ('A' + lowNibble - 10);
??CrossCallReturnLabel_5:
        MOV       ?V0,R0
        LCALL     ??Subroutine25_0 & 0xFFFF
//  304     }
??CrossCallReturnLabel_43:
        JNC       ??zclZEM_event_loop_9
        MOV       A,#0x30
        SJMP      ??zclZEM_event_loop_10
??zclZEM_event_loop_9:
        MOV       A,#0x37
??zclZEM_event_loop_10:
        ADD       A,R1
        MOV       R1,A
        MOV       R2,?V0
        MOV       A,#-0x66
        LCALL     ?XSTACK_DISP0_8
        LCALL     ?Subroutine18 & 0xFFFF
??CrossCallReturnLabel_26:
        ADD       A,#-0x1
        DEC       R4
        MOV       A,R5
        ADDC      A,#-0x1
        MOV       R5,A
        CLR       C
        SUBB      A,#0x0
        MOV       C,0xD0 /* PSW */.2
        XRL       A,PSW
        RLC       A
        JC        $+5
        LJMP      ??zclZEM_event_loop_2 & 0xFFFF
//  305     
//  306     // 根据发送类型添加不同的固定MAC地址和格式
//  307     if (sendType == 0) {
        MOV       DPTR,#??sendType
        MOVX      A,@DPTR
        JNZ       ??zclZEM_event_loop_11
//  308       // 格式1：/设备MAC地址/0123456789abcdef/1/2/2
//  309       const uint8 fixedMac1[] = "/0123456789abcdef/1/2/2";
        MOV       DPTR,#`?<Constant "/0123456789abcdef/1/2/2">`
        MOV       A,#0x1e
        LCALL     ?XSTACK_DISP102_8
        MOV       A,#0x18
        LCALL     ?MOVE_LONG8_XDATA_XDATA
//  310       for (i = 0; i < 23; i++) {
        MOV       R1,#0x0
//  311         macStr[pos++] = fixedMac1[i];
??zclZEM_event_loop_12:
        MOV       A,R1
        MOV       R2,A
        MOV       A,#0x1e
        LCALL     ?XSTACK_DISP0_8
        LCALL     ?Subroutine15 & 0xFFFF
//  312       }
??CrossCallReturnLabel_21:
        PUSH      A
          CFI CFA_SP SP+-1
        MOV       A,R0
        MOV       R2,A
        MOV       A,#-0x66
        LCALL     ?XSTACK_DISP0_8
        LCALL     ?Subroutine19 & 0xFFFF
??CrossCallReturnLabel_28:
        POP       A
          CFI CFA_SP SP+0
        MOVX      @DPTR,A
        INC       R0
        INC       R1
        MOV       A,R1
        CLR       C
        SUBB      A,#0x17
        JC        ??zclZEM_event_loop_12
//  313       sendType = 1; // 下次发送格式2
        MOV       DPTR,#??sendType
        MOV       A,#0x1
        SJMP      ??zclZEM_event_loop_13
//  314     } else if (sendType == 1) {
??zclZEM_event_loop_11:
        XRL       A,#0x1
        JNZ       ??zclZEM_event_loop_14
//  315       // 格式2：/设备MAC地址/123456789abcdef0/2/3/6
//  316       const uint8 fixedMac2[] = "/123456789abcdef0/2/3/6";
        MOV       DPTR,#`?<Constant "/123456789abcdef0/2/3/6">`
        MOV       A,#0x1e
        LCALL     ?XSTACK_DISP102_8
        MOV       A,#0x18
        LCALL     ?MOVE_LONG8_XDATA_XDATA
//  317       for (i = 0; i < 23; i++) {
        MOV       R1,#0x0
//  318         macStr[pos++] = fixedMac2[i];
??zclZEM_event_loop_15:
        MOV       A,R1
        MOV       R2,A
        MOV       A,#0x1e
        LCALL     ?XSTACK_DISP0_8
        LCALL     ?Subroutine15 & 0xFFFF
//  319       }
??CrossCallReturnLabel_22:
        PUSH      A
          CFI CFA_SP SP+-1
        MOV       A,R0
        MOV       R2,A
        MOV       A,#-0x66
        LCALL     ?XSTACK_DISP0_8
        LCALL     ?Subroutine19 & 0xFFFF
??CrossCallReturnLabel_29:
        POP       A
          CFI CFA_SP SP+0
        MOVX      @DPTR,A
        INC       R0
        INC       R1
        MOV       A,R1
        CLR       C
        SUBB      A,#0x17
        JC        ??zclZEM_event_loop_15
//  320       sendType = 2; // 下次发送格式3
        MOV       DPTR,#??sendType
        MOV       A,#0x2
        SJMP      ??zclZEM_event_loop_13
//  321     } else {
//  322       // 格式3：/设备MAC地址/23456789abcdef01/0/220/0
//  323       const uint8 fixedMac3[] = "/23456789abcdef01/0/220/0";
??zclZEM_event_loop_14:
        MOV       DPTR,#`?<Constant "/23456789abcdef01/0/2...">`
        MOV       A,#-0x80
        LCALL     ?XSTACK_DISP102_8
        MOV       A,#0x1a
        LCALL     ?MOVE_LONG8_XDATA_XDATA
//  324       for (i = 0; i < 25; i++) {
        MOV       R1,#0x0
//  325         macStr[pos++] = fixedMac3[i];
??zclZEM_event_loop_16:
        MOV       A,R1
        MOV       R2,A
        MOV       A,#-0x80
        LCALL     ?XSTACK_DISP0_8
        LCALL     ?Subroutine15 & 0xFFFF
//  326       }
??CrossCallReturnLabel_23:
        PUSH      A
          CFI CFA_SP SP+-1
        MOV       A,R0
        MOV       R2,A
        MOV       A,#-0x66
        LCALL     ?XSTACK_DISP0_8
        LCALL     ?Subroutine19 & 0xFFFF
??CrossCallReturnLabel_30:
        POP       A
          CFI CFA_SP SP+0
        MOVX      @DPTR,A
        INC       R0
        INC       R1
        MOV       A,R1
        CLR       C
        SUBB      A,#0x19
        JC        ??zclZEM_event_loop_16
//  327       sendType = 0; // 下次发送格式1
        MOV       DPTR,#??sendType
        CLR       A
??zclZEM_event_loop_13:
        MOVX      @DPTR,A
//  328     }
//  329     
//  330     // 添加换行符
//  331     macStr[pos++] = '\r';
        MOV       A,R0
        MOV       R2,A
        MOV       A,#-0x66
        LCALL     ?XSTACK_DISP0_8
        LCALL     ?Subroutine17 & 0xFFFF
//  332     macStr[pos++] = '\n';
??CrossCallReturnLabel_24:
        MOV       A,#-0x66
        LCALL     ?XSTACK_DISP0_8
        LCALL     ?Subroutine14 & 0xFFFF
//  333     
//  334     // 发送到串口
//  335     HalUARTWrite(HAL_UART_PORT_0, macStr, pos);
??CrossCallReturnLabel_19:
        MOV       A,#-0x66
        LCALL     ?XSTACK_DISP101_8
        MOV       R1,#0x0
        LCALL     `??HalUARTWrite::?relay`; Banked call to: HalUARTWrite
//  336     
//  337     // 设置下一次定时器（3秒间隔）
//  338     osal_start_timerEx(zclZEM_TaskID, ZEMAPP_EVT, 2000);
        ; Setup parameters for call to function osal_start_timerEx
        MOV       DPTR,#__Constant_7d0
        LCALL     ?PUSH_XSTACK8_X_FOUR
          CFI CFA_XSP16 add(XSP16, 273)
        MOV       R2,#-0x80
        MOV       R3,#0x0
        MOV       DPTR,#zclZEM_TaskID
        MOVX      A,@DPTR
        MOV       R1,A
        LCALL     `??osal_start_timerEx::?relay`; Banked call to: osal_start_timerEx
        MOV       A,#0x4
        LCALL     ?DEALLOC_XSTACK8
          CFI CFA_XSP16 add(XSP16, 269)
//  339     
//  340     return (events ^ ZEMAPP_EVT);
        MOV       A,R6
        XRL       A,#0x80
        MOV       R2,A
        MOV       A,R7
        LJMP      ??zclZEM_event_loop_8 & 0xFFFF
//  341   }
//  342   
//  343 #if ZG_BUILD_ENDDEVICE_TYPE    
//  344   if ( events & ZEM_END_DEVICE_REJOIN_EVT )
//  345   {
//  346     bdb_ZedAttemptRecoverNwk();
//  347     return ( events ^ ZEM_END_DEVICE_REJOIN_EVT );
//  348   }
//  349 #endif
//  350 
//  351   if ( events & ZEM_LCD_AUTO_UPDATE_EVT )
??zclZEM_event_loop_1:
        MOV       A,R6
        ANL       A,#0x10
        JZ        ??zclZEM_event_loop_17
//  352   {
//  353     return ( events ^ ZEM_LCD_AUTO_UPDATE_EVT );
        MOV       A,R6
        XRL       A,#0x10
        SJMP      ??zclZEM_event_loop_18
//  354   }
//  355 
//  356   if ( events & ZEM_KEY_AUTO_REPEAT_EVT )
??zclZEM_event_loop_17:
        MOV       A,R6
        ANL       A,#0x20
        JZ        ??zclZEM_event_loop_19
//  357   {
//  358     return ( events ^ ZEM_KEY_AUTO_REPEAT_EVT );
        MOV       A,R6
        XRL       A,#0x20
??zclZEM_event_loop_18:
        MOV       R2,A
        LJMP      ??zclZEM_event_loop_20 & 0xFFFF
//  359   }
//  360   
//  361   // Broadcast event
//  362   if ( events & ZEM_BROADCAST_EVT )
??zclZEM_event_loop_19:
        MOV       A,R7
        ANL       A,#0x10
        JNZ       $+5
        LJMP      ??zclZEM_event_loop_21 & 0xFFFF
//  363   {
//  364     uint8 broadcastData[] = "Broadcast";
        MOV       DPTR,#`?<Constant "Broadcast">`
        MOV       A,#0xc
        LCALL     ?XSTACK_DISP102_8
        MOV       A,#0xa
        LCALL     ?MOVE_LONG8_XDATA_XDATA
//  365     zclZEM_AF_Broadcast(CLUSTER_BROADCAST, 
//  366                         sizeof(broadcastData)-1, 
//  367                         broadcastData);
        MOV       A,#0x8
        LCALL     ?XSTACK_DISP0_8
        MOV       A,#0xf
        LCALL     ?Subroutine5 & 0xFFFF
??CrossCallReturnLabel_2:
        MOV       A,#-0x1
        MOVX      @DPTR,A
        INC       DPTR
        MOVX      @DPTR,A
        MOV       A,#0x9
        LCALL     ?XSTACK_DISP0_8
        MOV       A,#0x8
        MOVX      @DPTR,A
        MOV       DPTR,#??transferId_1
        LCALL     ?Subroutine7 & 0xFFFF
??CrossCallReturnLabel_7:
        LCALL     ?PUSH_XSTACK_I_ONE
          CFI CFA_XSP16 add(XSP16, 270)
        MOV       ?V2,#??transferId_1 & 0xff
        MOV       ?V3,#(??transferId_1 >> 8) & 0xff
        MOV       R0,#?V2
        LCALL     ?PUSH_XSTACK_I_TWO
          CFI CFA_XSP16 add(XSP16, 272)
        MOV       A,#0xf
        LCALL     ?XSTACK_DISP100_8
        MOV       ?V2,R0
        MOV       ?V3,R1
        MOV       R0,#?V2
        LCALL     ?PUSH_XSTACK_I_TWO
          CFI CFA_XSP16 add(XSP16, 274)
        MOV       ?V2,#0x9
        MOV       ?V3,#0x0
        MOV       R0,#?V2
        LCALL     ?PUSH_XSTACK_I_TWO
          CFI CFA_XSP16 add(XSP16, 276)
        MOV       ?V2,#0x1
        MOV       R0,#?V2
        LCALL     ?PUSH_XSTACK_I_TWO
          CFI CFA_XSP16 add(XSP16, 278)
        MOV       R1,#0x0
        MOV       R4,#ZEM_AppEp & 0xff
        MOV       R5,#(ZEM_AppEp >> 8) & 0xff
        MOV       A,#0x9
        LCALL     ?XSTACK_DISP101_8
        LCALL     `??AF_DataRequest::?relay`; Banked call to: AF_DataRequest
        MOV       A,#0x9
        LCALL     ?DEALLOC_XSTACK8
          CFI CFA_XSP16 add(XSP16, 269)
//  368     osal_start_timerEx(zclZEM_TaskID,
//  369                       ZEM_BROADCAST_EVT,
//  370                       ZEM_BROADCAST_PERIOD);
        ; Setup parameters for call to function osal_start_timerEx
        MOV       DPTR,#__Constant_3e8
        LCALL     ?PUSH_XSTACK8_X_FOUR
          CFI CFA_XSP16 add(XSP16, 273)
        MOV       R2,#0x0
        MOV       R3,#0x10
        MOV       DPTR,#zclZEM_TaskID
        MOVX      A,@DPTR
        MOV       R1,A
        LCALL     `??osal_start_timerEx::?relay`; Banked call to: osal_start_timerEx
        MOV       A,#0x4
        LCALL     ?DEALLOC_XSTACK8
          CFI CFA_XSP16 add(XSP16, 269)
//  371     return ( events ^ ZEM_BROADCAST_EVT );
        MOV       A,R6
        MOV       R2,A
        MOV       A,R7
        XRL       A,#0x10
        LJMP      ??zclZEM_event_loop_8 & 0xFFFF
//  372   }
//  373   
//  374   // Groupcast event
//  375   if ( events & ZEM_GROUPCAST_EVT )
??zclZEM_event_loop_21:
        MOV       A,R7
        ANL       A,#0x8
        JNZ       $+5
        LJMP      ??zclZEM_event_loop_22 & 0xFFFF
//  376   {
//  377     uint8 groupcastData[] = "Groupcast";
        MOV       DPTR,#`?<Constant "Groupcast">`
        MOV       A,#0xc
        LCALL     ?XSTACK_DISP102_8
        MOV       A,#0xa
        LCALL     ?MOVE_LONG8_XDATA_XDATA
//  378     zclZEM_AF_Groupcast(GROUP_ID,
//  379                         CLUSTER_GROUPCAST,
//  380                         sizeof(groupcastData)-1, 
//  381                         groupcastData);
        MOV       A,#0x8
        LCALL     ?XSTACK_DISP0_8
        MOV       A,#0x1
        LCALL     ?Subroutine5 & 0xFFFF
??CrossCallReturnLabel_3:
        MOV       A,#0x15
        MOVX      @DPTR,A
        INC       DPTR
        CLR       A
        MOVX      @DPTR,A
        MOV       A,#0x9
        LCALL     ?XSTACK_DISP0_8
        MOV       A,#0x8
        MOVX      @DPTR,A
        MOV       DPTR,#??transferId_2
        LCALL     ?Subroutine7 & 0xFFFF
??CrossCallReturnLabel_8:
        LCALL     ?PUSH_XSTACK_I_ONE
          CFI CFA_XSP16 add(XSP16, 270)
        MOV       ?V2,#??transferId_2 & 0xff
        MOV       ?V3,#(??transferId_2 >> 8) & 0xff
        MOV       R0,#?V2
        LCALL     ?PUSH_XSTACK_I_TWO
          CFI CFA_XSP16 add(XSP16, 272)
        MOV       A,#0xf
        LCALL     ?XSTACK_DISP100_8
        MOV       ?V2,R0
        MOV       ?V3,R1
        MOV       R0,#?V2
        LCALL     ?PUSH_XSTACK_I_TWO
          CFI CFA_XSP16 add(XSP16, 274)
        MOV       ?V2,#0x9
        MOV       ?V3,#0x0
        MOV       R0,#?V2
        LCALL     ?PUSH_XSTACK_I_TWO
          CFI CFA_XSP16 add(XSP16, 276)
        MOV       ?V2,#0x2
        MOV       R0,#?V2
        LCALL     ?PUSH_XSTACK_I_TWO
          CFI CFA_XSP16 add(XSP16, 278)
        MOV       R1,#0x0
        MOV       R4,#ZEM_AppEp & 0xff
        MOV       R5,#(ZEM_AppEp >> 8) & 0xff
        MOV       A,#0x9
        LCALL     ?XSTACK_DISP101_8
        LCALL     `??AF_DataRequest::?relay`; Banked call to: AF_DataRequest
        MOV       A,#0x9
        LCALL     ?DEALLOC_XSTACK8
          CFI CFA_XSP16 add(XSP16, 269)
//  382     osal_start_timerEx(zclZEM_TaskID,
//  383                       ZEM_GROUPCAST_EVT,
//  384                       ZEM_GROUPCAST_PERIOD);
        ; Setup parameters for call to function osal_start_timerEx
        MOV       DPTR,#__Constant_3e8
        LCALL     ?PUSH_XSTACK8_X_FOUR
          CFI CFA_XSP16 add(XSP16, 273)
        MOV       R2,#0x0
        MOV       R3,#0x8
        MOV       DPTR,#zclZEM_TaskID
        MOVX      A,@DPTR
        MOV       R1,A
        LCALL     `??osal_start_timerEx::?relay`; Banked call to: osal_start_timerEx
        MOV       A,#0x4
        LCALL     ?DEALLOC_XSTACK8
          CFI CFA_XSP16 add(XSP16, 269)
//  385     return ( events ^ ZEM_GROUPCAST_EVT );
        MOV       A,R6
        MOV       R2,A
        MOV       A,R7
        XRL       A,#0x8
        LJMP      ??zclZEM_event_loop_8 & 0xFFFF
//  386   }
//  387   
//  388   // P2P event
//  389   if ( events & ZEM_P2P_EVT )
??zclZEM_event_loop_22:
        MOV       A,R7
        ANL       A,#0x2
        JNZ       $+5
        LJMP      ??zclZEM_event_loop_23 & 0xFFFF
//  390   {
//  391     // 添加调试信息，检查网络状态
//  392     uint8 p2pDebugMsg[] = "ZEM_P2P_EVT processed! Network state: ";
        MOV       DPTR,#`?<Constant "ZEM_P2P_EVT processed...">`
        MOV       A,#0x59
        LCALL     ?XSTACK_DISP102_8
        MOV       A,#0x27
        LCALL     ?MOVE_LONG8_XDATA_XDATA
//  393     HalUARTWrite(HAL_UART_PORT_0, p2pDebugMsg, sizeof(p2pDebugMsg)-1);
        ; Setup parameters for call to function HalUARTWrite
        MOV       R4,#0x26
        MOV       R5,A
        MOV       A,#0x59
        LCALL     ?XSTACK_DISP101_8
        MOV       R1,#0x0
        LCALL     `??HalUARTWrite::?relay`; Banked call to: HalUARTWrite
//  394     
//  395     uint8 stateStr[8];
//  396     // 转换网络状态为十六进制显示
//  397     uint8 stateByte = devState;
        MOV       DPTR,#devState
        MOVX      A,@DPTR
        LCALL     ?Subroutine13 & 0xFFFF
//  398     uint8 highNibble = (stateByte >> 4) & 0x0F;
//  399     uint8 lowNibble = stateByte & 0x0F;
//  400     stateStr[0] = (highNibble < 10) ? ('0' + highNibble) : ('A' + highNibble - 10);
??CrossCallReturnLabel_17:
        JNC       ??zclZEM_event_loop_24
        MOV       A,#0x30
        SJMP      ??zclZEM_event_loop_25
??zclZEM_event_loop_24:
        MOV       A,#0x37
??zclZEM_event_loop_25:
        ADD       A,R0
        MOV       R0,A
        MOV       A,#0x16
        LCALL     ?XSTACK_DISP0_8
        MOV       A,R0
        MOVX      @DPTR,A
//  401     stateStr[1] = (lowNibble < 10) ? ('0' + lowNibble) : ('A' + lowNibble - 10);
        MOV       A,R1
        CLR       C
        SUBB      A,#0xa
        JNC       ??zclZEM_event_loop_26
        MOV       A,#0x30
        SJMP      ??zclZEM_event_loop_27
??zclZEM_event_loop_26:
        MOV       A,#0x37
??zclZEM_event_loop_27:
        ADD       A,R1
        MOV       R0,A
        MOV       A,#0x17
        LCALL     ?XSTACK_DISP0_8
        MOV       A,R0
        MOVX      @DPTR,A
//  402     stateStr[2] = '\r';
        MOV       A,#0x18
        LCALL     ?XSTACK_DISP0_8
        MOV       A,#0xd
        MOVX      @DPTR,A
//  403     stateStr[3] = '\n';
        MOV       A,#0x19
        LCALL     ?XSTACK_DISP0_8
        MOV       A,#0xa
        MOVX      @DPTR,A
//  404     HalUARTWrite(0, stateStr, 4);
        ; Setup parameters for call to function HalUARTWrite
        MOV       R4,#0x4
        MOV       R5,#0x0
        MOV       A,#0x16
        LCALL     ?XSTACK_DISP101_8
        MOV       R1,#0x0
        LCALL     `??HalUARTWrite::?relay`; Banked call to: HalUARTWrite
//  405     
//  406     // 使用P2P事件发送MAC地址
//  407     zclZEM_SendMACToCoordinator();
        ; Setup parameters for call to function NLME_GetExtAddr
        LCALL     `??NLME_GetExtAddr::?relay`; Banked call to: NLME_GetExtAddr
        MOV       ?V4,R2
        MOV       ?V5,R3
        MOV       A,#0xc
        LCALL     ?XSTACK_DISP0_8
        MOV       A,#0x1
        MOVX      @DPTR,A
        ; Setup parameters for call to function osal_memcpy
        MOV       ?V6,#0x0
        MOV       R0,#?V4
        LCALL     ?PUSH_XSTACK_I_THREE
          CFI CFA_XSP16 add(XSP16, 272)
        MOV       R4,#0x8
        MOV       R5,#0x0
        MOV       A,#0x10
        LCALL     ?XSTACK_DISP0_8
        MOV       R2,DPL
        MOV       R3,DPH
        LCALL     `??osal_memcpy::?relay`; Banked call to: osal_memcpy
        MOV       A,#0x3
        LCALL     ?DEALLOC_XSTACK8
          CFI CFA_XSP16 add(XSP16, 269)
        MOV       A,#0x15
        LCALL     ?XSTACK_DISP0_8
        CLR       A
        MOVX      @DPTR,A
        MOV       A,#0x8
        LCALL     ?XSTACK_DISP0_8
        MOV       A,#0x2
        LCALL     ?Subroutine5 & 0xFFFF
??CrossCallReturnLabel_4:
        CLR       A
        MOVX      @DPTR,A
        INC       DPTR
        MOVX      @DPTR,A
        MOV       A,#0x9
        LCALL     ?XSTACK_DISP0_8
        MOV       A,#0x8
        MOVX      @DPTR,A
        MOV       DPTR,#??transferId
        LCALL     ?Subroutine7 & 0xFFFF
??CrossCallReturnLabel_9:
        LCALL     ?PUSH_XSTACK_I_ONE
          CFI CFA_XSP16 add(XSP16, 270)
        MOV       ?V2,#??transferId & 0xff
        MOV       ?V3,#(??transferId >> 8) & 0xff
        MOV       R0,#?V2
        LCALL     ?PUSH_XSTACK_I_TWO
          CFI CFA_XSP16 add(XSP16, 272)
        MOV       A,#0xf
        LCALL     ?XSTACK_DISP100_8
        MOV       ?V2,R0
        MOV       ?V3,R1
        MOV       R0,#?V2
        LCALL     ?PUSH_XSTACK_I_TWO
          CFI CFA_XSP16 add(XSP16, 274)
        MOV       ?V2,#0xa
        MOV       ?V3,#0x0
        MOV       R0,#?V2
        LCALL     ?PUSH_XSTACK_I_TWO
          CFI CFA_XSP16 add(XSP16, 276)
        CLR       A
        MOV       ?V2,A
        MOV       R0,#?V2
        LCALL     ?PUSH_XSTACK_I_TWO
          CFI CFA_XSP16 add(XSP16, 278)
        MOV       R1,#0x0
        MOV       R4,#ZEM_AppEp & 0xff
        MOV       R5,#(ZEM_AppEp >> 8) & 0xff
        MOV       A,#0x9
        LCALL     ?XSTACK_DISP101_8
        LCALL     `??AF_DataRequest::?relay`; Banked call to: AF_DataRequest
        MOV       A,#0x9
        LCALL     ?DEALLOC_XSTACK8
          CFI CFA_XSP16 add(XSP16, 269)
        MOV       DPTR,#`?<Constant "MAC address sent to c...">`
        MOV       A,#0x36
        LCALL     ?XSTACK_DISP102_8
        MOV       A,#0x23
        LCALL     ?MOVE_LONG8_XDATA_XDATA
        ; Setup parameters for call to function HalUARTWrite
        MOV       R4,#0x22
        MOV       R5,A
        MOV       A,#0x36
        LCALL     ?XSTACK_DISP101_8
        MOV       R1,#0x0
        LCALL     `??HalUARTWrite::?relay`; Banked call to: HalUARTWrite
//  408     
//  409     osal_start_timerEx(zclZEM_TaskID,
//  410                       ZEM_P2P_EVT,
//  411                       ZEM_P2P_PERIOD);
        ; Setup parameters for call to function osal_start_timerEx
        MOV       DPTR,#__Constant_3e8
        LCALL     ?PUSH_XSTACK8_X_FOUR
          CFI CFA_XSP16 add(XSP16, 273)
        MOV       R2,#0x0
        MOV       R3,#0x2
        MOV       DPTR,#zclZEM_TaskID
        MOVX      A,@DPTR
        MOV       R1,A
        LCALL     `??osal_start_timerEx::?relay`; Banked call to: osal_start_timerEx
        MOV       A,#0x4
        LCALL     ?DEALLOC_XSTACK8
          CFI CFA_XSP16 add(XSP16, 269)
//  412     return ( events ^ ZEM_P2P_EVT );
        MOV       A,R6
        MOV       R2,A
        MOV       A,R7
        XRL       A,#0x2
        SJMP      ??zclZEM_event_loop_8
//  413   }
//  414   
//  415   // 网络形成重试事件
//  416   if ( events & ZEM_RETRY_FORMATION_EVT )
??zclZEM_event_loop_23:
        MOV       A,R7
        ANL       A,#0x4
        JZ        ??zclZEM_event_loop_28
//  417   {
//  418     
//  419     // 重新调用组网函数
//  420     bdb_StartCommissioning(BDB_COMMISSIONING_MODE_NWK_FORMATION |
//  421                                 BDB_COMMISSIONING_MODE_FINDING_BINDING );
        ; Setup parameters for call to function bdb_StartCommissioning
        MOV       R1,#0xc
        LCALL     `??bdb_StartCommissioning::?relay`; Banked call to: bdb_StartCommissioning
//  422     return ( events ^ ZEM_RETRY_FORMATION_EVT );
        MOV       A,R6
        MOV       R2,A
        MOV       A,R7
        XRL       A,#0x4
??zclZEM_event_loop_8:
        MOV       R3,A
        SJMP      ??zclZEM_event_loop_20
//  423   }
//  424   #ifndef ZDO_COORDINATOR
//  425     if ( events & ZEM_REJOIN_EVT )//如果事件类型为重新加入网络事件
//  426     {
//  427         // 添加调试信息
//  428         uint8 rejoinMsg[] = "ZEM_REJOIN_EVT processed! Starting network steering...\r\n";
//  429         HalUARTWrite(HAL_UART_PORT_0, rejoinMsg, sizeof(rejoinMsg)-1);
//  430         
//  431         // 重新加入网络
//  432         bdb_StartCommissioning(BDB_COMMISSIONING_MODE_NWK_STEERING |
//  433                                     BDB_COMMISSIONING_MODE_FINDING_BINDING );
//  434       return ( events ^ ZEM_REJOIN_EVT );
//  435     }
//  436   #endif
//  437 
//  438   // Discard unknown events
//  439   return 0;
??zclZEM_event_loop_28:
        MOV       R2,#0x0
        MOV       R3,#0x0
??zclZEM_event_loop_20:
        MOV       A,#-0x2
        LCALL     ?DEALLOC_XSTACK8
          CFI CFA_XSP16 add(XSP16, 15)
        MOV       R7,#0x7
        LJMP      ?BANKED_LEAVE_XDATA
//  440 }
          CFI EndBlock cfiBlock2

        RSEG BANKED_CODE:HUGECODE:NOROOT(0)
?Subroutine19:
          CFI Block cfiCond3 Using cfiCommon0
          CFI Function zclZEM_event_loop
          CFI Conditional ??CrossCallReturnLabel_28
          CFI R6 load(1, XDATA, add(CFA_XSP16, literal(-15)))
          CFI VB load(1, XDATA, add(CFA_XSP16, literal(-14)))
          CFI V0 load(1, XDATA, add(CFA_XSP16, literal(-13)))
          CFI V1 load(1, XDATA, add(CFA_XSP16, literal(-12)))
          CFI V2 load(1, XDATA, add(CFA_XSP16, literal(-11)))
          CFI V3 load(1, XDATA, add(CFA_XSP16, literal(-10)))
          CFI V4 load(1, XDATA, add(CFA_XSP16, literal(-9)))
          CFI V5 load(1, XDATA, add(CFA_XSP16, literal(-8)))
          CFI V6 load(1, XDATA, add(CFA_XSP16, literal(-7)))
          CFI R7 load(1, XDATA, add(CFA_XSP16, literal(-6)))
          CFI ?RET_LOW load(1, XDATA, add(CFA_XSP16, literal(-5)))
          CFI ?RET_HIGH load(1, XDATA, add(CFA_XSP16, literal(-4)))
          CFI ?BRET_EXT load(1, XDATA, add(CFA_XSP16, literal(-3)))
          CFI DPL0 load(1, XDATA, add(CFA_XSP16, literal(-2)))
          CFI DPH0 load(1, XDATA, add(CFA_XSP16, literal(-1)))
          CFI CFA_XSP16 add(XSP16, 269)
          CFI Block cfiCond4 Using cfiCommon0
          CFI (cfiCond4) Function zclZEM_event_loop
          CFI (cfiCond4) Conditional ??CrossCallReturnLabel_29
          CFI (cfiCond4) R6 load(1, XDATA, add(CFA_XSP16, literal(-15)))
          CFI (cfiCond4) VB load(1, XDATA, add(CFA_XSP16, literal(-14)))
          CFI (cfiCond4) V0 load(1, XDATA, add(CFA_XSP16, literal(-13)))
          CFI (cfiCond4) V1 load(1, XDATA, add(CFA_XSP16, literal(-12)))
          CFI (cfiCond4) V2 load(1, XDATA, add(CFA_XSP16, literal(-11)))
          CFI (cfiCond4) V3 load(1, XDATA, add(CFA_XSP16, literal(-10)))
          CFI (cfiCond4) V4 load(1, XDATA, add(CFA_XSP16, literal(-9)))
          CFI (cfiCond4) V5 load(1, XDATA, add(CFA_XSP16, literal(-8)))
          CFI (cfiCond4) V6 load(1, XDATA, add(CFA_XSP16, literal(-7)))
          CFI (cfiCond4) R7 load(1, XDATA, add(CFA_XSP16, literal(-6)))
          CFI (cfiCond4) ?RET_LOW load(1, XDATA, add(CFA_XSP16, literal(-5)))
          CFI (cfiCond4) ?RET_HIGH load(1, XDATA, add(CFA_XSP16, literal(-4)))
          CFI (cfiCond4) ?BRET_EXT load(1, XDATA, add(CFA_XSP16, literal(-3)))
          CFI (cfiCond4) DPL0 load(1, XDATA, add(CFA_XSP16, literal(-2)))
          CFI (cfiCond4) DPH0 load(1, XDATA, add(CFA_XSP16, literal(-1)))
          CFI (cfiCond4) CFA_XSP16 add(XSP16, 269)
          CFI Block cfiCond5 Using cfiCommon0
          CFI (cfiCond5) Function zclZEM_event_loop
          CFI (cfiCond5) Conditional ??CrossCallReturnLabel_30
          CFI (cfiCond5) R6 load(1, XDATA, add(CFA_XSP16, literal(-15)))
          CFI (cfiCond5) VB load(1, XDATA, add(CFA_XSP16, literal(-14)))
          CFI (cfiCond5) V0 load(1, XDATA, add(CFA_XSP16, literal(-13)))
          CFI (cfiCond5) V1 load(1, XDATA, add(CFA_XSP16, literal(-12)))
          CFI (cfiCond5) V2 load(1, XDATA, add(CFA_XSP16, literal(-11)))
          CFI (cfiCond5) V3 load(1, XDATA, add(CFA_XSP16, literal(-10)))
          CFI (cfiCond5) V4 load(1, XDATA, add(CFA_XSP16, literal(-9)))
          CFI (cfiCond5) V5 load(1, XDATA, add(CFA_XSP16, literal(-8)))
          CFI (cfiCond5) V6 load(1, XDATA, add(CFA_XSP16, literal(-7)))
          CFI (cfiCond5) R7 load(1, XDATA, add(CFA_XSP16, literal(-6)))
          CFI (cfiCond5) ?RET_LOW load(1, XDATA, add(CFA_XSP16, literal(-5)))
          CFI (cfiCond5) ?RET_HIGH load(1, XDATA, add(CFA_XSP16, literal(-4)))
          CFI (cfiCond5) ?BRET_EXT load(1, XDATA, add(CFA_XSP16, literal(-3)))
          CFI (cfiCond5) DPL0 load(1, XDATA, add(CFA_XSP16, literal(-2)))
          CFI (cfiCond5) DPH0 load(1, XDATA, add(CFA_XSP16, literal(-1)))
          CFI (cfiCond5) CFA_XSP16 add(XSP16, 269)
          CFI Block cfiPicker6 Using cfiCommon1
          CFI (cfiPicker6) NoFunction
          CFI (cfiPicker6) Picker
        LCALL     ?Subroutine22 & 0xFFFF
??CrossCallReturnLabel_42:
        RET
          CFI EndBlock cfiCond3
          CFI EndBlock cfiCond4
          CFI EndBlock cfiCond5
          CFI EndBlock cfiPicker6

        RSEG BANKED_CODE:HUGECODE:NOROOT(0)
?Subroutine22:
          CFI Block cfiCond7 Using cfiCommon0
          CFI Function zclZEM_event_loop
          CFI Conditional ??CrossCallReturnLabel_42, ??CrossCallReturnLabel_28
          CFI R6 load(1, XDATA, add(CFA_XSP16, literal(-15)))
          CFI VB load(1, XDATA, add(CFA_XSP16, literal(-14)))
          CFI V0 load(1, XDATA, add(CFA_XSP16, literal(-13)))
          CFI V1 load(1, XDATA, add(CFA_XSP16, literal(-12)))
          CFI V2 load(1, XDATA, add(CFA_XSP16, literal(-11)))
          CFI V3 load(1, XDATA, add(CFA_XSP16, literal(-10)))
          CFI V4 load(1, XDATA, add(CFA_XSP16, literal(-9)))
          CFI V5 load(1, XDATA, add(CFA_XSP16, literal(-8)))
          CFI V6 load(1, XDATA, add(CFA_XSP16, literal(-7)))
          CFI R7 load(1, XDATA, add(CFA_XSP16, literal(-6)))
          CFI ?RET_LOW load(1, XDATA, add(CFA_XSP16, literal(-5)))
          CFI ?RET_HIGH load(1, XDATA, add(CFA_XSP16, literal(-4)))
          CFI ?BRET_EXT load(1, XDATA, add(CFA_XSP16, literal(-3)))
          CFI DPL0 load(1, XDATA, add(CFA_XSP16, literal(-2)))
          CFI DPH0 load(1, XDATA, add(CFA_XSP16, literal(-1)))
          CFI CFA_SP SP+-5
          CFI CFA_XSP16 add(XSP16, 269)
          CFI Block cfiCond8 Using cfiCommon0
          CFI (cfiCond8) Function zclZEM_event_loop
          CFI (cfiCond8) Conditional ??CrossCallReturnLabel_42, ??CrossCallReturnLabel_29
          CFI (cfiCond8) R6 load(1, XDATA, add(CFA_XSP16, literal(-15)))
          CFI (cfiCond8) VB load(1, XDATA, add(CFA_XSP16, literal(-14)))
          CFI (cfiCond8) V0 load(1, XDATA, add(CFA_XSP16, literal(-13)))
          CFI (cfiCond8) V1 load(1, XDATA, add(CFA_XSP16, literal(-12)))
          CFI (cfiCond8) V2 load(1, XDATA, add(CFA_XSP16, literal(-11)))
          CFI (cfiCond8) V3 load(1, XDATA, add(CFA_XSP16, literal(-10)))
          CFI (cfiCond8) V4 load(1, XDATA, add(CFA_XSP16, literal(-9)))
          CFI (cfiCond8) V5 load(1, XDATA, add(CFA_XSP16, literal(-8)))
          CFI (cfiCond8) V6 load(1, XDATA, add(CFA_XSP16, literal(-7)))
          CFI (cfiCond8) R7 load(1, XDATA, add(CFA_XSP16, literal(-6)))
          CFI (cfiCond8) ?RET_LOW load(1, XDATA, add(CFA_XSP16, literal(-5)))
          CFI (cfiCond8) ?RET_HIGH load(1, XDATA, add(CFA_XSP16, literal(-4)))
          CFI (cfiCond8) ?BRET_EXT load(1, XDATA, add(CFA_XSP16, literal(-3)))
          CFI (cfiCond8) DPL0 load(1, XDATA, add(CFA_XSP16, literal(-2)))
          CFI (cfiCond8) DPH0 load(1, XDATA, add(CFA_XSP16, literal(-1)))
          CFI (cfiCond8) CFA_SP SP+-5
          CFI (cfiCond8) CFA_XSP16 add(XSP16, 269)
          CFI Block cfiCond9 Using cfiCommon0
          CFI (cfiCond9) Function zclZEM_event_loop
          CFI (cfiCond9) Conditional ??CrossCallReturnLabel_42, ??CrossCallReturnLabel_30
          CFI (cfiCond9) R6 load(1, XDATA, add(CFA_XSP16, literal(-15)))
          CFI (cfiCond9) VB load(1, XDATA, add(CFA_XSP16, literal(-14)))
          CFI (cfiCond9) V0 load(1, XDATA, add(CFA_XSP16, literal(-13)))
          CFI (cfiCond9) V1 load(1, XDATA, add(CFA_XSP16, literal(-12)))
          CFI (cfiCond9) V2 load(1, XDATA, add(CFA_XSP16, literal(-11)))
          CFI (cfiCond9) V3 load(1, XDATA, add(CFA_XSP16, literal(-10)))
          CFI (cfiCond9) V4 load(1, XDATA, add(CFA_XSP16, literal(-9)))
          CFI (cfiCond9) V5 load(1, XDATA, add(CFA_XSP16, literal(-8)))
          CFI (cfiCond9) V6 load(1, XDATA, add(CFA_XSP16, literal(-7)))
          CFI (cfiCond9) R7 load(1, XDATA, add(CFA_XSP16, literal(-6)))
          CFI (cfiCond9) ?RET_LOW load(1, XDATA, add(CFA_XSP16, literal(-5)))
          CFI (cfiCond9) ?RET_HIGH load(1, XDATA, add(CFA_XSP16, literal(-4)))
          CFI (cfiCond9) ?BRET_EXT load(1, XDATA, add(CFA_XSP16, literal(-3)))
          CFI (cfiCond9) DPL0 load(1, XDATA, add(CFA_XSP16, literal(-2)))
          CFI (cfiCond9) DPH0 load(1, XDATA, add(CFA_XSP16, literal(-1)))
          CFI (cfiCond9) CFA_SP SP+-5
          CFI (cfiCond9) CFA_XSP16 add(XSP16, 269)
          CFI Block cfiCond10 Using cfiCommon0
          CFI (cfiCond10) Function zclZEM_event_loop
          CFI (cfiCond10) Conditional ??CrossCallReturnLabel_39, ??CrossCallReturnLabel_21
          CFI (cfiCond10) R6 load(1, XDATA, add(CFA_XSP16, literal(-15)))
          CFI (cfiCond10) VB load(1, XDATA, add(CFA_XSP16, literal(-14)))
          CFI (cfiCond10) V0 load(1, XDATA, add(CFA_XSP16, literal(-13)))
          CFI (cfiCond10) V1 load(1, XDATA, add(CFA_XSP16, literal(-12)))
          CFI (cfiCond10) V2 load(1, XDATA, add(CFA_XSP16, literal(-11)))
          CFI (cfiCond10) V3 load(1, XDATA, add(CFA_XSP16, literal(-10)))
          CFI (cfiCond10) V4 load(1, XDATA, add(CFA_XSP16, literal(-9)))
          CFI (cfiCond10) V5 load(1, XDATA, add(CFA_XSP16, literal(-8)))
          CFI (cfiCond10) V6 load(1, XDATA, add(CFA_XSP16, literal(-7)))
          CFI (cfiCond10) R7 load(1, XDATA, add(CFA_XSP16, literal(-6)))
          CFI (cfiCond10) ?RET_LOW load(1, XDATA, add(CFA_XSP16, literal(-5)))
          CFI (cfiCond10) ?RET_HIGH load(1, XDATA, add(CFA_XSP16, literal(-4)))
          CFI (cfiCond10) ?BRET_EXT load(1, XDATA, add(CFA_XSP16, literal(-3)))
          CFI (cfiCond10) DPL0 load(1, XDATA, add(CFA_XSP16, literal(-2)))
          CFI (cfiCond10) DPH0 load(1, XDATA, add(CFA_XSP16, literal(-1)))
          CFI (cfiCond10) CFA_SP SP+-4
          CFI (cfiCond10) CFA_XSP16 add(XSP16, 269)
          CFI Block cfiCond11 Using cfiCommon0
          CFI (cfiCond11) Function zclZEM_event_loop
          CFI (cfiCond11) Conditional ??CrossCallReturnLabel_39, ??CrossCallReturnLabel_22
          CFI (cfiCond11) R6 load(1, XDATA, add(CFA_XSP16, literal(-15)))
          CFI (cfiCond11) VB load(1, XDATA, add(CFA_XSP16, literal(-14)))
          CFI (cfiCond11) V0 load(1, XDATA, add(CFA_XSP16, literal(-13)))
          CFI (cfiCond11) V1 load(1, XDATA, add(CFA_XSP16, literal(-12)))
          CFI (cfiCond11) V2 load(1, XDATA, add(CFA_XSP16, literal(-11)))
          CFI (cfiCond11) V3 load(1, XDATA, add(CFA_XSP16, literal(-10)))
          CFI (cfiCond11) V4 load(1, XDATA, add(CFA_XSP16, literal(-9)))
          CFI (cfiCond11) V5 load(1, XDATA, add(CFA_XSP16, literal(-8)))
          CFI (cfiCond11) V6 load(1, XDATA, add(CFA_XSP16, literal(-7)))
          CFI (cfiCond11) R7 load(1, XDATA, add(CFA_XSP16, literal(-6)))
          CFI (cfiCond11) ?RET_LOW load(1, XDATA, add(CFA_XSP16, literal(-5)))
          CFI (cfiCond11) ?RET_HIGH load(1, XDATA, add(CFA_XSP16, literal(-4)))
          CFI (cfiCond11) ?BRET_EXT load(1, XDATA, add(CFA_XSP16, literal(-3)))
          CFI (cfiCond11) DPL0 load(1, XDATA, add(CFA_XSP16, literal(-2)))
          CFI (cfiCond11) DPH0 load(1, XDATA, add(CFA_XSP16, literal(-1)))
          CFI (cfiCond11) CFA_SP SP+-4
          CFI (cfiCond11) CFA_XSP16 add(XSP16, 269)
          CFI Block cfiCond12 Using cfiCommon0
          CFI (cfiCond12) Function zclZEM_event_loop
          CFI (cfiCond12) Conditional ??CrossCallReturnLabel_39, ??CrossCallReturnLabel_23
          CFI (cfiCond12) R6 load(1, XDATA, add(CFA_XSP16, literal(-15)))
          CFI (cfiCond12) VB load(1, XDATA, add(CFA_XSP16, literal(-14)))
          CFI (cfiCond12) V0 load(1, XDATA, add(CFA_XSP16, literal(-13)))
          CFI (cfiCond12) V1 load(1, XDATA, add(CFA_XSP16, literal(-12)))
          CFI (cfiCond12) V2 load(1, XDATA, add(CFA_XSP16, literal(-11)))
          CFI (cfiCond12) V3 load(1, XDATA, add(CFA_XSP16, literal(-10)))
          CFI (cfiCond12) V4 load(1, XDATA, add(CFA_XSP16, literal(-9)))
          CFI (cfiCond12) V5 load(1, XDATA, add(CFA_XSP16, literal(-8)))
          CFI (cfiCond12) V6 load(1, XDATA, add(CFA_XSP16, literal(-7)))
          CFI (cfiCond12) R7 load(1, XDATA, add(CFA_XSP16, literal(-6)))
          CFI (cfiCond12) ?RET_LOW load(1, XDATA, add(CFA_XSP16, literal(-5)))
          CFI (cfiCond12) ?RET_HIGH load(1, XDATA, add(CFA_XSP16, literal(-4)))
          CFI (cfiCond12) ?BRET_EXT load(1, XDATA, add(CFA_XSP16, literal(-3)))
          CFI (cfiCond12) DPL0 load(1, XDATA, add(CFA_XSP16, literal(-2)))
          CFI (cfiCond12) DPH0 load(1, XDATA, add(CFA_XSP16, literal(-1)))
          CFI (cfiCond12) CFA_SP SP+-4
          CFI (cfiCond12) CFA_XSP16 add(XSP16, 269)
          CFI Block cfiCond13 Using cfiCommon0
          CFI (cfiCond13) Function zclZEM_event_loop
          CFI (cfiCond13) Conditional ??CrossCallReturnLabel_41, ??CrossCallReturnLabel_26
          CFI (cfiCond13) R6 load(1, XDATA, add(CFA_XSP16, literal(-15)))
          CFI (cfiCond13) VB load(1, XDATA, add(CFA_XSP16, literal(-14)))
          CFI (cfiCond13) V0 load(1, XDATA, add(CFA_XSP16, literal(-13)))
          CFI (cfiCond13) V1 load(1, XDATA, add(CFA_XSP16, literal(-12)))
          CFI (cfiCond13) V2 load(1, XDATA, add(CFA_XSP16, literal(-11)))
          CFI (cfiCond13) V3 load(1, XDATA, add(CFA_XSP16, literal(-10)))
          CFI (cfiCond13) V4 load(1, XDATA, add(CFA_XSP16, literal(-9)))
          CFI (cfiCond13) V5 load(1, XDATA, add(CFA_XSP16, literal(-8)))
          CFI (cfiCond13) V6 load(1, XDATA, add(CFA_XSP16, literal(-7)))
          CFI (cfiCond13) R7 load(1, XDATA, add(CFA_XSP16, literal(-6)))
          CFI (cfiCond13) ?RET_LOW load(1, XDATA, add(CFA_XSP16, literal(-5)))
          CFI (cfiCond13) ?RET_HIGH load(1, XDATA, add(CFA_XSP16, literal(-4)))
          CFI (cfiCond13) ?BRET_EXT load(1, XDATA, add(CFA_XSP16, literal(-3)))
          CFI (cfiCond13) DPL0 load(1, XDATA, add(CFA_XSP16, literal(-2)))
          CFI (cfiCond13) DPH0 load(1, XDATA, add(CFA_XSP16, literal(-1)))
          CFI (cfiCond13) CFA_SP SP+-4
          CFI (cfiCond13) CFA_XSP16 add(XSP16, 269)
          CFI Block cfiCond14 Using cfiCommon0
          CFI (cfiCond14) Function zclZEM_ReadAndSendMAC
          CFI (cfiCond14) Conditional ??CrossCallReturnLabel_41, ??CrossCallReturnLabel_27
          CFI (cfiCond14) R6 load(1, XDATA, add(CFA_XSP16, literal(-12)))
          CFI (cfiCond14) VB load(1, XDATA, add(CFA_XSP16, literal(-11)))
          CFI (cfiCond14) V0 load(1, XDATA, add(CFA_XSP16, literal(-10)))
          CFI (cfiCond14) V1 load(1, XDATA, add(CFA_XSP16, literal(-9)))
          CFI (cfiCond14) V2 load(1, XDATA, add(CFA_XSP16, literal(-8)))
          CFI (cfiCond14) V3 load(1, XDATA, add(CFA_XSP16, literal(-7)))
          CFI (cfiCond14) R7 load(1, XDATA, add(CFA_XSP16, literal(-6)))
          CFI (cfiCond14) ?RET_LOW load(1, XDATA, add(CFA_XSP16, literal(-5)))
          CFI (cfiCond14) ?RET_HIGH load(1, XDATA, add(CFA_XSP16, literal(-4)))
          CFI (cfiCond14) ?BRET_EXT load(1, XDATA, add(CFA_XSP16, literal(-3)))
          CFI (cfiCond14) DPL0 load(1, XDATA, add(CFA_XSP16, literal(-2)))
          CFI (cfiCond14) DPH0 load(1, XDATA, add(CFA_XSP16, literal(-1)))
          CFI (cfiCond14) CFA_SP SP+-4
          CFI (cfiCond14) CFA_XSP16 add(XSP16, 68)
          CFI Block cfiCond15 Using cfiCommon0
          CFI (cfiCond15) Function zclZEM_event_loop
          CFI (cfiCond15) Conditional ??CrossCallReturnLabel_40, ??CrossCallReturnLabel_24
          CFI (cfiCond15) R6 load(1, XDATA, add(CFA_XSP16, literal(-15)))
          CFI (cfiCond15) VB load(1, XDATA, add(CFA_XSP16, literal(-14)))
          CFI (cfiCond15) V0 load(1, XDATA, add(CFA_XSP16, literal(-13)))
          CFI (cfiCond15) V1 load(1, XDATA, add(CFA_XSP16, literal(-12)))
          CFI (cfiCond15) V2 load(1, XDATA, add(CFA_XSP16, literal(-11)))
          CFI (cfiCond15) V3 load(1, XDATA, add(CFA_XSP16, literal(-10)))
          CFI (cfiCond15) V4 load(1, XDATA, add(CFA_XSP16, literal(-9)))
          CFI (cfiCond15) V5 load(1, XDATA, add(CFA_XSP16, literal(-8)))
          CFI (cfiCond15) V6 load(1, XDATA, add(CFA_XSP16, literal(-7)))
          CFI (cfiCond15) R7 load(1, XDATA, add(CFA_XSP16, literal(-6)))
          CFI (cfiCond15) ?RET_LOW load(1, XDATA, add(CFA_XSP16, literal(-5)))
          CFI (cfiCond15) ?RET_HIGH load(1, XDATA, add(CFA_XSP16, literal(-4)))
          CFI (cfiCond15) ?BRET_EXT load(1, XDATA, add(CFA_XSP16, literal(-3)))
          CFI (cfiCond15) DPL0 load(1, XDATA, add(CFA_XSP16, literal(-2)))
          CFI (cfiCond15) DPH0 load(1, XDATA, add(CFA_XSP16, literal(-1)))
          CFI (cfiCond15) CFA_SP SP+-4
          CFI (cfiCond15) CFA_XSP16 add(XSP16, 269)
          CFI Block cfiCond16 Using cfiCommon0
          CFI (cfiCond16) Function zclZEM_ReadAndSendMAC
          CFI (cfiCond16) Conditional ??CrossCallReturnLabel_40, ??CrossCallReturnLabel_25
          CFI (cfiCond16) R6 load(1, XDATA, add(CFA_XSP16, literal(-12)))
          CFI (cfiCond16) VB load(1, XDATA, add(CFA_XSP16, literal(-11)))
          CFI (cfiCond16) V0 load(1, XDATA, add(CFA_XSP16, literal(-10)))
          CFI (cfiCond16) V1 load(1, XDATA, add(CFA_XSP16, literal(-9)))
          CFI (cfiCond16) V2 load(1, XDATA, add(CFA_XSP16, literal(-8)))
          CFI (cfiCond16) V3 load(1, XDATA, add(CFA_XSP16, literal(-7)))
          CFI (cfiCond16) R7 load(1, XDATA, add(CFA_XSP16, literal(-6)))
          CFI (cfiCond16) ?RET_LOW load(1, XDATA, add(CFA_XSP16, literal(-5)))
          CFI (cfiCond16) ?RET_HIGH load(1, XDATA, add(CFA_XSP16, literal(-4)))
          CFI (cfiCond16) ?BRET_EXT load(1, XDATA, add(CFA_XSP16, literal(-3)))
          CFI (cfiCond16) DPL0 load(1, XDATA, add(CFA_XSP16, literal(-2)))
          CFI (cfiCond16) DPH0 load(1, XDATA, add(CFA_XSP16, literal(-1)))
          CFI (cfiCond16) CFA_SP SP+-4
          CFI (cfiCond16) CFA_XSP16 add(XSP16, 68)
          CFI Block cfiPicker17 Using cfiCommon1
          CFI (cfiPicker17) NoFunction
          CFI (cfiPicker17) Picker
        MOV       A,DPL
        ADD       A,R2
          CFI EndBlock cfiCond7
          CFI EndBlock cfiCond8
          CFI EndBlock cfiCond9
          CFI EndBlock cfiCond10
          CFI EndBlock cfiCond11
          CFI EndBlock cfiCond12
          CFI EndBlock cfiCond13
          CFI EndBlock cfiCond14
          CFI EndBlock cfiCond15
          CFI EndBlock cfiCond16
          CFI EndBlock cfiPicker17
        REQUIRE ??Subroutine24_0
        ; // Fall through to label ??Subroutine24_0

        RSEG BANKED_CODE:HUGECODE:NOROOT(0)
??Subroutine24_0:
          CFI Block cfiCond18 Using cfiCommon0
          CFI Function zclZEM_event_loop
          CFI Conditional ??CrossCallReturnLabel_35
          CFI R6 load(1, XDATA, add(CFA_XSP16, literal(-15)))
          CFI VB load(1, XDATA, add(CFA_XSP16, literal(-14)))
          CFI V0 load(1, XDATA, add(CFA_XSP16, literal(-13)))
          CFI V1 load(1, XDATA, add(CFA_XSP16, literal(-12)))
          CFI V2 load(1, XDATA, add(CFA_XSP16, literal(-11)))
          CFI V3 load(1, XDATA, add(CFA_XSP16, literal(-10)))
          CFI V4 load(1, XDATA, add(CFA_XSP16, literal(-9)))
          CFI V5 load(1, XDATA, add(CFA_XSP16, literal(-8)))
          CFI V6 load(1, XDATA, add(CFA_XSP16, literal(-7)))
          CFI R7 load(1, XDATA, add(CFA_XSP16, literal(-6)))
          CFI ?RET_LOW load(1, XDATA, add(CFA_XSP16, literal(-5)))
          CFI ?RET_HIGH load(1, XDATA, add(CFA_XSP16, literal(-4)))
          CFI ?BRET_EXT load(1, XDATA, add(CFA_XSP16, literal(-3)))
          CFI DPL0 load(1, XDATA, add(CFA_XSP16, literal(-2)))
          CFI DPH0 load(1, XDATA, add(CFA_XSP16, literal(-1)))
          CFI CFA_XSP16 add(XSP16, 269)
          CFI Block cfiCond19 Using cfiCommon0
          CFI (cfiCond19) Function zclZEM_ReadAndSendMAC
          CFI (cfiCond19) Conditional ??CrossCallReturnLabel_36
          CFI (cfiCond19) R6 load(1, XDATA, add(CFA_XSP16, literal(-12)))
          CFI (cfiCond19) VB load(1, XDATA, add(CFA_XSP16, literal(-11)))
          CFI (cfiCond19) V0 load(1, XDATA, add(CFA_XSP16, literal(-10)))
          CFI (cfiCond19) V1 load(1, XDATA, add(CFA_XSP16, literal(-9)))
          CFI (cfiCond19) V2 load(1, XDATA, add(CFA_XSP16, literal(-8)))
          CFI (cfiCond19) V3 load(1, XDATA, add(CFA_XSP16, literal(-7)))
          CFI (cfiCond19) R7 load(1, XDATA, add(CFA_XSP16, literal(-6)))
          CFI (cfiCond19) ?RET_LOW load(1, XDATA, add(CFA_XSP16, literal(-5)))
          CFI (cfiCond19) ?RET_HIGH load(1, XDATA, add(CFA_XSP16, literal(-4)))
          CFI (cfiCond19) ?BRET_EXT load(1, XDATA, add(CFA_XSP16, literal(-3)))
          CFI (cfiCond19) DPL0 load(1, XDATA, add(CFA_XSP16, literal(-2)))
          CFI (cfiCond19) DPH0 load(1, XDATA, add(CFA_XSP16, literal(-1)))
          CFI (cfiCond19) CFA_XSP16 add(XSP16, 68)
          CFI Block cfiCond20 Using cfiCommon0
          CFI (cfiCond20) Function zclZEM_ReadAndSendMAC
          CFI (cfiCond20) Conditional ??CrossCallReturnLabel_37
          CFI (cfiCond20) R6 load(1, XDATA, add(CFA_XSP16, literal(-12)))
          CFI (cfiCond20) VB load(1, XDATA, add(CFA_XSP16, literal(-11)))
          CFI (cfiCond20) V0 load(1, XDATA, add(CFA_XSP16, literal(-10)))
          CFI (cfiCond20) V1 load(1, XDATA, add(CFA_XSP16, literal(-9)))
          CFI (cfiCond20) V2 load(1, XDATA, add(CFA_XSP16, literal(-8)))
          CFI (cfiCond20) V3 load(1, XDATA, add(CFA_XSP16, literal(-7)))
          CFI (cfiCond20) R7 load(1, XDATA, add(CFA_XSP16, literal(-6)))
          CFI (cfiCond20) ?RET_LOW load(1, XDATA, add(CFA_XSP16, literal(-5)))
          CFI (cfiCond20) ?RET_HIGH load(1, XDATA, add(CFA_XSP16, literal(-4)))
          CFI (cfiCond20) ?BRET_EXT load(1, XDATA, add(CFA_XSP16, literal(-3)))
          CFI (cfiCond20) DPL0 load(1, XDATA, add(CFA_XSP16, literal(-2)))
          CFI (cfiCond20) DPH0 load(1, XDATA, add(CFA_XSP16, literal(-1)))
          CFI (cfiCond20) CFA_SP SP+-2
          CFI (cfiCond20) CFA_XSP16 add(XSP16, 68)
          CFI Block cfiCond21 Using cfiCommon0
          CFI (cfiCond21) Function zclZEM_event_loop
          CFI (cfiCond21) Conditional ??CrossCallReturnLabel_38, ??CrossCallReturnLabel_19
          CFI (cfiCond21) R6 load(1, XDATA, add(CFA_XSP16, literal(-15)))
          CFI (cfiCond21) VB load(1, XDATA, add(CFA_XSP16, literal(-14)))
          CFI (cfiCond21) V0 load(1, XDATA, add(CFA_XSP16, literal(-13)))
          CFI (cfiCond21) V1 load(1, XDATA, add(CFA_XSP16, literal(-12)))
          CFI (cfiCond21) V2 load(1, XDATA, add(CFA_XSP16, literal(-11)))
          CFI (cfiCond21) V3 load(1, XDATA, add(CFA_XSP16, literal(-10)))
          CFI (cfiCond21) V4 load(1, XDATA, add(CFA_XSP16, literal(-9)))
          CFI (cfiCond21) V5 load(1, XDATA, add(CFA_XSP16, literal(-8)))
          CFI (cfiCond21) V6 load(1, XDATA, add(CFA_XSP16, literal(-7)))
          CFI (cfiCond21) R7 load(1, XDATA, add(CFA_XSP16, literal(-6)))
          CFI (cfiCond21) ?RET_LOW load(1, XDATA, add(CFA_XSP16, literal(-5)))
          CFI (cfiCond21) ?RET_HIGH load(1, XDATA, add(CFA_XSP16, literal(-4)))
          CFI (cfiCond21) ?BRET_EXT load(1, XDATA, add(CFA_XSP16, literal(-3)))
          CFI (cfiCond21) DPL0 load(1, XDATA, add(CFA_XSP16, literal(-2)))
          CFI (cfiCond21) DPH0 load(1, XDATA, add(CFA_XSP16, literal(-1)))
          CFI (cfiCond21) CFA_SP SP+-4
          CFI (cfiCond21) CFA_XSP16 add(XSP16, 269)
          CFI Block cfiCond22 Using cfiCommon0
          CFI (cfiCond22) Function zclZEM_ReadAndSendMAC
          CFI (cfiCond22) Conditional ??CrossCallReturnLabel_38, ??CrossCallReturnLabel_20
          CFI (cfiCond22) R6 load(1, XDATA, add(CFA_XSP16, literal(-12)))
          CFI (cfiCond22) VB load(1, XDATA, add(CFA_XSP16, literal(-11)))
          CFI (cfiCond22) V0 load(1, XDATA, add(CFA_XSP16, literal(-10)))
          CFI (cfiCond22) V1 load(1, XDATA, add(CFA_XSP16, literal(-9)))
          CFI (cfiCond22) V2 load(1, XDATA, add(CFA_XSP16, literal(-8)))
          CFI (cfiCond22) V3 load(1, XDATA, add(CFA_XSP16, literal(-7)))
          CFI (cfiCond22) R7 load(1, XDATA, add(CFA_XSP16, literal(-6)))
          CFI (cfiCond22) ?RET_LOW load(1, XDATA, add(CFA_XSP16, literal(-5)))
          CFI (cfiCond22) ?RET_HIGH load(1, XDATA, add(CFA_XSP16, literal(-4)))
          CFI (cfiCond22) ?BRET_EXT load(1, XDATA, add(CFA_XSP16, literal(-3)))
          CFI (cfiCond22) DPL0 load(1, XDATA, add(CFA_XSP16, literal(-2)))
          CFI (cfiCond22) DPH0 load(1, XDATA, add(CFA_XSP16, literal(-1)))
          CFI (cfiCond22) CFA_SP SP+-4
          CFI (cfiCond22) CFA_XSP16 add(XSP16, 68)
          CFI Block cfiCond23 Using cfiCommon0
          CFI (cfiCond23) Function zclZEM_event_loop
          CFI (cfiCond23) Conditional ??CrossCallReturnLabel_42, ??CrossCallReturnLabel_28
          CFI (cfiCond23) R6 load(1, XDATA, add(CFA_XSP16, literal(-15)))
          CFI (cfiCond23) VB load(1, XDATA, add(CFA_XSP16, literal(-14)))
          CFI (cfiCond23) V0 load(1, XDATA, add(CFA_XSP16, literal(-13)))
          CFI (cfiCond23) V1 load(1, XDATA, add(CFA_XSP16, literal(-12)))
          CFI (cfiCond23) V2 load(1, XDATA, add(CFA_XSP16, literal(-11)))
          CFI (cfiCond23) V3 load(1, XDATA, add(CFA_XSP16, literal(-10)))
          CFI (cfiCond23) V4 load(1, XDATA, add(CFA_XSP16, literal(-9)))
          CFI (cfiCond23) V5 load(1, XDATA, add(CFA_XSP16, literal(-8)))
          CFI (cfiCond23) V6 load(1, XDATA, add(CFA_XSP16, literal(-7)))
          CFI (cfiCond23) R7 load(1, XDATA, add(CFA_XSP16, literal(-6)))
          CFI (cfiCond23) ?RET_LOW load(1, XDATA, add(CFA_XSP16, literal(-5)))
          CFI (cfiCond23) ?RET_HIGH load(1, XDATA, add(CFA_XSP16, literal(-4)))
          CFI (cfiCond23) ?BRET_EXT load(1, XDATA, add(CFA_XSP16, literal(-3)))
          CFI (cfiCond23) DPL0 load(1, XDATA, add(CFA_XSP16, literal(-2)))
          CFI (cfiCond23) DPH0 load(1, XDATA, add(CFA_XSP16, literal(-1)))
          CFI (cfiCond23) CFA_SP SP+-5
          CFI (cfiCond23) CFA_XSP16 add(XSP16, 269)
          CFI Block cfiCond24 Using cfiCommon0
          CFI (cfiCond24) Function zclZEM_event_loop
          CFI (cfiCond24) Conditional ??CrossCallReturnLabel_42, ??CrossCallReturnLabel_29
          CFI (cfiCond24) R6 load(1, XDATA, add(CFA_XSP16, literal(-15)))
          CFI (cfiCond24) VB load(1, XDATA, add(CFA_XSP16, literal(-14)))
          CFI (cfiCond24) V0 load(1, XDATA, add(CFA_XSP16, literal(-13)))
          CFI (cfiCond24) V1 load(1, XDATA, add(CFA_XSP16, literal(-12)))
          CFI (cfiCond24) V2 load(1, XDATA, add(CFA_XSP16, literal(-11)))
          CFI (cfiCond24) V3 load(1, XDATA, add(CFA_XSP16, literal(-10)))
          CFI (cfiCond24) V4 load(1, XDATA, add(CFA_XSP16, literal(-9)))
          CFI (cfiCond24) V5 load(1, XDATA, add(CFA_XSP16, literal(-8)))
          CFI (cfiCond24) V6 load(1, XDATA, add(CFA_XSP16, literal(-7)))
          CFI (cfiCond24) R7 load(1, XDATA, add(CFA_XSP16, literal(-6)))
          CFI (cfiCond24) ?RET_LOW load(1, XDATA, add(CFA_XSP16, literal(-5)))
          CFI (cfiCond24) ?RET_HIGH load(1, XDATA, add(CFA_XSP16, literal(-4)))
          CFI (cfiCond24) ?BRET_EXT load(1, XDATA, add(CFA_XSP16, literal(-3)))
          CFI (cfiCond24) DPL0 load(1, XDATA, add(CFA_XSP16, literal(-2)))
          CFI (cfiCond24) DPH0 load(1, XDATA, add(CFA_XSP16, literal(-1)))
          CFI (cfiCond24) CFA_SP SP+-5
          CFI (cfiCond24) CFA_XSP16 add(XSP16, 269)
          CFI Block cfiCond25 Using cfiCommon0
          CFI (cfiCond25) Function zclZEM_event_loop
          CFI (cfiCond25) Conditional ??CrossCallReturnLabel_42, ??CrossCallReturnLabel_30
          CFI (cfiCond25) R6 load(1, XDATA, add(CFA_XSP16, literal(-15)))
          CFI (cfiCond25) VB load(1, XDATA, add(CFA_XSP16, literal(-14)))
          CFI (cfiCond25) V0 load(1, XDATA, add(CFA_XSP16, literal(-13)))
          CFI (cfiCond25) V1 load(1, XDATA, add(CFA_XSP16, literal(-12)))
          CFI (cfiCond25) V2 load(1, XDATA, add(CFA_XSP16, literal(-11)))
          CFI (cfiCond25) V3 load(1, XDATA, add(CFA_XSP16, literal(-10)))
          CFI (cfiCond25) V4 load(1, XDATA, add(CFA_XSP16, literal(-9)))
          CFI (cfiCond25) V5 load(1, XDATA, add(CFA_XSP16, literal(-8)))
          CFI (cfiCond25) V6 load(1, XDATA, add(CFA_XSP16, literal(-7)))
          CFI (cfiCond25) R7 load(1, XDATA, add(CFA_XSP16, literal(-6)))
          CFI (cfiCond25) ?RET_LOW load(1, XDATA, add(CFA_XSP16, literal(-5)))
          CFI (cfiCond25) ?RET_HIGH load(1, XDATA, add(CFA_XSP16, literal(-4)))
          CFI (cfiCond25) ?BRET_EXT load(1, XDATA, add(CFA_XSP16, literal(-3)))
          CFI (cfiCond25) DPL0 load(1, XDATA, add(CFA_XSP16, literal(-2)))
          CFI (cfiCond25) DPH0 load(1, XDATA, add(CFA_XSP16, literal(-1)))
          CFI (cfiCond25) CFA_SP SP+-5
          CFI (cfiCond25) CFA_XSP16 add(XSP16, 269)
          CFI Block cfiCond26 Using cfiCommon0
          CFI (cfiCond26) Function zclZEM_event_loop
          CFI (cfiCond26) Conditional ??CrossCallReturnLabel_39, ??CrossCallReturnLabel_21
          CFI (cfiCond26) R6 load(1, XDATA, add(CFA_XSP16, literal(-15)))
          CFI (cfiCond26) VB load(1, XDATA, add(CFA_XSP16, literal(-14)))
          CFI (cfiCond26) V0 load(1, XDATA, add(CFA_XSP16, literal(-13)))
          CFI (cfiCond26) V1 load(1, XDATA, add(CFA_XSP16, literal(-12)))
          CFI (cfiCond26) V2 load(1, XDATA, add(CFA_XSP16, literal(-11)))
          CFI (cfiCond26) V3 load(1, XDATA, add(CFA_XSP16, literal(-10)))
          CFI (cfiCond26) V4 load(1, XDATA, add(CFA_XSP16, literal(-9)))
          CFI (cfiCond26) V5 load(1, XDATA, add(CFA_XSP16, literal(-8)))
          CFI (cfiCond26) V6 load(1, XDATA, add(CFA_XSP16, literal(-7)))
          CFI (cfiCond26) R7 load(1, XDATA, add(CFA_XSP16, literal(-6)))
          CFI (cfiCond26) ?RET_LOW load(1, XDATA, add(CFA_XSP16, literal(-5)))
          CFI (cfiCond26) ?RET_HIGH load(1, XDATA, add(CFA_XSP16, literal(-4)))
          CFI (cfiCond26) ?BRET_EXT load(1, XDATA, add(CFA_XSP16, literal(-3)))
          CFI (cfiCond26) DPL0 load(1, XDATA, add(CFA_XSP16, literal(-2)))
          CFI (cfiCond26) DPH0 load(1, XDATA, add(CFA_XSP16, literal(-1)))
          CFI (cfiCond26) CFA_SP SP+-4
          CFI (cfiCond26) CFA_XSP16 add(XSP16, 269)
          CFI Block cfiCond27 Using cfiCommon0
          CFI (cfiCond27) Function zclZEM_event_loop
          CFI (cfiCond27) Conditional ??CrossCallReturnLabel_39, ??CrossCallReturnLabel_22
          CFI (cfiCond27) R6 load(1, XDATA, add(CFA_XSP16, literal(-15)))
          CFI (cfiCond27) VB load(1, XDATA, add(CFA_XSP16, literal(-14)))
          CFI (cfiCond27) V0 load(1, XDATA, add(CFA_XSP16, literal(-13)))
          CFI (cfiCond27) V1 load(1, XDATA, add(CFA_XSP16, literal(-12)))
          CFI (cfiCond27) V2 load(1, XDATA, add(CFA_XSP16, literal(-11)))
          CFI (cfiCond27) V3 load(1, XDATA, add(CFA_XSP16, literal(-10)))
          CFI (cfiCond27) V4 load(1, XDATA, add(CFA_XSP16, literal(-9)))
          CFI (cfiCond27) V5 load(1, XDATA, add(CFA_XSP16, literal(-8)))
          CFI (cfiCond27) V6 load(1, XDATA, add(CFA_XSP16, literal(-7)))
          CFI (cfiCond27) R7 load(1, XDATA, add(CFA_XSP16, literal(-6)))
          CFI (cfiCond27) ?RET_LOW load(1, XDATA, add(CFA_XSP16, literal(-5)))
          CFI (cfiCond27) ?RET_HIGH load(1, XDATA, add(CFA_XSP16, literal(-4)))
          CFI (cfiCond27) ?BRET_EXT load(1, XDATA, add(CFA_XSP16, literal(-3)))
          CFI (cfiCond27) DPL0 load(1, XDATA, add(CFA_XSP16, literal(-2)))
          CFI (cfiCond27) DPH0 load(1, XDATA, add(CFA_XSP16, literal(-1)))
          CFI (cfiCond27) CFA_SP SP+-4
          CFI (cfiCond27) CFA_XSP16 add(XSP16, 269)
          CFI Block cfiCond28 Using cfiCommon0
          CFI (cfiCond28) Function zclZEM_event_loop
          CFI (cfiCond28) Conditional ??CrossCallReturnLabel_39, ??CrossCallReturnLabel_23
          CFI (cfiCond28) R6 load(1, XDATA, add(CFA_XSP16, literal(-15)))
          CFI (cfiCond28) VB load(1, XDATA, add(CFA_XSP16, literal(-14)))
          CFI (cfiCond28) V0 load(1, XDATA, add(CFA_XSP16, literal(-13)))
          CFI (cfiCond28) V1 load(1, XDATA, add(CFA_XSP16, literal(-12)))
          CFI (cfiCond28) V2 load(1, XDATA, add(CFA_XSP16, literal(-11)))
          CFI (cfiCond28) V3 load(1, XDATA, add(CFA_XSP16, literal(-10)))
          CFI (cfiCond28) V4 load(1, XDATA, add(CFA_XSP16, literal(-9)))
          CFI (cfiCond28) V5 load(1, XDATA, add(CFA_XSP16, literal(-8)))
          CFI (cfiCond28) V6 load(1, XDATA, add(CFA_XSP16, literal(-7)))
          CFI (cfiCond28) R7 load(1, XDATA, add(CFA_XSP16, literal(-6)))
          CFI (cfiCond28) ?RET_LOW load(1, XDATA, add(CFA_XSP16, literal(-5)))
          CFI (cfiCond28) ?RET_HIGH load(1, XDATA, add(CFA_XSP16, literal(-4)))
          CFI (cfiCond28) ?BRET_EXT load(1, XDATA, add(CFA_XSP16, literal(-3)))
          CFI (cfiCond28) DPL0 load(1, XDATA, add(CFA_XSP16, literal(-2)))
          CFI (cfiCond28) DPH0 load(1, XDATA, add(CFA_XSP16, literal(-1)))
          CFI (cfiCond28) CFA_SP SP+-4
          CFI (cfiCond28) CFA_XSP16 add(XSP16, 269)
          CFI Block cfiCond29 Using cfiCommon0
          CFI (cfiCond29) Function zclZEM_event_loop
          CFI (cfiCond29) Conditional ??CrossCallReturnLabel_41, ??CrossCallReturnLabel_26
          CFI (cfiCond29) R6 load(1, XDATA, add(CFA_XSP16, literal(-15)))
          CFI (cfiCond29) VB load(1, XDATA, add(CFA_XSP16, literal(-14)))
          CFI (cfiCond29) V0 load(1, XDATA, add(CFA_XSP16, literal(-13)))
          CFI (cfiCond29) V1 load(1, XDATA, add(CFA_XSP16, literal(-12)))
          CFI (cfiCond29) V2 load(1, XDATA, add(CFA_XSP16, literal(-11)))
          CFI (cfiCond29) V3 load(1, XDATA, add(CFA_XSP16, literal(-10)))
          CFI (cfiCond29) V4 load(1, XDATA, add(CFA_XSP16, literal(-9)))
          CFI (cfiCond29) V5 load(1, XDATA, add(CFA_XSP16, literal(-8)))
          CFI (cfiCond29) V6 load(1, XDATA, add(CFA_XSP16, literal(-7)))
          CFI (cfiCond29) R7 load(1, XDATA, add(CFA_XSP16, literal(-6)))
          CFI (cfiCond29) ?RET_LOW load(1, XDATA, add(CFA_XSP16, literal(-5)))
          CFI (cfiCond29) ?RET_HIGH load(1, XDATA, add(CFA_XSP16, literal(-4)))
          CFI (cfiCond29) ?BRET_EXT load(1, XDATA, add(CFA_XSP16, literal(-3)))
          CFI (cfiCond29) DPL0 load(1, XDATA, add(CFA_XSP16, literal(-2)))
          CFI (cfiCond29) DPH0 load(1, XDATA, add(CFA_XSP16, literal(-1)))
          CFI (cfiCond29) CFA_SP SP+-4
          CFI (cfiCond29) CFA_XSP16 add(XSP16, 269)
          CFI Block cfiCond30 Using cfiCommon0
          CFI (cfiCond30) Function zclZEM_ReadAndSendMAC
          CFI (cfiCond30) Conditional ??CrossCallReturnLabel_41, ??CrossCallReturnLabel_27
          CFI (cfiCond30) R6 load(1, XDATA, add(CFA_XSP16, literal(-12)))
          CFI (cfiCond30) VB load(1, XDATA, add(CFA_XSP16, literal(-11)))
          CFI (cfiCond30) V0 load(1, XDATA, add(CFA_XSP16, literal(-10)))
          CFI (cfiCond30) V1 load(1, XDATA, add(CFA_XSP16, literal(-9)))
          CFI (cfiCond30) V2 load(1, XDATA, add(CFA_XSP16, literal(-8)))
          CFI (cfiCond30) V3 load(1, XDATA, add(CFA_XSP16, literal(-7)))
          CFI (cfiCond30) R7 load(1, XDATA, add(CFA_XSP16, literal(-6)))
          CFI (cfiCond30) ?RET_LOW load(1, XDATA, add(CFA_XSP16, literal(-5)))
          CFI (cfiCond30) ?RET_HIGH load(1, XDATA, add(CFA_XSP16, literal(-4)))
          CFI (cfiCond30) ?BRET_EXT load(1, XDATA, add(CFA_XSP16, literal(-3)))
          CFI (cfiCond30) DPL0 load(1, XDATA, add(CFA_XSP16, literal(-2)))
          CFI (cfiCond30) DPH0 load(1, XDATA, add(CFA_XSP16, literal(-1)))
          CFI (cfiCond30) CFA_SP SP+-4
          CFI (cfiCond30) CFA_XSP16 add(XSP16, 68)
          CFI Block cfiCond31 Using cfiCommon0
          CFI (cfiCond31) Function zclZEM_event_loop
          CFI (cfiCond31) Conditional ??CrossCallReturnLabel_40, ??CrossCallReturnLabel_24
          CFI (cfiCond31) R6 load(1, XDATA, add(CFA_XSP16, literal(-15)))
          CFI (cfiCond31) VB load(1, XDATA, add(CFA_XSP16, literal(-14)))
          CFI (cfiCond31) V0 load(1, XDATA, add(CFA_XSP16, literal(-13)))
          CFI (cfiCond31) V1 load(1, XDATA, add(CFA_XSP16, literal(-12)))
          CFI (cfiCond31) V2 load(1, XDATA, add(CFA_XSP16, literal(-11)))
          CFI (cfiCond31) V3 load(1, XDATA, add(CFA_XSP16, literal(-10)))
          CFI (cfiCond31) V4 load(1, XDATA, add(CFA_XSP16, literal(-9)))
          CFI (cfiCond31) V5 load(1, XDATA, add(CFA_XSP16, literal(-8)))
          CFI (cfiCond31) V6 load(1, XDATA, add(CFA_XSP16, literal(-7)))
          CFI (cfiCond31) R7 load(1, XDATA, add(CFA_XSP16, literal(-6)))
          CFI (cfiCond31) ?RET_LOW load(1, XDATA, add(CFA_XSP16, literal(-5)))
          CFI (cfiCond31) ?RET_HIGH load(1, XDATA, add(CFA_XSP16, literal(-4)))
          CFI (cfiCond31) ?BRET_EXT load(1, XDATA, add(CFA_XSP16, literal(-3)))
          CFI (cfiCond31) DPL0 load(1, XDATA, add(CFA_XSP16, literal(-2)))
          CFI (cfiCond31) DPH0 load(1, XDATA, add(CFA_XSP16, literal(-1)))
          CFI (cfiCond31) CFA_SP SP+-4
          CFI (cfiCond31) CFA_XSP16 add(XSP16, 269)
          CFI Block cfiCond32 Using cfiCommon0
          CFI (cfiCond32) Function zclZEM_ReadAndSendMAC
          CFI (cfiCond32) Conditional ??CrossCallReturnLabel_40, ??CrossCallReturnLabel_25
          CFI (cfiCond32) R6 load(1, XDATA, add(CFA_XSP16, literal(-12)))
          CFI (cfiCond32) VB load(1, XDATA, add(CFA_XSP16, literal(-11)))
          CFI (cfiCond32) V0 load(1, XDATA, add(CFA_XSP16, literal(-10)))
          CFI (cfiCond32) V1 load(1, XDATA, add(CFA_XSP16, literal(-9)))
          CFI (cfiCond32) V2 load(1, XDATA, add(CFA_XSP16, literal(-8)))
          CFI (cfiCond32) V3 load(1, XDATA, add(CFA_XSP16, literal(-7)))
          CFI (cfiCond32) R7 load(1, XDATA, add(CFA_XSP16, literal(-6)))
          CFI (cfiCond32) ?RET_LOW load(1, XDATA, add(CFA_XSP16, literal(-5)))
          CFI (cfiCond32) ?RET_HIGH load(1, XDATA, add(CFA_XSP16, literal(-4)))
          CFI (cfiCond32) ?BRET_EXT load(1, XDATA, add(CFA_XSP16, literal(-3)))
          CFI (cfiCond32) DPL0 load(1, XDATA, add(CFA_XSP16, literal(-2)))
          CFI (cfiCond32) DPH0 load(1, XDATA, add(CFA_XSP16, literal(-1)))
          CFI (cfiCond32) CFA_SP SP+-4
          CFI (cfiCond32) CFA_XSP16 add(XSP16, 68)
          CFI Block cfiPicker33 Using cfiCommon1
          CFI (cfiPicker33) NoFunction
          CFI (cfiPicker33) Picker
        MOV       DPL,A
        CLR       A
        ADDC      A,DPH
        MOV       DPH,A
        RET
          CFI EndBlock cfiCond18
          CFI EndBlock cfiCond19
          CFI EndBlock cfiCond20
          CFI EndBlock cfiCond21
          CFI EndBlock cfiCond22
          CFI EndBlock cfiCond23
          CFI EndBlock cfiCond24
          CFI EndBlock cfiCond25
          CFI EndBlock cfiCond26
          CFI EndBlock cfiCond27
          CFI EndBlock cfiCond28
          CFI EndBlock cfiCond29
          CFI EndBlock cfiCond30
          CFI EndBlock cfiCond31
          CFI EndBlock cfiCond32
          CFI EndBlock cfiPicker33

        RSEG BANKED_CODE:HUGECODE:NOROOT(0)
?Subroutine15:
          CFI Block cfiCond34 Using cfiCommon0
          CFI Function zclZEM_event_loop
          CFI Conditional ??CrossCallReturnLabel_21
          CFI R6 load(1, XDATA, add(CFA_XSP16, literal(-15)))
          CFI VB load(1, XDATA, add(CFA_XSP16, literal(-14)))
          CFI V0 load(1, XDATA, add(CFA_XSP16, literal(-13)))
          CFI V1 load(1, XDATA, add(CFA_XSP16, literal(-12)))
          CFI V2 load(1, XDATA, add(CFA_XSP16, literal(-11)))
          CFI V3 load(1, XDATA, add(CFA_XSP16, literal(-10)))
          CFI V4 load(1, XDATA, add(CFA_XSP16, literal(-9)))
          CFI V5 load(1, XDATA, add(CFA_XSP16, literal(-8)))
          CFI V6 load(1, XDATA, add(CFA_XSP16, literal(-7)))
          CFI R7 load(1, XDATA, add(CFA_XSP16, literal(-6)))
          CFI ?RET_LOW load(1, XDATA, add(CFA_XSP16, literal(-5)))
          CFI ?RET_HIGH load(1, XDATA, add(CFA_XSP16, literal(-4)))
          CFI ?BRET_EXT load(1, XDATA, add(CFA_XSP16, literal(-3)))
          CFI DPL0 load(1, XDATA, add(CFA_XSP16, literal(-2)))
          CFI DPH0 load(1, XDATA, add(CFA_XSP16, literal(-1)))
          CFI CFA_SP SP+-2
          CFI CFA_XSP16 add(XSP16, 269)
          CFI Block cfiCond35 Using cfiCommon0
          CFI (cfiCond35) Function zclZEM_event_loop
          CFI (cfiCond35) Conditional ??CrossCallReturnLabel_22
          CFI (cfiCond35) R6 load(1, XDATA, add(CFA_XSP16, literal(-15)))
          CFI (cfiCond35) VB load(1, XDATA, add(CFA_XSP16, literal(-14)))
          CFI (cfiCond35) V0 load(1, XDATA, add(CFA_XSP16, literal(-13)))
          CFI (cfiCond35) V1 load(1, XDATA, add(CFA_XSP16, literal(-12)))
          CFI (cfiCond35) V2 load(1, XDATA, add(CFA_XSP16, literal(-11)))
          CFI (cfiCond35) V3 load(1, XDATA, add(CFA_XSP16, literal(-10)))
          CFI (cfiCond35) V4 load(1, XDATA, add(CFA_XSP16, literal(-9)))
          CFI (cfiCond35) V5 load(1, XDATA, add(CFA_XSP16, literal(-8)))
          CFI (cfiCond35) V6 load(1, XDATA, add(CFA_XSP16, literal(-7)))
          CFI (cfiCond35) R7 load(1, XDATA, add(CFA_XSP16, literal(-6)))
          CFI (cfiCond35) ?RET_LOW load(1, XDATA, add(CFA_XSP16, literal(-5)))
          CFI (cfiCond35) ?RET_HIGH load(1, XDATA, add(CFA_XSP16, literal(-4)))
          CFI (cfiCond35) ?BRET_EXT load(1, XDATA, add(CFA_XSP16, literal(-3)))
          CFI (cfiCond35) DPL0 load(1, XDATA, add(CFA_XSP16, literal(-2)))
          CFI (cfiCond35) DPH0 load(1, XDATA, add(CFA_XSP16, literal(-1)))
          CFI (cfiCond35) CFA_SP SP+-2
          CFI (cfiCond35) CFA_XSP16 add(XSP16, 269)
          CFI Block cfiCond36 Using cfiCommon0
          CFI (cfiCond36) Function zclZEM_event_loop
          CFI (cfiCond36) Conditional ??CrossCallReturnLabel_23
          CFI (cfiCond36) R6 load(1, XDATA, add(CFA_XSP16, literal(-15)))
          CFI (cfiCond36) VB load(1, XDATA, add(CFA_XSP16, literal(-14)))
          CFI (cfiCond36) V0 load(1, XDATA, add(CFA_XSP16, literal(-13)))
          CFI (cfiCond36) V1 load(1, XDATA, add(CFA_XSP16, literal(-12)))
          CFI (cfiCond36) V2 load(1, XDATA, add(CFA_XSP16, literal(-11)))
          CFI (cfiCond36) V3 load(1, XDATA, add(CFA_XSP16, literal(-10)))
          CFI (cfiCond36) V4 load(1, XDATA, add(CFA_XSP16, literal(-9)))
          CFI (cfiCond36) V5 load(1, XDATA, add(CFA_XSP16, literal(-8)))
          CFI (cfiCond36) V6 load(1, XDATA, add(CFA_XSP16, literal(-7)))
          CFI (cfiCond36) R7 load(1, XDATA, add(CFA_XSP16, literal(-6)))
          CFI (cfiCond36) ?RET_LOW load(1, XDATA, add(CFA_XSP16, literal(-5)))
          CFI (cfiCond36) ?RET_HIGH load(1, XDATA, add(CFA_XSP16, literal(-4)))
          CFI (cfiCond36) ?BRET_EXT load(1, XDATA, add(CFA_XSP16, literal(-3)))
          CFI (cfiCond36) DPL0 load(1, XDATA, add(CFA_XSP16, literal(-2)))
          CFI (cfiCond36) DPH0 load(1, XDATA, add(CFA_XSP16, literal(-1)))
          CFI (cfiCond36) CFA_SP SP+-2
          CFI (cfiCond36) CFA_XSP16 add(XSP16, 269)
          CFI Block cfiPicker37 Using cfiCommon1
          CFI (cfiPicker37) NoFunction
          CFI (cfiPicker37) Picker
        LCALL     ?Subroutine22 & 0xFFFF
??CrossCallReturnLabel_39:
        MOVX      A,@DPTR
        RET
          CFI EndBlock cfiCond34
          CFI EndBlock cfiCond35
          CFI EndBlock cfiCond36
          CFI EndBlock cfiPicker37

        RSEG BANKED_CODE:HUGECODE:NOROOT(0)
?Subroutine7:
          CFI Block cfiCond38 Using cfiCommon0
          CFI Function zclZEM_event_loop
          CFI Conditional ??CrossCallReturnLabel_7
          CFI R6 load(1, XDATA, add(CFA_XSP16, literal(-15)))
          CFI VB load(1, XDATA, add(CFA_XSP16, literal(-14)))
          CFI V0 load(1, XDATA, add(CFA_XSP16, literal(-13)))
          CFI V1 load(1, XDATA, add(CFA_XSP16, literal(-12)))
          CFI V2 load(1, XDATA, add(CFA_XSP16, literal(-11)))
          CFI V3 load(1, XDATA, add(CFA_XSP16, literal(-10)))
          CFI V4 load(1, XDATA, add(CFA_XSP16, literal(-9)))
          CFI V5 load(1, XDATA, add(CFA_XSP16, literal(-8)))
          CFI V6 load(1, XDATA, add(CFA_XSP16, literal(-7)))
          CFI R7 load(1, XDATA, add(CFA_XSP16, literal(-6)))
          CFI ?RET_LOW load(1, XDATA, add(CFA_XSP16, literal(-5)))
          CFI ?RET_HIGH load(1, XDATA, add(CFA_XSP16, literal(-4)))
          CFI ?BRET_EXT load(1, XDATA, add(CFA_XSP16, literal(-3)))
          CFI DPL0 load(1, XDATA, add(CFA_XSP16, literal(-2)))
          CFI DPH0 load(1, XDATA, add(CFA_XSP16, literal(-1)))
          CFI CFA_SP SP+-2
          CFI CFA_XSP16 add(XSP16, 269)
          CFI Block cfiCond39 Using cfiCommon0
          CFI (cfiCond39) Function zclZEM_event_loop
          CFI (cfiCond39) Conditional ??CrossCallReturnLabel_8
          CFI (cfiCond39) R6 load(1, XDATA, add(CFA_XSP16, literal(-15)))
          CFI (cfiCond39) VB load(1, XDATA, add(CFA_XSP16, literal(-14)))
          CFI (cfiCond39) V0 load(1, XDATA, add(CFA_XSP16, literal(-13)))
          CFI (cfiCond39) V1 load(1, XDATA, add(CFA_XSP16, literal(-12)))
          CFI (cfiCond39) V2 load(1, XDATA, add(CFA_XSP16, literal(-11)))
          CFI (cfiCond39) V3 load(1, XDATA, add(CFA_XSP16, literal(-10)))
          CFI (cfiCond39) V4 load(1, XDATA, add(CFA_XSP16, literal(-9)))
          CFI (cfiCond39) V5 load(1, XDATA, add(CFA_XSP16, literal(-8)))
          CFI (cfiCond39) V6 load(1, XDATA, add(CFA_XSP16, literal(-7)))
          CFI (cfiCond39) R7 load(1, XDATA, add(CFA_XSP16, literal(-6)))
          CFI (cfiCond39) ?RET_LOW load(1, XDATA, add(CFA_XSP16, literal(-5)))
          CFI (cfiCond39) ?RET_HIGH load(1, XDATA, add(CFA_XSP16, literal(-4)))
          CFI (cfiCond39) ?BRET_EXT load(1, XDATA, add(CFA_XSP16, literal(-3)))
          CFI (cfiCond39) DPL0 load(1, XDATA, add(CFA_XSP16, literal(-2)))
          CFI (cfiCond39) DPH0 load(1, XDATA, add(CFA_XSP16, literal(-1)))
          CFI (cfiCond39) CFA_SP SP+-2
          CFI (cfiCond39) CFA_XSP16 add(XSP16, 269)
          CFI Block cfiCond40 Using cfiCommon0
          CFI (cfiCond40) Function zclZEM_event_loop
          CFI (cfiCond40) Conditional ??CrossCallReturnLabel_9
          CFI (cfiCond40) R6 load(1, XDATA, add(CFA_XSP16, literal(-15)))
          CFI (cfiCond40) VB load(1, XDATA, add(CFA_XSP16, literal(-14)))
          CFI (cfiCond40) V0 load(1, XDATA, add(CFA_XSP16, literal(-13)))
          CFI (cfiCond40) V1 load(1, XDATA, add(CFA_XSP16, literal(-12)))
          CFI (cfiCond40) V2 load(1, XDATA, add(CFA_XSP16, literal(-11)))
          CFI (cfiCond40) V3 load(1, XDATA, add(CFA_XSP16, literal(-10)))
          CFI (cfiCond40) V4 load(1, XDATA, add(CFA_XSP16, literal(-9)))
          CFI (cfiCond40) V5 load(1, XDATA, add(CFA_XSP16, literal(-8)))
          CFI (cfiCond40) V6 load(1, XDATA, add(CFA_XSP16, literal(-7)))
          CFI (cfiCond40) R7 load(1, XDATA, add(CFA_XSP16, literal(-6)))
          CFI (cfiCond40) ?RET_LOW load(1, XDATA, add(CFA_XSP16, literal(-5)))
          CFI (cfiCond40) ?RET_HIGH load(1, XDATA, add(CFA_XSP16, literal(-4)))
          CFI (cfiCond40) ?BRET_EXT load(1, XDATA, add(CFA_XSP16, literal(-3)))
          CFI (cfiCond40) DPL0 load(1, XDATA, add(CFA_XSP16, literal(-2)))
          CFI (cfiCond40) DPH0 load(1, XDATA, add(CFA_XSP16, literal(-1)))
          CFI (cfiCond40) CFA_SP SP+-2
          CFI (cfiCond40) CFA_XSP16 add(XSP16, 269)
          CFI Block cfiPicker41 Using cfiCommon1
          CFI (cfiPicker41) NoFunction
          CFI (cfiPicker41) Picker
        MOVX      A,@DPTR
        INC       A
        MOVX      @DPTR,A
        ; Setup parameters for call to function AF_DataRequest
        ; Setup parameters for call to function AF_DataRequest
        ; Setup parameters for call to function AF_DataRequest
        MOV       ?V2,#0x1e
        MOV       R0,#?V2
        RET
          CFI EndBlock cfiCond38
          CFI EndBlock cfiCond39
          CFI EndBlock cfiCond40
          CFI EndBlock cfiPicker41

        RSEG BANKED_CODE:HUGECODE:NOROOT(0)
?Subroutine5:
          CFI Block cfiCond42 Using cfiCommon0
          CFI Function zclZEM_event_loop
          CFI Conditional ??CrossCallReturnLabel_2
          CFI R6 load(1, XDATA, add(CFA_XSP16, literal(-15)))
          CFI VB load(1, XDATA, add(CFA_XSP16, literal(-14)))
          CFI V0 load(1, XDATA, add(CFA_XSP16, literal(-13)))
          CFI V1 load(1, XDATA, add(CFA_XSP16, literal(-12)))
          CFI V2 load(1, XDATA, add(CFA_XSP16, literal(-11)))
          CFI V3 load(1, XDATA, add(CFA_XSP16, literal(-10)))
          CFI V4 load(1, XDATA, add(CFA_XSP16, literal(-9)))
          CFI V5 load(1, XDATA, add(CFA_XSP16, literal(-8)))
          CFI V6 load(1, XDATA, add(CFA_XSP16, literal(-7)))
          CFI R7 load(1, XDATA, add(CFA_XSP16, literal(-6)))
          CFI ?RET_LOW load(1, XDATA, add(CFA_XSP16, literal(-5)))
          CFI ?RET_HIGH load(1, XDATA, add(CFA_XSP16, literal(-4)))
          CFI ?BRET_EXT load(1, XDATA, add(CFA_XSP16, literal(-3)))
          CFI DPL0 load(1, XDATA, add(CFA_XSP16, literal(-2)))
          CFI DPH0 load(1, XDATA, add(CFA_XSP16, literal(-1)))
          CFI CFA_SP SP+-2
          CFI CFA_XSP16 add(XSP16, 269)
          CFI Block cfiCond43 Using cfiCommon0
          CFI (cfiCond43) Function zclZEM_event_loop
          CFI (cfiCond43) Conditional ??CrossCallReturnLabel_3
          CFI (cfiCond43) R6 load(1, XDATA, add(CFA_XSP16, literal(-15)))
          CFI (cfiCond43) VB load(1, XDATA, add(CFA_XSP16, literal(-14)))
          CFI (cfiCond43) V0 load(1, XDATA, add(CFA_XSP16, literal(-13)))
          CFI (cfiCond43) V1 load(1, XDATA, add(CFA_XSP16, literal(-12)))
          CFI (cfiCond43) V2 load(1, XDATA, add(CFA_XSP16, literal(-11)))
          CFI (cfiCond43) V3 load(1, XDATA, add(CFA_XSP16, literal(-10)))
          CFI (cfiCond43) V4 load(1, XDATA, add(CFA_XSP16, literal(-9)))
          CFI (cfiCond43) V5 load(1, XDATA, add(CFA_XSP16, literal(-8)))
          CFI (cfiCond43) V6 load(1, XDATA, add(CFA_XSP16, literal(-7)))
          CFI (cfiCond43) R7 load(1, XDATA, add(CFA_XSP16, literal(-6)))
          CFI (cfiCond43) ?RET_LOW load(1, XDATA, add(CFA_XSP16, literal(-5)))
          CFI (cfiCond43) ?RET_HIGH load(1, XDATA, add(CFA_XSP16, literal(-4)))
          CFI (cfiCond43) ?BRET_EXT load(1, XDATA, add(CFA_XSP16, literal(-3)))
          CFI (cfiCond43) DPL0 load(1, XDATA, add(CFA_XSP16, literal(-2)))
          CFI (cfiCond43) DPH0 load(1, XDATA, add(CFA_XSP16, literal(-1)))
          CFI (cfiCond43) CFA_SP SP+-2
          CFI (cfiCond43) CFA_XSP16 add(XSP16, 269)
          CFI Block cfiCond44 Using cfiCommon0
          CFI (cfiCond44) Function zclZEM_event_loop
          CFI (cfiCond44) Conditional ??CrossCallReturnLabel_4
          CFI (cfiCond44) R6 load(1, XDATA, add(CFA_XSP16, literal(-15)))
          CFI (cfiCond44) VB load(1, XDATA, add(CFA_XSP16, literal(-14)))
          CFI (cfiCond44) V0 load(1, XDATA, add(CFA_XSP16, literal(-13)))
          CFI (cfiCond44) V1 load(1, XDATA, add(CFA_XSP16, literal(-12)))
          CFI (cfiCond44) V2 load(1, XDATA, add(CFA_XSP16, literal(-11)))
          CFI (cfiCond44) V3 load(1, XDATA, add(CFA_XSP16, literal(-10)))
          CFI (cfiCond44) V4 load(1, XDATA, add(CFA_XSP16, literal(-9)))
          CFI (cfiCond44) V5 load(1, XDATA, add(CFA_XSP16, literal(-8)))
          CFI (cfiCond44) V6 load(1, XDATA, add(CFA_XSP16, literal(-7)))
          CFI (cfiCond44) R7 load(1, XDATA, add(CFA_XSP16, literal(-6)))
          CFI (cfiCond44) ?RET_LOW load(1, XDATA, add(CFA_XSP16, literal(-5)))
          CFI (cfiCond44) ?RET_HIGH load(1, XDATA, add(CFA_XSP16, literal(-4)))
          CFI (cfiCond44) ?BRET_EXT load(1, XDATA, add(CFA_XSP16, literal(-3)))
          CFI (cfiCond44) DPL0 load(1, XDATA, add(CFA_XSP16, literal(-2)))
          CFI (cfiCond44) DPH0 load(1, XDATA, add(CFA_XSP16, literal(-1)))
          CFI (cfiCond44) CFA_SP SP+-2
          CFI (cfiCond44) CFA_XSP16 add(XSP16, 269)
          CFI Block cfiPicker45 Using cfiCommon1
          CFI (cfiPicker45) NoFunction
          CFI (cfiPicker45) Picker
        MOVX      @DPTR,A
        MOV       DPL,?XSP + 0
        MOV       DPH,?XSP + 1
        RET
          CFI EndBlock cfiCond42
          CFI EndBlock cfiCond43
          CFI EndBlock cfiCond44
          CFI EndBlock cfiPicker45

        RSEG XDATA_Z:XDATA:NOROOT(0)
        DATA8
??sendType:
        DS 1
        REQUIRE __INIT_XDATA_Z
//  441 
//  442 /*********************************************************************
//  443  * @fn      zclZEM_InitUart
//  444  *
//  445  * @brief   Initialize UART for communication
//  446  *
//  447  * @param   none
//  448  *
//  449  * @return  none
//  450  */
//  451 static void zclZEM_InitUart(void)
//  452 {
//  453   // 统一使用协调器的UART引脚配置（P1.4/P1.5）
//  454   /********** 1. 配置UART0的P1.4/P1.5和PERCFG寄存器 **********/
//  455   // PERCFG的bit0(U0CFG)设置为1：UART0映射到Alternative 2位置(P1.4/P1.5)
//  456   PERCFG |= (1 << 0);  // 配置PERCFG |= 0x01来设置相应的bit0
//  457 
//  458   /********** 2. 配置P1.4/P1.5为UART0功能和P1端口寄存器 **********/
//  459   // P1SEL的bit4(P1.4)和bit5(P1.5)设置为1：配置为外设功能(UART)
//  460   P1SEL |= (1 << 4) | (1 << 5);  // 配置P1SEL |= 0x30(00110000)
//  461   // P1DIR的bit4(P1.4=TX)设置为1：输出；bit5(P1.5=RX)设置为0：输入
//  462   P1DIR |= (1 << 4);   // P1.4(TX)作为输出
//  463   P1DIR &= ~(1 << 5);  // P1.5(RX)作为输入
//  464 
//  465   halUARTCfg_t uartConfig;
//  466   /* UART Configuration */
//  467   uartConfig.configured          = TRUE;      // Enable configuration
//  468   uartConfig.baudRate            = HAL_UART_BR_115200;  // Baud rate
//  469   uartConfig.flowControl         = FALSE;     // Disable hardware flow control
//  470   uartConfig.flowControlThreshold= 0;         // Flow control threshold
//  471   uartConfig.rx.maxBufSize       = ZCLZEM_UART_BUF_LEN;  // Receive buffer size
//  472   uartConfig.tx.maxBufSize       = 0;         // Transmit buffer size
//  473   uartConfig.idleTimeout         = 6;         // Default timeout
//  474   uartConfig.intEnable           = TRUE;      // Enable interrupt
//  475   uartConfig.callBackFunc        = zclZEM_UartCB;  // Set callback function
//  476   /* Start UART */
//  477   // 统一使用UART0端口（协调器配置）
//  478   HalUARTOpen(HAL_UART_PORT_0, &uartConfig);  // Open UART0 with configuration
//  479 }
//  480 
//  481 
//  482 void zclZEM_SendMACToCoordinator(void)
//  483 {
//  484   uint8* macAddr;
//  485   uint8 macData[10]; // MAC地址数据包：1字节类型标识 + 8字节MAC地址 + 1字节结束符
//  486   
//  487   // 读取MAC地址
//  488   macAddr = NLME_GetExtAddr();
//  489   
//  490   // 构建数据包
//  491   macData[0] = 0x01; // 类型标识：MAC地址数据
//  492   osal_memcpy(&macData[1], macAddr, 8); // 复制MAC地址
//  493   macData[9] = 0x00; // 结束符
//  494   
//  495   // 向协调器发送数据（协调器网络地址通常为0x0000）
//  496   zclZEM_AF_P2P(0x0000, // 协调器网络地址
//  497                 CLUSTER_P2P, // 使用点对点集群
//  498                 10, // 数据长度
//  499                 macData); // 数据内容
//  500   
//  501   // 同时通过串口显示发送信息
//  502   uint8 sendMsg[] = "MAC address sent to coordinator!\r\n";
//  503   HalUARTWrite(HAL_UART_PORT_0, sendMsg, sizeof(sendMsg)-1);
//  504 }
//  505 
//  506 /*********************************************************************
//  507  * @fn      zclZEM_ReadAndSendMAC
//  508  *
//  509  * @brief   Read MAC address and send it via UART
//  510  *
//  511  */

        RSEG BANKED_CODE:HUGECODE:NOROOT(0)
//  512 void zclZEM_ReadAndSendMAC(void)
zclZEM_ReadAndSendMAC:
          CFI Block cfiBlock46 Using cfiCommon0
          CFI Function zclZEM_ReadAndSendMAC
        CODE
//  513 {
        FUNCALL zclZEM_ReadAndSendMAC, NLME_GetExtAddr
        LOCFRAME ISTACK, 0, STACK
        LOCFRAME PSTACK, 0, STACK
        LOCFRAME XSTACK, 68, STACK
        LOCFRAME IOVERLAY, 0, STATIC
        LOCFRAME DOVERLAY, 0, STATIC
        ARGFRAME ISTACK, 0, STACK
        ARGFRAME PSTACK, 0, STACK
        ARGFRAME XSTACK, 68, STACK
        ARGFRAME IOVERLAY, 0, STATIC
        ARGFRAME DOVERLAY, 0, STATIC
        FUNCALL zclZEM_ReadAndSendMAC, osal_memcpy
        LOCFRAME ISTACK, 0, STACK
        LOCFRAME PSTACK, 0, STACK
        LOCFRAME XSTACK, 71, STACK
        LOCFRAME IOVERLAY, 0, STATIC
        LOCFRAME DOVERLAY, 0, STATIC
        ARGFRAME ISTACK, 0, STACK
        ARGFRAME PSTACK, 0, STACK
        ARGFRAME XSTACK, 71, STACK
        ARGFRAME IOVERLAY, 0, STATIC
        ARGFRAME DOVERLAY, 0, STATIC
        FUNCALL zclZEM_ReadAndSendMAC, HalUARTWrite
        LOCFRAME ISTACK, 0, STACK
        LOCFRAME PSTACK, 0, STACK
        LOCFRAME XSTACK, 68, STACK
        LOCFRAME IOVERLAY, 0, STATIC
        LOCFRAME DOVERLAY, 0, STATIC
        ARGFRAME ISTACK, 0, STACK
        ARGFRAME PSTACK, 0, STACK
        ARGFRAME XSTACK, 68, STACK
        ARGFRAME IOVERLAY, 0, STATIC
        ARGFRAME DOVERLAY, 0, STATIC
        REQUIRE ?V0
        REQUIRE ?V1
        REQUIRE ?V2
        REQUIRE ?V3
        MOV       A,#-0xc
        LCALL     ?BANKED_ENTER_XDATA
          CFI DPH0 load(1, XDATA, add(CFA_XSP16, literal(-1)))
          CFI DPL0 load(1, XDATA, add(CFA_XSP16, literal(-2)))
          CFI ?BRET_EXT load(1, XDATA, add(CFA_XSP16, literal(-3)))
          CFI ?RET_HIGH load(1, XDATA, add(CFA_XSP16, literal(-4)))
          CFI ?RET_LOW load(1, XDATA, add(CFA_XSP16, literal(-5)))
          CFI R7 load(1, XDATA, add(CFA_XSP16, literal(-6)))
          CFI V3 load(1, XDATA, add(CFA_XSP16, literal(-7)))
          CFI V2 load(1, XDATA, add(CFA_XSP16, literal(-8)))
          CFI V1 load(1, XDATA, add(CFA_XSP16, literal(-9)))
          CFI V0 load(1, XDATA, add(CFA_XSP16, literal(-10)))
          CFI VB load(1, XDATA, add(CFA_XSP16, literal(-11)))
          CFI R6 load(1, XDATA, add(CFA_XSP16, literal(-12)))
          CFI CFA_SP SP+0
          CFI CFA_XSP16 add(XSP16, 12)
        ; Saved register size: 12
        ; Auto size: 56
        MOV       A,#-0x38
        LCALL     ?ALLOC_XSTACK8
          CFI CFA_XSP16 add(XSP16, 68)
//  514   uint8* macAddr;
//  515   uint8 macStr[50]; // 足够存储MAC地址字符串
//  516   uint8 i, pos = 0;
//  517   
//  518   // Read MAC address from system
//  519   macAddr = NLME_GetExtAddr();
        ; Setup parameters for call to function NLME_GetExtAddr
        LCALL     `??NLME_GetExtAddr::?relay`; Banked call to: NLME_GetExtAddr
        MOV       ?V0,R2
        MOV       ?V1,R3
        MOV       R6,?V0
        MOV       R7,?V1
//  520   
//  521   // 手动构建MAC地址字符串
//  522   const uint8 header[] = "MAC: ";
        MOV       DPTR,#`?<Constant "MAC: ">`
        MOV       R4,?XSP + 0
        MOV       R5,?XSP + 1
        MOV       A,#0x6
        LCALL     ?MOVE_LONG8_XDATA_XDATA
//  523   osal_memcpy(macStr, header, 4);
        ; Setup parameters for call to function osal_memcpy
        MOV       R0,?XSP + 0
        MOV       R1,?XSP + 1
        MOV       ?V0,R0
        MOV       ?V1,R1
        MOV       ?V2,A
        MOV       R0,#?V0
        LCALL     ?PUSH_XSTACK_I_THREE
          CFI CFA_XSP16 add(XSP16, 71)
        MOV       R4,#0x4
        MOV       R5,#0x0
        MOV       A,#0x9
        LCALL     ?XSTACK_DISP101_8
        LCALL     `??osal_memcpy::?relay`; Banked call to: osal_memcpy
        MOV       A,#0x3
        LCALL     ?DEALLOC_XSTACK8
          CFI CFA_XSP16 add(XSP16, 68)
//  524   pos = 4;
        MOV       R0,#0x4
//  525   
//  526   // 添加MAC地址字节，格式化为十六进制
//  527   for (i = 0; i < 8; i++) {
        MOV       R4,#0x0
//  528     // 转换高4位
//  529     uint8 highNibble = (macAddr[i] >> 4) & 0x0F;
??zclZEM_ReadAndSendMAC_0:
        MOV       A,R4
        MOV       R2,A
        MOV       A,R6
        ADD       A,R2
        MOV       R2,A
        CLR       A
        ADDC      A,R7
        MOV       R3,A
        MOV       DPL,R2
        MOV       DPH,R3
        MOVX      A,@DPTR
        SWAP      A
        ANL       A,#0xf
        MOV       R1,A
//  530     macStr[pos++] = (highNibble < 10) ? ('0' + highNibble) : ('A' + highNibble - 10);
        MOV       ?V0,R0
        LCALL     ??Subroutine25_0 & 0xFFFF
??CrossCallReturnLabel_44:
        JNC       ??zclZEM_ReadAndSendMAC_1
        MOV       A,#0x30
        SJMP      ??zclZEM_ReadAndSendMAC_2
??zclZEM_ReadAndSendMAC_1:
        MOV       A,#0x37
??zclZEM_ReadAndSendMAC_2:
        ADD       A,R1
        PUSH      A
          CFI CFA_SP SP+-1
        MOV       A,?V0
        MOV       ?V2,A
        MOV       A,#0x6
        LCALL     ?XSTACK_DISP0_8
        MOV       A,DPL
        ADD       A,?V2
        LCALL     ??Subroutine24_0 & 0xFFFF
??CrossCallReturnLabel_36:
        POP       A
          CFI CFA_SP SP+0
        LCALL     ?Subroutine6 & 0xFFFF
//  531     
//  532     // 转换低4位
//  533     uint8 lowNibble = macAddr[i] & 0x0F;
//  534     macStr[pos++] = (lowNibble < 10) ? ('0' + lowNibble) : ('A' + lowNibble - 10);
??CrossCallReturnLabel_6:
        LCALL     ?Subroutine16 & 0xFFFF
??CrossCallReturnLabel_46:
        JNC       ??zclZEM_ReadAndSendMAC_3
        MOV       A,#0x30
        SJMP      ??zclZEM_ReadAndSendMAC_4
??zclZEM_ReadAndSendMAC_3:
        MOV       A,#0x37
??zclZEM_ReadAndSendMAC_4:
        ADD       A,R1
        MOV       R1,A
        MOV       R2,?V1
        MOV       A,#0x6
        LCALL     ?XSTACK_DISP0_8
        LCALL     ?Subroutine18 & 0xFFFF
//  535     
//  536     // 添加冒号分隔符（最后一个字节后不加）
//  537     if (i < 7) {
??CrossCallReturnLabel_27:
        CLR       C
        SUBB      A,#0x7
        JNC       ??zclZEM_ReadAndSendMAC_5
//  538       macStr[pos++] = ':';
        MOV       A,#0x6
        LCALL     ?XSTACK_DISP0_8
        MOV       A,DPL
        ADD       A,R0
        LCALL     ??Subroutine24_0 & 0xFFFF
//  539     }
//  540   }
??CrossCallReturnLabel_37:
        MOV       A,#0x3a
        MOVX      @DPTR,A
        INC       R0
??zclZEM_ReadAndSendMAC_5:
        INC       R4
        MOV       A,R4
        CLR       C
        SUBB      A,#0x8
        JC        ??zclZEM_ReadAndSendMAC_0
//  541   
//  542   // 添加换行符
//  543   macStr[pos++] = '\r';
        MOV       A,R0
        MOV       R2,A
        MOV       A,#0x6
        LCALL     ?XSTACK_DISP0_8
        LCALL     ?Subroutine17 & 0xFFFF
//  544   macStr[pos++] = '\n';
??CrossCallReturnLabel_25:
        MOV       A,#0x6
        LCALL     ?XSTACK_DISP0_8
        LCALL     ?Subroutine14 & 0xFFFF
//  545   
//  546   // Send MAC address via UART
//  547   // 统一使用UART0端口（协调器配置）
//  548   HalUARTWrite(HAL_UART_PORT_0, macStr, pos);
??CrossCallReturnLabel_20:
        MOV       A,#0x6
        LCALL     ?XSTACK_DISP101_8
        MOV       R1,#0x0
        LCALL     `??HalUARTWrite::?relay`; Banked call to: HalUARTWrite
//  549 }
        MOV       A,#0x38
        LCALL     ?DEALLOC_XSTACK8
          CFI CFA_XSP16 add(XSP16, 12)
        MOV       R7,#0x4
        LJMP      ?BANKED_LEAVE_XDATA
          CFI EndBlock cfiBlock46

        RSEG BANKED_CODE:HUGECODE:NOROOT(0)
?Subroutine18:
          CFI Block cfiCond47 Using cfiCommon0
          CFI Function zclZEM_event_loop
          CFI Conditional ??CrossCallReturnLabel_26
          CFI R6 load(1, XDATA, add(CFA_XSP16, literal(-15)))
          CFI VB load(1, XDATA, add(CFA_XSP16, literal(-14)))
          CFI V0 load(1, XDATA, add(CFA_XSP16, literal(-13)))
          CFI V1 load(1, XDATA, add(CFA_XSP16, literal(-12)))
          CFI V2 load(1, XDATA, add(CFA_XSP16, literal(-11)))
          CFI V3 load(1, XDATA, add(CFA_XSP16, literal(-10)))
          CFI V4 load(1, XDATA, add(CFA_XSP16, literal(-9)))
          CFI V5 load(1, XDATA, add(CFA_XSP16, literal(-8)))
          CFI V6 load(1, XDATA, add(CFA_XSP16, literal(-7)))
          CFI R7 load(1, XDATA, add(CFA_XSP16, literal(-6)))
          CFI ?RET_LOW load(1, XDATA, add(CFA_XSP16, literal(-5)))
          CFI ?RET_HIGH load(1, XDATA, add(CFA_XSP16, literal(-4)))
          CFI ?BRET_EXT load(1, XDATA, add(CFA_XSP16, literal(-3)))
          CFI DPL0 load(1, XDATA, add(CFA_XSP16, literal(-2)))
          CFI DPH0 load(1, XDATA, add(CFA_XSP16, literal(-1)))
          CFI CFA_SP SP+-2
          CFI CFA_XSP16 add(XSP16, 269)
          CFI Block cfiCond48 Using cfiCommon0
          CFI (cfiCond48) Function zclZEM_ReadAndSendMAC
          CFI (cfiCond48) Conditional ??CrossCallReturnLabel_27
          CFI (cfiCond48) R6 load(1, XDATA, add(CFA_XSP16, literal(-12)))
          CFI (cfiCond48) VB load(1, XDATA, add(CFA_XSP16, literal(-11)))
          CFI (cfiCond48) V0 load(1, XDATA, add(CFA_XSP16, literal(-10)))
          CFI (cfiCond48) V1 load(1, XDATA, add(CFA_XSP16, literal(-9)))
          CFI (cfiCond48) V2 load(1, XDATA, add(CFA_XSP16, literal(-8)))
          CFI (cfiCond48) V3 load(1, XDATA, add(CFA_XSP16, literal(-7)))
          CFI (cfiCond48) R7 load(1, XDATA, add(CFA_XSP16, literal(-6)))
          CFI (cfiCond48) ?RET_LOW load(1, XDATA, add(CFA_XSP16, literal(-5)))
          CFI (cfiCond48) ?RET_HIGH load(1, XDATA, add(CFA_XSP16, literal(-4)))
          CFI (cfiCond48) ?BRET_EXT load(1, XDATA, add(CFA_XSP16, literal(-3)))
          CFI (cfiCond48) DPL0 load(1, XDATA, add(CFA_XSP16, literal(-2)))
          CFI (cfiCond48) DPH0 load(1, XDATA, add(CFA_XSP16, literal(-1)))
          CFI (cfiCond48) CFA_SP SP+-2
          CFI (cfiCond48) CFA_XSP16 add(XSP16, 68)
          CFI Block cfiPicker49 Using cfiCommon1
          CFI (cfiPicker49) NoFunction
          CFI (cfiPicker49) Picker
        LCALL     ?Subroutine22 & 0xFFFF
??CrossCallReturnLabel_41:
        MOV       A,R1
        MOVX      @DPTR,A
        MOV       A,R4
        RET
          CFI EndBlock cfiCond47
          CFI EndBlock cfiCond48
          CFI EndBlock cfiPicker49

        RSEG BANKED_CODE:HUGECODE:NOROOT(0)
?Subroutine17:
          CFI Block cfiCond50 Using cfiCommon0
          CFI Function zclZEM_event_loop
          CFI Conditional ??CrossCallReturnLabel_24
          CFI R6 load(1, XDATA, add(CFA_XSP16, literal(-15)))
          CFI VB load(1, XDATA, add(CFA_XSP16, literal(-14)))
          CFI V0 load(1, XDATA, add(CFA_XSP16, literal(-13)))
          CFI V1 load(1, XDATA, add(CFA_XSP16, literal(-12)))
          CFI V2 load(1, XDATA, add(CFA_XSP16, literal(-11)))
          CFI V3 load(1, XDATA, add(CFA_XSP16, literal(-10)))
          CFI V4 load(1, XDATA, add(CFA_XSP16, literal(-9)))
          CFI V5 load(1, XDATA, add(CFA_XSP16, literal(-8)))
          CFI V6 load(1, XDATA, add(CFA_XSP16, literal(-7)))
          CFI R7 load(1, XDATA, add(CFA_XSP16, literal(-6)))
          CFI ?RET_LOW load(1, XDATA, add(CFA_XSP16, literal(-5)))
          CFI ?RET_HIGH load(1, XDATA, add(CFA_XSP16, literal(-4)))
          CFI ?BRET_EXT load(1, XDATA, add(CFA_XSP16, literal(-3)))
          CFI DPL0 load(1, XDATA, add(CFA_XSP16, literal(-2)))
          CFI DPH0 load(1, XDATA, add(CFA_XSP16, literal(-1)))
          CFI CFA_SP SP+-2
          CFI CFA_XSP16 add(XSP16, 269)
          CFI Block cfiCond51 Using cfiCommon0
          CFI (cfiCond51) Function zclZEM_ReadAndSendMAC
          CFI (cfiCond51) Conditional ??CrossCallReturnLabel_25
          CFI (cfiCond51) R6 load(1, XDATA, add(CFA_XSP16, literal(-12)))
          CFI (cfiCond51) VB load(1, XDATA, add(CFA_XSP16, literal(-11)))
          CFI (cfiCond51) V0 load(1, XDATA, add(CFA_XSP16, literal(-10)))
          CFI (cfiCond51) V1 load(1, XDATA, add(CFA_XSP16, literal(-9)))
          CFI (cfiCond51) V2 load(1, XDATA, add(CFA_XSP16, literal(-8)))
          CFI (cfiCond51) V3 load(1, XDATA, add(CFA_XSP16, literal(-7)))
          CFI (cfiCond51) R7 load(1, XDATA, add(CFA_XSP16, literal(-6)))
          CFI (cfiCond51) ?RET_LOW load(1, XDATA, add(CFA_XSP16, literal(-5)))
          CFI (cfiCond51) ?RET_HIGH load(1, XDATA, add(CFA_XSP16, literal(-4)))
          CFI (cfiCond51) ?BRET_EXT load(1, XDATA, add(CFA_XSP16, literal(-3)))
          CFI (cfiCond51) DPL0 load(1, XDATA, add(CFA_XSP16, literal(-2)))
          CFI (cfiCond51) DPH0 load(1, XDATA, add(CFA_XSP16, literal(-1)))
          CFI (cfiCond51) CFA_SP SP+-2
          CFI (cfiCond51) CFA_XSP16 add(XSP16, 68)
          CFI Block cfiPicker52 Using cfiCommon1
          CFI (cfiPicker52) NoFunction
          CFI (cfiPicker52) Picker
        LCALL     ?Subroutine22 & 0xFFFF
??CrossCallReturnLabel_40:
        MOV       A,#0xd
        MOVX      @DPTR,A
        INC       R0
        RET
          CFI EndBlock cfiCond50
          CFI EndBlock cfiCond51
          CFI EndBlock cfiPicker52

        RSEG BANKED_CODE:HUGECODE:NOROOT(0)
?Subroutine16:
          CFI Block cfiCond53 Using cfiCommon0
          CFI Function zclZEM_event_loop
          CFI Conditional ??CrossCallReturnLabel_45
          CFI R6 load(1, XDATA, add(CFA_XSP16, literal(-15)))
          CFI VB load(1, XDATA, add(CFA_XSP16, literal(-14)))
          CFI V0 load(1, XDATA, add(CFA_XSP16, literal(-13)))
          CFI V1 load(1, XDATA, add(CFA_XSP16, literal(-12)))
          CFI V2 load(1, XDATA, add(CFA_XSP16, literal(-11)))
          CFI V3 load(1, XDATA, add(CFA_XSP16, literal(-10)))
          CFI V4 load(1, XDATA, add(CFA_XSP16, literal(-9)))
          CFI V5 load(1, XDATA, add(CFA_XSP16, literal(-8)))
          CFI V6 load(1, XDATA, add(CFA_XSP16, literal(-7)))
          CFI R7 load(1, XDATA, add(CFA_XSP16, literal(-6)))
          CFI ?RET_LOW load(1, XDATA, add(CFA_XSP16, literal(-5)))
          CFI ?RET_HIGH load(1, XDATA, add(CFA_XSP16, literal(-4)))
          CFI ?BRET_EXT load(1, XDATA, add(CFA_XSP16, literal(-3)))
          CFI DPL0 load(1, XDATA, add(CFA_XSP16, literal(-2)))
          CFI DPH0 load(1, XDATA, add(CFA_XSP16, literal(-1)))
          CFI CFA_SP SP+-2
          CFI CFA_XSP16 add(XSP16, 269)
          CFI Block cfiCond54 Using cfiCommon0
          CFI (cfiCond54) Function zclZEM_ReadAndSendMAC
          CFI (cfiCond54) Conditional ??CrossCallReturnLabel_46
          CFI (cfiCond54) R6 load(1, XDATA, add(CFA_XSP16, literal(-12)))
          CFI (cfiCond54) VB load(1, XDATA, add(CFA_XSP16, literal(-11)))
          CFI (cfiCond54) V0 load(1, XDATA, add(CFA_XSP16, literal(-10)))
          CFI (cfiCond54) V1 load(1, XDATA, add(CFA_XSP16, literal(-9)))
          CFI (cfiCond54) V2 load(1, XDATA, add(CFA_XSP16, literal(-8)))
          CFI (cfiCond54) V3 load(1, XDATA, add(CFA_XSP16, literal(-7)))
          CFI (cfiCond54) R7 load(1, XDATA, add(CFA_XSP16, literal(-6)))
          CFI (cfiCond54) ?RET_LOW load(1, XDATA, add(CFA_XSP16, literal(-5)))
          CFI (cfiCond54) ?RET_HIGH load(1, XDATA, add(CFA_XSP16, literal(-4)))
          CFI (cfiCond54) ?BRET_EXT load(1, XDATA, add(CFA_XSP16, literal(-3)))
          CFI (cfiCond54) DPL0 load(1, XDATA, add(CFA_XSP16, literal(-2)))
          CFI (cfiCond54) DPH0 load(1, XDATA, add(CFA_XSP16, literal(-1)))
          CFI (cfiCond54) CFA_SP SP+-2
          CFI (cfiCond54) CFA_XSP16 add(XSP16, 68)
          CFI Block cfiPicker55 Using cfiCommon1
          CFI (cfiPicker55) NoFunction
          CFI (cfiPicker55) Picker
        MOV       ?V1,R0
          CFI EndBlock cfiCond53
          CFI EndBlock cfiCond54
          CFI EndBlock cfiPicker55
        REQUIRE ??Subroutine25_0
        ; // Fall through to label ??Subroutine25_0

        RSEG BANKED_CODE:HUGECODE:NOROOT(0)
??Subroutine25_0:
          CFI Block cfiCond56 Using cfiCommon0
          CFI Function zclZEM_event_loop
          CFI Conditional ??CrossCallReturnLabel_43
          CFI R6 load(1, XDATA, add(CFA_XSP16, literal(-15)))
          CFI VB load(1, XDATA, add(CFA_XSP16, literal(-14)))
          CFI V0 load(1, XDATA, add(CFA_XSP16, literal(-13)))
          CFI V1 load(1, XDATA, add(CFA_XSP16, literal(-12)))
          CFI V2 load(1, XDATA, add(CFA_XSP16, literal(-11)))
          CFI V3 load(1, XDATA, add(CFA_XSP16, literal(-10)))
          CFI V4 load(1, XDATA, add(CFA_XSP16, literal(-9)))
          CFI V5 load(1, XDATA, add(CFA_XSP16, literal(-8)))
          CFI V6 load(1, XDATA, add(CFA_XSP16, literal(-7)))
          CFI R7 load(1, XDATA, add(CFA_XSP16, literal(-6)))
          CFI ?RET_LOW load(1, XDATA, add(CFA_XSP16, literal(-5)))
          CFI ?RET_HIGH load(1, XDATA, add(CFA_XSP16, literal(-4)))
          CFI ?BRET_EXT load(1, XDATA, add(CFA_XSP16, literal(-3)))
          CFI DPL0 load(1, XDATA, add(CFA_XSP16, literal(-2)))
          CFI DPH0 load(1, XDATA, add(CFA_XSP16, literal(-1)))
          CFI CFA_SP SP+-2
          CFI CFA_XSP16 add(XSP16, 269)
          CFI Block cfiCond57 Using cfiCommon0
          CFI (cfiCond57) Function zclZEM_ReadAndSendMAC
          CFI (cfiCond57) Conditional ??CrossCallReturnLabel_44
          CFI (cfiCond57) R6 load(1, XDATA, add(CFA_XSP16, literal(-12)))
          CFI (cfiCond57) VB load(1, XDATA, add(CFA_XSP16, literal(-11)))
          CFI (cfiCond57) V0 load(1, XDATA, add(CFA_XSP16, literal(-10)))
          CFI (cfiCond57) V1 load(1, XDATA, add(CFA_XSP16, literal(-9)))
          CFI (cfiCond57) V2 load(1, XDATA, add(CFA_XSP16, literal(-8)))
          CFI (cfiCond57) V3 load(1, XDATA, add(CFA_XSP16, literal(-7)))
          CFI (cfiCond57) R7 load(1, XDATA, add(CFA_XSP16, literal(-6)))
          CFI (cfiCond57) ?RET_LOW load(1, XDATA, add(CFA_XSP16, literal(-5)))
          CFI (cfiCond57) ?RET_HIGH load(1, XDATA, add(CFA_XSP16, literal(-4)))
          CFI (cfiCond57) ?BRET_EXT load(1, XDATA, add(CFA_XSP16, literal(-3)))
          CFI (cfiCond57) DPL0 load(1, XDATA, add(CFA_XSP16, literal(-2)))
          CFI (cfiCond57) DPH0 load(1, XDATA, add(CFA_XSP16, literal(-1)))
          CFI (cfiCond57) CFA_SP SP+-2
          CFI (cfiCond57) CFA_XSP16 add(XSP16, 68)
          CFI Block cfiCond58 Using cfiCommon0
          CFI (cfiCond58) Function zclZEM_event_loop
          CFI (cfiCond58) Conditional ??CrossCallReturnLabel_45
          CFI (cfiCond58) R6 load(1, XDATA, add(CFA_XSP16, literal(-15)))
          CFI (cfiCond58) VB load(1, XDATA, add(CFA_XSP16, literal(-14)))
          CFI (cfiCond58) V0 load(1, XDATA, add(CFA_XSP16, literal(-13)))
          CFI (cfiCond58) V1 load(1, XDATA, add(CFA_XSP16, literal(-12)))
          CFI (cfiCond58) V2 load(1, XDATA, add(CFA_XSP16, literal(-11)))
          CFI (cfiCond58) V3 load(1, XDATA, add(CFA_XSP16, literal(-10)))
          CFI (cfiCond58) V4 load(1, XDATA, add(CFA_XSP16, literal(-9)))
          CFI (cfiCond58) V5 load(1, XDATA, add(CFA_XSP16, literal(-8)))
          CFI (cfiCond58) V6 load(1, XDATA, add(CFA_XSP16, literal(-7)))
          CFI (cfiCond58) R7 load(1, XDATA, add(CFA_XSP16, literal(-6)))
          CFI (cfiCond58) ?RET_LOW load(1, XDATA, add(CFA_XSP16, literal(-5)))
          CFI (cfiCond58) ?RET_HIGH load(1, XDATA, add(CFA_XSP16, literal(-4)))
          CFI (cfiCond58) ?BRET_EXT load(1, XDATA, add(CFA_XSP16, literal(-3)))
          CFI (cfiCond58) DPL0 load(1, XDATA, add(CFA_XSP16, literal(-2)))
          CFI (cfiCond58) DPH0 load(1, XDATA, add(CFA_XSP16, literal(-1)))
          CFI (cfiCond58) CFA_SP SP+-2
          CFI (cfiCond58) CFA_XSP16 add(XSP16, 269)
          CFI Block cfiCond59 Using cfiCommon0
          CFI (cfiCond59) Function zclZEM_ReadAndSendMAC
          CFI (cfiCond59) Conditional ??CrossCallReturnLabel_46
          CFI (cfiCond59) R6 load(1, XDATA, add(CFA_XSP16, literal(-12)))
          CFI (cfiCond59) VB load(1, XDATA, add(CFA_XSP16, literal(-11)))
          CFI (cfiCond59) V0 load(1, XDATA, add(CFA_XSP16, literal(-10)))
          CFI (cfiCond59) V1 load(1, XDATA, add(CFA_XSP16, literal(-9)))
          CFI (cfiCond59) V2 load(1, XDATA, add(CFA_XSP16, literal(-8)))
          CFI (cfiCond59) V3 load(1, XDATA, add(CFA_XSP16, literal(-7)))
          CFI (cfiCond59) R7 load(1, XDATA, add(CFA_XSP16, literal(-6)))
          CFI (cfiCond59) ?RET_LOW load(1, XDATA, add(CFA_XSP16, literal(-5)))
          CFI (cfiCond59) ?RET_HIGH load(1, XDATA, add(CFA_XSP16, literal(-4)))
          CFI (cfiCond59) ?BRET_EXT load(1, XDATA, add(CFA_XSP16, literal(-3)))
          CFI (cfiCond59) DPL0 load(1, XDATA, add(CFA_XSP16, literal(-2)))
          CFI (cfiCond59) DPH0 load(1, XDATA, add(CFA_XSP16, literal(-1)))
          CFI (cfiCond59) CFA_SP SP+-2
          CFI (cfiCond59) CFA_XSP16 add(XSP16, 68)
          CFI Block cfiPicker60 Using cfiCommon1
          CFI (cfiPicker60) NoFunction
          CFI (cfiPicker60) Picker
        MOV       A,#0x1
        ADD       A,R0
        MOV       R0,A
        MOV       A,R1
        CLR       C
        SUBB      A,#0xa
        RET
          CFI EndBlock cfiCond56
          CFI EndBlock cfiCond57
          CFI EndBlock cfiCond58
          CFI EndBlock cfiCond59
          CFI EndBlock cfiPicker60

        RSEG BANKED_CODE:HUGECODE:NOROOT(0)
?Subroutine14:
          CFI Block cfiCond61 Using cfiCommon0
          CFI Function zclZEM_event_loop
          CFI Conditional ??CrossCallReturnLabel_19
          CFI R6 load(1, XDATA, add(CFA_XSP16, literal(-15)))
          CFI VB load(1, XDATA, add(CFA_XSP16, literal(-14)))
          CFI V0 load(1, XDATA, add(CFA_XSP16, literal(-13)))
          CFI V1 load(1, XDATA, add(CFA_XSP16, literal(-12)))
          CFI V2 load(1, XDATA, add(CFA_XSP16, literal(-11)))
          CFI V3 load(1, XDATA, add(CFA_XSP16, literal(-10)))
          CFI V4 load(1, XDATA, add(CFA_XSP16, literal(-9)))
          CFI V5 load(1, XDATA, add(CFA_XSP16, literal(-8)))
          CFI V6 load(1, XDATA, add(CFA_XSP16, literal(-7)))
          CFI R7 load(1, XDATA, add(CFA_XSP16, literal(-6)))
          CFI ?RET_LOW load(1, XDATA, add(CFA_XSP16, literal(-5)))
          CFI ?RET_HIGH load(1, XDATA, add(CFA_XSP16, literal(-4)))
          CFI ?BRET_EXT load(1, XDATA, add(CFA_XSP16, literal(-3)))
          CFI DPL0 load(1, XDATA, add(CFA_XSP16, literal(-2)))
          CFI DPH0 load(1, XDATA, add(CFA_XSP16, literal(-1)))
          CFI CFA_SP SP+-2
          CFI CFA_XSP16 add(XSP16, 269)
          CFI Block cfiCond62 Using cfiCommon0
          CFI (cfiCond62) Function zclZEM_ReadAndSendMAC
          CFI (cfiCond62) Conditional ??CrossCallReturnLabel_20
          CFI (cfiCond62) R6 load(1, XDATA, add(CFA_XSP16, literal(-12)))
          CFI (cfiCond62) VB load(1, XDATA, add(CFA_XSP16, literal(-11)))
          CFI (cfiCond62) V0 load(1, XDATA, add(CFA_XSP16, literal(-10)))
          CFI (cfiCond62) V1 load(1, XDATA, add(CFA_XSP16, literal(-9)))
          CFI (cfiCond62) V2 load(1, XDATA, add(CFA_XSP16, literal(-8)))
          CFI (cfiCond62) V3 load(1, XDATA, add(CFA_XSP16, literal(-7)))
          CFI (cfiCond62) R7 load(1, XDATA, add(CFA_XSP16, literal(-6)))
          CFI (cfiCond62) ?RET_LOW load(1, XDATA, add(CFA_XSP16, literal(-5)))
          CFI (cfiCond62) ?RET_HIGH load(1, XDATA, add(CFA_XSP16, literal(-4)))
          CFI (cfiCond62) ?BRET_EXT load(1, XDATA, add(CFA_XSP16, literal(-3)))
          CFI (cfiCond62) DPL0 load(1, XDATA, add(CFA_XSP16, literal(-2)))
          CFI (cfiCond62) DPH0 load(1, XDATA, add(CFA_XSP16, literal(-1)))
          CFI (cfiCond62) CFA_SP SP+-2
          CFI (cfiCond62) CFA_XSP16 add(XSP16, 68)
          CFI Block cfiPicker63 Using cfiCommon1
          CFI (cfiPicker63) NoFunction
          CFI (cfiPicker63) Picker
        MOV       A,DPL
        ADD       A,R0
        LCALL     ??Subroutine24_0 & 0xFFFF
??CrossCallReturnLabel_38:
        MOV       A,#0xa
        MOVX      @DPTR,A
        ; Setup parameters for call to function HalUARTWrite
        ; Setup parameters for call to function HalUARTWrite
        MOV       A,#0x1
        ADD       A,R0
        MOV       R4,A
        MOV       R5,#0x0
        RET
          CFI EndBlock cfiCond61
          CFI EndBlock cfiCond62
          CFI EndBlock cfiPicker63

        RSEG BANKED_CODE:HUGECODE:NOROOT(0)
?Subroutine6:
          CFI Block cfiCond64 Using cfiCommon0
          CFI Function zclZEM_event_loop
          CFI Conditional ??CrossCallReturnLabel_5
          CFI R6 load(1, XDATA, add(CFA_XSP16, literal(-15)))
          CFI VB load(1, XDATA, add(CFA_XSP16, literal(-14)))
          CFI V0 load(1, XDATA, add(CFA_XSP16, literal(-13)))
          CFI V1 load(1, XDATA, add(CFA_XSP16, literal(-12)))
          CFI V2 load(1, XDATA, add(CFA_XSP16, literal(-11)))
          CFI V3 load(1, XDATA, add(CFA_XSP16, literal(-10)))
          CFI V4 load(1, XDATA, add(CFA_XSP16, literal(-9)))
          CFI V5 load(1, XDATA, add(CFA_XSP16, literal(-8)))
          CFI V6 load(1, XDATA, add(CFA_XSP16, literal(-7)))
          CFI R7 load(1, XDATA, add(CFA_XSP16, literal(-6)))
          CFI ?RET_LOW load(1, XDATA, add(CFA_XSP16, literal(-5)))
          CFI ?RET_HIGH load(1, XDATA, add(CFA_XSP16, literal(-4)))
          CFI ?BRET_EXT load(1, XDATA, add(CFA_XSP16, literal(-3)))
          CFI DPL0 load(1, XDATA, add(CFA_XSP16, literal(-2)))
          CFI DPH0 load(1, XDATA, add(CFA_XSP16, literal(-1)))
          CFI CFA_SP SP+-2
          CFI CFA_XSP16 add(XSP16, 269)
          CFI Block cfiCond65 Using cfiCommon0
          CFI (cfiCond65) Function zclZEM_ReadAndSendMAC
          CFI (cfiCond65) Conditional ??CrossCallReturnLabel_6
          CFI (cfiCond65) R6 load(1, XDATA, add(CFA_XSP16, literal(-12)))
          CFI (cfiCond65) VB load(1, XDATA, add(CFA_XSP16, literal(-11)))
          CFI (cfiCond65) V0 load(1, XDATA, add(CFA_XSP16, literal(-10)))
          CFI (cfiCond65) V1 load(1, XDATA, add(CFA_XSP16, literal(-9)))
          CFI (cfiCond65) V2 load(1, XDATA, add(CFA_XSP16, literal(-8)))
          CFI (cfiCond65) V3 load(1, XDATA, add(CFA_XSP16, literal(-7)))
          CFI (cfiCond65) R7 load(1, XDATA, add(CFA_XSP16, literal(-6)))
          CFI (cfiCond65) ?RET_LOW load(1, XDATA, add(CFA_XSP16, literal(-5)))
          CFI (cfiCond65) ?RET_HIGH load(1, XDATA, add(CFA_XSP16, literal(-4)))
          CFI (cfiCond65) ?BRET_EXT load(1, XDATA, add(CFA_XSP16, literal(-3)))
          CFI (cfiCond65) DPL0 load(1, XDATA, add(CFA_XSP16, literal(-2)))
          CFI (cfiCond65) DPH0 load(1, XDATA, add(CFA_XSP16, literal(-1)))
          CFI (cfiCond65) CFA_SP SP+-2
          CFI (cfiCond65) CFA_XSP16 add(XSP16, 68)
          CFI Block cfiPicker66 Using cfiCommon1
          CFI (cfiPicker66) NoFunction
          CFI (cfiPicker66) Picker
        MOVX      @DPTR,A
        MOV       DPL,R2
        MOV       DPH,R3
        MOVX      A,@DPTR
        ANL       A,#0xf
        MOV       R1,A
        RET
          CFI EndBlock cfiCond64
          CFI EndBlock cfiCond65
          CFI EndBlock cfiPicker66
//  550 
//  551 /*********************************************************************
//  552  * @fn      zclZEM_UartCB
//  553  *
//  554  * @brief   UART callback function
//  555  *
//  556  * @param   port - UART port
//  557  * @param   event - UART event
//  558  *
//  559  * @return  none
//  560  */

        RSEG BANKED_CODE:HUGECODE:NOROOT(0)
//  561 static void zclZEM_UartCB(uint8 port, uint8 event)
zclZEM_UartCB:
          CFI Block cfiBlock67 Using cfiCommon0
          CFI Function zclZEM_UartCB
        CODE
//  562 {
        FUNCALL zclZEM_UartCB, Hal_UART_RxBufLen
        LOCFRAME ISTACK, 0, STACK
        LOCFRAME PSTACK, 0, STACK
        LOCFRAME XSTACK, 9, STACK
        LOCFRAME IOVERLAY, 0, STATIC
        LOCFRAME DOVERLAY, 0, STATIC
        ARGFRAME ISTACK, 0, STACK
        ARGFRAME PSTACK, 0, STACK
        ARGFRAME XSTACK, 9, STACK
        ARGFRAME IOVERLAY, 0, STATIC
        ARGFRAME DOVERLAY, 0, STATIC
        FUNCALL zclZEM_UartCB, HalUARTRead
        LOCFRAME ISTACK, 0, STACK
        LOCFRAME PSTACK, 0, STACK
        LOCFRAME XSTACK, 9, STACK
        LOCFRAME IOVERLAY, 0, STATIC
        LOCFRAME DOVERLAY, 0, STATIC
        ARGFRAME ISTACK, 0, STACK
        ARGFRAME PSTACK, 0, STACK
        ARGFRAME XSTACK, 9, STACK
        ARGFRAME IOVERLAY, 0, STATIC
        ARGFRAME DOVERLAY, 0, STATIC
        FUNCALL zclZEM_UartCB, HalUARTWrite
        LOCFRAME ISTACK, 0, STACK
        LOCFRAME PSTACK, 0, STACK
        LOCFRAME XSTACK, 9, STACK
        LOCFRAME IOVERLAY, 0, STATIC
        LOCFRAME DOVERLAY, 0, STATIC
        ARGFRAME ISTACK, 0, STACK
        ARGFRAME PSTACK, 0, STACK
        ARGFRAME XSTACK, 9, STACK
        ARGFRAME IOVERLAY, 0, STATIC
        ARGFRAME DOVERLAY, 0, STATIC
        MOV       A,#-0x9
        LCALL     ?BANKED_ENTER_XDATA
          CFI DPH0 load(1, XDATA, add(CFA_XSP16, literal(-1)))
          CFI DPL0 load(1, XDATA, add(CFA_XSP16, literal(-2)))
          CFI ?BRET_EXT load(1, XDATA, add(CFA_XSP16, literal(-3)))
          CFI ?RET_HIGH load(1, XDATA, add(CFA_XSP16, literal(-4)))
          CFI ?RET_LOW load(1, XDATA, add(CFA_XSP16, literal(-5)))
          CFI R7 load(1, XDATA, add(CFA_XSP16, literal(-6)))
          CFI V0 load(1, XDATA, add(CFA_XSP16, literal(-7)))
          CFI VB load(1, XDATA, add(CFA_XSP16, literal(-8)))
          CFI R6 load(1, XDATA, add(CFA_XSP16, literal(-9)))
          CFI CFA_SP SP+0
          CFI CFA_XSP16 add(XSP16, 9)
        ; Saved register size: 9
        ; Auto size: 0
//  563   // 获取当前串口接收缓冲区有多少字节的数据
//  564   uint8 rxLen = Hal_UART_RxBufLen(HAL_UART_PORT_0); 
        ; Setup parameters for call to function Hal_UART_RxBufLen
        MOV       R1,#0x0
        LCALL     `??Hal_UART_RxBufLen::?relay`; Banked call to: Hal_UART_RxBufLen
        MOV       A,R2
//  565   if(rxLen != 0) // 如果字节数数量不等于0 
        JZ        ??zclZEM_UartCB_0
//  566   {
//  567     // 从串口缓冲区中读取数据
//  568     HalUARTRead(HAL_UART_PORT_0, zclZEM_UartBuf, rxLen);
        MOV       R6,A
        ; Setup parameters for call to function HalUARTRead
        MOV       R4,A
        MOV       R5,#0x0
        MOV       R2,#zclZEM_UartBuf & 0xff
        MOV       R3,#(zclZEM_UartBuf >> 8) & 0xff
        MOV       R1,#0x0
        LCALL     `??HalUARTRead::?relay`; Banked call to: HalUARTRead
//  569     // 通过串口发送数据，例如把数据发送到串口助手
//  570     HalUARTWrite(HAL_UART_PORT_0, zclZEM_UartBuf, rxLen);  
        ; Setup parameters for call to function HalUARTWrite
        MOV       A,R6
        MOV       R4,A
        MOV       R5,#0x0
        MOV       R2,#zclZEM_UartBuf & 0xff
        MOV       R3,#(zclZEM_UartBuf >> 8) & 0xff
        MOV       R1,#0x0
        LCALL     `??HalUARTWrite::?relay`; Banked call to: HalUARTWrite
//  571   }
//  572 }
??zclZEM_UartCB_0:
          CFI EndBlock cfiBlock67
        REQUIRE ?Subroutine1
        ; // Fall through to label ?Subroutine1

        RSEG BANKED_CODE:HUGECODE:NOROOT(0)
?Subroutine1:
          CFI Block cfiBlock68 Using cfiCommon0
          CFI NoFunction
          CFI CFA_SP SP+0
          CFI CFA_XSP16 add(XSP16, 9)
          CFI VB load(1, XDATA, add(CFA_XSP16, literal(-8)))
          CFI DPL0 load(1, XDATA, add(CFA_XSP16, literal(-2)))
          CFI DPH0 load(1, XDATA, add(CFA_XSP16, literal(-1)))
          CFI R6 load(1, XDATA, add(CFA_XSP16, literal(-9)))
          CFI R7 load(1, XDATA, add(CFA_XSP16, literal(-6)))
          CFI V0 load(1, XDATA, add(CFA_XSP16, literal(-7)))
          CFI ?BRET_EXT load(1, XDATA, add(CFA_XSP16, literal(-3)))
          CFI ?RET_HIGH load(1, XDATA, add(CFA_XSP16, literal(-4)))
          CFI ?RET_LOW load(1, XDATA, add(CFA_XSP16, literal(-5)))
        MOV       R7,#0x1
        LJMP      ?BANKED_LEAVE_XDATA
          CFI EndBlock cfiBlock68
//  573 
//  574 /*********************************************************************
//  575  * @fn      zclZEM_HandleKeys
//  576  *
//  577  * @brief   Handles all key events for this device.
//  578  *
//  579  * @param   shift - true if in shift/alt.
//  580  * @param   keys - bit field for key events. Valid entries:
//  581  *                 HAL_KEY_SW_5
//  582  *                 HAL_KEY_SW_4
//  583  *                 HAL_KEY_SW_3
//  584  *                 HAL_KEY_SW_2
//  585  *                 HAL_KEY_SW_1
//  586  *
//  587  * @return  none
//  588  */
//  589 static void zclZEM_HandleKeys( byte shift, byte keys )
//  590 {
//  591 }
//  592 
//  593 /*********************************************************************
//  594  * @fn      zclZEM_LcdDisplayMainMode
//  595  *
//  596  * @brief   Called to display the main screen on the LCD.
//  597  *
//  598  * @param   none
//  599  *
//  600  * @return  none
//  601  */

        RSEG BANKED_CODE:HUGECODE:NOROOT(0)
//  602 static void zclZEM_ProcessCommissioningStatus(bdbCommissioningModeMsg_t* bdbCommissioningModeMsg)
zclZEM_ProcessCommissioningStatus:
          CFI Block cfiBlock69 Using cfiCommon0
          CFI Function zclZEM_ProcessCommissioningStatus
        CODE
//  603 {
        FUNCALL zclZEM_ProcessCommissioningStatus, bdb_StartCommissioning
        LOCFRAME ISTACK, 0, STACK
        LOCFRAME PSTACK, 0, STACK
        LOCFRAME XSTACK, 122, STACK
        LOCFRAME IOVERLAY, 0, STATIC
        LOCFRAME DOVERLAY, 0, STATIC
        ARGFRAME ISTACK, 0, STACK
        ARGFRAME PSTACK, 0, STACK
        ARGFRAME XSTACK, 122, STACK
        ARGFRAME IOVERLAY, 0, STATIC
        ARGFRAME DOVERLAY, 0, STATIC
        FUNCALL zclZEM_ProcessCommissioningStatus, HalUARTWrite
        LOCFRAME ISTACK, 0, STACK
        LOCFRAME PSTACK, 0, STACK
        LOCFRAME XSTACK, 122, STACK
        LOCFRAME IOVERLAY, 0, STATIC
        LOCFRAME DOVERLAY, 0, STATIC
        ARGFRAME ISTACK, 0, STACK
        ARGFRAME PSTACK, 0, STACK
        ARGFRAME XSTACK, 122, STACK
        ARGFRAME IOVERLAY, 0, STATIC
        ARGFRAME DOVERLAY, 0, STATIC
        FUNCALL zclZEM_ProcessCommissioningStatus, HalUARTWrite
        LOCFRAME ISTACK, 0, STACK
        LOCFRAME PSTACK, 0, STACK
        LOCFRAME XSTACK, 122, STACK
        LOCFRAME IOVERLAY, 0, STATIC
        LOCFRAME DOVERLAY, 0, STATIC
        ARGFRAME ISTACK, 0, STACK
        ARGFRAME PSTACK, 0, STACK
        ARGFRAME XSTACK, 122, STACK
        ARGFRAME IOVERLAY, 0, STATIC
        ARGFRAME DOVERLAY, 0, STATIC
        FUNCALL zclZEM_ProcessCommissioningStatus, HalUARTWrite
        LOCFRAME ISTACK, 0, STACK
        LOCFRAME PSTACK, 0, STACK
        LOCFRAME XSTACK, 122, STACK
        LOCFRAME IOVERLAY, 0, STATIC
        LOCFRAME DOVERLAY, 0, STATIC
        ARGFRAME ISTACK, 0, STACK
        ARGFRAME PSTACK, 0, STACK
        ARGFRAME XSTACK, 122, STACK
        ARGFRAME IOVERLAY, 0, STATIC
        ARGFRAME DOVERLAY, 0, STATIC
        FUNCALL zclZEM_ProcessCommissioningStatus, NLME_GetShortAddr
        LOCFRAME ISTACK, 0, STACK
        LOCFRAME PSTACK, 0, STACK
        LOCFRAME XSTACK, 122, STACK
        LOCFRAME IOVERLAY, 0, STATIC
        LOCFRAME DOVERLAY, 0, STATIC
        ARGFRAME ISTACK, 0, STACK
        ARGFRAME PSTACK, 0, STACK
        ARGFRAME XSTACK, 122, STACK
        ARGFRAME IOVERLAY, 0, STATIC
        ARGFRAME DOVERLAY, 0, STATIC
        FUNCALL zclZEM_ProcessCommissioningStatus, HalUARTWrite
        LOCFRAME ISTACK, 0, STACK
        LOCFRAME PSTACK, 0, STACK
        LOCFRAME XSTACK, 122, STACK
        LOCFRAME IOVERLAY, 0, STATIC
        LOCFRAME DOVERLAY, 0, STATIC
        ARGFRAME ISTACK, 0, STACK
        ARGFRAME PSTACK, 0, STACK
        ARGFRAME XSTACK, 122, STACK
        ARGFRAME IOVERLAY, 0, STATIC
        ARGFRAME DOVERLAY, 0, STATIC
        FUNCALL zclZEM_ProcessCommissioningStatus, HalLedSet
        LOCFRAME ISTACK, 0, STACK
        LOCFRAME PSTACK, 0, STACK
        LOCFRAME XSTACK, 122, STACK
        LOCFRAME IOVERLAY, 0, STATIC
        LOCFRAME DOVERLAY, 0, STATIC
        ARGFRAME ISTACK, 0, STACK
        ARGFRAME PSTACK, 0, STACK
        ARGFRAME XSTACK, 122, STACK
        ARGFRAME IOVERLAY, 0, STATIC
        ARGFRAME DOVERLAY, 0, STATIC
        FUNCALL zclZEM_ProcessCommissioningStatus, NLME_PermitJoiningRequest
        LOCFRAME ISTACK, 0, STACK
        LOCFRAME PSTACK, 0, STACK
        LOCFRAME XSTACK, 122, STACK
        LOCFRAME IOVERLAY, 0, STATIC
        LOCFRAME DOVERLAY, 0, STATIC
        ARGFRAME ISTACK, 0, STACK
        ARGFRAME PSTACK, 0, STACK
        ARGFRAME XSTACK, 122, STACK
        ARGFRAME IOVERLAY, 0, STATIC
        ARGFRAME DOVERLAY, 0, STATIC
        FUNCALL zclZEM_ProcessCommissioningStatus, osal_start_timerEx
        LOCFRAME ISTACK, 0, STACK
        LOCFRAME PSTACK, 0, STACK
        LOCFRAME XSTACK, 126, STACK
        LOCFRAME IOVERLAY, 0, STATIC
        LOCFRAME DOVERLAY, 0, STATIC
        ARGFRAME ISTACK, 0, STACK
        ARGFRAME PSTACK, 0, STACK
        ARGFRAME XSTACK, 126, STACK
        ARGFRAME IOVERLAY, 0, STATIC
        ARGFRAME DOVERLAY, 0, STATIC
        FUNCALL zclZEM_ProcessCommissioningStatus, HalUARTWrite
        LOCFRAME ISTACK, 0, STACK
        LOCFRAME PSTACK, 0, STACK
        LOCFRAME XSTACK, 122, STACK
        LOCFRAME IOVERLAY, 0, STATIC
        LOCFRAME DOVERLAY, 0, STATIC
        ARGFRAME ISTACK, 0, STACK
        ARGFRAME PSTACK, 0, STACK
        ARGFRAME XSTACK, 122, STACK
        ARGFRAME IOVERLAY, 0, STATIC
        ARGFRAME DOVERLAY, 0, STATIC
        FUNCALL zclZEM_ProcessCommissioningStatus, bdb_StartCommissioning
        LOCFRAME ISTACK, 0, STACK
        LOCFRAME PSTACK, 0, STACK
        LOCFRAME XSTACK, 122, STACK
        LOCFRAME IOVERLAY, 0, STATIC
        LOCFRAME DOVERLAY, 0, STATIC
        ARGFRAME ISTACK, 0, STACK
        ARGFRAME PSTACK, 0, STACK
        ARGFRAME XSTACK, 122, STACK
        ARGFRAME IOVERLAY, 0, STATIC
        ARGFRAME DOVERLAY, 0, STATIC
        REQUIRE ?V0
        REQUIRE ?V1
        MOV       A,#-0xa
        LCALL     ?BANKED_ENTER_XDATA
          CFI DPH0 load(1, XDATA, add(CFA_XSP16, literal(-1)))
          CFI DPL0 load(1, XDATA, add(CFA_XSP16, literal(-2)))
          CFI ?BRET_EXT load(1, XDATA, add(CFA_XSP16, literal(-3)))
          CFI ?RET_HIGH load(1, XDATA, add(CFA_XSP16, literal(-4)))
          CFI ?RET_LOW load(1, XDATA, add(CFA_XSP16, literal(-5)))
          CFI R7 load(1, XDATA, add(CFA_XSP16, literal(-6)))
          CFI V1 load(1, XDATA, add(CFA_XSP16, literal(-7)))
          CFI V0 load(1, XDATA, add(CFA_XSP16, literal(-8)))
          CFI VB load(1, XDATA, add(CFA_XSP16, literal(-9)))
          CFI R6 load(1, XDATA, add(CFA_XSP16, literal(-10)))
          CFI CFA_SP SP+0
          CFI CFA_XSP16 add(XSP16, 10)
        ; Saved register size: 10
        ; Auto size: 112
        MOV       A,#-0x70
        LCALL     ?ALLOC_XSTACK8
          CFI CFA_XSP16 add(XSP16, 122)
//  604     switch(bdbCommissioningModeMsg->bdbCommissioningMode)
        MOV       DPL,R2
        MOV       DPH,R3
        INC       DPTR
        MOVX      A,@DPTR
        XRL       A,#0x2
        JZ        $+5
        LJMP      ??zclZEM_ProcessCommissioningStatus_0 & 0xFFFF
//  605     {
//  606       case BDB_COMMISSIONING_FORMATION:
//  607         if(bdbCommissioningModeMsg->bdbCommissioningStatus == BDB_COMMISSIONING_SUCCESS)
        MOV       DPL,R2
        MOV       DPH,R3
        MOVX      A,@DPTR
        JZ        $+5
        LJMP      ??zclZEM_ProcessCommissioningStatus_1 & 0xFFFF
//  608         {
//  609           //After formation, perform nwk steering again plus the remaining commissioning modes that has not been process yet
//  610           bdb_StartCommissioning(BDB_COMMISSIONING_MODE_NWK_STEERING | bdbCommissioningModeMsg->bdbRemainingCommissioningModes);
        ; Setup parameters for call to function bdb_StartCommissioning
        INC       DPTR
        INC       DPTR
        MOVX      A,@DPTR
        ORL       A,#0x2
        MOV       R1,A
        LCALL     `??bdb_StartCommissioning::?relay`; Banked call to: bdb_StartCommissioning
//  611           // 网络形成成功
//  612           #ifdef ZDO_COORDINATOR
//  613           uint8 successMsg[] = "Network formation successful! PANID: ";
        MOV       DPTR,#`?<Constant "Network formation suc...">`
        MOV       A,#0x4a
        LCALL     ?XSTACK_DISP102_8
        MOV       A,#0x26
        LCALL     ?MOVE_LONG8_XDATA_XDATA
//  614           HalUARTWrite(HAL_UART_PORT_0, successMsg, sizeof(successMsg)-1);
        ; Setup parameters for call to function HalUARTWrite
        MOV       R4,#0x25
        MOV       R5,A
        MOV       A,#0x4a
        LCALL     ?XSTACK_DISP101_8
        MOV       R1,#0x0
        LCALL     `??HalUARTWrite::?relay`; Banked call to: HalUARTWrite
//  615           
//  616           // 打印PANID（十六进制格式）
//  617           uint8 panidStr[8];
//  618           uint16 panId = _NIB.nwkPanId;
        MOV       DPTR,#_NIB + 33
        MOVX      A,@DPTR
        MOV       R2,A
        INC       DPTR
        MOVX      A,@DPTR
//  619           
//  620           // 转换高字节
//  621           uint8 highByte = (panId >> 8) & 0xFF;
        MOV       R0,A
//  622           uint8 highNibbleH = (highByte >> 4) & 0x0F;
        SWAP      A
        ANL       A,#0xf
        MOV       R1,A
//  623           uint8 lowNibbleH = highByte & 0x0F;
        MOV       A,#0xf
        ANL       A,R0
        MOV       R0,A
//  624           panidStr[0] = (highNibbleH < 10) ? ('0' + highNibbleH) : ('A' + highNibbleH - 10);
        MOV       A,R1
        CLR       C
        SUBB      A,#0xa
        JNC       ??zclZEM_ProcessCommissioningStatus_2
        MOV       A,#0x30
        SJMP      ??zclZEM_ProcessCommissioningStatus_3
??zclZEM_ProcessCommissioningStatus_2:
        MOV       A,#0x37
??zclZEM_ProcessCommissioningStatus_3:
        ADD       A,R1
        PUSH      A
          CFI CFA_SP SP+-1
        MOV       A,#0x6
        LCALL     ?XSTACK_DISP0_8
        POP       A
          CFI CFA_SP SP+0
        MOVX      @DPTR,A
//  625           panidStr[1] = (lowNibbleH < 10) ? ('0' + lowNibbleH) : ('A' + lowNibbleH - 10);
        MOV       A,R0
        CLR       C
        SUBB      A,#0xa
        JNC       ??zclZEM_ProcessCommissioningStatus_4
        MOV       A,#0x30
        SJMP      ??zclZEM_ProcessCommissioningStatus_5
??zclZEM_ProcessCommissioningStatus_4:
        MOV       A,#0x37
??zclZEM_ProcessCommissioningStatus_5:
        ADD       A,R0
        MOV       R0,A
        MOV       A,#0x7
        LCALL     ?XSTACK_DISP0_8
        LCALL     ?Subroutine4 & 0xFFFF
//  626           
//  627           // 转换低字节
//  628           uint8 lowByte = panId & 0xFF;
//  629           uint8 highNibbleL = (lowByte >> 4) & 0x0F;
//  630           uint8 lowNibbleL = lowByte & 0x0F;
//  631           panidStr[2] = (highNibbleL < 10) ? ('0' + highNibbleL) : ('A' + highNibbleL - 10);
??CrossCallReturnLabel_0:
        JNC       ??zclZEM_ProcessCommissioningStatus_6
        MOV       A,#0x30
        SJMP      ??zclZEM_ProcessCommissioningStatus_7
??zclZEM_ProcessCommissioningStatus_6:
        MOV       A,#0x37
??zclZEM_ProcessCommissioningStatus_7:
        ADD       A,R0
        MOV       R0,A
        MOV       A,#0x8
        LCALL     ?XSTACK_DISP0_8
        MOV       A,R0
        MOVX      @DPTR,A
//  632           panidStr[3] = (lowNibbleL < 10) ? ('0' + lowNibbleL) : ('A' + lowNibbleL - 10);
        MOV       A,R1
        CLR       C
        SUBB      A,#0xa
        JNC       ??zclZEM_ProcessCommissioningStatus_8
        MOV       A,#0x30
        SJMP      ??zclZEM_ProcessCommissioningStatus_9
??zclZEM_ProcessCommissioningStatus_8:
        MOV       A,#0x37
??zclZEM_ProcessCommissioningStatus_9:
        ADD       A,R1
        MOV       R0,A
        MOV       A,#0x9
        LCALL     ?XSTACK_DISP0_8
        MOV       A,R0
        MOVX      @DPTR,A
//  633           
//  634           panidStr[4] = '\r';
        MOV       A,#0xa
        LCALL     ?XSTACK_DISP0_8
        MOV       A,#0xd
        MOVX      @DPTR,A
//  635           panidStr[5] = '\n';
        MOV       A,#0xb
        LCALL     ?XSTACK_DISP0_8
        MOV       A,#0xa
        MOVX      @DPTR,A
//  636           HalUARTWrite(0, panidStr, 6);
        ; Setup parameters for call to function HalUARTWrite
        MOV       R4,#0x6
        MOV       R5,#0x0
        MOV       A,R4
        LCALL     ?XSTACK_DISP101_8
        MOV       R1,#0x0
        LCALL     `??HalUARTWrite::?relay`; Banked call to: HalUARTWrite
//  637           
//  638           // 打印网络地址（十六进制格式）
//  639           uint8 nwkAddrMsg[] = "Network Address: 0x";
        MOV       DPTR,#`?<Constant "Network Address: 0x">`
        MOV       A,#0x36
        LCALL     ?XSTACK_DISP102_8
        MOV       A,#0x14
        LCALL     ?MOVE_LONG8_XDATA_XDATA
//  640           HalUARTWrite(HAL_UART_PORT_0, nwkAddrMsg, sizeof(nwkAddrMsg)-1);
        ; Setup parameters for call to function HalUARTWrite
        MOV       R4,#0x13
        MOV       R5,A
        MOV       A,#0x36
        LCALL     ?XSTACK_DISP101_8
        MOV       R1,#0x0
        LCALL     `??HalUARTWrite::?relay`; Banked call to: HalUARTWrite
//  641           
//  642           uint16 nwkAddr = NLME_GetShortAddr(); // 获取协调器的网络地址
        ; Setup parameters for call to function NLME_GetShortAddr
        LCALL     `??NLME_GetShortAddr::?relay`; Banked call to: NLME_GetShortAddr
//  643           uint8 nwkAddrStr[6];
//  644           
//  645           // 转换高字节
//  646           uint8 nwkHighByte = (nwkAddr >> 8) & 0xFF;
        MOV       A,R3
        LCALL     ?Subroutine13 & 0xFFFF
//  647           uint8 nwkHighNibbleH = (nwkHighByte >> 4) & 0x0F;
//  648           uint8 nwkLowNibbleH = nwkHighByte & 0x0F;
//  649           nwkAddrStr[0] = (nwkHighNibbleH < 10) ? ('0' + nwkHighNibbleH) : ('A' + nwkHighNibbleH - 10);
??CrossCallReturnLabel_18:
        JNC       ??zclZEM_ProcessCommissioningStatus_10
        MOV       A,#0x30
        SJMP      ??zclZEM_ProcessCommissioningStatus_11
??zclZEM_ProcessCommissioningStatus_10:
        MOV       A,#0x37
??zclZEM_ProcessCommissioningStatus_11:
        ADD       A,R0
        MOV       R0,A
        MOV       A,R0
        MOV       DPL,?XSP + 0
        MOV       DPH,?XSP + 1
        MOVX      @DPTR,A
//  650           nwkAddrStr[1] = (nwkLowNibbleH < 10) ? ('0' + nwkLowNibbleH) : ('A' + nwkLowNibbleH - 10);
        MOV       A,R1
        SUBB      A,#0xa
        JNC       ??zclZEM_ProcessCommissioningStatus_12
        MOV       A,#0x30
        SJMP      ??zclZEM_ProcessCommissioningStatus_13
??zclZEM_ProcessCommissioningStatus_12:
        MOV       A,#0x37
??zclZEM_ProcessCommissioningStatus_13:
        ADD       A,R1
        MOV       R0,A
        MOV       A,#0x1
        LCALL     ?XSTACK_DISP0_8
        LCALL     ?Subroutine4 & 0xFFFF
//  651           
//  652           // 转换低字节
//  653           uint8 nwkLowByte = nwkAddr & 0xFF;
//  654           uint8 nwkHighNibbleL = (nwkLowByte >> 4) & 0x0F;
//  655           uint8 nwkLowNibbleL = nwkLowByte & 0x0F;
//  656           nwkAddrStr[2] = (nwkHighNibbleL < 10) ? ('0' + nwkHighNibbleL) : ('A' + nwkHighNibbleL - 10);
??CrossCallReturnLabel_1:
        JNC       ??zclZEM_ProcessCommissioningStatus_14
        MOV       A,#0x30
        SJMP      ??zclZEM_ProcessCommissioningStatus_15
??zclZEM_ProcessCommissioningStatus_14:
        MOV       A,#0x37
??zclZEM_ProcessCommissioningStatus_15:
        ADD       A,R0
        MOV       R0,A
        MOV       A,#0x2
        LCALL     ?XSTACK_DISP0_8
        MOV       A,R0
        MOVX      @DPTR,A
//  657           nwkAddrStr[3] = (nwkLowNibbleL < 10) ? ('0' + nwkLowNibbleL) : ('A' + nwkLowNibbleL - 10);
        MOV       A,R1
        CLR       C
        SUBB      A,#0xa
        JNC       ??zclZEM_ProcessCommissioningStatus_16
        MOV       A,#0x30
        SJMP      ??zclZEM_ProcessCommissioningStatus_17
??zclZEM_ProcessCommissioningStatus_16:
        MOV       A,#0x37
??zclZEM_ProcessCommissioningStatus_17:
        ADD       A,R1
        MOV       R0,A
        MOV       A,#0x3
        LCALL     ?XSTACK_DISP0_8
        MOV       A,R0
        MOVX      @DPTR,A
//  658           
//  659           nwkAddrStr[4] = '\r';
        MOV       A,#0x4
        LCALL     ?XSTACK_DISP0_8
        MOV       A,#0xd
        MOVX      @DPTR,A
//  660           nwkAddrStr[5] = '\n';
        MOV       A,#0x5
        LCALL     ?XSTACK_DISP0_8
        MOV       A,#0xa
        MOVX      @DPTR,A
//  661           HalUARTWrite(0, nwkAddrStr, 6);
        ; Setup parameters for call to function HalUARTWrite
        MOV       R4,#0x6
        MOV       R5,#0x0
        MOV       R2,?XSP + 0
        MOV       R3,?XSP + 1
        MOV       R1,#0x0
        LCALL     `??HalUARTWrite::?relay`; Banked call to: HalUARTWrite
//  662           
//  663           // 协调器组网成功后LED常亮
//  664           HalLedSet(HAL_LED_1, HAL_LED_MODE_ON);
        ; Setup parameters for call to function HalLedSet
        MOV       R2,#0x1
        MOV       R1,#0x1
        LCALL     `??HalLedSet::?relay`; Banked call to: HalLedSet
//  665           
//  666           // 组网成功后允许设备加入网络
//  667           NLME_PermitJoiningRequest(255);
        ; Setup parameters for call to function NLME_PermitJoiningRequest
        MOV       R1,#-0x1
        LCALL     `??NLME_PermitJoiningRequest::?relay`; Banked call to: NLME_PermitJoiningRequest
//  668           
//  669           // 组网成功后启动广播和组播定时器
//  670           // Broadcast
//  671           osal_start_timerEx(zclZEM_TaskID,
//  672                              ZEM_BROADCAST_EVT,
//  673                              ZEM_BROADCAST_PERIOD);
        ; Setup parameters for call to function osal_start_timerEx
        MOV       DPTR,#__Constant_3e8
        LCALL     ?PUSH_XSTACK8_X_FOUR
          CFI CFA_XSP16 add(XSP16, 126)
        MOV       R2,#0x0
        MOV       R3,#0x10
        MOV       DPTR,#zclZEM_TaskID
        MOVX      A,@DPTR
        MOV       R1,A
        LCALL     `??osal_start_timerEx::?relay`; Banked call to: osal_start_timerEx
        MOV       A,#0x4
        LCALL     ?DEALLOC_XSTACK8
          CFI CFA_XSP16 add(XSP16, 122)
        SJMP      ??zclZEM_ProcessCommissioningStatus_0
//  674           #endif
//  675         }
//  676         else
//  677         {
//  678           //Want to try other channels?
//  679           //try with bdb_setChannelAttribute
//  680           // 网络形成失败
//  681           #ifdef ZDO_COORDINATOR
//  682           uint8 failMsg[] = "Network formation failed! Retrying...\r\n";
??zclZEM_ProcessCommissioningStatus_1:
        MOV       DPTR,#`?<Constant "Network formation fai...">`
        MOV       A,#0xe
        LCALL     ?XSTACK_DISP102_8
        MOV       A,#0x28
        LCALL     ?MOVE_LONG8_XDATA_XDATA
//  683           HalUARTWrite(HAL_UART_PORT_0, failMsg, sizeof(failMsg)-1);
        ; Setup parameters for call to function HalUARTWrite
        MOV       R4,#0x27
        MOV       R5,A
        MOV       A,#0xe
        LCALL     ?XSTACK_DISP101_8
        MOV       R1,#0x0
        LCALL     `??HalUARTWrite::?relay`; Banked call to: HalUARTWrite
//  684           
//  685           // 直接重新调用组网函数
//  686           bdb_StartCommissioning(BDB_COMMISSIONING_MODE_NWK_FORMATION |
//  687                                 BDB_COMMISSIONING_MODE_FINDING_BINDING);
        ; Setup parameters for call to function bdb_StartCommissioning
        MOV       R1,#0xc
        LCALL     `??bdb_StartCommissioning::?relay`; Banked call to: bdb_StartCommissioning
//  688           #endif
//  689         }
//  690       break;
//  691       case BDB_COMMISSIONING_NWK_STEERING:
//  692         if(bdbCommissioningModeMsg->bdbCommissioningStatus == BDB_COMMISSIONING_SUCCESS)
//  693         {
//  694           //YOUR JOB:
//  695           //We are on the nwk, what now?
//  696           // 网络引导成功
//  697           #ifdef ZDO_COORDINATOR
//  698           #else
//  699           uint8 steeringSuccessMsg[] = "Network steering successful! PANID: ";
//  700           HalUARTWrite(HAL_UART_PORT_0, steeringSuccessMsg, sizeof(steeringSuccessMsg)-1);
//  701           
//  702           // 打印PANID（十六进制格式）
//  703           uint8 panidStr[8];
//  704           uint16 panId = _NIB.nwkPanId;
//  705           
//  706           // 转换高字节
//  707           uint8 highByte = (panId >> 8) & 0xFF;
//  708           uint8 highNibbleH = (highByte >> 4) & 0x0F;
//  709           uint8 lowNibbleH = highByte & 0x0F;
//  710           panidStr[0] = (highNibbleH < 10) ? ('0' + highNibbleH) : ('A' + highNibbleH - 10);
//  711           panidStr[1] = (lowNibbleH < 10) ? ('0' + lowNibbleH) : ('A' + lowNibbleH - 10);
//  712           
//  713           // 转换低字节
//  714           uint8 lowByte = panId & 0xFF;
//  715           uint8 highNibbleL = (lowByte >> 4) & 0x0F;
//  716           uint8 lowNibbleL = lowByte & 0x0F;
//  717           panidStr[2] = (highNibbleL < 10) ? ('0' + highNibbleL) : ('A' + highNibbleL - 10);
//  718           panidStr[3] = (lowNibbleL < 10) ? ('0' + lowNibbleL) : ('A' + lowNibbleL - 10);
//  719           
//  720           panidStr[4] = '\r';
//  721           panidStr[5] = '\n';
//  722           HalUARTWrite(0, panidStr, 6);
//  723           
//  724           // 打印网络地址（十六进制格式）
//  725           uint8 nwkAddrMsg[] = "Network Address: 0x";
//  726           HalUARTWrite(HAL_UART_PORT_0, nwkAddrMsg, sizeof(nwkAddrMsg)-1);
//  727           
//  728           uint16 nwkAddr = NLME_GetShortAddr(); // 获取终端的网络地址
//  729           uint8 nwkAddrStr[6];
//  730           
//  731           // 转换高字节
//  732           uint8 nwkHighByte = (nwkAddr >> 8) & 0xFF;
//  733           uint8 nwkHighNibbleH = (nwkHighByte >> 4) & 0x0F;
//  734           uint8 nwkLowNibbleH = nwkHighByte & 0x0F;
//  735           nwkAddrStr[0] = (nwkHighNibbleH < 10) ? ('0' + nwkHighNibbleH) : ('A' + nwkHighNibbleH - 10);
//  736           nwkAddrStr[1] = (nwkLowNibbleH < 10) ? ('0' + nwkLowNibbleH) : ('A' + nwkLowNibbleH - 10);
//  737           
//  738           // 转换低字节
//  739           uint8 nwkLowByte = nwkAddr & 0xFF;
//  740           uint8 nwkHighNibbleL = (nwkLowByte >> 4) & 0x0F;
//  741           uint8 nwkLowNibbleL = nwkLowByte & 0x0F;
//  742           nwkAddrStr[2] = (nwkHighNibbleL < 10) ? ('0' + nwkHighNibbleL) : ('A' + nwkHighNibbleL - 10);
//  743           nwkAddrStr[3] = (nwkLowNibbleL < 10) ? ('0' + nwkLowNibbleL) : ('A' + nwkLowNibbleL - 10);
//  744           
//  745           nwkAddrStr[4] = '\r';
//  746           nwkAddrStr[5] = '\n';
//  747           HalUARTWrite(0, nwkAddrStr, 6);
//  748           
//  749           // 入网成功后使用P2P向协调器发送MAC地址
//  750           zclZEM_SendMACToCoordinator();
//  751           
//  752           // 入网成功后启动P2P定时器，定期向协调器发送MAC地址
//  753           osal_start_timerEx(zclZEM_TaskID,
//  754                              ZEM_P2P_EVT,
//  755                              ZEM_P2P_PERIOD);
//  756           
//  757           // 终端入网成功后LED常亮
//  758           HalLedSet(HAL_LED_1, HAL_LED_MODE_ON);
//  759           #endif
//  760         }
//  761         else
//  762         {
//  763           // 网络引导失败
//  764           #ifdef ZDO_COORDINATOR
//  765           /* 协调器 */
//  766           #else
//  767           /* 路由器或者终端 */
//  768           uint8 failMsg[] = "Network steering failed! Retrying in 1 second...\r\n";
//  769           HalUARTWrite(HAL_UART_PORT_0, failMsg, sizeof(failMsg)-1);
//  770           
//  771           /* 无限重试网络引导 */
//  772           osal_start_timerEx(zclZEM_TaskID, 
//  773                                     ZEM_REJOIN_EVT, 
//  774                                     ZEM_REJOIN_PERIOD);
//  775           #endif
//  776         }
//  777         break;
//  778       case BDB_COMMISSIONING_FINDING_BINDING:
//  779         if(bdbCommissioningModeMsg->bdbCommissioningStatus == BDB_COMMISSIONING_SUCCESS)
//  780         {
//  781           //YOUR JOB:
//  782         }
//  783         else
//  784         {
//  785           //YOUR JOB:
//  786           //retry?, wait for user interaction?
//  787         }
//  788       break;
//  789       case BDB_COMMISSIONING_INITIALIZATION:
//  790         //Initialization notification can only be successful. Failure on initialization 
//  791         //only happens for ZED and is notified as BDB_COMMISSIONING_PARENT_LOST notification
//  792         
//  793         //YOUR JOB:
//  794         //We are on a network, what now?
//  795         
//  796       break;
//  797 #if ZG_BUILD_ENDDEVICE_TYPE    
//  798     case BDB_COMMISSIONING_PARENT_LOST:
//  799       if(bdbCommissioningModeMsg->bdbCommissioningStatus == BDB_COMMISSIONING_NETWORK_RESTORED)
//  800       {
//  801         //We did recover from losing parent
//  802       }
//  803       else
//  804       {
//  805         //Parent not found, attempt to rejoin again after a fixed delay
//  806         //osal_start_timerEx(zclZEM_TaskID, SAMPLEAPP_END_DEVICE_REJOIN_EVT, SAMPLEAPP_END_DEVICE_REJOIN_DELAY);
//  807         
//  808         /* 协调器 */
//  809 #ifdef ZDO_COORDINATOR
//  810         /* 路由器或者终端 */
//  811 #else
//  812       /* 启动重新加入事件 */
//  813       osal_start_timerEx(zclZEM_TaskID, 
//  814                         ZEM_REJOIN_EVT, 
//  815                         ZEM_REJOIN_PERIOD);
//  816 #endif
//  817       }
//  818     break;
//  819 #endif 
//  820     }
//  821 
//  822 }
??zclZEM_ProcessCommissioningStatus_0:
        MOV       A,#0x70
        LJMP      ?Subroutine0 & 0xFFFF
          CFI EndBlock cfiBlock69

        RSEG BANKED_CODE:HUGECODE:NOROOT(0)
?Subroutine13:
          CFI Block cfiCond70 Using cfiCommon0
          CFI Function zclZEM_event_loop
          CFI Conditional ??CrossCallReturnLabel_17
          CFI R6 load(1, XDATA, add(CFA_XSP16, literal(-15)))
          CFI VB load(1, XDATA, add(CFA_XSP16, literal(-14)))
          CFI V0 load(1, XDATA, add(CFA_XSP16, literal(-13)))
          CFI V1 load(1, XDATA, add(CFA_XSP16, literal(-12)))
          CFI V2 load(1, XDATA, add(CFA_XSP16, literal(-11)))
          CFI V3 load(1, XDATA, add(CFA_XSP16, literal(-10)))
          CFI V4 load(1, XDATA, add(CFA_XSP16, literal(-9)))
          CFI V5 load(1, XDATA, add(CFA_XSP16, literal(-8)))
          CFI V6 load(1, XDATA, add(CFA_XSP16, literal(-7)))
          CFI R7 load(1, XDATA, add(CFA_XSP16, literal(-6)))
          CFI ?RET_LOW load(1, XDATA, add(CFA_XSP16, literal(-5)))
          CFI ?RET_HIGH load(1, XDATA, add(CFA_XSP16, literal(-4)))
          CFI ?BRET_EXT load(1, XDATA, add(CFA_XSP16, literal(-3)))
          CFI DPL0 load(1, XDATA, add(CFA_XSP16, literal(-2)))
          CFI DPH0 load(1, XDATA, add(CFA_XSP16, literal(-1)))
          CFI CFA_SP SP+-2
          CFI CFA_XSP16 add(XSP16, 269)
          CFI Block cfiCond71 Using cfiCommon0
          CFI (cfiCond71) Function zclZEM_ProcessCommissioningStatus
          CFI (cfiCond71) Conditional ??CrossCallReturnLabel_18
          CFI (cfiCond71) R6 load(1, XDATA, add(CFA_XSP16, literal(-10)))
          CFI (cfiCond71) VB load(1, XDATA, add(CFA_XSP16, literal(-9)))
          CFI (cfiCond71) V0 load(1, XDATA, add(CFA_XSP16, literal(-8)))
          CFI (cfiCond71) V1 load(1, XDATA, add(CFA_XSP16, literal(-7)))
          CFI (cfiCond71) R7 load(1, XDATA, add(CFA_XSP16, literal(-6)))
          CFI (cfiCond71) ?RET_LOW load(1, XDATA, add(CFA_XSP16, literal(-5)))
          CFI (cfiCond71) ?RET_HIGH load(1, XDATA, add(CFA_XSP16, literal(-4)))
          CFI (cfiCond71) ?BRET_EXT load(1, XDATA, add(CFA_XSP16, literal(-3)))
          CFI (cfiCond71) DPL0 load(1, XDATA, add(CFA_XSP16, literal(-2)))
          CFI (cfiCond71) DPH0 load(1, XDATA, add(CFA_XSP16, literal(-1)))
          CFI (cfiCond71) CFA_SP SP+-2
          CFI (cfiCond71) CFA_XSP16 add(XSP16, 122)
          CFI Block cfiPicker72 Using cfiCommon1
          CFI (cfiPicker72) NoFunction
          CFI (cfiPicker72) Picker
        LCALL     ?Subroutine21 & 0xFFFF
??CrossCallReturnLabel_33:
        RET
          CFI EndBlock cfiCond70
          CFI EndBlock cfiCond71
          CFI EndBlock cfiPicker72

        RSEG BANKED_CODE:HUGECODE:NOROOT(0)
?Subroutine4:
          CFI Block cfiCond73 Using cfiCommon0
          CFI Function zclZEM_ProcessCommissioningStatus
          CFI Conditional ??CrossCallReturnLabel_0
          CFI R6 load(1, XDATA, add(CFA_XSP16, literal(-10)))
          CFI VB load(1, XDATA, add(CFA_XSP16, literal(-9)))
          CFI V0 load(1, XDATA, add(CFA_XSP16, literal(-8)))
          CFI V1 load(1, XDATA, add(CFA_XSP16, literal(-7)))
          CFI R7 load(1, XDATA, add(CFA_XSP16, literal(-6)))
          CFI ?RET_LOW load(1, XDATA, add(CFA_XSP16, literal(-5)))
          CFI ?RET_HIGH load(1, XDATA, add(CFA_XSP16, literal(-4)))
          CFI ?BRET_EXT load(1, XDATA, add(CFA_XSP16, literal(-3)))
          CFI DPL0 load(1, XDATA, add(CFA_XSP16, literal(-2)))
          CFI DPH0 load(1, XDATA, add(CFA_XSP16, literal(-1)))
          CFI CFA_SP SP+-2
          CFI CFA_XSP16 add(XSP16, 122)
          CFI Block cfiCond74 Using cfiCommon0
          CFI (cfiCond74) Function zclZEM_ProcessCommissioningStatus
          CFI (cfiCond74) Conditional ??CrossCallReturnLabel_1
          CFI (cfiCond74) R6 load(1, XDATA, add(CFA_XSP16, literal(-10)))
          CFI (cfiCond74) VB load(1, XDATA, add(CFA_XSP16, literal(-9)))
          CFI (cfiCond74) V0 load(1, XDATA, add(CFA_XSP16, literal(-8)))
          CFI (cfiCond74) V1 load(1, XDATA, add(CFA_XSP16, literal(-7)))
          CFI (cfiCond74) R7 load(1, XDATA, add(CFA_XSP16, literal(-6)))
          CFI (cfiCond74) ?RET_LOW load(1, XDATA, add(CFA_XSP16, literal(-5)))
          CFI (cfiCond74) ?RET_HIGH load(1, XDATA, add(CFA_XSP16, literal(-4)))
          CFI (cfiCond74) ?BRET_EXT load(1, XDATA, add(CFA_XSP16, literal(-3)))
          CFI (cfiCond74) DPL0 load(1, XDATA, add(CFA_XSP16, literal(-2)))
          CFI (cfiCond74) DPH0 load(1, XDATA, add(CFA_XSP16, literal(-1)))
          CFI (cfiCond74) CFA_SP SP+-2
          CFI (cfiCond74) CFA_XSP16 add(XSP16, 122)
          CFI Block cfiPicker75 Using cfiCommon1
          CFI (cfiPicker75) NoFunction
          CFI (cfiPicker75) Picker
        MOV       A,R0
        MOVX      @DPTR,A
        MOV       A,R2
        LCALL     ?Subroutine21 & 0xFFFF
??CrossCallReturnLabel_34:
        RET
          CFI EndBlock cfiCond73
          CFI EndBlock cfiCond74
          CFI EndBlock cfiPicker75

        RSEG BANKED_CODE:HUGECODE:NOROOT(0)
?Subroutine21:
          CFI Block cfiCond76 Using cfiCommon0
          CFI Function zclZEM_event_loop
          CFI Conditional ??CrossCallReturnLabel_33, ??CrossCallReturnLabel_17
          CFI R6 load(1, XDATA, add(CFA_XSP16, literal(-15)))
          CFI VB load(1, XDATA, add(CFA_XSP16, literal(-14)))
          CFI V0 load(1, XDATA, add(CFA_XSP16, literal(-13)))
          CFI V1 load(1, XDATA, add(CFA_XSP16, literal(-12)))
          CFI V2 load(1, XDATA, add(CFA_XSP16, literal(-11)))
          CFI V3 load(1, XDATA, add(CFA_XSP16, literal(-10)))
          CFI V4 load(1, XDATA, add(CFA_XSP16, literal(-9)))
          CFI V5 load(1, XDATA, add(CFA_XSP16, literal(-8)))
          CFI V6 load(1, XDATA, add(CFA_XSP16, literal(-7)))
          CFI R7 load(1, XDATA, add(CFA_XSP16, literal(-6)))
          CFI ?RET_LOW load(1, XDATA, add(CFA_XSP16, literal(-5)))
          CFI ?RET_HIGH load(1, XDATA, add(CFA_XSP16, literal(-4)))
          CFI ?BRET_EXT load(1, XDATA, add(CFA_XSP16, literal(-3)))
          CFI DPL0 load(1, XDATA, add(CFA_XSP16, literal(-2)))
          CFI DPH0 load(1, XDATA, add(CFA_XSP16, literal(-1)))
          CFI CFA_SP SP+-4
          CFI CFA_XSP16 add(XSP16, 269)
          CFI Block cfiCond77 Using cfiCommon0
          CFI (cfiCond77) Function zclZEM_ProcessCommissioningStatus
          CFI (cfiCond77) Conditional ??CrossCallReturnLabel_33, ??CrossCallReturnLabel_18
          CFI (cfiCond77) R6 load(1, XDATA, add(CFA_XSP16, literal(-10)))
          CFI (cfiCond77) VB load(1, XDATA, add(CFA_XSP16, literal(-9)))
          CFI (cfiCond77) V0 load(1, XDATA, add(CFA_XSP16, literal(-8)))
          CFI (cfiCond77) V1 load(1, XDATA, add(CFA_XSP16, literal(-7)))
          CFI (cfiCond77) R7 load(1, XDATA, add(CFA_XSP16, literal(-6)))
          CFI (cfiCond77) ?RET_LOW load(1, XDATA, add(CFA_XSP16, literal(-5)))
          CFI (cfiCond77) ?RET_HIGH load(1, XDATA, add(CFA_XSP16, literal(-4)))
          CFI (cfiCond77) ?BRET_EXT load(1, XDATA, add(CFA_XSP16, literal(-3)))
          CFI (cfiCond77) DPL0 load(1, XDATA, add(CFA_XSP16, literal(-2)))
          CFI (cfiCond77) DPH0 load(1, XDATA, add(CFA_XSP16, literal(-1)))
          CFI (cfiCond77) CFA_SP SP+-4
          CFI (cfiCond77) CFA_XSP16 add(XSP16, 122)
          CFI Block cfiCond78 Using cfiCommon0
          CFI (cfiCond78) Function zclZEM_ProcessCommissioningStatus
          CFI (cfiCond78) Conditional ??CrossCallReturnLabel_34, ??CrossCallReturnLabel_0
          CFI (cfiCond78) R6 load(1, XDATA, add(CFA_XSP16, literal(-10)))
          CFI (cfiCond78) VB load(1, XDATA, add(CFA_XSP16, literal(-9)))
          CFI (cfiCond78) V0 load(1, XDATA, add(CFA_XSP16, literal(-8)))
          CFI (cfiCond78) V1 load(1, XDATA, add(CFA_XSP16, literal(-7)))
          CFI (cfiCond78) R7 load(1, XDATA, add(CFA_XSP16, literal(-6)))
          CFI (cfiCond78) ?RET_LOW load(1, XDATA, add(CFA_XSP16, literal(-5)))
          CFI (cfiCond78) ?RET_HIGH load(1, XDATA, add(CFA_XSP16, literal(-4)))
          CFI (cfiCond78) ?BRET_EXT load(1, XDATA, add(CFA_XSP16, literal(-3)))
          CFI (cfiCond78) DPL0 load(1, XDATA, add(CFA_XSP16, literal(-2)))
          CFI (cfiCond78) DPH0 load(1, XDATA, add(CFA_XSP16, literal(-1)))
          CFI (cfiCond78) CFA_SP SP+-4
          CFI (cfiCond78) CFA_XSP16 add(XSP16, 122)
          CFI Block cfiCond79 Using cfiCommon0
          CFI (cfiCond79) Function zclZEM_ProcessCommissioningStatus
          CFI (cfiCond79) Conditional ??CrossCallReturnLabel_34, ??CrossCallReturnLabel_1
          CFI (cfiCond79) R6 load(1, XDATA, add(CFA_XSP16, literal(-10)))
          CFI (cfiCond79) VB load(1, XDATA, add(CFA_XSP16, literal(-9)))
          CFI (cfiCond79) V0 load(1, XDATA, add(CFA_XSP16, literal(-8)))
          CFI (cfiCond79) V1 load(1, XDATA, add(CFA_XSP16, literal(-7)))
          CFI (cfiCond79) R7 load(1, XDATA, add(CFA_XSP16, literal(-6)))
          CFI (cfiCond79) ?RET_LOW load(1, XDATA, add(CFA_XSP16, literal(-5)))
          CFI (cfiCond79) ?RET_HIGH load(1, XDATA, add(CFA_XSP16, literal(-4)))
          CFI (cfiCond79) ?BRET_EXT load(1, XDATA, add(CFA_XSP16, literal(-3)))
          CFI (cfiCond79) DPL0 load(1, XDATA, add(CFA_XSP16, literal(-2)))
          CFI (cfiCond79) DPH0 load(1, XDATA, add(CFA_XSP16, literal(-1)))
          CFI (cfiCond79) CFA_SP SP+-4
          CFI (cfiCond79) CFA_XSP16 add(XSP16, 122)
          CFI Block cfiPicker80 Using cfiCommon1
          CFI (cfiPicker80) NoFunction
          CFI (cfiPicker80) Picker
        MOV       R1,A
        SWAP      A
        ANL       A,#0xf
        MOV       R0,A
        MOV       A,#0xf
        ANL       A,R1
        MOV       R1,A
        MOV       A,R0
        CLR       C
        SUBB      A,#0xa
        RET
          CFI EndBlock cfiCond76
          CFI EndBlock cfiCond77
          CFI EndBlock cfiCond78
          CFI EndBlock cfiCond79
          CFI EndBlock cfiPicker80
//  823 
//  824 /*********************************************************************
//  825  * @fn      zclZEM_BasicResetCB
//  826  *
//  827  * @brief   Callback from the ZCL General Cluster Library
//  828  *          to set all the Basic Cluster attributes to default values.
//  829  *
//  830  * @param   none
//  831  *
//  832  * @return  none
//  833  */

        RSEG BANKED_CODE:HUGECODE:NOROOT(0)
//  834 static void zclZEM_BasicResetCB( void )
zclZEM_BasicResetCB:
          CFI Block cfiBlock81 Using cfiCommon0
          CFI Function zclZEM_BasicResetCB
        CODE
//  835 {
        FUNCALL zclZEM_BasicResetCB, zclZEM_ResetAttributesToDefaultValues
        LOCFRAME ISTACK, 2, STACK
        LOCFRAME PSTACK, 0, STACK
        LOCFRAME XSTACK, 0, STACK
        LOCFRAME IOVERLAY, 0, STATIC
        LOCFRAME DOVERLAY, 0, STATIC
        ARGFRAME ISTACK, 2, STACK
        ARGFRAME PSTACK, 0, STACK
        ARGFRAME XSTACK, 0, STACK
        ARGFRAME IOVERLAY, 0, STATIC
        ARGFRAME DOVERLAY, 0, STATIC
        PUSH      DPL
          CFI DPL0 Frame(CFA_SP, 4)
          CFI CFA_SP SP+-4
        PUSH      DPH
          CFI DPH0 Frame(CFA_SP, 5)
          CFI CFA_SP SP+-5
        ; Saved register size: 2
        ; Auto size: 0
//  836   zclZEM_ResetAttributesToDefaultValues();
        ; Setup parameters for call to function zclZEM_ResetAttributesToDefaultValues
        LCALL     `??zclZEM_ResetAttributesToDefaultValues::?relay`; Banked call to: zclZEM_ResetAttributesToDefaultValues
//  837   
//  838 }
          CFI EndBlock cfiBlock81
        REQUIRE ?Subroutine2
        ; // Fall through to label ?Subroutine2

        RSEG BANKED_CODE:HUGECODE:NOROOT(0)
?Subroutine2:
          CFI Block cfiBlock82 Using cfiCommon0
          CFI NoFunction
          CFI CFA_SP SP+-5
          CFI DPL0 Frame(CFA_SP, 4)
          CFI DPH0 Frame(CFA_SP, 5)
        POP       DPH
          CFI CFA_SP SP+-4
          CFI DPH0 SameValue
        POP       DPL
          CFI CFA_SP SP+-3
          CFI DPL0 SameValue
        LJMP      ?BRET
          CFI EndBlock cfiBlock82
//  839 
//  840 /*********************************************************************
//  841  * @fn      zclSampleApp_BatteryWarningCB
//  842  *
//  843  * @brief   Called to handle battery-low situation.
//  844  *
//  845  * @param   voltLevel - level of severity
//  846  *
//  847  * @return  none
//  848  */

        RSEG BANKED_CODE:HUGECODE:NOROOT(0)
//  849 void zclSampleApp_BatteryWarningCB( uint8 voltLevel )
zclSampleApp_BatteryWarningCB:
          CFI Block cfiBlock83 Using cfiCommon0
          CFI Function zclSampleApp_BatteryWarningCB
        CODE
//  850 {
        ; Saved register size: 0
        ; Auto size: 0
//  851   if ( voltLevel == VOLT_LEVEL_CAUTIOUS )
//  852   {
//  853     // Send warning message to the gateway and blink LED
//  854   }
//  855   else if ( voltLevel == VOLT_LEVEL_BAD )
//  856   {
//  857     // Shut down the system
//  858   }
//  859 }
        LJMP      ?BRET
          CFI EndBlock cfiBlock83
//  860 
//  861 /******************************************************************************
//  862  *
//  863  *  Functions for processing ZCL Foundation incoming Command/Response messages
//  864  *
//  865  *****************************************************************************/
//  866 
//  867 /*********************************************************************
//  868  * @fn      zclZEM_ProcessIncomingMsg
//  869  *
//  870  * @brief   Process ZCL Foundation incoming message
//  871  *
//  872  * @param   pInMsg - pointer to the received message
//  873  *
//  874  * @return  none
//  875  */

        RSEG BANKED_CODE:HUGECODE:NOROOT(0)
//  876 static void zclZEM_ProcessIncomingMsg( zclIncomingMsg_t *pInMsg)
zclZEM_ProcessIncomingMsg:
          CFI Block cfiBlock84 Using cfiCommon0
          CFI Function zclZEM_ProcessIncomingMsg
        CODE
//  877 {
        FUNCALL zclZEM_ProcessIncomingMsg, zclZEM_ProcessInDiscCmdsRspCmd
        LOCFRAME ISTACK, 0, STACK
        LOCFRAME PSTACK, 0, STACK
        LOCFRAME XSTACK, 9, STACK
        LOCFRAME IOVERLAY, 0, STATIC
        LOCFRAME DOVERLAY, 0, STATIC
        ARGFRAME ISTACK, 0, STACK
        ARGFRAME PSTACK, 0, STACK
        ARGFRAME XSTACK, 9, STACK
        ARGFRAME IOVERLAY, 0, STATIC
        ARGFRAME DOVERLAY, 0, STATIC
        FUNCALL zclZEM_ProcessIncomingMsg, zclZEM_ProcessInDiscCmdsRspCmd
        LOCFRAME ISTACK, 0, STACK
        LOCFRAME PSTACK, 0, STACK
        LOCFRAME XSTACK, 9, STACK
        LOCFRAME IOVERLAY, 0, STATIC
        LOCFRAME DOVERLAY, 0, STATIC
        ARGFRAME ISTACK, 0, STACK
        ARGFRAME PSTACK, 0, STACK
        ARGFRAME XSTACK, 9, STACK
        ARGFRAME IOVERLAY, 0, STATIC
        ARGFRAME DOVERLAY, 0, STATIC
        FUNCALL zclZEM_ProcessIncomingMsg, osal_mem_free
        LOCFRAME ISTACK, 0, STACK
        LOCFRAME PSTACK, 0, STACK
        LOCFRAME XSTACK, 9, STACK
        LOCFRAME IOVERLAY, 0, STATIC
        LOCFRAME DOVERLAY, 0, STATIC
        ARGFRAME ISTACK, 0, STACK
        ARGFRAME PSTACK, 0, STACK
        ARGFRAME XSTACK, 9, STACK
        ARGFRAME IOVERLAY, 0, STATIC
        ARGFRAME DOVERLAY, 0, STATIC
        MOV       A,#-0x9
        LCALL     ?BANKED_ENTER_XDATA
          CFI DPH0 load(1, XDATA, add(CFA_XSP16, literal(-1)))
          CFI DPL0 load(1, XDATA, add(CFA_XSP16, literal(-2)))
          CFI ?BRET_EXT load(1, XDATA, add(CFA_XSP16, literal(-3)))
          CFI ?RET_HIGH load(1, XDATA, add(CFA_XSP16, literal(-4)))
          CFI ?RET_LOW load(1, XDATA, add(CFA_XSP16, literal(-5)))
          CFI R7 load(1, XDATA, add(CFA_XSP16, literal(-6)))
          CFI V0 load(1, XDATA, add(CFA_XSP16, literal(-7)))
          CFI VB load(1, XDATA, add(CFA_XSP16, literal(-8)))
          CFI R6 load(1, XDATA, add(CFA_XSP16, literal(-9)))
          CFI CFA_SP SP+0
          CFI CFA_XSP16 add(XSP16, 9)
        ; Saved register size: 9
        ; Auto size: 0
//  878   switch ( pInMsg->zclHdr.commandID )
        MOV       A,R2
        ADD       A,#0x17
        MOV       R0,A
        CLR       A
        ADDC      A,R3
        MOV       R1,A
        MOV       A,R0
        MOV       R6,A
        MOV       A,R1
        MOV       R7,A
        MOV       DPL,R2
        MOV       DPH,R3
        INC       DPTR
        INC       DPTR
        INC       DPTR
        INC       DPTR
        INC       DPTR
        INC       DPTR
        INC       DPTR
        MOVX      A,@DPTR
        DEC       A
        JZ        ??zclZEM_ProcessIncomingMsg_0
        ADD       A,#-0x3
        JZ        ??zclZEM_ProcessIncomingMsg_1
        ADD       A,#-0x9
        JZ        ??zclZEM_ProcessIncomingMsg_2
        ADD       A,#-0x5
        JZ        ??zclZEM_ProcessIncomingMsg_3
        ADD       A,#-0x2
        JZ        ??zclZEM_ProcessIncomingMsg_3
        ADD       A,#-0x2
        JZ        ??zclZEM_ProcessIncomingMsg_4
        SJMP      ??zclZEM_ProcessIncomingMsg_5
//  879   {
//  880 #ifdef ZCL_READ
//  881     case ZCL_CMD_READ_RSP:
//  882       zclZEM_ProcessInReadRspCmd( pInMsg );
??zclZEM_ProcessIncomingMsg_0:
        LCALL     ?Subroutine11 & 0xFFFF
??CrossCallReturnLabel_15:
        MOVX      A,@DPTR
        MOV       R1,A
        MOV       A,R0
        CLR       C
        SUBB      A,R1
        JNC       ??zclZEM_ProcessIncomingMsg_5
        INC       R0
        SJMP      ??CrossCallReturnLabel_15
//  883       break;
//  884 #endif
//  885 #ifdef ZCL_WRITE
//  886     case ZCL_CMD_WRITE_RSP:
//  887       zclZEM_ProcessInWriteRspCmd( pInMsg );
??zclZEM_ProcessIncomingMsg_1:
        LCALL     ?Subroutine11 & 0xFFFF
??CrossCallReturnLabel_16:
        MOVX      A,@DPTR
        MOV       R1,A
        MOV       A,R0
        CLR       C
        SUBB      A,R1
        JNC       ??zclZEM_ProcessIncomingMsg_5
        INC       R0
        SJMP      ??CrossCallReturnLabel_16
//  888       break;
//  889 #endif
//  890 #ifdef ZCL_REPORT
//  891     // See ZCL Test Applicaiton (zcl_testapp.c) for sample code on Attribute Reporting
//  892     case ZCL_CMD_CONFIG_REPORT:
//  893       //zclZEM_ProcessInConfigReportCmd( pInMsg );
//  894       break;
//  895       case ZCL_CMD_READ_REPORT_CFG:
//  896       //zclZEM_ProcessInReadReportCfgCmd( pInMsg );
//  897       break;
//  898     case ZCL_CMD_CONFIG_REPORT_RSP:
//  899       //zclZEM_ProcessInConfigReportRspCmd( pInMsg );
//  900       break;
//  901     case ZCL_CMD_READ_REPORT_CFG_RSP:
//  902       //zclZEM_ProcessInReadReportCfgRspCmd( pInMsg );
//  903       break;
//  904 
//  905     case ZCL_CMD_REPORT:
//  906       //zclZEM_ProcessInReportCmd( pInMsg );
//  907       break;
//  908 #endif
//  909     case ZCL_CMD_DEFAULT_RSP:
//  910       zclZEM_ProcessInDefaultRspCmd( pInMsg );
//  911       break;
//  912 #ifdef ZCL_DISCOVER
//  913     case ZCL_CMD_DISCOVER_CMDS_RECEIVED_RSP:
//  914       zclZEM_ProcessInDiscCmdsRspCmd( pInMsg );
??zclZEM_ProcessIncomingMsg_3:
        ; Setup parameters for call to function zclZEM_ProcessInDiscCmdsRspCmd
//  915       break;
//  916 
//  917     case ZCL_CMD_DISCOVER_CMDS_GEN_RSP:
//  918       zclZEM_ProcessInDiscCmdsRspCmd( pInMsg );
        ; Setup parameters for call to function zclZEM_ProcessInDiscCmdsRspCmd
        LCALL     `??zclZEM_ProcessInDiscCmdsRspCmd::?relay`; Banked call to: zclZEM_ProcessInDiscCmdsRspCmd
//  919       break;
        SJMP      ??zclZEM_ProcessIncomingMsg_5
//  920 
//  921     case ZCL_CMD_DISCOVER_ATTRS_RSP:
//  922       zclZEM_ProcessInDiscAttrsRspCmd( pInMsg );
??zclZEM_ProcessIncomingMsg_2:
        LCALL     ?Subroutine12 & 0xFFFF
??CrossCallReturnLabel_48:
        MOV       DPL,R0
        MOV       DPH,R1
        INC       DPTR
        MOVX      A,@DPTR
        MOV       R3,A
        MOV       A,R2
        CLR       C
        SUBB      A,R3
        JNC       ??zclZEM_ProcessIncomingMsg_5
        INC       R2
        SJMP      ??CrossCallReturnLabel_48
//  923       break;
//  924 
//  925     case ZCL_CMD_DISCOVER_ATTRS_EXT_RSP:
//  926       zclZEM_ProcessInDiscAttrsExtRspCmd( pInMsg );
??zclZEM_ProcessIncomingMsg_4:
        LCALL     ?Subroutine12 & 0xFFFF
//  927       break;
//  928 #endif
//  929     default:
//  930       break;
//  931   }
??CrossCallReturnLabel_49:
        SJMP      ??zclZEM_ProcessIncomingMsg_6
??zclZEM_ProcessIncomingMsg_7:
        INC       R2
??zclZEM_ProcessIncomingMsg_6:
        MOV       DPL,R0
        MOV       DPH,R1
        INC       DPTR
        MOVX      A,@DPTR
        MOV       R3,A
        MOV       A,R2
        CLR       C
        SUBB      A,R3
        JC        ??zclZEM_ProcessIncomingMsg_7
//  932 
//  933   if ( pInMsg->attrCmd )
??zclZEM_ProcessIncomingMsg_5:
        MOV       DPL,R6
        MOV       DPH,R7
        MOVX      A,@DPTR
        MOV       R2,A
        INC       DPTR
        MOVX      A,@DPTR
        MOV       R3,A
        MOV       A,R2
        ORL       A,R3
        JZ        ??zclZEM_ProcessIncomingMsg_8
//  934   {
//  935     osal_mem_free( pInMsg->attrCmd );
        ; Setup parameters for call to function osal_mem_free
        LCALL     `??osal_mem_free::?relay`; Banked call to: osal_mem_free
//  936   }
//  937 }
??zclZEM_ProcessIncomingMsg_8:
        LJMP      ?Subroutine1 & 0xFFFF
          CFI EndBlock cfiBlock84

        RSEG BANKED_CODE:HUGECODE:NOROOT(0)
?Subroutine12:
          CFI Block cfiCond85 Using cfiCommon0
          CFI Function zclZEM_ProcessIncomingMsg
          CFI Conditional ??CrossCallReturnLabel_48
          CFI R6 load(1, XDATA, add(CFA_XSP16, literal(-9)))
          CFI VB load(1, XDATA, add(CFA_XSP16, literal(-8)))
          CFI V0 load(1, XDATA, add(CFA_XSP16, literal(-7)))
          CFI R7 load(1, XDATA, add(CFA_XSP16, literal(-6)))
          CFI ?RET_LOW load(1, XDATA, add(CFA_XSP16, literal(-5)))
          CFI ?RET_HIGH load(1, XDATA, add(CFA_XSP16, literal(-4)))
          CFI ?BRET_EXT load(1, XDATA, add(CFA_XSP16, literal(-3)))
          CFI DPL0 load(1, XDATA, add(CFA_XSP16, literal(-2)))
          CFI DPH0 load(1, XDATA, add(CFA_XSP16, literal(-1)))
          CFI CFA_SP SP+-2
          CFI CFA_XSP16 add(XSP16, 9)
          CFI Block cfiCond86 Using cfiCommon0
          CFI (cfiCond86) Function zclZEM_ProcessIncomingMsg
          CFI (cfiCond86) Conditional ??CrossCallReturnLabel_49
          CFI (cfiCond86) R6 load(1, XDATA, add(CFA_XSP16, literal(-9)))
          CFI (cfiCond86) VB load(1, XDATA, add(CFA_XSP16, literal(-8)))
          CFI (cfiCond86) V0 load(1, XDATA, add(CFA_XSP16, literal(-7)))
          CFI (cfiCond86) R7 load(1, XDATA, add(CFA_XSP16, literal(-6)))
          CFI (cfiCond86) ?RET_LOW load(1, XDATA, add(CFA_XSP16, literal(-5)))
          CFI (cfiCond86) ?RET_HIGH load(1, XDATA, add(CFA_XSP16, literal(-4)))
          CFI (cfiCond86) ?BRET_EXT load(1, XDATA, add(CFA_XSP16, literal(-3)))
          CFI (cfiCond86) DPL0 load(1, XDATA, add(CFA_XSP16, literal(-2)))
          CFI (cfiCond86) DPH0 load(1, XDATA, add(CFA_XSP16, literal(-1)))
          CFI (cfiCond86) CFA_SP SP+-2
          CFI (cfiCond86) CFA_XSP16 add(XSP16, 9)
          CFI Block cfiPicker87 Using cfiCommon1
          CFI (cfiPicker87) NoFunction
          CFI (cfiPicker87) Picker
        MOV       DPL,R6
        MOV       DPH,R7
          CFI EndBlock cfiCond85
          CFI EndBlock cfiCond86
          CFI EndBlock cfiPicker87
        REQUIRE ??Subroutine26_0
        ; // Fall through to label ??Subroutine26_0

        RSEG BANKED_CODE:HUGECODE:NOROOT(0)
??Subroutine26_0:
          CFI Block cfiCond88 Using cfiCommon0
          CFI Function zclZEM_ProcessInDiscCmdsRspCmd
          CFI Conditional ??CrossCallReturnLabel_47
          CFI DPL0 Frame(CFA_SP, 4)
          CFI DPH0 Frame(CFA_SP, 5)
          CFI CFA_SP SP+-7
          CFI Block cfiCond89 Using cfiCommon0
          CFI (cfiCond89) Function zclZEM_ProcessIncomingMsg
          CFI (cfiCond89) Conditional ??CrossCallReturnLabel_48
          CFI (cfiCond89) R6 load(1, XDATA, add(CFA_XSP16, literal(-9)))
          CFI (cfiCond89) VB load(1, XDATA, add(CFA_XSP16, literal(-8)))
          CFI (cfiCond89) V0 load(1, XDATA, add(CFA_XSP16, literal(-7)))
          CFI (cfiCond89) R7 load(1, XDATA, add(CFA_XSP16, literal(-6)))
          CFI (cfiCond89) ?RET_LOW load(1, XDATA, add(CFA_XSP16, literal(-5)))
          CFI (cfiCond89) ?RET_HIGH load(1, XDATA, add(CFA_XSP16, literal(-4)))
          CFI (cfiCond89) ?BRET_EXT load(1, XDATA, add(CFA_XSP16, literal(-3)))
          CFI (cfiCond89) DPL0 load(1, XDATA, add(CFA_XSP16, literal(-2)))
          CFI (cfiCond89) DPH0 load(1, XDATA, add(CFA_XSP16, literal(-1)))
          CFI (cfiCond89) CFA_SP SP+-2
          CFI (cfiCond89) CFA_XSP16 add(XSP16, 9)
          CFI Block cfiCond90 Using cfiCommon0
          CFI (cfiCond90) Function zclZEM_ProcessIncomingMsg
          CFI (cfiCond90) Conditional ??CrossCallReturnLabel_49
          CFI (cfiCond90) R6 load(1, XDATA, add(CFA_XSP16, literal(-9)))
          CFI (cfiCond90) VB load(1, XDATA, add(CFA_XSP16, literal(-8)))
          CFI (cfiCond90) V0 load(1, XDATA, add(CFA_XSP16, literal(-7)))
          CFI (cfiCond90) R7 load(1, XDATA, add(CFA_XSP16, literal(-6)))
          CFI (cfiCond90) ?RET_LOW load(1, XDATA, add(CFA_XSP16, literal(-5)))
          CFI (cfiCond90) ?RET_HIGH load(1, XDATA, add(CFA_XSP16, literal(-4)))
          CFI (cfiCond90) ?BRET_EXT load(1, XDATA, add(CFA_XSP16, literal(-3)))
          CFI (cfiCond90) DPL0 load(1, XDATA, add(CFA_XSP16, literal(-2)))
          CFI (cfiCond90) DPH0 load(1, XDATA, add(CFA_XSP16, literal(-1)))
          CFI (cfiCond90) CFA_SP SP+-2
          CFI (cfiCond90) CFA_XSP16 add(XSP16, 9)
          CFI Block cfiPicker91 Using cfiCommon1
          CFI (cfiPicker91) NoFunction
          CFI (cfiPicker91) Picker
        MOVX      A,@DPTR
        MOV       R0,A
        INC       DPTR
        MOVX      A,@DPTR
        MOV       R1,A
        MOV       R2,#0x0
        RET
          CFI EndBlock cfiCond88
          CFI EndBlock cfiCond89
          CFI EndBlock cfiCond90
          CFI EndBlock cfiPicker91

        RSEG BANKED_CODE:HUGECODE:NOROOT(0)
?Subroutine11:
          CFI Block cfiCond92 Using cfiCommon0
          CFI Function zclZEM_ProcessIncomingMsg
          CFI Conditional ??CrossCallReturnLabel_15
          CFI R6 load(1, XDATA, add(CFA_XSP16, literal(-9)))
          CFI VB load(1, XDATA, add(CFA_XSP16, literal(-8)))
          CFI V0 load(1, XDATA, add(CFA_XSP16, literal(-7)))
          CFI R7 load(1, XDATA, add(CFA_XSP16, literal(-6)))
          CFI ?RET_LOW load(1, XDATA, add(CFA_XSP16, literal(-5)))
          CFI ?RET_HIGH load(1, XDATA, add(CFA_XSP16, literal(-4)))
          CFI ?BRET_EXT load(1, XDATA, add(CFA_XSP16, literal(-3)))
          CFI DPL0 load(1, XDATA, add(CFA_XSP16, literal(-2)))
          CFI DPH0 load(1, XDATA, add(CFA_XSP16, literal(-1)))
          CFI CFA_SP SP+-2
          CFI CFA_XSP16 add(XSP16, 9)
          CFI Block cfiCond93 Using cfiCommon0
          CFI (cfiCond93) Function zclZEM_ProcessIncomingMsg
          CFI (cfiCond93) Conditional ??CrossCallReturnLabel_16
          CFI (cfiCond93) R6 load(1, XDATA, add(CFA_XSP16, literal(-9)))
          CFI (cfiCond93) VB load(1, XDATA, add(CFA_XSP16, literal(-8)))
          CFI (cfiCond93) V0 load(1, XDATA, add(CFA_XSP16, literal(-7)))
          CFI (cfiCond93) R7 load(1, XDATA, add(CFA_XSP16, literal(-6)))
          CFI (cfiCond93) ?RET_LOW load(1, XDATA, add(CFA_XSP16, literal(-5)))
          CFI (cfiCond93) ?RET_HIGH load(1, XDATA, add(CFA_XSP16, literal(-4)))
          CFI (cfiCond93) ?BRET_EXT load(1, XDATA, add(CFA_XSP16, literal(-3)))
          CFI (cfiCond93) DPL0 load(1, XDATA, add(CFA_XSP16, literal(-2)))
          CFI (cfiCond93) DPH0 load(1, XDATA, add(CFA_XSP16, literal(-1)))
          CFI (cfiCond93) CFA_SP SP+-2
          CFI (cfiCond93) CFA_XSP16 add(XSP16, 9)
          CFI Block cfiPicker94 Using cfiCommon1
          CFI (cfiPicker94) NoFunction
          CFI (cfiPicker94) Picker
        MOV       DPL,R6
        MOV       DPH,R7
        MOVX      A,@DPTR
        MOV       R0,A
        INC       DPTR
        MOVX      A,@DPTR
        MOV       R1,A
        MOV       DPL,R0
        MOV       DPH,R1
        MOV       R0,#0x0
        RET
          CFI EndBlock cfiCond92
          CFI EndBlock cfiCond93
          CFI EndBlock cfiPicker94
//  938 
//  939 #ifdef ZCL_READ
//  940 /*********************************************************************
//  941  * @fn      zclZEM_ProcessInReadRspCmd
//  942  *
//  943  * @brief   Process the "Profile" Read Response Command
//  944  *
//  945  * @param   pInMsg - incoming message to process
//  946  *
//  947  * @return  none
//  948  */
//  949 static uint8 zclZEM_ProcessInReadRspCmd( zclIncomingMsg_t *pInMsg )
//  950 {
//  951   zclReadRspCmd_t *readRspCmd;
//  952   uint8 i;
//  953 
//  954   readRspCmd = (zclReadRspCmd_t *)pInMsg->attrCmd;
//  955   for ( i = 0; i < readRspCmd->numAttr; i++ )
//  956   {
//  957     // Notify the originator of the results of the original read attributes
//  958     // attempt and, for each successfull request, the value of the requested
//  959     // attribute
//  960   }
//  961 
//  962   return ( TRUE );
//  963 }
//  964 #endif // ZCL_READ
//  965 
//  966 #ifdef ZCL_WRITE
//  967 /*********************************************************************
//  968  * @fn      zclZEM_ProcessInWriteRspCmd
//  969  *
//  970  * @brief   Process the "Profile" Write Response Command
//  971  *
//  972  * @param   pInMsg - incoming message to process
//  973  *
//  974  * @return  none
//  975  */
//  976 static uint8 zclZEM_ProcessInWriteRspCmd( zclIncomingMsg_t *pInMsg )
//  977 {
//  978   zclWriteRspCmd_t *writeRspCmd;
//  979   uint8 i;
//  980 
//  981   writeRspCmd = (zclWriteRspCmd_t *)pInMsg->attrCmd;
//  982   for ( i = 0; i < writeRspCmd->numAttr; i++ )
//  983   {
//  984     // Notify the device of the results of the its original write attributes
//  985     // command.
//  986   }
//  987 
//  988   return ( TRUE );
//  989 }
//  990 #endif // ZCL_WRITE
//  991 
//  992 /*********************************************************************
//  993  * @fn      zclZEM_ProcessInDefaultRspCmd
//  994  *
//  995  * @brief   Process the "Profile" Default Response Command
//  996  *
//  997  * @param   pInMsg - incoming message to process
//  998  *
//  999  * @return  none
// 1000  */
// 1001 static uint8 zclZEM_ProcessInDefaultRspCmd( zclIncomingMsg_t *pInMsg )
// 1002 {
// 1003   // zclDefaultRspCmd_t *defaultRspCmd = (zclDefaultRspCmd_t *)pInMsg->attrCmd;
// 1004 
// 1005   // Device is notified of the Default Response command.
// 1006   (void)pInMsg;
// 1007 
// 1008   return ( TRUE );
// 1009 }
// 1010 
// 1011 #ifdef ZCL_DISCOVER
// 1012 /*********************************************************************
// 1013  * @fn      zclZEM_ProcessInDiscCmdsRspCmd
// 1014  *
// 1015  * @brief   Process the Discover Commands Response Command
// 1016  *
// 1017  * @param   pInMsg - incoming message to process
// 1018  *
// 1019  * @return  none
// 1020  */

        RSEG BANKED_CODE:HUGECODE:NOROOT(0)
// 1021 static uint8 zclZEM_ProcessInDiscCmdsRspCmd( zclIncomingMsg_t *pInMsg )
zclZEM_ProcessInDiscCmdsRspCmd:
          CFI Block cfiBlock95 Using cfiCommon0
          CFI Function zclZEM_ProcessInDiscCmdsRspCmd
        CODE
// 1022 {
        PUSH      DPL
          CFI DPL0 Frame(CFA_SP, 4)
          CFI CFA_SP SP+-4
        PUSH      DPH
          CFI DPH0 Frame(CFA_SP, 5)
          CFI CFA_SP SP+-5
        ; Saved register size: 2
        ; Auto size: 0
// 1023   zclDiscoverCmdsCmdRsp_t *discoverRspCmd;
// 1024   uint8 i;
// 1025 
// 1026   discoverRspCmd = (zclDiscoverCmdsCmdRsp_t *)pInMsg->attrCmd;
        MOV       A,R2
        ADD       A,#0x17
        MOV       DPL,A
        CLR       A
        ADDC      A,R3
        MOV       DPH,A
        LCALL     ??Subroutine26_0 & 0xFFFF
// 1027   for ( i = 0; i < discoverRspCmd->numCmd; i++ )
??CrossCallReturnLabel_47:
        SJMP      ??zclZEM_ProcessInDiscCmdsRspCmd_0
??zclZEM_ProcessInDiscCmdsRspCmd_1:
        INC       R2
??zclZEM_ProcessInDiscCmdsRspCmd_0:
        MOV       DPL,R0
        MOV       DPH,R1
        INC       DPTR
        INC       DPTR
        MOVX      A,@DPTR
        MOV       R3,A
        MOV       A,R2
        CLR       C
        SUBB      A,R3
        JC        ??zclZEM_ProcessInDiscCmdsRspCmd_1
// 1028   {
// 1029     // Device is notified of the result of its attribute discovery command.
// 1030   }
// 1031 
// 1032   return ( TRUE );
        MOV       R1,#0x1
        LJMP      ?Subroutine2 & 0xFFFF
// 1033 }
          CFI EndBlock cfiBlock95
// 1034 
// 1035 /*********************************************************************
// 1036  * @fn      zclZEM_ProcessInDiscAttrsRspCmd
// 1037  *
// 1038  * @brief   Process the "Profile" Discover Attributes Response Command
// 1039  *
// 1040  * @param   pInMsg - incoming message to process
// 1041  *
// 1042  * @return  none
// 1043  */
// 1044 static uint8 zclZEM_ProcessInDiscAttrsRspCmd( zclIncomingMsg_t *pInMsg )
// 1045 {
// 1046   zclDiscoverAttrsRspCmd_t *discoverRspCmd;
// 1047   uint8 i;
// 1048 
// 1049   discoverRspCmd = (zclDiscoverAttrsRspCmd_t *)pInMsg->attrCmd;
// 1050   for ( i = 0; i < discoverRspCmd->numAttr; i++ )
// 1051   {
// 1052     // Device is notified of the result of its attribute discovery command.
// 1053   }
// 1054 
// 1055   return ( TRUE );
// 1056 }
// 1057 
// 1058 /*********************************************************************
// 1059  * @fn      zclZEM_ProcessInDiscAttrsExtRspCmd
// 1060  *
// 1061  * @brief   Process the "Profile" Discover Attributes Extended Response Command
// 1062  *
// 1063  * @param   pInMsg - incoming message to process
// 1064  *
// 1065  * @return  none
// 1066  */
// 1067 static uint8 zclZEM_ProcessInDiscAttrsExtRspCmd( zclIncomingMsg_t *pInMsg )
// 1068 {
// 1069   zclDiscoverAttrsExtRsp_t *discoverRspCmd;
// 1070   uint8 i;
// 1071 
// 1072   discoverRspCmd = (zclDiscoverAttrsExtRsp_t *)pInMsg->attrCmd;
// 1073   for ( i = 0; i < discoverRspCmd->numAttr; i++ )
// 1074   {
// 1075     // Device is notified of the result of its attribute discovery command.
// 1076   }
// 1077 
// 1078   return ( TRUE );
// 1079 }
// 1080 #endif // ZCL_DISCOVER
// 1081 
// 1082 
// 1083 
// 1084 
// 1085 /*********************************************************************
// 1086  * @fn      zclZEM_AF_P2P
// 1087  *
// 1088  * @brief   点对点发送函数
// 1089  *
// 1090  * @param   destNwkAddr - 目标设备的网络地址
// 1091  * @param   cid - Cluster ID，后续课程将会详细讲解
// 1092  * @param   len - 数据长度
// 1093  * @param   data - 数据内容
// 1094  *
// 1095  * @return  none
// 1096  */
// 1097 static void zclZEM_AF_P2P(
// 1098     uint16 destNwkAddr,
// 1099     uint16 cid,
// 1100     uint8 len,
// 1101     uint8 *data)
// 1102 {
// 1103     afAddrType_t dstAddr; //寻址信息配置

        RSEG XDATA_Z:XDATA:NOROOT(0)
        DATA8
// 1104     static uint8 transferId = 0;//传输ID，是数据包的标识符
??transferId:
        DS 1
        REQUIRE __INIT_XDATA_Z
// 1105     
// 1106     /* Destination */
// 1107     dstAddr.addrMode = afAddr16Bit;// 设置目标地址模式为16位网络地址，表示使用P2P的通信方式
// 1108     dstAddr.addr.shortAddr = destNwkAddr;//目标设备的网络地址
// 1109     dstAddr.endPoint = ZEM_ENDPOINT;//目标设备的端点号
// 1110     
// 1111     transferId++;
// 1112     
// 1113     AF_DataRequest(&dstAddr,
// 1114         &ZEM_AppEp,//应用程序端点描述符
// 1115         cid,
// 1116         len,
// 1117         data,
// 1118         &transferId,
// 1119         AF_DISCV_ROUTE,//进行路由扫描操作，用于建立发送数据报文的通信路径。关于这个参数，暂时保持例程默认的代码就可以了
// 1120         AF_DEFAULT_RADIUS);//指定最大的路由跳转级数
// 1121 }
// 1122 
// 1123 /*********************************************************************
// 1124  * @fn      zclZEM_AF_Broadcast
// 1125  *
// 1126  * @brief   广播发送函数
// 1127  *
// 1128  * @param   cid - Cluster ID
// 1129  * @param   len - 待发送数据的长度
// 1130  * @param   data - 待发送数据的内容
// 1131  *
// 1132  * @return  none
// 1133  */
// 1134 static void zclZEM_AF_Broadcast(
// 1135     uint16 cid,
// 1136     uint8 len,
// 1137     uint8 *data)
// 1138 {
// 1139     afAddrType_t dstAddr;

        RSEG XDATA_Z:XDATA:NOROOT(0)
        DATA8
// 1140     static uint8 transferId = 0;
??transferId_1:
        DS 1
        REQUIRE __INIT_XDATA_Z
// 1141     
// 1142     /* Destination */
// 1143     dstAddr.addrMode = afAddrBroadcast;   // 使用广播模式
// 1144     dstAddr.addr.shortAddr = 0xFFFF; // 广播地址
// 1145     dstAddr.endPoint = ZEM_ENDPOINT; // 目标设备的端点号
// 1146     
// 1147     /* Transfer id */
// 1148     transferId++;
// 1149     
// 1150     /* Send */
// 1151     AF_DataRequest(&dstAddr,
// 1152         &ZEM_AppEp,//应用程序端点描述符
// 1153         cid,
// 1154         len,
// 1155         data,
// 1156         &transferId,
// 1157         AF_TX_OPTIONS_NONE,
// 1158         AF_DEFAULT_RADIUS );//指定了最大的路由跳转级数
// 1159 }
// 1160 
// 1161 /*********************************************************************
// 1162  * @fn      zclZEM_AF_Groupcast
// 1163  *
// 1164  * @brief   组播发送函数
// 1165  *
// 1166  * @param   groupId - 组ID
// 1167  * @param   cid - ClusterID，后续章节将会详细讲解
// 1168  * @param   len - 待发送数据的长度
// 1169  * @param   data - 待发送数据的内容
// 1170  *
// 1171  * @return  none
// 1172  */
// 1173 static void zclZEM_AF_Groupcast(
// 1174     uint16 groupId,
// 1175     uint16 cid,
// 1176     uint8 len,
// 1177     uint8 *data)
// 1178 {
// 1179     afAddrType_t dstAddr;

        RSEG XDATA_Z:XDATA:NOROOT(0)
        DATA8
// 1180     static uint8 transferId = 0;
??transferId_2:
        DS 1
        REQUIRE __INIT_XDATA_Z
// 1181     
// 1182     /* Destination */
// 1183     dstAddr.addrMode = afAddrGroup;//使用组播通信模式
// 1184     dstAddr.addr.shortAddr = groupId;
// 1185     dstAddr.endPoint = ZEM_ENDPOINT;//组中的设备的端点号
// 1186     
// 1187     /* Transfer id */
// 1188     transferId++;
// 1189     
// 1190     /* Send */
// 1191     AF_DataRequest(&dstAddr,
// 1192         &ZEM_AppEp,//应用程序端点描述符
// 1193         cid,
// 1194         len,
// 1195         data,
// 1196         &transferId,
// 1197         AF_TX_OPTIONS_NONE,
// 1198         AF_DEFAULT_RADIUS );//指定最大的路由跳转级数，暂时可忽略
// 1199 }
// 1200 
// 1201 /*********************************************************************
// 1202  * @fn      zclZEM_AF_RxProc
// 1203  *
// 1204  * @brief   接收数据处理函数
// 1205  *
// 1206  * @param   MSGpkt - 接收到数据
// 1207  *
// 1208  * @return  none
// 1209  */

        RSEG BANKED_CODE:HUGECODE:NOROOT(0)
// 1210 static void zclZEM_AF_RxProc(afIncomingMSGPacket_t *MSGpkt)
zclZEM_AF_RxProc:
          CFI Block cfiBlock96 Using cfiCommon0
          CFI Function zclZEM_AF_RxProc
        CODE
// 1211 {
        FUNCALL zclZEM_AF_RxProc, osal_memcpy
        LOCFRAME ISTACK, 0, STACK
        LOCFRAME PSTACK, 0, STACK
        LOCFRAME XSTACK, 116, STACK
        LOCFRAME IOVERLAY, 0, STATIC
        LOCFRAME DOVERLAY, 0, STATIC
        ARGFRAME ISTACK, 0, STACK
        ARGFRAME PSTACK, 0, STACK
        ARGFRAME XSTACK, 116, STACK
        ARGFRAME IOVERLAY, 0, STATIC
        ARGFRAME DOVERLAY, 0, STATIC
        FUNCALL zclZEM_AF_RxProc, osal_memcpy
        LOCFRAME ISTACK, 0, STACK
        LOCFRAME PSTACK, 0, STACK
        LOCFRAME XSTACK, 116, STACK
        LOCFRAME IOVERLAY, 0, STATIC
        LOCFRAME DOVERLAY, 0, STATIC
        ARGFRAME ISTACK, 0, STACK
        ARGFRAME PSTACK, 0, STACK
        ARGFRAME XSTACK, 116, STACK
        ARGFRAME IOVERLAY, 0, STATIC
        ARGFRAME DOVERLAY, 0, STATIC
        FUNCALL zclZEM_AF_RxProc, osal_memcpy
        LOCFRAME ISTACK, 0, STACK
        LOCFRAME PSTACK, 0, STACK
        LOCFRAME XSTACK, 116, STACK
        LOCFRAME IOVERLAY, 0, STATIC
        LOCFRAME DOVERLAY, 0, STATIC
        ARGFRAME ISTACK, 0, STACK
        ARGFRAME PSTACK, 0, STACK
        ARGFRAME XSTACK, 116, STACK
        ARGFRAME IOVERLAY, 0, STATIC
        ARGFRAME DOVERLAY, 0, STATIC
        FUNCALL zclZEM_AF_RxProc, HalUARTWrite
        LOCFRAME ISTACK, 0, STACK
        LOCFRAME PSTACK, 0, STACK
        LOCFRAME XSTACK, 113, STACK
        LOCFRAME IOVERLAY, 0, STATIC
        LOCFRAME DOVERLAY, 0, STATIC
        ARGFRAME ISTACK, 0, STACK
        ARGFRAME PSTACK, 0, STACK
        ARGFRAME XSTACK, 113, STACK
        ARGFRAME IOVERLAY, 0, STATIC
        ARGFRAME DOVERLAY, 0, STATIC
        FUNCALL zclZEM_AF_RxProc, HalUARTWrite
        LOCFRAME ISTACK, 0, STACK
        LOCFRAME PSTACK, 0, STACK
        LOCFRAME XSTACK, 113, STACK
        LOCFRAME IOVERLAY, 0, STATIC
        LOCFRAME DOVERLAY, 0, STATIC
        ARGFRAME ISTACK, 0, STACK
        ARGFRAME PSTACK, 0, STACK
        ARGFRAME XSTACK, 113, STACK
        ARGFRAME IOVERLAY, 0, STATIC
        ARGFRAME DOVERLAY, 0, STATIC
        FUNCALL zclZEM_AF_RxProc, osal_memcpy
        LOCFRAME ISTACK, 0, STACK
        LOCFRAME PSTACK, 0, STACK
        LOCFRAME XSTACK, 116, STACK
        LOCFRAME IOVERLAY, 0, STATIC
        LOCFRAME DOVERLAY, 0, STATIC
        ARGFRAME ISTACK, 0, STACK
        ARGFRAME PSTACK, 0, STACK
        ARGFRAME XSTACK, 116, STACK
        ARGFRAME IOVERLAY, 0, STATIC
        ARGFRAME DOVERLAY, 0, STATIC
        FUNCALL zclZEM_AF_RxProc, osal_memcpy
        LOCFRAME ISTACK, 0, STACK
        LOCFRAME PSTACK, 0, STACK
        LOCFRAME XSTACK, 116, STACK
        LOCFRAME IOVERLAY, 0, STATIC
        LOCFRAME DOVERLAY, 0, STATIC
        ARGFRAME ISTACK, 0, STACK
        ARGFRAME PSTACK, 0, STACK
        ARGFRAME XSTACK, 116, STACK
        ARGFRAME IOVERLAY, 0, STATIC
        ARGFRAME DOVERLAY, 0, STATIC
        FUNCALL zclZEM_AF_RxProc, osal_memcpy
        LOCFRAME ISTACK, 0, STACK
        LOCFRAME PSTACK, 0, STACK
        LOCFRAME XSTACK, 116, STACK
        LOCFRAME IOVERLAY, 0, STATIC
        LOCFRAME DOVERLAY, 0, STATIC
        ARGFRAME ISTACK, 0, STACK
        ARGFRAME PSTACK, 0, STACK
        ARGFRAME XSTACK, 116, STACK
        ARGFRAME IOVERLAY, 0, STATIC
        ARGFRAME DOVERLAY, 0, STATIC
        FUNCALL zclZEM_AF_RxProc, HalUARTWrite
        LOCFRAME ISTACK, 0, STACK
        LOCFRAME PSTACK, 0, STACK
        LOCFRAME XSTACK, 113, STACK
        LOCFRAME IOVERLAY, 0, STATIC
        LOCFRAME DOVERLAY, 0, STATIC
        ARGFRAME ISTACK, 0, STACK
        ARGFRAME PSTACK, 0, STACK
        ARGFRAME XSTACK, 113, STACK
        ARGFRAME IOVERLAY, 0, STATIC
        ARGFRAME DOVERLAY, 0, STATIC
        FUNCALL zclZEM_AF_RxProc, osal_memcpy
        LOCFRAME ISTACK, 0, STACK
        LOCFRAME PSTACK, 0, STACK
        LOCFRAME XSTACK, 116, STACK
        LOCFRAME IOVERLAY, 0, STATIC
        LOCFRAME DOVERLAY, 0, STATIC
        ARGFRAME ISTACK, 0, STACK
        ARGFRAME PSTACK, 0, STACK
        ARGFRAME XSTACK, 116, STACK
        ARGFRAME IOVERLAY, 0, STATIC
        ARGFRAME DOVERLAY, 0, STATIC
        FUNCALL zclZEM_AF_RxProc, osal_memcpy
        LOCFRAME ISTACK, 0, STACK
        LOCFRAME PSTACK, 0, STACK
        LOCFRAME XSTACK, 116, STACK
        LOCFRAME IOVERLAY, 0, STATIC
        LOCFRAME DOVERLAY, 0, STATIC
        ARGFRAME ISTACK, 0, STACK
        ARGFRAME PSTACK, 0, STACK
        ARGFRAME XSTACK, 116, STACK
        ARGFRAME IOVERLAY, 0, STATIC
        ARGFRAME DOVERLAY, 0, STATIC
        FUNCALL zclZEM_AF_RxProc, osal_memcpy
        LOCFRAME ISTACK, 0, STACK
        LOCFRAME PSTACK, 0, STACK
        LOCFRAME XSTACK, 116, STACK
        LOCFRAME IOVERLAY, 0, STATIC
        LOCFRAME DOVERLAY, 0, STATIC
        ARGFRAME ISTACK, 0, STACK
        ARGFRAME PSTACK, 0, STACK
        ARGFRAME XSTACK, 116, STACK
        ARGFRAME IOVERLAY, 0, STATIC
        ARGFRAME DOVERLAY, 0, STATIC
        FUNCALL zclZEM_AF_RxProc, HalUARTWrite
        LOCFRAME ISTACK, 0, STACK
        LOCFRAME PSTACK, 0, STACK
        LOCFRAME XSTACK, 113, STACK
        LOCFRAME IOVERLAY, 0, STATIC
        LOCFRAME DOVERLAY, 0, STATIC
        ARGFRAME ISTACK, 0, STACK
        ARGFRAME PSTACK, 0, STACK
        ARGFRAME XSTACK, 113, STACK
        ARGFRAME IOVERLAY, 0, STATIC
        ARGFRAME DOVERLAY, 0, STATIC
        REQUIRE ?V0
        REQUIRE ?V1
        REQUIRE ?V2
        REQUIRE ?V3
        REQUIRE ?V4
        REQUIRE ?V5
        REQUIRE ?V6
        REQUIRE ?V8
        REQUIRE ?V9
        REQUIRE ?V10
        MOV       A,#-0x13
        LCALL     ?BANKED_ENTER_XDATA
          CFI DPH0 load(1, XDATA, add(CFA_XSP16, literal(-1)))
          CFI DPL0 load(1, XDATA, add(CFA_XSP16, literal(-2)))
          CFI ?BRET_EXT load(1, XDATA, add(CFA_XSP16, literal(-3)))
          CFI ?RET_HIGH load(1, XDATA, add(CFA_XSP16, literal(-4)))
          CFI ?RET_LOW load(1, XDATA, add(CFA_XSP16, literal(-5)))
          CFI R7 load(1, XDATA, add(CFA_XSP16, literal(-6)))
          CFI V10 load(1, XDATA, add(CFA_XSP16, literal(-7)))
          CFI V9 load(1, XDATA, add(CFA_XSP16, literal(-8)))
          CFI V8 load(1, XDATA, add(CFA_XSP16, literal(-9)))
          CFI V7 load(1, XDATA, add(CFA_XSP16, literal(-10)))
          CFI V6 load(1, XDATA, add(CFA_XSP16, literal(-11)))
          CFI V5 load(1, XDATA, add(CFA_XSP16, literal(-12)))
          CFI V4 load(1, XDATA, add(CFA_XSP16, literal(-13)))
          CFI V3 load(1, XDATA, add(CFA_XSP16, literal(-14)))
          CFI V2 load(1, XDATA, add(CFA_XSP16, literal(-15)))
          CFI V1 load(1, XDATA, add(CFA_XSP16, literal(-16)))
          CFI V0 load(1, XDATA, add(CFA_XSP16, literal(-17)))
          CFI VB load(1, XDATA, add(CFA_XSP16, literal(-18)))
          CFI R6 load(1, XDATA, add(CFA_XSP16, literal(-19)))
          CFI CFA_SP SP+0
          CFI CFA_XSP16 add(XSP16, 19)
        ; Saved register size: 19
        ; Auto size: 94
        MOV       A,#-0x5e
        LCALL     ?ALLOC_XSTACK8
          CFI CFA_XSP16 add(XSP16, 113)
// 1212     /*计数器，记录接收到的点对点通信数据包个数*/
// 1213     static uint8 p2pCnt = 0;
// 1214     /*计数器，记录接收到的广播通信数据包个数*/
// 1215     static uint8 bcCnt = 0;
// 1216     /*计数器，记录接收到的组播通信数据包个数*/
// 1217     static uint8 gcCnt = 0;
// 1218     
// 1219     switch( MSGpkt->clusterId )  // 判断接收到的数据包的Cluster ID
        MOV       ?V4,#`?<Constant " Count: ">` & 0xff
        MOV       ?V5,#(`?<Constant " Count: ">` >> 8) & 0xff
        MOV       ?V6,#0x0
        MOV       A,R2
        ADD       A,#0x22
        MOV       ?V0,A
        CLR       A
        ADDC      A,R3
        MOV       ?V1,A
        MOV       A,R2
        ADD       A,#0x20
        MOV       R6,A
        CLR       A
        ADDC      A,R3
        MOV       R7,A
        MOV       DPL,R2
        MOV       DPH,R3
        INC       DPTR
        INC       DPTR
        INC       DPTR
        INC       DPTR
        MOVX      A,@DPTR
        MOV       ?V2,A
        INC       DPTR
        MOVX      A,@DPTR
        MOV       ?V3,A
        MOV       R0,#?V2
        LCALL     ?US_SWITCH_DENSE
`?<Jumptable for zclZEM_AF_RxProc>_0`:
        DATA
        DATA16
        DATA
        DATA16
        DW        0
        DATA
        DATA8
        DATA
        DATA8
        DB        2
        DATA
        DATA16
        DATA
        DATA16
        DW        ??zclZEM_AF_RxProc_0
        DATA
        DATA16
        DATA
        DATA16
        DW        ??zclZEM_AF_RxProc_1
        DATA
        DATA16
        DATA
        DATA16
        DW        ??zclZEM_AF_RxProc_2
        DATA
        DATA16
        DATA
        DATA16
        DW        ??zclZEM_AF_RxProc_3
        CODE
// 1220     {
// 1221         case CLUSTER_P2P:
// 1222             p2pCnt++;  // 接收到P2P数据包，进行计数
??zclZEM_AF_RxProc_1:
        MOV       DPTR,#??p2pCnt
        MOVX      A,@DPTR
        INC       A
        MOVX      @DPTR,A
// 1223             // 通过串口输出接收到的数据和计数器值
// 1224             {
// 1225                 uint8 p2pMsg[64];
// 1226                 osal_memcpy(p2pMsg, "P2P Data: ", 10);
        ; Setup parameters for call to function osal_memcpy
        MOV       ?V8,#`?<Constant "P2P Data: ">` & 0xff
        MOV       ?V9,#(`?<Constant "P2P Data: ">` >> 8) & 0xff
        MOV       ?V10,#0x0
        MOV       R0,#?V8
        LCALL     ?PUSH_XSTACK_I_THREE
          CFI CFA_XSP16 add(XSP16, 116)
        MOV       R4,#0xa
        MOV       R5,#0x0
        MOV       A,#0x3
        LCALL     ?XSTACK_DISP101_8
        LCALL     `??osal_memcpy::?relay`; Banked call to: osal_memcpy
        MOV       A,#0x3
        LCALL     ?DEALLOC_XSTACK8
          CFI CFA_XSP16 add(XSP16, 113)
// 1227                 osal_memcpy(p2pMsg + 10, MSGpkt->cmd.Data, MSGpkt->cmd.DataLength);
        ; Setup parameters for call to function osal_memcpy
        LCALL     ?Subroutine8 & 0xFFFF
??CrossCallReturnLabel_10:
        LCALL     ?PUSH_XSTACK_I_THREE
          CFI CFA_XSP16 add(XSP16, 116)
        MOV       DPL,R6
        MOV       DPH,R7
        MOVX      A,@DPTR
        MOV       R4,A
        INC       DPTR
        MOVX      A,@DPTR
        MOV       R5,A
        MOV       A,#0xd
        LCALL     ?XSTACK_DISP0_8
        MOV       R2,DPL
        MOV       R3,DPH
        LCALL     `??osal_memcpy::?relay`; Banked call to: osal_memcpy
        MOV       A,#0x3
        LCALL     ?DEALLOC_XSTACK8
          CFI CFA_XSP16 add(XSP16, 113)
// 1228                 osal_memcpy(p2pMsg + 10 + MSGpkt->cmd.DataLength, " Count: ", 8);
        ; Setup parameters for call to function osal_memcpy
        MOV       R0,#?V4
        LCALL     ?PUSH_XSTACK_I_THREE
          CFI CFA_XSP16 add(XSP16, 116)
        MOV       R4,#0x8
        MOV       R5,#0x0
        MOV       DPL,R6
        MOV       DPH,R7
        MOV       A,#0x3
        LCALL     ?XSTACK_DISP100_8
        MOV       ?V1,R1
        LCALL     ??Subroutine27_0 & 0xFFFF
??CrossCallReturnLabel_50:
        ADD       A,#0xa
        MOV       R2,A
        CLR       A
        ADDC      A,R1
        MOV       R3,A
        LCALL     `??osal_memcpy::?relay`; Banked call to: osal_memcpy
        MOV       A,#0x3
        LCALL     ?DEALLOC_XSTACK8
          CFI CFA_XSP16 add(XSP16, 113)
// 1229                 p2pMsg[18 + MSGpkt->cmd.DataLength] = '0' + p2pCnt;
        MOV       DPTR,#??p2pCnt
        MOVX      A,@DPTR
        ADD       A,#0x30
        PUSH      A
          CFI CFA_SP SP+-1
        LCALL     ?Subroutine10 & 0xFFFF
// 1230                 p2pMsg[19 + MSGpkt->cmd.DataLength] = '\r';
// 1231                 p2pMsg[20 + MSGpkt->cmd.DataLength] = '\n';
// 1232                 HalUARTWrite(HAL_UART_PORT_0, p2pMsg, 21 + MSGpkt->cmd.DataLength);
// 1233             }
??CrossCallReturnLabel_51:
        ADD       A,#0x12
        MOV       DPL,A
        CLR       A
        ADDC      A,R1
        MOV       DPH,A
        POP       A
          CFI CFA_SP SP+0
        LCALL     ??Subroutine28_0 & 0xFFFF
??CrossCallReturnLabel_57:
        ADD       A,#0x13
        LCALL     ?Subroutine3 & 0xFFFF
??CrossCallReturnLabel_55:
        ADD       A,#0x14
        LCALL     ?Subroutine20 & 0xFFFF
??CrossCallReturnLabel_31:
        ADD       A,#0x15
        LJMP      ??zclZEM_AF_RxProc_4 & 0xFFFF
// 1234             break;
// 1235         case CLUSTER_BROADCAST:
// 1236             bcCnt++;  // 接收到广播数据包，进行计数
??zclZEM_AF_RxProc_2:
        MOV       DPTR,#??bcCnt
        MOVX      A,@DPTR
        INC       A
        MOVX      @DPTR,A
// 1237             
// 1238             // 添加广播接收调试信息
// 1239             uint8 bcRecvMsg[] = "Broadcast message received!\r\n";
        MOV       DPTR,#`?<Constant "Broadcast message rec...">`
        MOV       A,#0x40
        LCALL     ?XSTACK_DISP102_8
        MOV       A,#0x1e
        LCALL     ?MOVE_LONG8_XDATA_XDATA
// 1240             HalUARTWrite(HAL_UART_PORT_0, bcRecvMsg, sizeof(bcRecvMsg)-1);
        ; Setup parameters for call to function HalUARTWrite
        MOV       R4,#0x1d
        MOV       R5,A
        MOV       A,#0x40
        LCALL     ?XSTACK_DISP101_8
        MOV       R1,#0x0
        LCALL     `??HalUARTWrite::?relay`; Banked call to: HalUARTWrite
// 1241             
// 1242             // 通过串口输出接收到的数据和计数器值
// 1243             {
// 1244                 uint8 bcMsg[64];
// 1245                 osal_memcpy(bcMsg, "Broadcast Data: ", 16);
        ; Setup parameters for call to function osal_memcpy
        MOV       ?V8,#`?<Constant "Broadcast Data: ">` & 0xff
        MOV       ?V9,#(`?<Constant "Broadcast Data: ">` >> 8) & 0xff
        MOV       ?V10,#0x0
        MOV       R0,#?V8
        LCALL     ?PUSH_XSTACK_I_THREE
          CFI CFA_XSP16 add(XSP16, 116)
        MOV       R4,#0x10
        MOV       R5,#0x0
        MOV       A,#0x3
        LCALL     ?XSTACK_DISP101_8
        LCALL     `??osal_memcpy::?relay`; Banked call to: osal_memcpy
        MOV       A,#0x3
        LCALL     ?DEALLOC_XSTACK8
          CFI CFA_XSP16 add(XSP16, 113)
// 1246                 osal_memcpy(bcMsg + 16, MSGpkt->cmd.Data, MSGpkt->cmd.DataLength);
        ; Setup parameters for call to function osal_memcpy
        LCALL     ?Subroutine8 & 0xFFFF
??CrossCallReturnLabel_11:
        LCALL     ?PUSH_XSTACK_I_THREE
          CFI CFA_XSP16 add(XSP16, 116)
        MOV       DPL,R6
        MOV       DPH,R7
        MOVX      A,@DPTR
        MOV       R4,A
        INC       DPTR
        MOVX      A,@DPTR
        MOV       R5,A
        MOV       A,#0x13
        LCALL     ?XSTACK_DISP0_8
        MOV       R2,DPL
        MOV       R3,DPH
        LCALL     `??osal_memcpy::?relay`; Banked call to: osal_memcpy
        MOV       A,#0x3
        LCALL     ?DEALLOC_XSTACK8
          CFI CFA_XSP16 add(XSP16, 113)
// 1247                 osal_memcpy(bcMsg + 16 + MSGpkt->cmd.DataLength, " Count: ", 8);
        ; Setup parameters for call to function osal_memcpy
        MOV       R0,#?V4
        LCALL     ?PUSH_XSTACK_I_THREE
          CFI CFA_XSP16 add(XSP16, 116)
        MOV       R4,#0x8
        MOV       R5,#0x0
        MOV       DPL,R6
        MOV       DPH,R7
        MOV       A,#0x3
        LCALL     ?XSTACK_DISP100_8
        LCALL     ?Subroutine9 & 0xFFFF
??CrossCallReturnLabel_13:
        LCALL     `??osal_memcpy::?relay`; Banked call to: osal_memcpy
        MOV       A,#0x3
        LCALL     ?DEALLOC_XSTACK8
          CFI CFA_XSP16 add(XSP16, 113)
// 1248                 bcMsg[24 + MSGpkt->cmd.DataLength] = '0' + bcCnt;
        MOV       DPTR,#??bcCnt
        SJMP      ??zclZEM_AF_RxProc_5
// 1249                 bcMsg[25 + MSGpkt->cmd.DataLength] = '\r';
// 1250                 bcMsg[26 + MSGpkt->cmd.DataLength] = '\n';
// 1251                 HalUARTWrite(HAL_UART_PORT_0, bcMsg, 27 + MSGpkt->cmd.DataLength);
// 1252             }
// 1253             break;
// 1254         case CLUSTER_GROUPCAST:
// 1255             gcCnt++;  // 接收到组播数据包，进行计数
??zclZEM_AF_RxProc_3:
        MOV       DPTR,#??gcCnt
        MOVX      A,@DPTR
        INC       A
        MOVX      @DPTR,A
// 1256             // 通过串口输出接收到的数据和计数器值
// 1257             {
// 1258                 uint8 gcMsg[64];
// 1259                 osal_memcpy(gcMsg, "Groupcast Data: ", 16);
        ; Setup parameters for call to function osal_memcpy
        MOV       ?V8,#`?<Constant "Groupcast Data: ">` & 0xff
        MOV       ?V9,#(`?<Constant "Groupcast Data: ">` >> 8) & 0xff
        MOV       ?V10,#0x0
        MOV       R0,#?V8
        LCALL     ?PUSH_XSTACK_I_THREE
          CFI CFA_XSP16 add(XSP16, 116)
        MOV       R4,#0x10
        MOV       R5,#0x0
        MOV       A,#0x3
        LCALL     ?XSTACK_DISP101_8
        LCALL     `??osal_memcpy::?relay`; Banked call to: osal_memcpy
        MOV       A,#0x3
        LCALL     ?DEALLOC_XSTACK8
          CFI CFA_XSP16 add(XSP16, 113)
// 1260                 osal_memcpy(gcMsg + 16, MSGpkt->cmd.Data, MSGpkt->cmd.DataLength);
        ; Setup parameters for call to function osal_memcpy
        LCALL     ?Subroutine8 & 0xFFFF
??CrossCallReturnLabel_12:
        LCALL     ?PUSH_XSTACK_I_THREE
          CFI CFA_XSP16 add(XSP16, 116)
        MOV       DPL,R6
        MOV       DPH,R7
        MOVX      A,@DPTR
        MOV       R4,A
        INC       DPTR
        MOVX      A,@DPTR
        MOV       R5,A
        MOV       A,#0x13
        LCALL     ?XSTACK_DISP0_8
        MOV       R2,DPL
        MOV       R3,DPH
        LCALL     `??osal_memcpy::?relay`; Banked call to: osal_memcpy
        MOV       A,#0x3
        LCALL     ?DEALLOC_XSTACK8
          CFI CFA_XSP16 add(XSP16, 113)
// 1261                 osal_memcpy(gcMsg + 16 + MSGpkt->cmd.DataLength, " Count: ", 8);
        ; Setup parameters for call to function osal_memcpy
        MOV       R0,#?V4
        LCALL     ?PUSH_XSTACK_I_THREE
          CFI CFA_XSP16 add(XSP16, 116)
        MOV       R4,#0x8
        MOV       R5,#0x0
        MOV       DPL,R6
        MOV       DPH,R7
        MOV       A,#0x3
        LCALL     ?XSTACK_DISP100_8
        LCALL     ?Subroutine9 & 0xFFFF
??CrossCallReturnLabel_14:
        LCALL     `??osal_memcpy::?relay`; Banked call to: osal_memcpy
        MOV       A,#0x3
        LCALL     ?DEALLOC_XSTACK8
          CFI CFA_XSP16 add(XSP16, 113)
// 1262                 gcMsg[24 + MSGpkt->cmd.DataLength] = '0' + gcCnt;
        MOV       DPTR,#??gcCnt
??zclZEM_AF_RxProc_5:
        MOVX      A,@DPTR
        ADD       A,#0x30
        PUSH      A
          CFI CFA_SP SP+-1
// 1263                 gcMsg[25 + MSGpkt->cmd.DataLength] = '\r';
// 1264                 gcMsg[26 + MSGpkt->cmd.DataLength] = '\n';
// 1265                 HalUARTWrite(HAL_UART_PORT_0, gcMsg, 27 + MSGpkt->cmd.DataLength);
// 1266             }
        LCALL     ?Subroutine10 & 0xFFFF
??CrossCallReturnLabel_52:
        ADD       A,#0x18
        MOV       DPL,A
        CLR       A
        ADDC      A,R1
        MOV       DPH,A
        POP       A
          CFI CFA_SP SP+0
        LCALL     ??Subroutine28_0 & 0xFFFF
??CrossCallReturnLabel_58:
        ADD       A,#0x19
        LCALL     ?Subroutine3 & 0xFFFF
??CrossCallReturnLabel_56:
        ADD       A,#0x1a
        LCALL     ?Subroutine20 & 0xFFFF
??CrossCallReturnLabel_32:
        ADD       A,#0x1b
??zclZEM_AF_RxProc_4:
        MOV       R4,A
        INC       DPTR
        MOVX      A,@DPTR
        ADDC      A,#0x0
        MOV       R5,A
        MOV       R2,?XSP + 0
        MOV       R3,?XSP + 1
        MOV       R1,#0x0
        LCALL     `??HalUARTWrite::?relay`; Banked call to: HalUARTWrite
// 1267             break;
// 1268         default:
// 1269             break;
// 1270     }
// 1271 }
??zclZEM_AF_RxProc_0:
        MOV       A,#0x5e
        LCALL     ?DEALLOC_XSTACK8
          CFI CFA_XSP16 add(XSP16, 19)
        MOV       R7,#0xb
        LJMP      ?BANKED_LEAVE_XDATA
          CFI EndBlock cfiBlock96

        RSEG BANKED_CODE:HUGECODE:NOROOT(0)
?Subroutine20:
          CFI Block cfiCond97 Using cfiCommon0
          CFI Function zclZEM_AF_RxProc
          CFI Conditional ??CrossCallReturnLabel_31
          CFI R6 load(1, XDATA, add(CFA_XSP16, literal(-19)))
          CFI VB load(1, XDATA, add(CFA_XSP16, literal(-18)))
          CFI V0 load(1, XDATA, add(CFA_XSP16, literal(-17)))
          CFI V1 load(1, XDATA, add(CFA_XSP16, literal(-16)))
          CFI V2 load(1, XDATA, add(CFA_XSP16, literal(-15)))
          CFI V3 load(1, XDATA, add(CFA_XSP16, literal(-14)))
          CFI V4 load(1, XDATA, add(CFA_XSP16, literal(-13)))
          CFI V5 load(1, XDATA, add(CFA_XSP16, literal(-12)))
          CFI V6 load(1, XDATA, add(CFA_XSP16, literal(-11)))
          CFI V7 load(1, XDATA, add(CFA_XSP16, literal(-10)))
          CFI V8 load(1, XDATA, add(CFA_XSP16, literal(-9)))
          CFI V9 load(1, XDATA, add(CFA_XSP16, literal(-8)))
          CFI V10 load(1, XDATA, add(CFA_XSP16, literal(-7)))
          CFI R7 load(1, XDATA, add(CFA_XSP16, literal(-6)))
          CFI ?RET_LOW load(1, XDATA, add(CFA_XSP16, literal(-5)))
          CFI ?RET_HIGH load(1, XDATA, add(CFA_XSP16, literal(-4)))
          CFI ?BRET_EXT load(1, XDATA, add(CFA_XSP16, literal(-3)))
          CFI DPL0 load(1, XDATA, add(CFA_XSP16, literal(-2)))
          CFI DPH0 load(1, XDATA, add(CFA_XSP16, literal(-1)))
          CFI CFA_SP SP+-2
          CFI CFA_XSP16 add(XSP16, 113)
          CFI Block cfiCond98 Using cfiCommon0
          CFI (cfiCond98) Function zclZEM_AF_RxProc
          CFI (cfiCond98) Conditional ??CrossCallReturnLabel_32
          CFI (cfiCond98) R6 load(1, XDATA, add(CFA_XSP16, literal(-19)))
          CFI (cfiCond98) VB load(1, XDATA, add(CFA_XSP16, literal(-18)))
          CFI (cfiCond98) V0 load(1, XDATA, add(CFA_XSP16, literal(-17)))
          CFI (cfiCond98) V1 load(1, XDATA, add(CFA_XSP16, literal(-16)))
          CFI (cfiCond98) V2 load(1, XDATA, add(CFA_XSP16, literal(-15)))
          CFI (cfiCond98) V3 load(1, XDATA, add(CFA_XSP16, literal(-14)))
          CFI (cfiCond98) V4 load(1, XDATA, add(CFA_XSP16, literal(-13)))
          CFI (cfiCond98) V5 load(1, XDATA, add(CFA_XSP16, literal(-12)))
          CFI (cfiCond98) V6 load(1, XDATA, add(CFA_XSP16, literal(-11)))
          CFI (cfiCond98) V7 load(1, XDATA, add(CFA_XSP16, literal(-10)))
          CFI (cfiCond98) V8 load(1, XDATA, add(CFA_XSP16, literal(-9)))
          CFI (cfiCond98) V9 load(1, XDATA, add(CFA_XSP16, literal(-8)))
          CFI (cfiCond98) V10 load(1, XDATA, add(CFA_XSP16, literal(-7)))
          CFI (cfiCond98) R7 load(1, XDATA, add(CFA_XSP16, literal(-6)))
          CFI (cfiCond98) ?RET_LOW load(1, XDATA, add(CFA_XSP16, literal(-5)))
          CFI (cfiCond98) ?RET_HIGH load(1, XDATA, add(CFA_XSP16, literal(-4)))
          CFI (cfiCond98) ?BRET_EXT load(1, XDATA, add(CFA_XSP16, literal(-3)))
          CFI (cfiCond98) DPL0 load(1, XDATA, add(CFA_XSP16, literal(-2)))
          CFI (cfiCond98) DPH0 load(1, XDATA, add(CFA_XSP16, literal(-1)))
          CFI (cfiCond98) CFA_SP SP+-2
          CFI (cfiCond98) CFA_XSP16 add(XSP16, 113)
          CFI Block cfiPicker99 Using cfiCommon1
          CFI (cfiPicker99) NoFunction
          CFI (cfiPicker99) Picker
        MOV       DPL,A
        CLR       A
        ADDC      A,R1
        MOV       DPH,A
        MOV       A,#0xa
        MOVX      @DPTR,A
        ; Setup parameters for call to function HalUARTWrite
        ; Setup parameters for call to function HalUARTWrite
        MOV       DPL,R6
        MOV       DPH,R7
        MOVX      A,@DPTR
        RET
          CFI EndBlock cfiCond97
          CFI EndBlock cfiCond98
          CFI EndBlock cfiPicker99

        RSEG BANKED_CODE:HUGECODE:NOROOT(0)
?Subroutine10:
          CFI Block cfiCond100 Using cfiCommon0
          CFI Function zclZEM_AF_RxProc
          CFI Conditional ??CrossCallReturnLabel_51
          CFI R6 load(1, XDATA, add(CFA_XSP16, literal(-19)))
          CFI VB load(1, XDATA, add(CFA_XSP16, literal(-18)))
          CFI V0 load(1, XDATA, add(CFA_XSP16, literal(-17)))
          CFI V1 load(1, XDATA, add(CFA_XSP16, literal(-16)))
          CFI V2 load(1, XDATA, add(CFA_XSP16, literal(-15)))
          CFI V3 load(1, XDATA, add(CFA_XSP16, literal(-14)))
          CFI V4 load(1, XDATA, add(CFA_XSP16, literal(-13)))
          CFI V5 load(1, XDATA, add(CFA_XSP16, literal(-12)))
          CFI V6 load(1, XDATA, add(CFA_XSP16, literal(-11)))
          CFI V7 load(1, XDATA, add(CFA_XSP16, literal(-10)))
          CFI V8 load(1, XDATA, add(CFA_XSP16, literal(-9)))
          CFI V9 load(1, XDATA, add(CFA_XSP16, literal(-8)))
          CFI V10 load(1, XDATA, add(CFA_XSP16, literal(-7)))
          CFI R7 load(1, XDATA, add(CFA_XSP16, literal(-6)))
          CFI ?RET_LOW load(1, XDATA, add(CFA_XSP16, literal(-5)))
          CFI ?RET_HIGH load(1, XDATA, add(CFA_XSP16, literal(-4)))
          CFI ?BRET_EXT load(1, XDATA, add(CFA_XSP16, literal(-3)))
          CFI DPL0 load(1, XDATA, add(CFA_XSP16, literal(-2)))
          CFI DPH0 load(1, XDATA, add(CFA_XSP16, literal(-1)))
          CFI CFA_XSP16 add(XSP16, 113)
          CFI Block cfiCond101 Using cfiCommon0
          CFI (cfiCond101) Function zclZEM_AF_RxProc
          CFI (cfiCond101) Conditional ??CrossCallReturnLabel_52
          CFI (cfiCond101) R6 load(1, XDATA, add(CFA_XSP16, literal(-19)))
          CFI (cfiCond101) VB load(1, XDATA, add(CFA_XSP16, literal(-18)))
          CFI (cfiCond101) V0 load(1, XDATA, add(CFA_XSP16, literal(-17)))
          CFI (cfiCond101) V1 load(1, XDATA, add(CFA_XSP16, literal(-16)))
          CFI (cfiCond101) V2 load(1, XDATA, add(CFA_XSP16, literal(-15)))
          CFI (cfiCond101) V3 load(1, XDATA, add(CFA_XSP16, literal(-14)))
          CFI (cfiCond101) V4 load(1, XDATA, add(CFA_XSP16, literal(-13)))
          CFI (cfiCond101) V5 load(1, XDATA, add(CFA_XSP16, literal(-12)))
          CFI (cfiCond101) V6 load(1, XDATA, add(CFA_XSP16, literal(-11)))
          CFI (cfiCond101) V7 load(1, XDATA, add(CFA_XSP16, literal(-10)))
          CFI (cfiCond101) V8 load(1, XDATA, add(CFA_XSP16, literal(-9)))
          CFI (cfiCond101) V9 load(1, XDATA, add(CFA_XSP16, literal(-8)))
          CFI (cfiCond101) V10 load(1, XDATA, add(CFA_XSP16, literal(-7)))
          CFI (cfiCond101) R7 load(1, XDATA, add(CFA_XSP16, literal(-6)))
          CFI (cfiCond101) ?RET_LOW load(1, XDATA, add(CFA_XSP16, literal(-5)))
          CFI (cfiCond101) ?RET_HIGH load(1, XDATA, add(CFA_XSP16, literal(-4)))
          CFI (cfiCond101) ?BRET_EXT load(1, XDATA, add(CFA_XSP16, literal(-3)))
          CFI (cfiCond101) DPL0 load(1, XDATA, add(CFA_XSP16, literal(-2)))
          CFI (cfiCond101) DPH0 load(1, XDATA, add(CFA_XSP16, literal(-1)))
          CFI (cfiCond101) CFA_XSP16 add(XSP16, 113)
          CFI Block cfiPicker102 Using cfiCommon1
          CFI (cfiPicker102) NoFunction
          CFI (cfiPicker102) Picker
        MOV       DPL,R6
        MOV       DPH,R7
        MOV       R0,?XSP + 0
        MOV       ?V0,R0
          CFI EndBlock cfiCond100
          CFI EndBlock cfiCond101
          CFI EndBlock cfiPicker102
        REQUIRE ??Subroutine27_0
        ; // Fall through to label ??Subroutine27_0

        RSEG BANKED_CODE:HUGECODE:NOROOT(0)
??Subroutine27_0:
          CFI Block cfiCond103 Using cfiCommon0
          CFI Function zclZEM_AF_RxProc
          CFI Conditional ??CrossCallReturnLabel_50
          CFI R6 load(1, XDATA, add(CFA_XSP16, literal(-19)))
          CFI VB load(1, XDATA, add(CFA_XSP16, literal(-18)))
          CFI V0 load(1, XDATA, add(CFA_XSP16, literal(-17)))
          CFI V1 load(1, XDATA, add(CFA_XSP16, literal(-16)))
          CFI V2 load(1, XDATA, add(CFA_XSP16, literal(-15)))
          CFI V3 load(1, XDATA, add(CFA_XSP16, literal(-14)))
          CFI V4 load(1, XDATA, add(CFA_XSP16, literal(-13)))
          CFI V5 load(1, XDATA, add(CFA_XSP16, literal(-12)))
          CFI V6 load(1, XDATA, add(CFA_XSP16, literal(-11)))
          CFI V7 load(1, XDATA, add(CFA_XSP16, literal(-10)))
          CFI V8 load(1, XDATA, add(CFA_XSP16, literal(-9)))
          CFI V9 load(1, XDATA, add(CFA_XSP16, literal(-8)))
          CFI V10 load(1, XDATA, add(CFA_XSP16, literal(-7)))
          CFI R7 load(1, XDATA, add(CFA_XSP16, literal(-6)))
          CFI ?RET_LOW load(1, XDATA, add(CFA_XSP16, literal(-5)))
          CFI ?RET_HIGH load(1, XDATA, add(CFA_XSP16, literal(-4)))
          CFI ?BRET_EXT load(1, XDATA, add(CFA_XSP16, literal(-3)))
          CFI DPL0 load(1, XDATA, add(CFA_XSP16, literal(-2)))
          CFI DPH0 load(1, XDATA, add(CFA_XSP16, literal(-1)))
          CFI CFA_SP SP+-2
          CFI CFA_XSP16 add(XSP16, 116)
          CFI Block cfiCond104 Using cfiCommon0
          CFI (cfiCond104) Function zclZEM_AF_RxProc
          CFI (cfiCond104) Conditional ??CrossCallReturnLabel_51
          CFI (cfiCond104) R6 load(1, XDATA, add(CFA_XSP16, literal(-19)))
          CFI (cfiCond104) VB load(1, XDATA, add(CFA_XSP16, literal(-18)))
          CFI (cfiCond104) V0 load(1, XDATA, add(CFA_XSP16, literal(-17)))
          CFI (cfiCond104) V1 load(1, XDATA, add(CFA_XSP16, literal(-16)))
          CFI (cfiCond104) V2 load(1, XDATA, add(CFA_XSP16, literal(-15)))
          CFI (cfiCond104) V3 load(1, XDATA, add(CFA_XSP16, literal(-14)))
          CFI (cfiCond104) V4 load(1, XDATA, add(CFA_XSP16, literal(-13)))
          CFI (cfiCond104) V5 load(1, XDATA, add(CFA_XSP16, literal(-12)))
          CFI (cfiCond104) V6 load(1, XDATA, add(CFA_XSP16, literal(-11)))
          CFI (cfiCond104) V7 load(1, XDATA, add(CFA_XSP16, literal(-10)))
          CFI (cfiCond104) V8 load(1, XDATA, add(CFA_XSP16, literal(-9)))
          CFI (cfiCond104) V9 load(1, XDATA, add(CFA_XSP16, literal(-8)))
          CFI (cfiCond104) V10 load(1, XDATA, add(CFA_XSP16, literal(-7)))
          CFI (cfiCond104) R7 load(1, XDATA, add(CFA_XSP16, literal(-6)))
          CFI (cfiCond104) ?RET_LOW load(1, XDATA, add(CFA_XSP16, literal(-5)))
          CFI (cfiCond104) ?RET_HIGH load(1, XDATA, add(CFA_XSP16, literal(-4)))
          CFI (cfiCond104) ?BRET_EXT load(1, XDATA, add(CFA_XSP16, literal(-3)))
          CFI (cfiCond104) DPL0 load(1, XDATA, add(CFA_XSP16, literal(-2)))
          CFI (cfiCond104) DPH0 load(1, XDATA, add(CFA_XSP16, literal(-1)))
          CFI (cfiCond104) CFA_XSP16 add(XSP16, 113)
          CFI Block cfiCond105 Using cfiCommon0
          CFI (cfiCond105) Function zclZEM_AF_RxProc
          CFI (cfiCond105) Conditional ??CrossCallReturnLabel_52
          CFI (cfiCond105) R6 load(1, XDATA, add(CFA_XSP16, literal(-19)))
          CFI (cfiCond105) VB load(1, XDATA, add(CFA_XSP16, literal(-18)))
          CFI (cfiCond105) V0 load(1, XDATA, add(CFA_XSP16, literal(-17)))
          CFI (cfiCond105) V1 load(1, XDATA, add(CFA_XSP16, literal(-16)))
          CFI (cfiCond105) V2 load(1, XDATA, add(CFA_XSP16, literal(-15)))
          CFI (cfiCond105) V3 load(1, XDATA, add(CFA_XSP16, literal(-14)))
          CFI (cfiCond105) V4 load(1, XDATA, add(CFA_XSP16, literal(-13)))
          CFI (cfiCond105) V5 load(1, XDATA, add(CFA_XSP16, literal(-12)))
          CFI (cfiCond105) V6 load(1, XDATA, add(CFA_XSP16, literal(-11)))
          CFI (cfiCond105) V7 load(1, XDATA, add(CFA_XSP16, literal(-10)))
          CFI (cfiCond105) V8 load(1, XDATA, add(CFA_XSP16, literal(-9)))
          CFI (cfiCond105) V9 load(1, XDATA, add(CFA_XSP16, literal(-8)))
          CFI (cfiCond105) V10 load(1, XDATA, add(CFA_XSP16, literal(-7)))
          CFI (cfiCond105) R7 load(1, XDATA, add(CFA_XSP16, literal(-6)))
          CFI (cfiCond105) ?RET_LOW load(1, XDATA, add(CFA_XSP16, literal(-5)))
          CFI (cfiCond105) ?RET_HIGH load(1, XDATA, add(CFA_XSP16, literal(-4)))
          CFI (cfiCond105) ?BRET_EXT load(1, XDATA, add(CFA_XSP16, literal(-3)))
          CFI (cfiCond105) DPL0 load(1, XDATA, add(CFA_XSP16, literal(-2)))
          CFI (cfiCond105) DPH0 load(1, XDATA, add(CFA_XSP16, literal(-1)))
          CFI (cfiCond105) CFA_XSP16 add(XSP16, 113)
          CFI Block cfiPicker106 Using cfiCommon1
          CFI (cfiPicker106) NoFunction
          CFI (cfiPicker106) Picker
        LCALL     ?Subroutine23 & 0xFFFF
??CrossCallReturnLabel_54:
        RET
          CFI EndBlock cfiCond103
          CFI EndBlock cfiCond104
          CFI EndBlock cfiCond105
          CFI EndBlock cfiPicker106

        RSEG BANKED_CODE:HUGECODE:NOROOT(0)
?Subroutine23:
          CFI Block cfiCond107 Using cfiCommon0
          CFI Function zclZEM_AF_RxProc
          CFI Conditional ??CrossCallReturnLabel_54, ??CrossCallReturnLabel_51
          CFI R6 load(1, XDATA, add(CFA_XSP16, literal(-19)))
          CFI VB load(1, XDATA, add(CFA_XSP16, literal(-18)))
          CFI V0 load(1, XDATA, add(CFA_XSP16, literal(-17)))
          CFI V1 load(1, XDATA, add(CFA_XSP16, literal(-16)))
          CFI V2 load(1, XDATA, add(CFA_XSP16, literal(-15)))
          CFI V3 load(1, XDATA, add(CFA_XSP16, literal(-14)))
          CFI V4 load(1, XDATA, add(CFA_XSP16, literal(-13)))
          CFI V5 load(1, XDATA, add(CFA_XSP16, literal(-12)))
          CFI V6 load(1, XDATA, add(CFA_XSP16, literal(-11)))
          CFI V7 load(1, XDATA, add(CFA_XSP16, literal(-10)))
          CFI V8 load(1, XDATA, add(CFA_XSP16, literal(-9)))
          CFI V9 load(1, XDATA, add(CFA_XSP16, literal(-8)))
          CFI V10 load(1, XDATA, add(CFA_XSP16, literal(-7)))
          CFI R7 load(1, XDATA, add(CFA_XSP16, literal(-6)))
          CFI ?RET_LOW load(1, XDATA, add(CFA_XSP16, literal(-5)))
          CFI ?RET_HIGH load(1, XDATA, add(CFA_XSP16, literal(-4)))
          CFI ?BRET_EXT load(1, XDATA, add(CFA_XSP16, literal(-3)))
          CFI DPL0 load(1, XDATA, add(CFA_XSP16, literal(-2)))
          CFI DPH0 load(1, XDATA, add(CFA_XSP16, literal(-1)))
          CFI CFA_SP SP+-5
          CFI CFA_XSP16 add(XSP16, 113)
          CFI Block cfiCond108 Using cfiCommon0
          CFI (cfiCond108) Function zclZEM_AF_RxProc
          CFI (cfiCond108) Conditional ??CrossCallReturnLabel_54, ??CrossCallReturnLabel_52
          CFI (cfiCond108) R6 load(1, XDATA, add(CFA_XSP16, literal(-19)))
          CFI (cfiCond108) VB load(1, XDATA, add(CFA_XSP16, literal(-18)))
          CFI (cfiCond108) V0 load(1, XDATA, add(CFA_XSP16, literal(-17)))
          CFI (cfiCond108) V1 load(1, XDATA, add(CFA_XSP16, literal(-16)))
          CFI (cfiCond108) V2 load(1, XDATA, add(CFA_XSP16, literal(-15)))
          CFI (cfiCond108) V3 load(1, XDATA, add(CFA_XSP16, literal(-14)))
          CFI (cfiCond108) V4 load(1, XDATA, add(CFA_XSP16, literal(-13)))
          CFI (cfiCond108) V5 load(1, XDATA, add(CFA_XSP16, literal(-12)))
          CFI (cfiCond108) V6 load(1, XDATA, add(CFA_XSP16, literal(-11)))
          CFI (cfiCond108) V7 load(1, XDATA, add(CFA_XSP16, literal(-10)))
          CFI (cfiCond108) V8 load(1, XDATA, add(CFA_XSP16, literal(-9)))
          CFI (cfiCond108) V9 load(1, XDATA, add(CFA_XSP16, literal(-8)))
          CFI (cfiCond108) V10 load(1, XDATA, add(CFA_XSP16, literal(-7)))
          CFI (cfiCond108) R7 load(1, XDATA, add(CFA_XSP16, literal(-6)))
          CFI (cfiCond108) ?RET_LOW load(1, XDATA, add(CFA_XSP16, literal(-5)))
          CFI (cfiCond108) ?RET_HIGH load(1, XDATA, add(CFA_XSP16, literal(-4)))
          CFI (cfiCond108) ?BRET_EXT load(1, XDATA, add(CFA_XSP16, literal(-3)))
          CFI (cfiCond108) DPL0 load(1, XDATA, add(CFA_XSP16, literal(-2)))
          CFI (cfiCond108) DPH0 load(1, XDATA, add(CFA_XSP16, literal(-1)))
          CFI (cfiCond108) CFA_SP SP+-5
          CFI (cfiCond108) CFA_XSP16 add(XSP16, 113)
          CFI Block cfiCond109 Using cfiCommon0
          CFI (cfiCond109) Function zclZEM_AF_RxProc
          CFI (cfiCond109) Conditional ??CrossCallReturnLabel_54, ??CrossCallReturnLabel_50
          CFI (cfiCond109) R6 load(1, XDATA, add(CFA_XSP16, literal(-19)))
          CFI (cfiCond109) VB load(1, XDATA, add(CFA_XSP16, literal(-18)))
          CFI (cfiCond109) V0 load(1, XDATA, add(CFA_XSP16, literal(-17)))
          CFI (cfiCond109) V1 load(1, XDATA, add(CFA_XSP16, literal(-16)))
          CFI (cfiCond109) V2 load(1, XDATA, add(CFA_XSP16, literal(-15)))
          CFI (cfiCond109) V3 load(1, XDATA, add(CFA_XSP16, literal(-14)))
          CFI (cfiCond109) V4 load(1, XDATA, add(CFA_XSP16, literal(-13)))
          CFI (cfiCond109) V5 load(1, XDATA, add(CFA_XSP16, literal(-12)))
          CFI (cfiCond109) V6 load(1, XDATA, add(CFA_XSP16, literal(-11)))
          CFI (cfiCond109) V7 load(1, XDATA, add(CFA_XSP16, literal(-10)))
          CFI (cfiCond109) V8 load(1, XDATA, add(CFA_XSP16, literal(-9)))
          CFI (cfiCond109) V9 load(1, XDATA, add(CFA_XSP16, literal(-8)))
          CFI (cfiCond109) V10 load(1, XDATA, add(CFA_XSP16, literal(-7)))
          CFI (cfiCond109) R7 load(1, XDATA, add(CFA_XSP16, literal(-6)))
          CFI (cfiCond109) ?RET_LOW load(1, XDATA, add(CFA_XSP16, literal(-5)))
          CFI (cfiCond109) ?RET_HIGH load(1, XDATA, add(CFA_XSP16, literal(-4)))
          CFI (cfiCond109) ?BRET_EXT load(1, XDATA, add(CFA_XSP16, literal(-3)))
          CFI (cfiCond109) DPL0 load(1, XDATA, add(CFA_XSP16, literal(-2)))
          CFI (cfiCond109) DPH0 load(1, XDATA, add(CFA_XSP16, literal(-1)))
          CFI (cfiCond109) CFA_SP SP+-4
          CFI (cfiCond109) CFA_XSP16 add(XSP16, 116)
          CFI Block cfiCond110 Using cfiCommon0
          CFI (cfiCond110) Function zclZEM_AF_RxProc
          CFI (cfiCond110) Conditional ??CrossCallReturnLabel_53, ??CrossCallReturnLabel_13
          CFI (cfiCond110) R6 load(1, XDATA, add(CFA_XSP16, literal(-19)))
          CFI (cfiCond110) VB load(1, XDATA, add(CFA_XSP16, literal(-18)))
          CFI (cfiCond110) V0 load(1, XDATA, add(CFA_XSP16, literal(-17)))
          CFI (cfiCond110) V1 load(1, XDATA, add(CFA_XSP16, literal(-16)))
          CFI (cfiCond110) V2 load(1, XDATA, add(CFA_XSP16, literal(-15)))
          CFI (cfiCond110) V3 load(1, XDATA, add(CFA_XSP16, literal(-14)))
          CFI (cfiCond110) V4 load(1, XDATA, add(CFA_XSP16, literal(-13)))
          CFI (cfiCond110) V5 load(1, XDATA, add(CFA_XSP16, literal(-12)))
          CFI (cfiCond110) V6 load(1, XDATA, add(CFA_XSP16, literal(-11)))
          CFI (cfiCond110) V7 load(1, XDATA, add(CFA_XSP16, literal(-10)))
          CFI (cfiCond110) V8 load(1, XDATA, add(CFA_XSP16, literal(-9)))
          CFI (cfiCond110) V9 load(1, XDATA, add(CFA_XSP16, literal(-8)))
          CFI (cfiCond110) V10 load(1, XDATA, add(CFA_XSP16, literal(-7)))
          CFI (cfiCond110) R7 load(1, XDATA, add(CFA_XSP16, literal(-6)))
          CFI (cfiCond110) ?RET_LOW load(1, XDATA, add(CFA_XSP16, literal(-5)))
          CFI (cfiCond110) ?RET_HIGH load(1, XDATA, add(CFA_XSP16, literal(-4)))
          CFI (cfiCond110) ?BRET_EXT load(1, XDATA, add(CFA_XSP16, literal(-3)))
          CFI (cfiCond110) DPL0 load(1, XDATA, add(CFA_XSP16, literal(-2)))
          CFI (cfiCond110) DPH0 load(1, XDATA, add(CFA_XSP16, literal(-1)))
          CFI (cfiCond110) CFA_SP SP+-4
          CFI (cfiCond110) CFA_XSP16 add(XSP16, 116)
          CFI Block cfiCond111 Using cfiCommon0
          CFI (cfiCond111) Function zclZEM_AF_RxProc
          CFI (cfiCond111) Conditional ??CrossCallReturnLabel_53, ??CrossCallReturnLabel_14
          CFI (cfiCond111) R6 load(1, XDATA, add(CFA_XSP16, literal(-19)))
          CFI (cfiCond111) VB load(1, XDATA, add(CFA_XSP16, literal(-18)))
          CFI (cfiCond111) V0 load(1, XDATA, add(CFA_XSP16, literal(-17)))
          CFI (cfiCond111) V1 load(1, XDATA, add(CFA_XSP16, literal(-16)))
          CFI (cfiCond111) V2 load(1, XDATA, add(CFA_XSP16, literal(-15)))
          CFI (cfiCond111) V3 load(1, XDATA, add(CFA_XSP16, literal(-14)))
          CFI (cfiCond111) V4 load(1, XDATA, add(CFA_XSP16, literal(-13)))
          CFI (cfiCond111) V5 load(1, XDATA, add(CFA_XSP16, literal(-12)))
          CFI (cfiCond111) V6 load(1, XDATA, add(CFA_XSP16, literal(-11)))
          CFI (cfiCond111) V7 load(1, XDATA, add(CFA_XSP16, literal(-10)))
          CFI (cfiCond111) V8 load(1, XDATA, add(CFA_XSP16, literal(-9)))
          CFI (cfiCond111) V9 load(1, XDATA, add(CFA_XSP16, literal(-8)))
          CFI (cfiCond111) V10 load(1, XDATA, add(CFA_XSP16, literal(-7)))
          CFI (cfiCond111) R7 load(1, XDATA, add(CFA_XSP16, literal(-6)))
          CFI (cfiCond111) ?RET_LOW load(1, XDATA, add(CFA_XSP16, literal(-5)))
          CFI (cfiCond111) ?RET_HIGH load(1, XDATA, add(CFA_XSP16, literal(-4)))
          CFI (cfiCond111) ?BRET_EXT load(1, XDATA, add(CFA_XSP16, literal(-3)))
          CFI (cfiCond111) DPL0 load(1, XDATA, add(CFA_XSP16, literal(-2)))
          CFI (cfiCond111) DPH0 load(1, XDATA, add(CFA_XSP16, literal(-1)))
          CFI (cfiCond111) CFA_SP SP+-4
          CFI (cfiCond111) CFA_XSP16 add(XSP16, 116)
          CFI Block cfiPicker112 Using cfiCommon1
          CFI (cfiPicker112) NoFunction
          CFI (cfiPicker112) Picker
        MOVX      A,@DPTR
        ADD       A,R0
        MOV       R0,A
        INC       DPTR
        MOVX      A,@DPTR
        ADDC      A,?V1
        MOV       R1,A
        MOV       A,R0
        RET
          CFI EndBlock cfiCond107
          CFI EndBlock cfiCond108
          CFI EndBlock cfiCond109
          CFI EndBlock cfiCond110
          CFI EndBlock cfiCond111
          CFI EndBlock cfiPicker112

        RSEG BANKED_CODE:HUGECODE:NOROOT(0)
?Subroutine9:
          CFI Block cfiCond113 Using cfiCommon0
          CFI Function zclZEM_AF_RxProc
          CFI Conditional ??CrossCallReturnLabel_13
          CFI R6 load(1, XDATA, add(CFA_XSP16, literal(-19)))
          CFI VB load(1, XDATA, add(CFA_XSP16, literal(-18)))
          CFI V0 load(1, XDATA, add(CFA_XSP16, literal(-17)))
          CFI V1 load(1, XDATA, add(CFA_XSP16, literal(-16)))
          CFI V2 load(1, XDATA, add(CFA_XSP16, literal(-15)))
          CFI V3 load(1, XDATA, add(CFA_XSP16, literal(-14)))
          CFI V4 load(1, XDATA, add(CFA_XSP16, literal(-13)))
          CFI V5 load(1, XDATA, add(CFA_XSP16, literal(-12)))
          CFI V6 load(1, XDATA, add(CFA_XSP16, literal(-11)))
          CFI V7 load(1, XDATA, add(CFA_XSP16, literal(-10)))
          CFI V8 load(1, XDATA, add(CFA_XSP16, literal(-9)))
          CFI V9 load(1, XDATA, add(CFA_XSP16, literal(-8)))
          CFI V10 load(1, XDATA, add(CFA_XSP16, literal(-7)))
          CFI R7 load(1, XDATA, add(CFA_XSP16, literal(-6)))
          CFI ?RET_LOW load(1, XDATA, add(CFA_XSP16, literal(-5)))
          CFI ?RET_HIGH load(1, XDATA, add(CFA_XSP16, literal(-4)))
          CFI ?BRET_EXT load(1, XDATA, add(CFA_XSP16, literal(-3)))
          CFI DPL0 load(1, XDATA, add(CFA_XSP16, literal(-2)))
          CFI DPH0 load(1, XDATA, add(CFA_XSP16, literal(-1)))
          CFI CFA_SP SP+-2
          CFI CFA_XSP16 add(XSP16, 116)
          CFI Block cfiCond114 Using cfiCommon0
          CFI (cfiCond114) Function zclZEM_AF_RxProc
          CFI (cfiCond114) Conditional ??CrossCallReturnLabel_14
          CFI (cfiCond114) R6 load(1, XDATA, add(CFA_XSP16, literal(-19)))
          CFI (cfiCond114) VB load(1, XDATA, add(CFA_XSP16, literal(-18)))
          CFI (cfiCond114) V0 load(1, XDATA, add(CFA_XSP16, literal(-17)))
          CFI (cfiCond114) V1 load(1, XDATA, add(CFA_XSP16, literal(-16)))
          CFI (cfiCond114) V2 load(1, XDATA, add(CFA_XSP16, literal(-15)))
          CFI (cfiCond114) V3 load(1, XDATA, add(CFA_XSP16, literal(-14)))
          CFI (cfiCond114) V4 load(1, XDATA, add(CFA_XSP16, literal(-13)))
          CFI (cfiCond114) V5 load(1, XDATA, add(CFA_XSP16, literal(-12)))
          CFI (cfiCond114) V6 load(1, XDATA, add(CFA_XSP16, literal(-11)))
          CFI (cfiCond114) V7 load(1, XDATA, add(CFA_XSP16, literal(-10)))
          CFI (cfiCond114) V8 load(1, XDATA, add(CFA_XSP16, literal(-9)))
          CFI (cfiCond114) V9 load(1, XDATA, add(CFA_XSP16, literal(-8)))
          CFI (cfiCond114) V10 load(1, XDATA, add(CFA_XSP16, literal(-7)))
          CFI (cfiCond114) R7 load(1, XDATA, add(CFA_XSP16, literal(-6)))
          CFI (cfiCond114) ?RET_LOW load(1, XDATA, add(CFA_XSP16, literal(-5)))
          CFI (cfiCond114) ?RET_HIGH load(1, XDATA, add(CFA_XSP16, literal(-4)))
          CFI (cfiCond114) ?BRET_EXT load(1, XDATA, add(CFA_XSP16, literal(-3)))
          CFI (cfiCond114) DPL0 load(1, XDATA, add(CFA_XSP16, literal(-2)))
          CFI (cfiCond114) DPH0 load(1, XDATA, add(CFA_XSP16, literal(-1)))
          CFI (cfiCond114) CFA_SP SP+-2
          CFI (cfiCond114) CFA_XSP16 add(XSP16, 116)
          CFI Block cfiPicker115 Using cfiCommon1
          CFI (cfiPicker115) NoFunction
          CFI (cfiPicker115) Picker
        MOV       ?V1,R1
        LCALL     ?Subroutine23 & 0xFFFF
??CrossCallReturnLabel_53:
        ADD       A,#0x10
        MOV       R2,A
        CLR       A
        ADDC      A,R1
        MOV       R3,A
        RET
          CFI EndBlock cfiCond113
          CFI EndBlock cfiCond114
          CFI EndBlock cfiPicker115

        RSEG BANKED_CODE:HUGECODE:NOROOT(0)
?Subroutine8:
          CFI Block cfiCond116 Using cfiCommon0
          CFI Function zclZEM_AF_RxProc
          CFI Conditional ??CrossCallReturnLabel_10
          CFI R6 load(1, XDATA, add(CFA_XSP16, literal(-19)))
          CFI VB load(1, XDATA, add(CFA_XSP16, literal(-18)))
          CFI V0 load(1, XDATA, add(CFA_XSP16, literal(-17)))
          CFI V1 load(1, XDATA, add(CFA_XSP16, literal(-16)))
          CFI V2 load(1, XDATA, add(CFA_XSP16, literal(-15)))
          CFI V3 load(1, XDATA, add(CFA_XSP16, literal(-14)))
          CFI V4 load(1, XDATA, add(CFA_XSP16, literal(-13)))
          CFI V5 load(1, XDATA, add(CFA_XSP16, literal(-12)))
          CFI V6 load(1, XDATA, add(CFA_XSP16, literal(-11)))
          CFI V7 load(1, XDATA, add(CFA_XSP16, literal(-10)))
          CFI V8 load(1, XDATA, add(CFA_XSP16, literal(-9)))
          CFI V9 load(1, XDATA, add(CFA_XSP16, literal(-8)))
          CFI V10 load(1, XDATA, add(CFA_XSP16, literal(-7)))
          CFI R7 load(1, XDATA, add(CFA_XSP16, literal(-6)))
          CFI ?RET_LOW load(1, XDATA, add(CFA_XSP16, literal(-5)))
          CFI ?RET_HIGH load(1, XDATA, add(CFA_XSP16, literal(-4)))
          CFI ?BRET_EXT load(1, XDATA, add(CFA_XSP16, literal(-3)))
          CFI DPL0 load(1, XDATA, add(CFA_XSP16, literal(-2)))
          CFI DPH0 load(1, XDATA, add(CFA_XSP16, literal(-1)))
          CFI CFA_SP SP+-2
          CFI CFA_XSP16 add(XSP16, 113)
          CFI Block cfiCond117 Using cfiCommon0
          CFI (cfiCond117) Function zclZEM_AF_RxProc
          CFI (cfiCond117) Conditional ??CrossCallReturnLabel_11
          CFI (cfiCond117) R6 load(1, XDATA, add(CFA_XSP16, literal(-19)))
          CFI (cfiCond117) VB load(1, XDATA, add(CFA_XSP16, literal(-18)))
          CFI (cfiCond117) V0 load(1, XDATA, add(CFA_XSP16, literal(-17)))
          CFI (cfiCond117) V1 load(1, XDATA, add(CFA_XSP16, literal(-16)))
          CFI (cfiCond117) V2 load(1, XDATA, add(CFA_XSP16, literal(-15)))
          CFI (cfiCond117) V3 load(1, XDATA, add(CFA_XSP16, literal(-14)))
          CFI (cfiCond117) V4 load(1, XDATA, add(CFA_XSP16, literal(-13)))
          CFI (cfiCond117) V5 load(1, XDATA, add(CFA_XSP16, literal(-12)))
          CFI (cfiCond117) V6 load(1, XDATA, add(CFA_XSP16, literal(-11)))
          CFI (cfiCond117) V7 load(1, XDATA, add(CFA_XSP16, literal(-10)))
          CFI (cfiCond117) V8 load(1, XDATA, add(CFA_XSP16, literal(-9)))
          CFI (cfiCond117) V9 load(1, XDATA, add(CFA_XSP16, literal(-8)))
          CFI (cfiCond117) V10 load(1, XDATA, add(CFA_XSP16, literal(-7)))
          CFI (cfiCond117) R7 load(1, XDATA, add(CFA_XSP16, literal(-6)))
          CFI (cfiCond117) ?RET_LOW load(1, XDATA, add(CFA_XSP16, literal(-5)))
          CFI (cfiCond117) ?RET_HIGH load(1, XDATA, add(CFA_XSP16, literal(-4)))
          CFI (cfiCond117) ?BRET_EXT load(1, XDATA, add(CFA_XSP16, literal(-3)))
          CFI (cfiCond117) DPL0 load(1, XDATA, add(CFA_XSP16, literal(-2)))
          CFI (cfiCond117) DPH0 load(1, XDATA, add(CFA_XSP16, literal(-1)))
          CFI (cfiCond117) CFA_SP SP+-2
          CFI (cfiCond117) CFA_XSP16 add(XSP16, 113)
          CFI Block cfiCond118 Using cfiCommon0
          CFI (cfiCond118) Function zclZEM_AF_RxProc
          CFI (cfiCond118) Conditional ??CrossCallReturnLabel_12
          CFI (cfiCond118) R6 load(1, XDATA, add(CFA_XSP16, literal(-19)))
          CFI (cfiCond118) VB load(1, XDATA, add(CFA_XSP16, literal(-18)))
          CFI (cfiCond118) V0 load(1, XDATA, add(CFA_XSP16, literal(-17)))
          CFI (cfiCond118) V1 load(1, XDATA, add(CFA_XSP16, literal(-16)))
          CFI (cfiCond118) V2 load(1, XDATA, add(CFA_XSP16, literal(-15)))
          CFI (cfiCond118) V3 load(1, XDATA, add(CFA_XSP16, literal(-14)))
          CFI (cfiCond118) V4 load(1, XDATA, add(CFA_XSP16, literal(-13)))
          CFI (cfiCond118) V5 load(1, XDATA, add(CFA_XSP16, literal(-12)))
          CFI (cfiCond118) V6 load(1, XDATA, add(CFA_XSP16, literal(-11)))
          CFI (cfiCond118) V7 load(1, XDATA, add(CFA_XSP16, literal(-10)))
          CFI (cfiCond118) V8 load(1, XDATA, add(CFA_XSP16, literal(-9)))
          CFI (cfiCond118) V9 load(1, XDATA, add(CFA_XSP16, literal(-8)))
          CFI (cfiCond118) V10 load(1, XDATA, add(CFA_XSP16, literal(-7)))
          CFI (cfiCond118) R7 load(1, XDATA, add(CFA_XSP16, literal(-6)))
          CFI (cfiCond118) ?RET_LOW load(1, XDATA, add(CFA_XSP16, literal(-5)))
          CFI (cfiCond118) ?RET_HIGH load(1, XDATA, add(CFA_XSP16, literal(-4)))
          CFI (cfiCond118) ?BRET_EXT load(1, XDATA, add(CFA_XSP16, literal(-3)))
          CFI (cfiCond118) DPL0 load(1, XDATA, add(CFA_XSP16, literal(-2)))
          CFI (cfiCond118) DPH0 load(1, XDATA, add(CFA_XSP16, literal(-1)))
          CFI (cfiCond118) CFA_SP SP+-2
          CFI (cfiCond118) CFA_XSP16 add(XSP16, 113)
          CFI Block cfiPicker119 Using cfiCommon1
          CFI (cfiPicker119) NoFunction
          CFI (cfiPicker119) Picker
        MOV       DPL,?V0
        MOV       DPH,?V1
        MOVX      A,@DPTR
        MOV       ?V0,A
        INC       DPTR
        MOVX      A,@DPTR
        MOV       ?V1,A
        MOV       ?V2,#0x0
        MOV       R0,#?V0
        RET
          CFI EndBlock cfiCond116
          CFI EndBlock cfiCond117
          CFI EndBlock cfiCond118
          CFI EndBlock cfiPicker119

        RSEG BANKED_CODE:HUGECODE:NOROOT(0)
?Subroutine3:
          CFI Block cfiCond120 Using cfiCommon0
          CFI Function zclZEM_AF_RxProc
          CFI Conditional ??CrossCallReturnLabel_55
          CFI R6 load(1, XDATA, add(CFA_XSP16, literal(-19)))
          CFI VB load(1, XDATA, add(CFA_XSP16, literal(-18)))
          CFI V0 load(1, XDATA, add(CFA_XSP16, literal(-17)))
          CFI V1 load(1, XDATA, add(CFA_XSP16, literal(-16)))
          CFI V2 load(1, XDATA, add(CFA_XSP16, literal(-15)))
          CFI V3 load(1, XDATA, add(CFA_XSP16, literal(-14)))
          CFI V4 load(1, XDATA, add(CFA_XSP16, literal(-13)))
          CFI V5 load(1, XDATA, add(CFA_XSP16, literal(-12)))
          CFI V6 load(1, XDATA, add(CFA_XSP16, literal(-11)))
          CFI V7 load(1, XDATA, add(CFA_XSP16, literal(-10)))
          CFI V8 load(1, XDATA, add(CFA_XSP16, literal(-9)))
          CFI V9 load(1, XDATA, add(CFA_XSP16, literal(-8)))
          CFI V10 load(1, XDATA, add(CFA_XSP16, literal(-7)))
          CFI R7 load(1, XDATA, add(CFA_XSP16, literal(-6)))
          CFI ?RET_LOW load(1, XDATA, add(CFA_XSP16, literal(-5)))
          CFI ?RET_HIGH load(1, XDATA, add(CFA_XSP16, literal(-4)))
          CFI ?BRET_EXT load(1, XDATA, add(CFA_XSP16, literal(-3)))
          CFI DPL0 load(1, XDATA, add(CFA_XSP16, literal(-2)))
          CFI DPH0 load(1, XDATA, add(CFA_XSP16, literal(-1)))
          CFI CFA_SP SP+-2
          CFI CFA_XSP16 add(XSP16, 113)
          CFI Block cfiCond121 Using cfiCommon0
          CFI (cfiCond121) Function zclZEM_AF_RxProc
          CFI (cfiCond121) Conditional ??CrossCallReturnLabel_56
          CFI (cfiCond121) R6 load(1, XDATA, add(CFA_XSP16, literal(-19)))
          CFI (cfiCond121) VB load(1, XDATA, add(CFA_XSP16, literal(-18)))
          CFI (cfiCond121) V0 load(1, XDATA, add(CFA_XSP16, literal(-17)))
          CFI (cfiCond121) V1 load(1, XDATA, add(CFA_XSP16, literal(-16)))
          CFI (cfiCond121) V2 load(1, XDATA, add(CFA_XSP16, literal(-15)))
          CFI (cfiCond121) V3 load(1, XDATA, add(CFA_XSP16, literal(-14)))
          CFI (cfiCond121) V4 load(1, XDATA, add(CFA_XSP16, literal(-13)))
          CFI (cfiCond121) V5 load(1, XDATA, add(CFA_XSP16, literal(-12)))
          CFI (cfiCond121) V6 load(1, XDATA, add(CFA_XSP16, literal(-11)))
          CFI (cfiCond121) V7 load(1, XDATA, add(CFA_XSP16, literal(-10)))
          CFI (cfiCond121) V8 load(1, XDATA, add(CFA_XSP16, literal(-9)))
          CFI (cfiCond121) V9 load(1, XDATA, add(CFA_XSP16, literal(-8)))
          CFI (cfiCond121) V10 load(1, XDATA, add(CFA_XSP16, literal(-7)))
          CFI (cfiCond121) R7 load(1, XDATA, add(CFA_XSP16, literal(-6)))
          CFI (cfiCond121) ?RET_LOW load(1, XDATA, add(CFA_XSP16, literal(-5)))
          CFI (cfiCond121) ?RET_HIGH load(1, XDATA, add(CFA_XSP16, literal(-4)))
          CFI (cfiCond121) ?BRET_EXT load(1, XDATA, add(CFA_XSP16, literal(-3)))
          CFI (cfiCond121) DPL0 load(1, XDATA, add(CFA_XSP16, literal(-2)))
          CFI (cfiCond121) DPH0 load(1, XDATA, add(CFA_XSP16, literal(-1)))
          CFI (cfiCond121) CFA_SP SP+-2
          CFI (cfiCond121) CFA_XSP16 add(XSP16, 113)
          CFI Block cfiPicker122 Using cfiCommon1
          CFI (cfiPicker122) NoFunction
          CFI (cfiPicker122) Picker
        MOV       DPL,A
        CLR       A
        ADDC      A,R1
        MOV       DPH,A
        MOV       A,#0xd
          CFI EndBlock cfiCond120
          CFI EndBlock cfiCond121
          CFI EndBlock cfiPicker122
        REQUIRE ??Subroutine28_0
        ; // Fall through to label ??Subroutine28_0

        RSEG BANKED_CODE:HUGECODE:NOROOT(0)
??Subroutine28_0:
          CFI Block cfiCond123 Using cfiCommon0
          CFI Function zclZEM_AF_RxProc
          CFI Conditional ??CrossCallReturnLabel_57
          CFI R6 load(1, XDATA, add(CFA_XSP16, literal(-19)))
          CFI VB load(1, XDATA, add(CFA_XSP16, literal(-18)))
          CFI V0 load(1, XDATA, add(CFA_XSP16, literal(-17)))
          CFI V1 load(1, XDATA, add(CFA_XSP16, literal(-16)))
          CFI V2 load(1, XDATA, add(CFA_XSP16, literal(-15)))
          CFI V3 load(1, XDATA, add(CFA_XSP16, literal(-14)))
          CFI V4 load(1, XDATA, add(CFA_XSP16, literal(-13)))
          CFI V5 load(1, XDATA, add(CFA_XSP16, literal(-12)))
          CFI V6 load(1, XDATA, add(CFA_XSP16, literal(-11)))
          CFI V7 load(1, XDATA, add(CFA_XSP16, literal(-10)))
          CFI V8 load(1, XDATA, add(CFA_XSP16, literal(-9)))
          CFI V9 load(1, XDATA, add(CFA_XSP16, literal(-8)))
          CFI V10 load(1, XDATA, add(CFA_XSP16, literal(-7)))
          CFI R7 load(1, XDATA, add(CFA_XSP16, literal(-6)))
          CFI ?RET_LOW load(1, XDATA, add(CFA_XSP16, literal(-5)))
          CFI ?RET_HIGH load(1, XDATA, add(CFA_XSP16, literal(-4)))
          CFI ?BRET_EXT load(1, XDATA, add(CFA_XSP16, literal(-3)))
          CFI DPL0 load(1, XDATA, add(CFA_XSP16, literal(-2)))
          CFI DPH0 load(1, XDATA, add(CFA_XSP16, literal(-1)))
          CFI CFA_SP SP+-2
          CFI CFA_XSP16 add(XSP16, 113)
          CFI Block cfiCond124 Using cfiCommon0
          CFI (cfiCond124) Function zclZEM_AF_RxProc
          CFI (cfiCond124) Conditional ??CrossCallReturnLabel_58
          CFI (cfiCond124) R6 load(1, XDATA, add(CFA_XSP16, literal(-19)))
          CFI (cfiCond124) VB load(1, XDATA, add(CFA_XSP16, literal(-18)))
          CFI (cfiCond124) V0 load(1, XDATA, add(CFA_XSP16, literal(-17)))
          CFI (cfiCond124) V1 load(1, XDATA, add(CFA_XSP16, literal(-16)))
          CFI (cfiCond124) V2 load(1, XDATA, add(CFA_XSP16, literal(-15)))
          CFI (cfiCond124) V3 load(1, XDATA, add(CFA_XSP16, literal(-14)))
          CFI (cfiCond124) V4 load(1, XDATA, add(CFA_XSP16, literal(-13)))
          CFI (cfiCond124) V5 load(1, XDATA, add(CFA_XSP16, literal(-12)))
          CFI (cfiCond124) V6 load(1, XDATA, add(CFA_XSP16, literal(-11)))
          CFI (cfiCond124) V7 load(1, XDATA, add(CFA_XSP16, literal(-10)))
          CFI (cfiCond124) V8 load(1, XDATA, add(CFA_XSP16, literal(-9)))
          CFI (cfiCond124) V9 load(1, XDATA, add(CFA_XSP16, literal(-8)))
          CFI (cfiCond124) V10 load(1, XDATA, add(CFA_XSP16, literal(-7)))
          CFI (cfiCond124) R7 load(1, XDATA, add(CFA_XSP16, literal(-6)))
          CFI (cfiCond124) ?RET_LOW load(1, XDATA, add(CFA_XSP16, literal(-5)))
          CFI (cfiCond124) ?RET_HIGH load(1, XDATA, add(CFA_XSP16, literal(-4)))
          CFI (cfiCond124) ?BRET_EXT load(1, XDATA, add(CFA_XSP16, literal(-3)))
          CFI (cfiCond124) DPL0 load(1, XDATA, add(CFA_XSP16, literal(-2)))
          CFI (cfiCond124) DPH0 load(1, XDATA, add(CFA_XSP16, literal(-1)))
          CFI (cfiCond124) CFA_SP SP+-2
          CFI (cfiCond124) CFA_XSP16 add(XSP16, 113)
          CFI Block cfiCond125 Using cfiCommon0
          CFI (cfiCond125) Function zclZEM_AF_RxProc
          CFI (cfiCond125) Conditional ??CrossCallReturnLabel_55
          CFI (cfiCond125) R6 load(1, XDATA, add(CFA_XSP16, literal(-19)))
          CFI (cfiCond125) VB load(1, XDATA, add(CFA_XSP16, literal(-18)))
          CFI (cfiCond125) V0 load(1, XDATA, add(CFA_XSP16, literal(-17)))
          CFI (cfiCond125) V1 load(1, XDATA, add(CFA_XSP16, literal(-16)))
          CFI (cfiCond125) V2 load(1, XDATA, add(CFA_XSP16, literal(-15)))
          CFI (cfiCond125) V3 load(1, XDATA, add(CFA_XSP16, literal(-14)))
          CFI (cfiCond125) V4 load(1, XDATA, add(CFA_XSP16, literal(-13)))
          CFI (cfiCond125) V5 load(1, XDATA, add(CFA_XSP16, literal(-12)))
          CFI (cfiCond125) V6 load(1, XDATA, add(CFA_XSP16, literal(-11)))
          CFI (cfiCond125) V7 load(1, XDATA, add(CFA_XSP16, literal(-10)))
          CFI (cfiCond125) V8 load(1, XDATA, add(CFA_XSP16, literal(-9)))
          CFI (cfiCond125) V9 load(1, XDATA, add(CFA_XSP16, literal(-8)))
          CFI (cfiCond125) V10 load(1, XDATA, add(CFA_XSP16, literal(-7)))
          CFI (cfiCond125) R7 load(1, XDATA, add(CFA_XSP16, literal(-6)))
          CFI (cfiCond125) ?RET_LOW load(1, XDATA, add(CFA_XSP16, literal(-5)))
          CFI (cfiCond125) ?RET_HIGH load(1, XDATA, add(CFA_XSP16, literal(-4)))
          CFI (cfiCond125) ?BRET_EXT load(1, XDATA, add(CFA_XSP16, literal(-3)))
          CFI (cfiCond125) DPL0 load(1, XDATA, add(CFA_XSP16, literal(-2)))
          CFI (cfiCond125) DPH0 load(1, XDATA, add(CFA_XSP16, literal(-1)))
          CFI (cfiCond125) CFA_SP SP+-2
          CFI (cfiCond125) CFA_XSP16 add(XSP16, 113)
          CFI Block cfiCond126 Using cfiCommon0
          CFI (cfiCond126) Function zclZEM_AF_RxProc
          CFI (cfiCond126) Conditional ??CrossCallReturnLabel_56
          CFI (cfiCond126) R6 load(1, XDATA, add(CFA_XSP16, literal(-19)))
          CFI (cfiCond126) VB load(1, XDATA, add(CFA_XSP16, literal(-18)))
          CFI (cfiCond126) V0 load(1, XDATA, add(CFA_XSP16, literal(-17)))
          CFI (cfiCond126) V1 load(1, XDATA, add(CFA_XSP16, literal(-16)))
          CFI (cfiCond126) V2 load(1, XDATA, add(CFA_XSP16, literal(-15)))
          CFI (cfiCond126) V3 load(1, XDATA, add(CFA_XSP16, literal(-14)))
          CFI (cfiCond126) V4 load(1, XDATA, add(CFA_XSP16, literal(-13)))
          CFI (cfiCond126) V5 load(1, XDATA, add(CFA_XSP16, literal(-12)))
          CFI (cfiCond126) V6 load(1, XDATA, add(CFA_XSP16, literal(-11)))
          CFI (cfiCond126) V7 load(1, XDATA, add(CFA_XSP16, literal(-10)))
          CFI (cfiCond126) V8 load(1, XDATA, add(CFA_XSP16, literal(-9)))
          CFI (cfiCond126) V9 load(1, XDATA, add(CFA_XSP16, literal(-8)))
          CFI (cfiCond126) V10 load(1, XDATA, add(CFA_XSP16, literal(-7)))
          CFI (cfiCond126) R7 load(1, XDATA, add(CFA_XSP16, literal(-6)))
          CFI (cfiCond126) ?RET_LOW load(1, XDATA, add(CFA_XSP16, literal(-5)))
          CFI (cfiCond126) ?RET_HIGH load(1, XDATA, add(CFA_XSP16, literal(-4)))
          CFI (cfiCond126) ?BRET_EXT load(1, XDATA, add(CFA_XSP16, literal(-3)))
          CFI (cfiCond126) DPL0 load(1, XDATA, add(CFA_XSP16, literal(-2)))
          CFI (cfiCond126) DPH0 load(1, XDATA, add(CFA_XSP16, literal(-1)))
          CFI (cfiCond126) CFA_SP SP+-2
          CFI (cfiCond126) CFA_XSP16 add(XSP16, 113)
          CFI Block cfiPicker127 Using cfiCommon1
          CFI (cfiPicker127) NoFunction
          CFI (cfiPicker127) Picker
        MOVX      @DPTR,A
        MOV       DPL,R6
        MOV       DPH,R7
        MOVX      A,@DPTR
        ADD       A,?V0
        MOV       R0,A
        INC       DPTR
        MOVX      A,@DPTR
        ADDC      A,?V1
        MOV       R1,A
        MOV       A,R0
        RET
          CFI EndBlock cfiCond123
          CFI EndBlock cfiCond124
          CFI EndBlock cfiCond125
          CFI EndBlock cfiCond126
          CFI EndBlock cfiPicker127

        RSEG XDATA_Z:XDATA:NOROOT(0)
        DATA8
??p2pCnt:
        DS 1
        REQUIRE __INIT_XDATA_Z

        RSEG XDATA_Z:XDATA:NOROOT(0)
        DATA8
??bcCnt:
        DS 1
        REQUIRE __INIT_XDATA_Z

        RSEG XDATA_Z:XDATA:NOROOT(0)
        DATA8
??gcCnt:
        DS 1
        REQUIRE __INIT_XDATA_Z

        RSEG XDATA_ID:CODE:NOROOT(0)
`?<Initializer for ZEM_AppEp>`:
        DATA8
        DB 8
        DB 0
        DATA16
        DW zclZEM_TaskID
        DW zclZEM_SimpleDesc
        DATA8
        DB 0

        RSEG XDATA_ID:CODE:NOROOT(0)
`?<Initializer for reportableChange>`:
        DATA8
        DB 44
        DB 1
        DB 0
        DB 0

        RSEG XDATA_ID:CODE:NOROOT(0)
`?<Initializer for zclZEM_CmdCallbacks>`:
        DATA16
        DW `??zclZEM_BasicResetCB::?relay`
        DW 0H
        DW 0H
        DW 0H
        DW 0H
        DW 0H
        DW 0H
        DW 0H
        DW 0H

        RSEG BANK_RELAYS:CODE:REORDER:NOROOT(0)
`??zclZEM_Init::?relay`:
        CODE
        LCALL   ?BDISPATCH
        DATA24
        DC24    zclZEM_Init

        RSEG BANK_RELAYS:CODE:REORDER:NOROOT(0)
`??zclZEM_event_loop::?relay`:
        CODE
        LCALL   ?BDISPATCH
        DATA24
        DC24    zclZEM_event_loop

        RSEG BANK_RELAYS:CODE:REORDER:NOROOT(0)
`??zclZEM_ReadAndSendMAC::?relay`:
        CODE
        LCALL   ?BDISPATCH
        DATA24
        DC24    zclZEM_ReadAndSendMAC

        RSEG BANK_RELAYS:CODE:REORDER:NOROOT(0)
`??zclZEM_UartCB::?relay`:
        CODE
        LCALL   ?BDISPATCH
        DATA24
        DC24    zclZEM_UartCB

        RSEG BANK_RELAYS:CODE:REORDER:NOROOT(0)
`??zclZEM_ProcessCommissioningStatus::?relay`:
        CODE
        LCALL   ?BDISPATCH
        DATA24
        DC24    zclZEM_ProcessCommissioningStatus

        RSEG BANK_RELAYS:CODE:REORDER:NOROOT(0)
`??zclZEM_BasicResetCB::?relay`:
        CODE
        LCALL   ?BDISPATCH
        DATA24
        DC24    zclZEM_BasicResetCB

        RSEG BANK_RELAYS:CODE:REORDER:NOROOT(0)
`??zclSampleApp_BatteryWarningCB::?relay`:
        CODE
        LCALL   ?BDISPATCH
        DATA24
        DC24    zclSampleApp_BatteryWarningCB

        RSEG BANK_RELAYS:CODE:REORDER:NOROOT(0)
`??zclZEM_ProcessIncomingMsg::?relay`:
        CODE
        LCALL   ?BDISPATCH
        DATA24
        DC24    zclZEM_ProcessIncomingMsg

        RSEG BANK_RELAYS:CODE:REORDER:NOROOT(0)
`??zclZEM_ProcessInDiscCmdsRspCmd::?relay`:
        CODE
        LCALL   ?BDISPATCH
        DATA24
        DC24    zclZEM_ProcessInDiscCmdsRspCmd

        RSEG BANK_RELAYS:CODE:REORDER:NOROOT(0)
`??zclZEM_AF_RxProc::?relay`:
        CODE
        LCALL   ?BDISPATCH
        DATA24
        DC24    zclZEM_AF_RxProc

        RSEG XDATA_ROM_C:CONST:REORDER:NOROOT(0)
        DATA8
`?<Constant "/0123456789abcdef/1/2/2">`:
        DB "/0123456789abcdef/1/2/2"

        RSEG XDATA_ROM_C:CONST:REORDER:NOROOT(0)
        DATA8
`?<Constant "/123456789abcdef0/2/3/6">`:
        DB "/123456789abcdef0/2/3/6"

        RSEG XDATA_ROM_C:CONST:REORDER:NOROOT(0)
        DATA8
`?<Constant "/23456789abcdef01/0/2...">`:
        DB "/23456789abcdef01/0/220/0"

        RSEG XDATA_ROM_C:CONST:REORDER:NOROOT(0)
        DATA8
`?<Constant "Broadcast">`:
        DB "Broadcast"

        RSEG XDATA_ROM_C:CONST:REORDER:NOROOT(0)
        DATA8
`?<Constant "Groupcast">`:
        DB "Groupcast"

        RSEG XDATA_ROM_C:CONST:REORDER:NOROOT(0)
        DATA8
`?<Constant "ZEM_P2P_EVT processed...">`:
        DB "ZEM_P2P_EVT processed! Network state: "

        RSEG XDATA_ROM_C:CONST:REORDER:NOROOT(0)
        DATA8
`?<Constant "MAC address sent to c...">`:
        DB "MAC address sent to coordinator!\015\012"

        RSEG XDATA_ROM_C:CONST:REORDER:NOROOT(0)
        DATA8
`?<Constant "MAC: ">`:
        DB "MAC: "

        RSEG XDATA_ROM_C:CONST:REORDER:NOROOT(0)
        DATA8
`?<Constant "Network formation suc...">`:
        DB "Network formation successful! PANID: "

        RSEG XDATA_ROM_C:CONST:REORDER:NOROOT(0)
        DATA8
`?<Constant "Network Address: 0x">`:
        DB "Network Address: 0x"

        RSEG XDATA_ROM_C:CONST:REORDER:NOROOT(0)
        DATA8
`?<Constant "Network formation fai...">`:
        DB "Network formation failed! Retrying...\015\012"

        RSEG XDATA_ROM_C:CONST:REORDER:NOROOT(0)
        DATA8
`?<Constant "P2P Data: ">`:
        DB "P2P Data: "

        RSEG XDATA_ROM_C:CONST:REORDER:NOROOT(0)
        DATA8
`?<Constant " Count: ">`:
        DB " Count: "

        RSEG XDATA_ROM_C:CONST:REORDER:NOROOT(0)
        DATA8
`?<Constant "Broadcast message rec...">`:
        DB "Broadcast message received!\015\012"

        RSEG XDATA_ROM_C:CONST:REORDER:NOROOT(0)
        DATA8
`?<Constant "Broadcast Data: ">`:
        DB "Broadcast Data: "

        RSEG XDATA_ROM_C:CONST:REORDER:NOROOT(0)
        DATA8
`?<Constant "Groupcast Data: ">`:
        DB "Groupcast Data: "

        RSEG XDATA_ROM_C:CONST:REORDER:NOROOT(0)
        DATA32
__Constant_7d0:
        DD 2000

        RSEG XDATA_ROM_C:CONST:REORDER:NOROOT(0)
        DATA32
__Constant_3e8:
        DD 1000

        END
// 1272 
// 1273 /****************************************************************************
// 1274 ****************************************************************************/
// 1275 
// 1276 
// 
// 2 971 bytes in segment BANKED_CODE
//    60 bytes in segment BANK_RELAYS
//     3 bytes in segment SFR_AN
//    29 bytes in segment XDATA_I
//    29 bytes in segment XDATA_ID
//   364 bytes in segment XDATA_ROM_C
//    73 bytes in segment XDATA_Z
// 
//    89 bytes of CODE     memory
//   356 bytes of CONST    memory (+ 8 bytes shared)
//     0 bytes of DATA     memory (+ 3 bytes shared)
// 2 971 bytes of HUGECODE memory
//   102 bytes of XDATA    memory
//
//Errors: none
//Warnings: 1
