///////////////////////////////////////////////////////////////////////////////
//
// IAR C/C++ Compiler V10.10.1.4655 for 8051              03/Feb/2026  00:10:23
// Copyright 2004-2017 IAR Systems AB.
// Standalone license - IAR Embedded Workbench for 8051
//
//    Core               =  plain
//    Code model         =  banked
//    Data model         =  large
//    Calling convention =  xdata reentrant
//    Constant location  =  data_rom
//    Dptr setup         =  1,16
//                          
//    Source file        =  
//        C:\Users\ASUS\Desktop\work\graduration project\software\Z-Stack
//        3.0.2\Projects\zstack\ZMain\TI2530DB\ZMain.c
//    Command line       =  
//        -f C:\Users\ASUS\AppData\Local\Temp\EWD68C.tmp
//        ("C:\Users\ASUS\Desktop\work\graduration project\software\Z-Stack
//        3.0.2\Projects\zstack\ZMain\TI2530DB\ZMain.c" -D BDB_REPORTING -D
//        SECURE=1 -D TC_LINKKEY_JOIN -D NV_INIT -D NV_RESTORE -D xZTOOL_P1 -D
//        xMT_TASK -D xMT_APP_FUNC -D xMT_SYS_FUNC -D xMT_ZDO_FUNC -D
//        xMT_APP_CNF_FUNC -D LCD_SUPPORTED=DEBUG -D MULTICAST_ENABLED=FALSE -D
//        ZCL_READ -D ZCL_DISCOVER -D ZCL_WRITE -D ZCL_BASIC -D ZCL_IDENTIFY -D
//        ZCL_TEMPERATURE_MEASUREMENT -D ZCL_GROUPS -D HAL_LED=TRUE -D
//        HAL_UART=TRUE -D INT_HEAP_LEN=2048 -lC
//        "C:\Users\ASUS\Desktop\work\graduration project\software\Z-Stack
//        3.0.2\Projects\zstack\HomeAutomation\ZEM\CC2530DB\CoordinatorEB\List"
//        -lA "C:\Users\ASUS\Desktop\work\graduration project\software\Z-Stack
//        3.0.2\Projects\zstack\HomeAutomation\ZEM\CC2530DB\CoordinatorEB\List"
//        --diag_suppress Pe001,Pa010 -o
//        "C:\Users\ASUS\Desktop\work\graduration project\software\Z-Stack
//        3.0.2\Projects\zstack\HomeAutomation\ZEM\CC2530DB\CoordinatorEB\Obj"
//        -e --debug --core=plain --dptr=16,1 --data_model=large
//        --code_model=banked --calling_convention=xdata_reentrant
//        --place_constants=data_rom --nr_virtual_regs 16 -f
//        "C:\Users\ASUS\Desktop\work\graduration project\software\Z-Stack
//        3.0.2\Projects\zstack\HomeAutomation\ZEM\CC2530DB\..\..\..\Tools\CC2530DB\f8wCoord.cfg"
//        (-DCPU32MHZ -DROOT=__near_func -DMAC_CFG_APP_PENDING_QUEUE=TRUE
//        -DMAC_CFG_TX_DATA_MAX=5 -DMAC_CFG_TX_MAX=8 -DMAC_CFG_RX_MAX=5
//        -DZDO_COORDINATOR -DRTR_NWK) -f
//        "C:\Users\ASUS\Desktop\work\graduration project\software\Z-Stack
//        3.0.2\Projects\zstack\HomeAutomation\ZEM\CC2530DB\..\..\..\Tools\CC2530DB\f8wConfig.cfg"
//        (-DZIGBEEPRO -DSECURE=1 -DZG_SECURE_DYNAMIC=0 -DREFLECTOR
//        -DDEFAULT_CHANLIST=0x00000800 -DZDAPP_CONFIG_PAN_ID=0x1234
//        -DNWK_START_DELAY=100 -DEXTENDED_JOINING_RANDOM_MASK=0x007F
//        -DBEACON_REQUEST_DELAY=100 -DBEACON_REQ_DELAY_MASK=0x00FF
//        -DLINK_STATUS_JITTER_MASK=0x007F -DROUTE_EXPIRY_TIME=30
//        -DAPSC_ACK_WAIT_DURATION_POLLED=3000 -DNWK_INDIRECT_MSG_TIMEOUT=7
//        -DMAX_RREQ_ENTRIES=8 -DAPSC_MAX_FRAME_RETRIES=3
//        -DNWK_MAX_DATA_RETRIES=2 -DMAX_POLL_FAILURE_RETRIES=2 -DMAX_BCAST=9
//        -DAPS_MAX_GROUPS=16 -DMAX_RTG_ENTRIES=40 -DNWK_MAX_BINDING_ENTRIES=4
//        -DMAX_BINDING_CLUSTER_IDS=4 -DDEFAULT_KEY={0}
//        -DMAC_MAX_FRAME_SIZE=116 -DZDNWKMGR_MIN_TRANSMISSIONS=20
//        "-DCONST=const __code" -DGENERIC=__generic -DRFD_RCVC_ALWAYS_ON=FALSE
//        -DPOLL_RATE=1000 -DQUEUED_POLL_RATE=100 -DRESPONSE_POLL_RATE=100
//        -DREJOIN_POLL_RATE=440 -DREJOIN_BACKOFF=900000 -DREJOIN_SCAN=900000
//        -DENABLE_LED4_DISABLE_S1) -f "C:\Users\ASUS\Desktop\work\graduration
//        project\software\Z-Stack
//        3.0.2\Projects\zstack\HomeAutomation\ZEM\CC2530DB\..\..\..\Tools\CC2530DB\f8wZCL.cfg"
//        -I "C:\Users\ASUS\Desktop\work\graduration project\software\Z-Stack
//        3.0.2\Projects\zstack\HomeAutomation\ZEM\CC2530DB\" -I
//        "C:\Users\ASUS\Desktop\work\graduration project\software\Z-Stack
//        3.0.2\Projects\zstack\HomeAutomation\ZEM\CC2530DB\..\Source\" -I
//        "C:\Users\ASUS\Desktop\work\graduration project\software\Z-Stack
//        3.0.2\Projects\zstack\HomeAutomation\ZEM\CC2530DB\..\..\Source\" -I
//        "C:\Users\ASUS\Desktop\work\graduration project\software\Z-Stack
//        3.0.2\Projects\zstack\HomeAutomation\ZEM\CC2530DB\..\..\..\ZMain\TI2530DB\"
//        -I "C:\Users\ASUS\Desktop\work\graduration project\software\Z-Stack
//        3.0.2\Projects\zstack\HomeAutomation\ZEM\CC2530DB\..\..\..\..\..\Components\hal\include\"
//        -I "C:\Users\ASUS\Desktop\work\graduration project\software\Z-Stack
//        3.0.2\Projects\zstack\HomeAutomation\ZEM\CC2530DB\..\..\..\..\..\Components\hal\target\CC2530EB\"
//        -I "C:\Users\ASUS\Desktop\work\graduration project\software\Z-Stack
//        3.0.2\Projects\zstack\HomeAutomation\ZEM\CC2530DB\..\..\..\..\..\Components\mac\include\"
//        -I "C:\Users\ASUS\Desktop\work\graduration project\software\Z-Stack
//        3.0.2\Projects\zstack\HomeAutomation\ZEM\CC2530DB\..\..\..\..\..\Components\mac\high_level\"
//        -I "C:\Users\ASUS\Desktop\work\graduration project\software\Z-Stack
//        3.0.2\Projects\zstack\HomeAutomation\ZEM\CC2530DB\..\..\..\..\..\Components\mac\low_level\srf04\"
//        -I "C:\Users\ASUS\Desktop\work\graduration project\software\Z-Stack
//        3.0.2\Projects\zstack\HomeAutomation\ZEM\CC2530DB\..\..\..\..\..\Components\mac\low_level\srf04\single_chip\"
//        -I "C:\Users\ASUS\Desktop\work\graduration project\software\Z-Stack
//        3.0.2\Projects\zstack\HomeAutomation\ZEM\CC2530DB\..\..\..\..\..\Components\mt\"
//        -I "C:\Users\ASUS\Desktop\work\graduration project\software\Z-Stack
//        3.0.2\Projects\zstack\HomeAutomation\ZEM\CC2530DB\..\..\..\..\..\Components\osal\include\"
//        -I "C:\Users\ASUS\Desktop\work\graduration project\software\Z-Stack
//        3.0.2\Projects\zstack\HomeAutomation\ZEM\CC2530DB\..\..\..\..\..\Components\services\saddr\"
//        -I "C:\Users\ASUS\Desktop\work\graduration project\software\Z-Stack
//        3.0.2\Projects\zstack\HomeAutomation\ZEM\CC2530DB\..\..\..\..\..\Components\services\sdata\"
//        -I "C:\Users\ASUS\Desktop\work\graduration project\software\Z-Stack
//        3.0.2\Projects\zstack\HomeAutomation\ZEM\CC2530DB\..\..\..\..\..\Components\stack\af\"
//        -I "C:\Users\ASUS\Desktop\work\graduration project\software\Z-Stack
//        3.0.2\Projects\zstack\HomeAutomation\ZEM\CC2530DB\..\..\..\..\..\Components\stack\bdb\"
//        -I "C:\Users\ASUS\Desktop\work\graduration project\software\Z-Stack
//        3.0.2\Projects\zstack\HomeAutomation\ZEM\CC2530DB\..\..\..\..\..\Components\stack\gp\"
//        -I "C:\Users\ASUS\Desktop\work\graduration project\software\Z-Stack
//        3.0.2\Projects\zstack\HomeAutomation\ZEM\CC2530DB\..\..\..\..\..\Components\stack\nwk\"
//        -I "C:\Users\ASUS\Desktop\work\graduration project\software\Z-Stack
//        3.0.2\Projects\zstack\HomeAutomation\ZEM\CC2530DB\..\..\..\..\..\Components\stack\sapi\"
//        -I "C:\Users\ASUS\Desktop\work\graduration project\software\Z-Stack
//        3.0.2\Projects\zstack\HomeAutomation\ZEM\CC2530DB\..\..\..\..\..\Components\stack\sec\"
//        -I "C:\Users\ASUS\Desktop\work\graduration project\software\Z-Stack
//        3.0.2\Projects\zstack\HomeAutomation\ZEM\CC2530DB\..\..\..\..\..\Components\stack\sys\"
//        -I "C:\Users\ASUS\Desktop\work\graduration project\software\Z-Stack
//        3.0.2\Projects\zstack\HomeAutomation\ZEM\CC2530DB\..\..\..\..\..\Components\stack\zcl\"
//        -I "C:\Users\ASUS\Desktop\work\graduration project\software\Z-Stack
//        3.0.2\Projects\zstack\HomeAutomation\ZEM\CC2530DB\..\..\..\..\..\Components\stack\zdo\"
//        -I "C:\Users\ASUS\Desktop\work\graduration project\software\Z-Stack
//        3.0.2\Projects\zstack\HomeAutomation\ZEM\CC2530DB\..\..\..\..\..\Components\zmac\"
//        -I "C:\Users\ASUS\Desktop\work\graduration project\software\Z-Stack
//        3.0.2\Projects\zstack\HomeAutomation\ZEM\CC2530DB\..\..\..\..\..\Components\zmac\f8w\"
//        -Ohz --require_prototypes)
//    Locale             =  Chinese (Simplified)_China.936
//    List file          =  
//        C:\Users\ASUS\Desktop\work\graduration project\software\Z-Stack
//        3.0.2\Projects\zstack\HomeAutomation\ZEM\CC2530DB\CoordinatorEB\List\ZMain.s51
//
///////////////////////////////////////////////////////////////////////////////

        NAME ZMain

        RTMODEL "__SystemLibrary", "CLib"
        RTMODEL "__calling_convention", "xdata_reentrant"
        RTMODEL "__code_model", "banked"
        RTMODEL "__core", "plain"
        RTMODEL "__data_model", "large"
        RTMODEL "__dptr_size", "16"
        RTMODEL "__extended_stack", "disabled"
        RTMODEL "__location_for_constants", "data"
        RTMODEL "__number_of_dptrs", "1"
        RTMODEL "__register_banks", "*"
        RTMODEL "__rt_version", "1"

        RSEG DOVERLAY:DATA:NOROOT(0)
        RSEG IOVERLAY:IDATA:NOROOT(0)
        RSEG ISTACK:IDATA:NOROOT(0)
        RSEG PSTACK:XDATA:NOROOT(0)
        RSEG XSTACK:XDATA:NOROOT(0)

        EXTERN ?V0
        EXTERN ?V1
        EXTERN ?V2
        EXTERN ?V4
        EXTERN ?V5
        EXTERN ?V6
        EXTERN ?V8
        EXTERN ?V9
        EXTERN ?ALLOC_XSTACK8
        EXTERN ?BANKED_ENTER_XDATA
        EXTERN ?BANKED_LEAVE_XDATA
        EXTERN ?BDISPATCH
        EXTERN ?BRET
        EXTERN ?DEALLOC_XSTACK8
        EXTERN ?MOVE_LONG8_XDATA_XDATA
        EXTERN ?PUSH_XSTACK_I_THREE
        EXTERN ?PUSH_XSTACK_I_TWO
        EXTERN ?XSP
        EXTERN ?XSTACK_DISP0_8

        PUBLIC `??main::?relay`
        FUNCTION `??main::?relay`,0203H
        FUNCTION `??zmain_ext_addr::?relay`,0203H
        PUBWEAK CLKCONCMD
        PUBWEAK CLKCONSTA
        PUBWEAK P0DIR
        PUBWEAK P0INP
        PUBWEAK P1DIR
        PUBWEAK SLEEPCMD
        PUBWEAK SLEEPSTA
        PUBWEAK _A_P0
        PUBWEAK _A_P1
        PUBLIC main
        FUNCTION main,0a1a03H
        ARGFRAME XSTACK, 0, STACK
        LOCFRAME ISTACK, 1, STACK
        LOCFRAME XSTACK, 17, STACK
        FUNCTION zmain_ext_addr,0a1203H
        ARGFRAME XSTACK, 17, STACK
        ARGFRAME IOVERLAY, 0, STATIC
        ARGFRAME DOVERLAY, 0, STATIC
        LOCFRAME ISTACK, 1, STACK
        LOCFRAME XSTACK, 30, STACK
        
          CFI Names cfiNames0
          CFI StackFrame CFA_SP SP IDATA
          CFI StackFrame CFA_PSP16 PSP16 XDATA
          CFI StackFrame CFA_XSP16 XSP16 XDATA
          CFI StaticOverlayFrame CFA_IOVERLAY IOVERLAY
          CFI StaticOverlayFrame CFA_DOVERLAY DOVERLAY
          CFI Resource `PSW.CY`:1, `B.BR0`:1, `B.BR1`:1, `B.BR2`:1, `B.BR3`:1
          CFI Resource `B.BR4`:1, `B.BR5`:1, `B.BR6`:1, `B.BR7`:1, `VB.BR8`:1
          CFI Resource `VB.BR9`:1, `VB.BR10`:1, `VB.BR11`:1, `VB.BR12`:1
          CFI Resource `VB.BR13`:1, `VB.BR14`:1, `VB.BR15`:1, VB:8, B:8, A:8
          CFI Resource PSW:8, DPL0:8, DPH0:8, R0:8, R1:8, R2:8, R3:8, R4:8, R5:8
          CFI Resource R6:8, R7:8, V0:8, V1:8, V2:8, V3:8, V4:8, V5:8, V6:8, V7:8
          CFI Resource V8:8, V9:8, V10:8, V11:8, V12:8, V13:8, V14:8, V15:8, SP:8
          CFI Resource PSPH:8, PSPL:8, PSP16:16, XSPH:8, XSPL:8, XSP16:16
          CFI VirtualResource ?RET:24
          CFI Resource ?BRET_EXT:8
          CFI VirtualResource ?RET_HIGH:8, ?RET_LOW:8
          CFI ResourceParts PSP16 PSPH, PSPL
          CFI ResourceParts XSP16 XSPH, XSPL
          CFI ResourceParts ?RET ?BRET_EXT, ?RET_HIGH, ?RET_LOW
          CFI EndNames cfiNames0
        
          CFI Common cfiCommon0 Using cfiNames0
          CFI CodeAlign 1
          CFI DataAlign -1
          CFI ReturnAddress ?RET CODE
          CFI CFA_DOVERLAY Used
          CFI CFA_IOVERLAY Used
          CFI CFA_SP SP+-3
          CFI CFA_PSP16 PSP16+0
          CFI CFA_XSP16 XSP16+0
          CFI `PSW.CY` Undefined
          CFI `B.BR0` Undefined
          CFI `B.BR1` Undefined
          CFI `B.BR2` Undefined
          CFI `B.BR3` Undefined
          CFI `B.BR4` Undefined
          CFI `B.BR5` Undefined
          CFI `B.BR6` Undefined
          CFI `B.BR7` Undefined
          CFI `VB.BR8` Undefined
          CFI `VB.BR9` Undefined
          CFI `VB.BR10` Undefined
          CFI `VB.BR11` Undefined
          CFI `VB.BR12` Undefined
          CFI `VB.BR13` Undefined
          CFI `VB.BR14` Undefined
          CFI `VB.BR15` Undefined
          CFI VB Undefined
          CFI B Undefined
          CFI A Undefined
          CFI PSW Undefined
          CFI DPL0 Undefined
          CFI DPH0 Undefined
          CFI R0 Undefined
          CFI R1 Undefined
          CFI R2 Undefined
          CFI R3 Undefined
          CFI R4 Undefined
          CFI R5 Undefined
          CFI R6 Undefined
          CFI R7 Undefined
          CFI V0 Undefined
          CFI V1 Undefined
          CFI V2 Undefined
          CFI V3 Undefined
          CFI V4 Undefined
          CFI V5 Undefined
          CFI V6 Undefined
          CFI V7 Undefined
          CFI V8 Undefined
          CFI V9 Undefined
          CFI V10 Undefined
          CFI V11 Undefined
          CFI V12 Undefined
          CFI V13 Undefined
          CFI V14 Undefined
          CFI V15 Undefined
          CFI PSPH Undefined
          CFI PSPL Undefined
          CFI XSPH Undefined
          CFI XSPL Undefined
          CFI ?RET Concat
          CFI ?BRET_EXT Frame(CFA_SP, 3)
          CFI ?RET_HIGH Frame(CFA_SP, 2)
          CFI ?RET_LOW Frame(CFA_SP, 1)
          CFI EndCommon cfiCommon0
        
        
          CFI Common cfiCommon1 Using cfiNames0
          CFI CodeAlign 1
          CFI DataAlign -1
          CFI ReturnAddress ?RET CODE
          CFI CFA_DOVERLAY Used
          CFI CFA_IOVERLAY Used
          CFI CFA_SP SP+-3
          CFI CFA_PSP16 PSP16+0
          CFI CFA_XSP16 XSP16+0
          CFI `PSW.CY` SameValue
          CFI `B.BR0` SameValue
          CFI `B.BR1` SameValue
          CFI `B.BR2` SameValue
          CFI `B.BR3` SameValue
          CFI `B.BR4` SameValue
          CFI `B.BR5` SameValue
          CFI `B.BR6` SameValue
          CFI `B.BR7` SameValue
          CFI `VB.BR8` SameValue
          CFI `VB.BR9` SameValue
          CFI `VB.BR10` SameValue
          CFI `VB.BR11` SameValue
          CFI `VB.BR12` SameValue
          CFI `VB.BR13` SameValue
          CFI `VB.BR14` SameValue
          CFI `VB.BR15` SameValue
          CFI VB SameValue
          CFI B Undefined
          CFI A Undefined
          CFI PSW SameValue
          CFI DPL0 SameValue
          CFI DPH0 SameValue
          CFI R0 Undefined
          CFI R1 Undefined
          CFI R2 Undefined
          CFI R3 Undefined
          CFI R4 Undefined
          CFI R5 Undefined
          CFI R6 SameValue
          CFI R7 SameValue
          CFI V0 SameValue
          CFI V1 SameValue
          CFI V2 SameValue
          CFI V3 SameValue
          CFI V4 SameValue
          CFI V5 SameValue
          CFI V6 SameValue
          CFI V7 SameValue
          CFI V8 SameValue
          CFI V9 SameValue
          CFI V10 SameValue
          CFI V11 SameValue
          CFI V12 SameValue
          CFI V13 SameValue
          CFI V14 SameValue
          CFI V15 SameValue
          CFI PSPH Undefined
          CFI PSPL Undefined
          CFI XSPH Undefined
          CFI XSPL Undefined
          CFI ?RET Concat
          CFI ?BRET_EXT Frame(CFA_SP, 3)
          CFI ?RET_HIGH Frame(CFA_SP, 2)
          CFI ?RET_LOW Frame(CFA_SP, 1)
          CFI EndCommon cfiCommon1
        
        
          CFI Common cfiCommon2 Using cfiNames0
          CFI CodeAlign 1
          CFI DataAlign -1
          CFI ReturnAddress ?RET CODE
          CFI CFA_DOVERLAY Used
          CFI CFA_IOVERLAY Used
          CFI CFA_SP SP+-2
          CFI CFA_PSP16 PSP16+0
          CFI CFA_XSP16 XSP16+0
          CFI `PSW.CY` SameValue
          CFI `B.BR0` SameValue
          CFI `B.BR1` SameValue
          CFI `B.BR2` SameValue
          CFI `B.BR3` SameValue
          CFI `B.BR4` SameValue
          CFI `B.BR5` SameValue
          CFI `B.BR6` SameValue
          CFI `B.BR7` SameValue
          CFI `VB.BR8` SameValue
          CFI `VB.BR9` SameValue
          CFI `VB.BR10` SameValue
          CFI `VB.BR11` SameValue
          CFI `VB.BR12` SameValue
          CFI `VB.BR13` SameValue
          CFI `VB.BR14` SameValue
          CFI `VB.BR15` SameValue
          CFI VB SameValue
          CFI B SameValue
          CFI A SameValue
          CFI PSW SameValue
          CFI DPL0 SameValue
          CFI DPH0 SameValue
          CFI R0 SameValue
          CFI R1 SameValue
          CFI R2 SameValue
          CFI R3 SameValue
          CFI R4 SameValue
          CFI R5 SameValue
          CFI R6 SameValue
          CFI R7 SameValue
          CFI V0 SameValue
          CFI V1 SameValue
          CFI V2 SameValue
          CFI V3 SameValue
          CFI V4 SameValue
          CFI V5 SameValue
          CFI V6 SameValue
          CFI V7 SameValue
          CFI V8 SameValue
          CFI V9 SameValue
          CFI V10 SameValue
          CFI V11 SameValue
          CFI V12 SameValue
          CFI V13 SameValue
          CFI V14 SameValue
          CFI V15 SameValue
          CFI PSPH Undefined
          CFI PSPL Undefined
          CFI XSPH Undefined
          CFI XSPL Undefined
          CFI ?RET Concat
          CFI ?BRET_EXT SameValue
          CFI ?RET_HIGH Frame(CFA_SP, 2)
          CFI ?RET_LOW Frame(CFA_SP, 1)
          CFI EndCommon cfiCommon2
        
HalAdcCheckVdd      SYMBOL "HalAdcCheckVdd"
`??HalAdcCheckVdd::?relay` SYMBOL "?relay", HalAdcCheckVdd
HalDriverInit       SYMBOL "HalDriverInit"
`??HalDriverInit::?relay` SYMBOL "?relay", HalDriverInit
HalFlashRead        SYMBOL "HalFlashRead"
`??HalFlashRead::?relay` SYMBOL "?relay", HalFlashRead
HalLcdWriteString   SYMBOL "HalLcdWriteString"
`??HalLcdWriteString::?relay` SYMBOL "?relay", HalLcdWriteString
InitBoard           SYMBOL "InitBoard"
`??InitBoard::?relay` SYMBOL "?relay", InitBoard
ZMacInit            SYMBOL "ZMacInit"
`??ZMacInit::?relay` SYMBOL "?relay", ZMacInit
ZMacSetReq          SYMBOL "ZMacSetReq"
`??ZMacSetReq::?relay` SYMBOL "?relay", ZMacSetReq
osal_init_system    SYMBOL "osal_init_system"
`??osal_init_system::?relay` SYMBOL "?relay", osal_init_system
osal_int_disable    SYMBOL "osal_int_disable"
`??osal_int_disable::?relay` SYMBOL "?relay", osal_int_disable
osal_int_enable     SYMBOL "osal_int_enable"
`??osal_int_enable::?relay` SYMBOL "?relay", osal_int_enable
osal_memcmp         SYMBOL "osal_memcmp"
`??osal_memcmp::?relay` SYMBOL "?relay", osal_memcmp
osal_memcpy         SYMBOL "osal_memcpy"
`??osal_memcpy::?relay` SYMBOL "?relay", osal_memcpy
osal_nv_init        SYMBOL "osal_nv_init"
`??osal_nv_init::?relay` SYMBOL "?relay", osal_nv_init
osal_nv_item_init   SYMBOL "osal_nv_item_init"
`??osal_nv_item_init::?relay` SYMBOL "?relay", osal_nv_item_init
osal_nv_read        SYMBOL "osal_nv_read"
`??osal_nv_read::?relay` SYMBOL "?relay", osal_nv_read
osal_nv_write       SYMBOL "osal_nv_write"
`??osal_nv_write::?relay` SYMBOL "?relay", osal_nv_write
osal_rand           SYMBOL "osal_rand"
`??osal_rand::?relay` SYMBOL "?relay", osal_rand
osal_start_system   SYMBOL "osal_start_system"
`??osal_start_system::?relay` SYMBOL "?relay", osal_start_system
zgInit              SYMBOL "zgInit"
`??zgInit::?relay`  SYMBOL "?relay", zgInit
main                SYMBOL "main"
`??main::?relay`    SYMBOL "?relay", main

        EXTERN `??HalAdcCheckVdd::?relay`
        FUNCTION `??HalAdcCheckVdd::?relay`,00H
        EXTERN `??HalDriverInit::?relay`
        FUNCTION `??HalDriverInit::?relay`,00H
        EXTERN `??HalFlashRead::?relay`
        FUNCTION `??HalFlashRead::?relay`,00H
        EXTERN `??HalLcdWriteString::?relay`
        FUNCTION `??HalLcdWriteString::?relay`,00H
        EXTERN `??InitBoard::?relay`
        FUNCTION `??InitBoard::?relay`,00H
        EXTERN `??ZMacInit::?relay`
        FUNCTION `??ZMacInit::?relay`,00H
        EXTERN `??ZMacSetReq::?relay`
        FUNCTION `??ZMacSetReq::?relay`,00H
        EXTERN `??osal_init_system::?relay`
        FUNCTION `??osal_init_system::?relay`,00H
        EXTERN `??osal_int_disable::?relay`
        FUNCTION `??osal_int_disable::?relay`,00H
        EXTERN `??osal_int_enable::?relay`
        FUNCTION `??osal_int_enable::?relay`,00H
        EXTERN `??osal_memcmp::?relay`
        FUNCTION `??osal_memcmp::?relay`,00H
        EXTERN `??osal_memcpy::?relay`
        FUNCTION `??osal_memcpy::?relay`,00H
        EXTERN `??osal_nv_init::?relay`
        FUNCTION `??osal_nv_init::?relay`,00H
        EXTERN `??osal_nv_item_init::?relay`
        FUNCTION `??osal_nv_item_init::?relay`,00H
        EXTERN `??osal_nv_read::?relay`
        FUNCTION `??osal_nv_read::?relay`,00H
        EXTERN `??osal_nv_write::?relay`
        FUNCTION `??osal_nv_write::?relay`,00H
        EXTERN `??osal_rand::?relay`
        FUNCTION `??osal_rand::?relay`,00H
        EXTERN `??osal_start_system::?relay`
        FUNCTION `??osal_start_system::?relay`,00H
        EXTERN `??zgInit::?relay`
        FUNCTION `??zgInit::?relay`,00H
        EXTERN HalAdcCheckVdd
        FUNCTION HalAdcCheckVdd,0202H
        ARGFRAME ISTACK, 0, STACK
        ARGFRAME PSTACK, 0, STACK
        ARGFRAME XSTACK, 17, STACK
        ARGFRAME IOVERLAY, 0, STATIC
        ARGFRAME DOVERLAY, 0, STATIC
        EXTERN HalDriverInit
        FUNCTION HalDriverInit,0202H
        ARGFRAME ISTACK, 0, STACK
        ARGFRAME PSTACK, 0, STACK
        ARGFRAME XSTACK, 17, STACK
        ARGFRAME IOVERLAY, 0, STATIC
        ARGFRAME DOVERLAY, 0, STATIC
        EXTERN HalFlashRead
        FUNCTION HalFlashRead,0202H
        ARGFRAME ISTACK, 0, STACK
        ARGFRAME PSTACK, 0, STACK
        ARGFRAME XSTACK, 28, STACK
        ARGFRAME IOVERLAY, 0, STATIC
        ARGFRAME DOVERLAY, 0, STATIC
        EXTERN HalLcdWriteString
        FUNCTION HalLcdWriteString,0202H
        ARGFRAME ISTACK, 0, STACK
        ARGFRAME PSTACK, 0, STACK
        ARGFRAME XSTACK, 17, STACK
        ARGFRAME IOVERLAY, 0, STATIC
        ARGFRAME DOVERLAY, 0, STATIC
        EXTERN InitBoard
        FUNCTION InitBoard,0202H
        ARGFRAME ISTACK, 0, STACK
        ARGFRAME PSTACK, 0, STACK
        ARGFRAME XSTACK, 17, STACK
        ARGFRAME IOVERLAY, 0, STATIC
        ARGFRAME DOVERLAY, 0, STATIC
        EXTERN ZMacInit
        FUNCTION ZMacInit,0202H
        ARGFRAME ISTACK, 0, STACK
        ARGFRAME PSTACK, 0, STACK
        ARGFRAME XSTACK, 17, STACK
        ARGFRAME IOVERLAY, 0, STATIC
        ARGFRAME DOVERLAY, 0, STATIC
        EXTERN ZMacSetReq
        FUNCTION ZMacSetReq,0202H
        ARGFRAME ISTACK, 0, STACK
        ARGFRAME PSTACK, 0, STACK
        ARGFRAME XSTACK, 26, STACK
        ARGFRAME IOVERLAY, 0, STATIC
        ARGFRAME DOVERLAY, 0, STATIC
        EXTERN aExtendedAddress
        EXTERN osal_init_system
        FUNCTION osal_init_system,0202H
        ARGFRAME ISTACK, 0, STACK
        ARGFRAME PSTACK, 0, STACK
        ARGFRAME XSTACK, 17, STACK
        ARGFRAME IOVERLAY, 0, STATIC
        ARGFRAME DOVERLAY, 0, STATIC
        EXTERN osal_int_disable
        FUNCTION osal_int_disable,0202H
        ARGFRAME ISTACK, 0, STACK
        ARGFRAME PSTACK, 0, STACK
        ARGFRAME XSTACK, 17, STACK
        ARGFRAME IOVERLAY, 0, STATIC
        ARGFRAME DOVERLAY, 0, STATIC
        EXTERN osal_int_enable
        FUNCTION osal_int_enable,0202H
        ARGFRAME ISTACK, 0, STACK
        ARGFRAME PSTACK, 0, STACK
        ARGFRAME XSTACK, 17, STACK
        ARGFRAME IOVERLAY, 0, STATIC
        ARGFRAME DOVERLAY, 0, STATIC
        EXTERN osal_memcmp
        FUNCTION osal_memcmp,0202H
        ARGFRAME ISTACK, 0, STACK
        ARGFRAME PSTACK, 0, STACK
        ARGFRAME XSTACK, 29, STACK
        ARGFRAME IOVERLAY, 0, STATIC
        ARGFRAME DOVERLAY, 0, STATIC
        EXTERN osal_memcpy
        FUNCTION osal_memcpy,0202H
        ARGFRAME ISTACK, 0, STACK
        ARGFRAME PSTACK, 0, STACK
        ARGFRAME XSTACK, 29, STACK
        ARGFRAME IOVERLAY, 0, STATIC
        ARGFRAME DOVERLAY, 0, STATIC
        EXTERN osal_nv_init
        FUNCTION osal_nv_init,0202H
        ARGFRAME ISTACK, 0, STACK
        ARGFRAME PSTACK, 0, STACK
        ARGFRAME XSTACK, 17, STACK
        ARGFRAME IOVERLAY, 0, STATIC
        ARGFRAME DOVERLAY, 0, STATIC
        EXTERN osal_nv_item_init
        FUNCTION osal_nv_item_init,0202H
        ARGFRAME ISTACK, 0, STACK
        ARGFRAME PSTACK, 0, STACK
        ARGFRAME XSTACK, 28, STACK
        ARGFRAME IOVERLAY, 0, STATIC
        ARGFRAME DOVERLAY, 0, STATIC
        EXTERN osal_nv_read
        FUNCTION osal_nv_read,0202H
        ARGFRAME ISTACK, 0, STACK
        ARGFRAME PSTACK, 0, STACK
        ARGFRAME XSTACK, 30, STACK
        ARGFRAME IOVERLAY, 0, STATIC
        ARGFRAME DOVERLAY, 0, STATIC
        EXTERN osal_nv_write
        FUNCTION osal_nv_write,0202H
        ARGFRAME ISTACK, 0, STACK
        ARGFRAME PSTACK, 0, STACK
        ARGFRAME XSTACK, 30, STACK
        ARGFRAME IOVERLAY, 0, STATIC
        ARGFRAME DOVERLAY, 0, STATIC
        EXTERN osal_rand
        FUNCTION osal_rand,0202H
        ARGFRAME ISTACK, 0, STACK
        ARGFRAME PSTACK, 0, STACK
        ARGFRAME XSTACK, 26, STACK
        ARGFRAME IOVERLAY, 0, STATIC
        ARGFRAME DOVERLAY, 0, STATIC
        EXTERN osal_start_system
        FUNCTION osal_start_system,0202H
        ARGFRAME ISTACK, 0, STACK
        ARGFRAME PSTACK, 0, STACK
        ARGFRAME XSTACK, 17, STACK
        ARGFRAME IOVERLAY, 0, STATIC
        ARGFRAME DOVERLAY, 0, STATIC
        EXTERN zgInit
        FUNCTION zgInit,0202H
        ARGFRAME ISTACK, 0, STACK
        ARGFRAME PSTACK, 0, STACK
        ARGFRAME XSTACK, 17, STACK
        ARGFRAME IOVERLAY, 0, STATIC
        ARGFRAME DOVERLAY, 0, STATIC

// C:\Users\ASUS\Desktop\work\graduration project\software\Z-Stack 3.0.2\Projects\zstack\ZMain\TI2530DB\ZMain.c
//    1 /*********************************************************************
//    2  * INCLUDES
//    3  */
//    4 
//    5 #ifndef NONWK
//    6 #include "AF.h"
//    7 #endif
//    8 #include "hal_adc.h"

        ASEGN SFR_AN:DATA:NOROOT,080H
// union <unnamed> volatile __sfr _A_P0
_A_P0:
        DATA8
        DS 1

        ASEGN SFR_AN:DATA:NOROOT,08fH
// unsigned char volatile __sfr P0INP
P0INP:
        DATA8
        DS 1

        ASEGN SFR_AN:DATA:NOROOT,090H
// union <unnamed> volatile __sfr _A_P1
_A_P1:
        DATA8
        DS 1

        ASEGN SFR_AN:DATA:NOROOT,09dH
// unsigned char volatile __sfr SLEEPSTA
SLEEPSTA:
        DATA8
        DS 1

        ASEGN SFR_AN:DATA:NOROOT,09eH
// unsigned char volatile __sfr CLKCONSTA
CLKCONSTA:
        DATA8
        DS 1

        ASEGN SFR_AN:DATA:NOROOT,0beH
// unsigned char volatile __sfr SLEEPCMD
SLEEPCMD:
        DATA8
        DS 1

        ASEGN SFR_AN:DATA:NOROOT,0c6H
// unsigned char volatile __sfr CLKCONCMD
CLKCONCMD:
        DATA8
        DS 1

        ASEGN SFR_AN:DATA:NOROOT,0fdH
// unsigned char volatile __sfr P0DIR
P0DIR:
        DATA8
        DS 1

        ASEGN SFR_AN:DATA:NOROOT,0feH
// unsigned char volatile __sfr P1DIR
P1DIR:
        DATA8
        DS 1
//    9 #include "hal_flash.h"
//   10 #include "hal_lcd.h"
//   11 #include "hal_led.h"
//   12 #include "hal_drivers.h"
//   13 #include "OnBoard.h"
//   14 #include "OSAL.h"
//   15 #include "OSAL_Nv.h"
//   16 #include "ZComDef.h"
//   17 #include "ZMAC.h"
//   18 
//   19 /*********************************************************************
//   20  * LOCAL FUNCTIONS
//   21  */
//   22 
//   23 static void zmain_ext_addr( void );
//   24 #if defined ZCL_KEY_ESTABLISH
//   25 static void zmain_cert_init( void );
//   26 #endif
//   27 static void zmain_dev_info( void );
//   28 static void zmain_vdd_check( void );
//   29 
//   30 #ifdef LCD_SUPPORTED
//   31 static void zmain_lcd_init( void );
//   32 #endif
//   33 
//   34 /*********************************************************************
//   35  * @fn      main
//   36  * @brief   First function called after startup.
//   37  * @return  don't care
//   38  */

        RSEG BANKED_CODE:HUGECODE:NOROOT(0)
//   39 int main( void )
main:
          CFI Block cfiBlock0 Using cfiCommon0
          CFI Function main
        CODE
//   40 {
        FUNCALL main, osal_int_disable
        LOCFRAME ISTACK, 0, STACK
        LOCFRAME PSTACK, 0, STACK
        LOCFRAME XSTACK, 17, STACK
        LOCFRAME IOVERLAY, 0, STATIC
        LOCFRAME DOVERLAY, 0, STATIC
        ARGFRAME ISTACK, 0, STACK
        ARGFRAME PSTACK, 0, STACK
        ARGFRAME XSTACK, 17, STACK
        ARGFRAME IOVERLAY, 0, STATIC
        ARGFRAME DOVERLAY, 0, STATIC
        FUNCALL main, HalAdcCheckVdd
        LOCFRAME ISTACK, 0, STACK
        LOCFRAME PSTACK, 0, STACK
        LOCFRAME XSTACK, 17, STACK
        LOCFRAME IOVERLAY, 0, STATIC
        LOCFRAME DOVERLAY, 0, STATIC
        ARGFRAME ISTACK, 0, STACK
        ARGFRAME PSTACK, 0, STACK
        ARGFRAME XSTACK, 17, STACK
        ARGFRAME IOVERLAY, 0, STATIC
        ARGFRAME DOVERLAY, 0, STATIC
        FUNCALL main, InitBoard
        LOCFRAME ISTACK, 0, STACK
        LOCFRAME PSTACK, 0, STACK
        LOCFRAME XSTACK, 17, STACK
        LOCFRAME IOVERLAY, 0, STATIC
        LOCFRAME DOVERLAY, 0, STATIC
        ARGFRAME ISTACK, 0, STACK
        ARGFRAME PSTACK, 0, STACK
        ARGFRAME XSTACK, 17, STACK
        ARGFRAME IOVERLAY, 0, STATIC
        ARGFRAME DOVERLAY, 0, STATIC
        FUNCALL main, HalDriverInit
        LOCFRAME ISTACK, 0, STACK
        LOCFRAME PSTACK, 0, STACK
        LOCFRAME XSTACK, 17, STACK
        LOCFRAME IOVERLAY, 0, STATIC
        LOCFRAME DOVERLAY, 0, STATIC
        ARGFRAME ISTACK, 0, STACK
        ARGFRAME PSTACK, 0, STACK
        ARGFRAME XSTACK, 17, STACK
        ARGFRAME IOVERLAY, 0, STATIC
        ARGFRAME DOVERLAY, 0, STATIC
        FUNCALL main, osal_nv_init
        LOCFRAME ISTACK, 0, STACK
        LOCFRAME PSTACK, 0, STACK
        LOCFRAME XSTACK, 17, STACK
        LOCFRAME IOVERLAY, 0, STATIC
        LOCFRAME DOVERLAY, 0, STATIC
        ARGFRAME ISTACK, 0, STACK
        ARGFRAME PSTACK, 0, STACK
        ARGFRAME XSTACK, 17, STACK
        ARGFRAME IOVERLAY, 0, STATIC
        ARGFRAME DOVERLAY, 0, STATIC
        FUNCALL main, ZMacInit
        LOCFRAME ISTACK, 0, STACK
        LOCFRAME PSTACK, 0, STACK
        LOCFRAME XSTACK, 17, STACK
        LOCFRAME IOVERLAY, 0, STATIC
        LOCFRAME DOVERLAY, 0, STATIC
        ARGFRAME ISTACK, 0, STACK
        ARGFRAME PSTACK, 0, STACK
        ARGFRAME XSTACK, 17, STACK
        ARGFRAME IOVERLAY, 0, STATIC
        ARGFRAME DOVERLAY, 0, STATIC
        FUNCALL main, zmain_ext_addr
        LOCFRAME ISTACK, 0, STACK
        LOCFRAME PSTACK, 0, STACK
        LOCFRAME XSTACK, 17, STACK
        LOCFRAME IOVERLAY, 0, STATIC
        LOCFRAME DOVERLAY, 0, STATIC
        ARGFRAME ISTACK, 0, STACK
        ARGFRAME PSTACK, 0, STACK
        ARGFRAME XSTACK, 17, STACK
        ARGFRAME IOVERLAY, 0, STATIC
        ARGFRAME DOVERLAY, 0, STATIC
        FUNCALL main, zgInit
        LOCFRAME ISTACK, 0, STACK
        LOCFRAME PSTACK, 0, STACK
        LOCFRAME XSTACK, 17, STACK
        LOCFRAME IOVERLAY, 0, STATIC
        LOCFRAME DOVERLAY, 0, STATIC
        ARGFRAME ISTACK, 0, STACK
        ARGFRAME PSTACK, 0, STACK
        ARGFRAME XSTACK, 17, STACK
        ARGFRAME IOVERLAY, 0, STATIC
        ARGFRAME DOVERLAY, 0, STATIC
        FUNCALL main, osal_init_system
        LOCFRAME ISTACK, 0, STACK
        LOCFRAME PSTACK, 0, STACK
        LOCFRAME XSTACK, 17, STACK
        LOCFRAME IOVERLAY, 0, STATIC
        LOCFRAME DOVERLAY, 0, STATIC
        ARGFRAME ISTACK, 0, STACK
        ARGFRAME PSTACK, 0, STACK
        ARGFRAME XSTACK, 17, STACK
        ARGFRAME IOVERLAY, 0, STATIC
        ARGFRAME DOVERLAY, 0, STATIC
        FUNCALL main, osal_int_enable
        LOCFRAME ISTACK, 0, STACK
        LOCFRAME PSTACK, 0, STACK
        LOCFRAME XSTACK, 17, STACK
        LOCFRAME IOVERLAY, 0, STATIC
        LOCFRAME DOVERLAY, 0, STATIC
        ARGFRAME ISTACK, 0, STACK
        ARGFRAME PSTACK, 0, STACK
        ARGFRAME XSTACK, 17, STACK
        ARGFRAME IOVERLAY, 0, STATIC
        ARGFRAME DOVERLAY, 0, STATIC
        FUNCALL main, InitBoard
        LOCFRAME ISTACK, 0, STACK
        LOCFRAME PSTACK, 0, STACK
        LOCFRAME XSTACK, 17, STACK
        LOCFRAME IOVERLAY, 0, STATIC
        LOCFRAME DOVERLAY, 0, STATIC
        ARGFRAME ISTACK, 0, STACK
        ARGFRAME PSTACK, 0, STACK
        ARGFRAME XSTACK, 17, STACK
        ARGFRAME IOVERLAY, 0, STATIC
        ARGFRAME DOVERLAY, 0, STATIC
        FUNCALL main, HalLcdWriteString
        LOCFRAME ISTACK, 0, STACK
        LOCFRAME PSTACK, 0, STACK
        LOCFRAME XSTACK, 17, STACK
        LOCFRAME IOVERLAY, 0, STATIC
        LOCFRAME DOVERLAY, 0, STATIC
        ARGFRAME ISTACK, 0, STACK
        ARGFRAME PSTACK, 0, STACK
        ARGFRAME XSTACK, 17, STACK
        ARGFRAME IOVERLAY, 0, STATIC
        ARGFRAME DOVERLAY, 0, STATIC
        FUNCALL main, HalLcdWriteString
        LOCFRAME ISTACK, 0, STACK
        LOCFRAME PSTACK, 0, STACK
        LOCFRAME XSTACK, 17, STACK
        LOCFRAME IOVERLAY, 0, STATIC
        LOCFRAME DOVERLAY, 0, STATIC
        ARGFRAME ISTACK, 0, STACK
        ARGFRAME PSTACK, 0, STACK
        ARGFRAME XSTACK, 17, STACK
        ARGFRAME IOVERLAY, 0, STATIC
        ARGFRAME DOVERLAY, 0, STATIC
        FUNCALL main, HalLcdWriteString
        LOCFRAME ISTACK, 0, STACK
        LOCFRAME PSTACK, 0, STACK
        LOCFRAME XSTACK, 17, STACK
        LOCFRAME IOVERLAY, 0, STATIC
        LOCFRAME DOVERLAY, 0, STATIC
        ARGFRAME ISTACK, 0, STACK
        ARGFRAME PSTACK, 0, STACK
        ARGFRAME XSTACK, 17, STACK
        ARGFRAME IOVERLAY, 0, STATIC
        ARGFRAME DOVERLAY, 0, STATIC
        FUNCALL main, osal_start_system
        LOCFRAME ISTACK, 0, STACK
        LOCFRAME PSTACK, 0, STACK
        LOCFRAME XSTACK, 17, STACK
        LOCFRAME IOVERLAY, 0, STATIC
        LOCFRAME DOVERLAY, 0, STATIC
        ARGFRAME ISTACK, 0, STACK
        ARGFRAME PSTACK, 0, STACK
        ARGFRAME XSTACK, 17, STACK
        ARGFRAME IOVERLAY, 0, STATIC
        ARGFRAME DOVERLAY, 0, STATIC
        ; Auto size: 17
        MOV       A,#-0x11
        LCALL     ?ALLOC_XSTACK8
          CFI CFA_XSP16 add(XSP16, 17)
//   41   // Turn off interrupts
//   42   osal_int_disable( INTS_ALL );
        ; Setup parameters for call to function osal_int_disable
        MOV       R1,#-0x1
        LCALL     `??osal_int_disable::?relay`; Banked call to: osal_int_disable
//   43   // Initialization for board related stuff such as LEDs
//   44   HAL_BOARD_INIT();
        ANL       0xbe,#0xfb
??main_0:
        MOV       A,0x9d
        MOV       C,0xE0 /* A   */.6
        JNC       ??main_0
        NOP
        MOV       R0,#-0x8
        MOV       R1,#0x1
??main_1:
        NOP
        MOV       A,R0
        ADD       A,#-0x1
        DEC       R0
        MOV       A,R1
        ADDC      A,#-0x1
        MOV       R1,A
        MOV       A,R0
        ORL       A,R1
        JNZ       ??main_1
        MOV       0xc6,#0x0
??main_2:
        MOV       A,0x9e
        JNZ       ??main_2
        ORL       0xbe,#0x4
        MOV       DPTR,#0x6270
        MOV       A,#0x8
        MOVX      @DPTR,A
        CLR       0x90.2
        ORL       0xfe,#0x4
        CLR       0x90.1
        ORL       0xfe,#0x2
        CLR       0x90.3
        ORL       0xfe,#0x8
        CLR       0x80.1
        ORL       0xfd,#0x2
        ORL       0x8f,#0x1
//   45  
//   46   // Make sure supply voltage is high enough to run
//   47   zmain_vdd_check();
        MOV       R6,#0x10
??main_3:
        ; Setup parameters for call to function HalAdcCheckVdd
        MOV       R1,#0x4e
        LCALL     `??HalAdcCheckVdd::?relay`; Banked call to: HalAdcCheckVdd
        MOV       A,R1
        JZ        ??main_3
        DEC       R6
        MOV       A,R6
        JNZ       ??main_3
//   48 
//   49   // Initialize board I/O
//   50   InitBoard( OB_COLD );
        ; Setup parameters for call to function InitBoard
        MOV       R1,#0x0
        LCALL     `??InitBoard::?relay`; Banked call to: InitBoard
//   51 
//   52   // Initialze HAL drivers
//   53   HalDriverInit();
        ; Setup parameters for call to function HalDriverInit
        LCALL     `??HalDriverInit::?relay`; Banked call to: HalDriverInit
//   54 
//   55   // Initialize NV System
//   56   osal_nv_init( NULL );
        ; Setup parameters for call to function osal_nv_init
        MOV       R2,#0x0
        MOV       R3,#0x0
        LCALL     `??osal_nv_init::?relay`; Banked call to: osal_nv_init
//   57 
//   58   // Initialize the MAC
//   59   ZMacInit();
        ; Setup parameters for call to function ZMacInit
        LCALL     `??ZMacInit::?relay`; Banked call to: ZMacInit
//   60 
//   61   // Determine the extended address
//   62   zmain_ext_addr();
        ; Setup parameters for call to function zmain_ext_addr
        LCALL     `??zmain_ext_addr::?relay`; Banked call to: zmain_ext_addr
//   63 
//   64 #if defined ZCL_KEY_ESTABLISH
//   65   // Initialize the Certicom certificate information.
//   66   zmain_cert_init();
//   67 #endif
//   68 
//   69   // Initialize basic NV items
//   70   zgInit();
        ; Setup parameters for call to function zgInit
        LCALL     `??zgInit::?relay`; Banked call to: zgInit
//   71 
//   72 #ifndef NONWK
//   73   // Since the AF isn't a task, call it's initialization routine
//   74   afInit();
//   75 #endif
//   76 
//   77   // Initialize the operating system
//   78   osal_init_system();
        ; Setup parameters for call to function osal_init_system
        LCALL     `??osal_init_system::?relay`; Banked call to: osal_init_system
//   79 
//   80   // Allow interrupts
//   81   osal_int_enable( INTS_ALL );
        ; Setup parameters for call to function osal_int_enable
        MOV       R1,#-0x1
        LCALL     `??osal_int_enable::?relay`; Banked call to: osal_int_enable
//   82 
//   83   // Final board initialization
//   84   InitBoard( OB_READY );
        ; Setup parameters for call to function InitBoard
        MOV       R1,#0x2
        LCALL     `??InitBoard::?relay`; Banked call to: InitBoard
//   85 
//   86   // Display information about this device
//   87   zmain_dev_info();
        MOV       R0,#(aExtendedAddress + 7) & 0xff
        MOV       R1,#((aExtendedAddress + 7) >> 8) & 0xff
        MOV       R2,#0x0
??main_4:
        MOV       DPL,R0
        MOV       DPH,R1
        MOVX      A,@DPTR
        SWAP      A
        ANL       A,#0xf
        MOV       R4,A
        MOV       A,R2
        MOV       R6,A
        MOV       A,#0x1
        ADD       A,R6
        MOV       R2,A
        MOV       A,R4
        CLR       C
        SUBB      A,#0xa
        JNC       ??main_5
        MOV       R3,#0x30
        SJMP      ??main_6
??main_5:
        MOV       R3,#0x37
??main_6:
        MOV       A,R4
        ADD       A,R3
        PUSH      A
          CFI CFA_SP SP+-4
        MOV       DPL,?XSP + 0
        MOV       DPH,?XSP + 1
        MOV       A,DPL
        ADD       A,R6
        MOV       DPL,A
        CLR       A
        ADDC      A,DPH
        MOV       DPH,A
        POP       A
          CFI CFA_SP SP+-3
        MOVX      @DPTR,A
        MOV       DPL,R0
        MOV       DPH,R1
        MOVX      A,@DPTR
        ANL       A,#0xf
        MOV       R4,A
        MOV       A,R2
        MOV       R7,A
        MOV       A,#0x1
        ADD       A,R2
        MOV       R2,A
        MOV       A,R4
        CLR       C
        SUBB      A,#0xa
        JNC       ??main_7
        MOV       R3,#0x30
        SJMP      ??main_8
??main_7:
        MOV       R3,#0x37
??main_8:
        MOV       A,R4
        ADD       A,R3
        PUSH      A
          CFI CFA_SP SP+-4
        MOV       DPL,?XSP + 0
        MOV       DPH,?XSP + 1
        MOV       A,DPL
        ADD       A,R7
        MOV       DPL,A
        CLR       A
        ADDC      A,DPH
        MOV       DPH,A
        POP       A
          CFI CFA_SP SP+-3
        MOVX      @DPTR,A
        MOV       A,R0
        ADD       A,#-0x1
        DEC       R0
        MOV       A,R1
        ADDC      A,#-0x1
        MOV       R1,A
        MOV       A,R2
        CLR       C
        SUBB      A,#0x10
        JC        ??main_4
        MOV       A,#0x10
        LCALL     ?XSTACK_DISP0_8
        CLR       A
        MOVX      @DPTR,A
        ; Setup parameters for call to function HalLcdWriteString
        MOV       R1,#-0x1
        MOV       R2,#`?<Constant "IEEE: ">` & 0xff
        MOV       R3,#(`?<Constant "IEEE: ">` >> 8) & 0xff
        LCALL     `??HalLcdWriteString::?relay`; Banked call to: HalLcdWriteString
        ; Setup parameters for call to function HalLcdWriteString
        MOV       R1,#-0x1
        MOV       R2,?XSP + 0
        MOV       R3,?XSP + 1
        LCALL     `??HalLcdWriteString::?relay`; Banked call to: HalLcdWriteString
//   88 
//   89   /* Display the device info on the LCD */
//   90 #ifdef LCD_SUPPORTED
//   91   zmain_lcd_init();
        ; Setup parameters for call to function HalLcdWriteString
        MOV       R1,#-0x1
        MOV       R2,#`?<Constant "TexasInstruments">` & 0xff
        MOV       R3,#(`?<Constant "TexasInstruments">` >> 8) & 0xff
        LCALL     `??HalLcdWriteString::?relay`; Banked call to: HalLcdWriteString
//   92 #endif
//   93 
//   94 #ifdef WDT_IN_PM1
//   95   /* If WDT is used, this is a good place to enable it. */
//   96   WatchDogEnable( WDTIMX );
//   97 #endif
//   98 
//   99   osal_start_system(); // No Return from here
        ; Setup parameters for call to function osal_start_system
        LCALL     `??osal_start_system::?relay`; Banked call to: osal_start_system
//  100 
//  101   return 0;  // Shouldn't get here.
        MOV       R2,#0x0
        MOV       R3,#0x0
        MOV       A,#0x11
        LCALL     ?DEALLOC_XSTACK8
          CFI CFA_XSP16 XSP16+0
        LJMP      ?BRET
          CFI EndBlock cfiBlock0
        REQUIRE SLEEPCMD
        REQUIRE SLEEPSTA
        REQUIRE CLKCONCMD
        REQUIRE CLKCONSTA
        REQUIRE _A_P1
        REQUIRE P1DIR
        REQUIRE _A_P0
        REQUIRE P0DIR
        REQUIRE P0INP
//  102 } // main()
//  103 
//  104 /*********************************************************************
//  105  * @fn      zmain_vdd_check
//  106  * @brief   Check if the Vdd is OK to run the processor.
//  107  * @return  Return if Vdd is ok; otherwise, flash LED, then reset
//  108  *********************************************************************/
//  109 static void zmain_vdd_check( void )
//  110 {
//  111   uint8 cnt = 16;
//  112   
//  113   do {
//  114     while (!HalAdcCheckVdd(VDD_MIN_RUN));
//  115   } while (--cnt);
//  116 }
//  117 
//  118 /**************************************************************************************************
//  119  * @fn          zmain_ext_addr
//  120  *
//  121  * @brief       Execute a prioritized search for a valid extended address and write the results
//  122  *              into the OSAL NV system for use by the system. Temporary address not saved to NV.
//  123  *
//  124  * input parameters
//  125  *
//  126  * None.
//  127  *
//  128  * output parameters
//  129  *
//  130  * None.
//  131  *
//  132  * @return      None.
//  133  **************************************************************************************************
//  134  */

        RSEG BANKED_CODE:HUGECODE:NOROOT(0)
//  135 static void zmain_ext_addr(void)
zmain_ext_addr:
          CFI Block cfiBlock1 Using cfiCommon1
          CFI Function zmain_ext_addr
        CODE
//  136 {
        FUNCALL zmain_ext_addr, osal_nv_item_init
        LOCFRAME ISTACK, 0, STACK
        LOCFRAME PSTACK, 0, STACK
        LOCFRAME XSTACK, 28, STACK
        LOCFRAME IOVERLAY, 0, STATIC
        LOCFRAME DOVERLAY, 0, STATIC
        ARGFRAME ISTACK, 0, STACK
        ARGFRAME PSTACK, 0, STACK
        ARGFRAME XSTACK, 28, STACK
        ARGFRAME IOVERLAY, 0, STATIC
        ARGFRAME DOVERLAY, 0, STATIC
        FUNCALL zmain_ext_addr, osal_nv_read
        LOCFRAME ISTACK, 0, STACK
        LOCFRAME PSTACK, 0, STACK
        LOCFRAME XSTACK, 30, STACK
        LOCFRAME IOVERLAY, 0, STATIC
        LOCFRAME DOVERLAY, 0, STATIC
        ARGFRAME ISTACK, 0, STACK
        ARGFRAME PSTACK, 0, STACK
        ARGFRAME XSTACK, 30, STACK
        ARGFRAME IOVERLAY, 0, STATIC
        ARGFRAME DOVERLAY, 0, STATIC
        FUNCALL zmain_ext_addr, osal_memcmp
        LOCFRAME ISTACK, 0, STACK
        LOCFRAME PSTACK, 0, STACK
        LOCFRAME XSTACK, 29, STACK
        LOCFRAME IOVERLAY, 0, STATIC
        LOCFRAME DOVERLAY, 0, STATIC
        ARGFRAME ISTACK, 0, STACK
        ARGFRAME PSTACK, 0, STACK
        ARGFRAME XSTACK, 29, STACK
        ARGFRAME IOVERLAY, 0, STATIC
        ARGFRAME DOVERLAY, 0, STATIC
        FUNCALL zmain_ext_addr, HalFlashRead
        LOCFRAME ISTACK, 0, STACK
        LOCFRAME PSTACK, 0, STACK
        LOCFRAME XSTACK, 28, STACK
        LOCFRAME IOVERLAY, 0, STATIC
        LOCFRAME DOVERLAY, 0, STATIC
        ARGFRAME ISTACK, 0, STACK
        ARGFRAME PSTACK, 0, STACK
        ARGFRAME XSTACK, 28, STACK
        ARGFRAME IOVERLAY, 0, STATIC
        ARGFRAME DOVERLAY, 0, STATIC
        FUNCALL zmain_ext_addr, osal_memcmp
        LOCFRAME ISTACK, 0, STACK
        LOCFRAME PSTACK, 0, STACK
        LOCFRAME XSTACK, 29, STACK
        LOCFRAME IOVERLAY, 0, STATIC
        LOCFRAME DOVERLAY, 0, STATIC
        ARGFRAME ISTACK, 0, STACK
        ARGFRAME PSTACK, 0, STACK
        ARGFRAME XSTACK, 29, STACK
        ARGFRAME IOVERLAY, 0, STATIC
        ARGFRAME DOVERLAY, 0, STATIC
        FUNCALL zmain_ext_addr, osal_memcmp
        LOCFRAME ISTACK, 0, STACK
        LOCFRAME PSTACK, 0, STACK
        LOCFRAME XSTACK, 29, STACK
        LOCFRAME IOVERLAY, 0, STATIC
        LOCFRAME DOVERLAY, 0, STATIC
        ARGFRAME ISTACK, 0, STACK
        ARGFRAME PSTACK, 0, STACK
        ARGFRAME XSTACK, 29, STACK
        ARGFRAME IOVERLAY, 0, STATIC
        ARGFRAME DOVERLAY, 0, STATIC
        FUNCALL zmain_ext_addr, osal_memcpy
        LOCFRAME ISTACK, 0, STACK
        LOCFRAME PSTACK, 0, STACK
        LOCFRAME XSTACK, 29, STACK
        LOCFRAME IOVERLAY, 0, STATIC
        LOCFRAME DOVERLAY, 0, STATIC
        ARGFRAME ISTACK, 0, STACK
        ARGFRAME PSTACK, 0, STACK
        ARGFRAME XSTACK, 29, STACK
        ARGFRAME IOVERLAY, 0, STATIC
        ARGFRAME DOVERLAY, 0, STATIC
        FUNCALL zmain_ext_addr, osal_rand
        LOCFRAME ISTACK, 0, STACK
        LOCFRAME PSTACK, 0, STACK
        LOCFRAME XSTACK, 26, STACK
        LOCFRAME IOVERLAY, 0, STATIC
        LOCFRAME DOVERLAY, 0, STATIC
        ARGFRAME ISTACK, 0, STACK
        ARGFRAME PSTACK, 0, STACK
        ARGFRAME XSTACK, 26, STACK
        ARGFRAME IOVERLAY, 0, STATIC
        ARGFRAME DOVERLAY, 0, STATIC
        FUNCALL zmain_ext_addr, osal_nv_write
        LOCFRAME ISTACK, 0, STACK
        LOCFRAME PSTACK, 0, STACK
        LOCFRAME XSTACK, 30, STACK
        LOCFRAME IOVERLAY, 0, STATIC
        LOCFRAME DOVERLAY, 0, STATIC
        ARGFRAME ISTACK, 0, STACK
        ARGFRAME PSTACK, 0, STACK
        ARGFRAME XSTACK, 30, STACK
        ARGFRAME IOVERLAY, 0, STATIC
        ARGFRAME DOVERLAY, 0, STATIC
        FUNCALL zmain_ext_addr, ZMacSetReq
        LOCFRAME ISTACK, 0, STACK
        LOCFRAME PSTACK, 0, STACK
        LOCFRAME XSTACK, 26, STACK
        LOCFRAME IOVERLAY, 0, STATIC
        LOCFRAME DOVERLAY, 0, STATIC
        ARGFRAME ISTACK, 0, STACK
        ARGFRAME PSTACK, 0, STACK
        ARGFRAME XSTACK, 26, STACK
        ARGFRAME IOVERLAY, 0, STATIC
        ARGFRAME DOVERLAY, 0, STATIC
        REQUIRE ?V0
        REQUIRE ?V1
        REQUIRE ?V2
        REQUIRE ?V4
        REQUIRE ?V5
        REQUIRE ?V6
        REQUIRE ?V8
        REQUIRE ?V9
        MOV       A,#-0x12
        LCALL     ?BANKED_ENTER_XDATA
          CFI DPH0 load(1, XDATA, add(CFA_XSP16, literal(-1)))
          CFI DPL0 load(1, XDATA, add(CFA_XSP16, literal(-2)))
          CFI ?BRET_EXT load(1, XDATA, add(CFA_XSP16, literal(-3)))
          CFI ?RET_HIGH load(1, XDATA, add(CFA_XSP16, literal(-4)))
          CFI ?RET_LOW load(1, XDATA, add(CFA_XSP16, literal(-5)))
          CFI R7 load(1, XDATA, add(CFA_XSP16, literal(-6)))
          CFI V9 load(1, XDATA, add(CFA_XSP16, literal(-7)))
          CFI V8 load(1, XDATA, add(CFA_XSP16, literal(-8)))
          CFI V7 load(1, XDATA, add(CFA_XSP16, literal(-9)))
          CFI V6 load(1, XDATA, add(CFA_XSP16, literal(-10)))
          CFI V5 load(1, XDATA, add(CFA_XSP16, literal(-11)))
          CFI V4 load(1, XDATA, add(CFA_XSP16, literal(-12)))
          CFI V3 load(1, XDATA, add(CFA_XSP16, literal(-13)))
          CFI V2 load(1, XDATA, add(CFA_XSP16, literal(-14)))
          CFI V1 load(1, XDATA, add(CFA_XSP16, literal(-15)))
          CFI V0 load(1, XDATA, add(CFA_XSP16, literal(-16)))
          CFI VB load(1, XDATA, add(CFA_XSP16, literal(-17)))
          CFI R6 load(1, XDATA, add(CFA_XSP16, literal(-18)))
          CFI CFA_SP SP+0
          CFI CFA_XSP16 add(XSP16, 18)
        ; Saved register size: 18
        ; Auto size: 8
        MOV       A,#-0x8
        LCALL     ?ALLOC_XSTACK8
          CFI CFA_XSP16 add(XSP16, 26)
//  137   uint8 nullAddr[Z_EXTADDR_LEN] = {0xFF, 0xFF, 0xFF, 0xFF, 0xFF, 0xFF, 0xFF, 0xFF};
        MOV       DPTR,#`?<Constant {255, 255, 255, 255, 255, 255, 255,`
        MOV       R4,?XSP + 0
        MOV       R5,?XSP + 1
        MOV       A,#0x8
        LCALL     ?MOVE_LONG8_XDATA_XDATA
//  138   uint8 writeNV = TRUE;
//  139 
//  140   // First check whether a non-erased extended address exists in the OSAL NV.
//  141   if ((SUCCESS != osal_nv_item_init(ZCD_NV_EXTADDR, Z_EXTADDR_LEN, NULL))  ||
//  142       (SUCCESS != osal_nv_read(ZCD_NV_EXTADDR, 0, Z_EXTADDR_LEN, aExtendedAddress)) ||
//  143       (osal_memcmp(aExtendedAddress, nullAddr, Z_EXTADDR_LEN)))
        MOV       ?V0,#aExtendedAddress & 0xff
        MOV       ?V1,#(aExtendedAddress >> 8) & 0xff
        MOV       ?V2,A
        MOV       R0,?XSP + 0
        MOV       R1,?XSP + 1
        MOV       ?V4,R0
        MOV       ?V5,R1
        MOV       ?V6,A
        ; Setup parameters for call to function osal_nv_item_init
        MOV       ?V8,A
        MOV       ?V9,A
        MOV       R0,#?V8
        LCALL     ?PUSH_XSTACK_I_TWO
          CFI CFA_XSP16 add(XSP16, 28)
        MOV       R4,#0x8
        MOV       R5,#0x0
        MOV       R2,#0x1
        MOV       R3,#0x0
        LCALL     `??osal_nv_item_init::?relay`; Banked call to: osal_nv_item_init
        MOV       A,#0x2
        LCALL     ?DEALLOC_XSTACK8
          CFI CFA_XSP16 add(XSP16, 26)
        MOV       A,R1
        JNZ       ??zmain_ext_addr_0
        ; Setup parameters for call to function osal_nv_read
        MOV       ?V8,#aExtendedAddress & 0xff
        MOV       ?V9,#(aExtendedAddress >> 8) & 0xff
        MOV       R0,#?V8
        LCALL     ?PUSH_XSTACK_I_TWO
          CFI CFA_XSP16 add(XSP16, 28)
        MOV       ?V8,#0x8
        MOV       ?V9,#0x0
        MOV       R0,#?V8
        LCALL     ?PUSH_XSTACK_I_TWO
          CFI CFA_XSP16 add(XSP16, 30)
        MOV       R4,#0x0
        MOV       R5,#0x0
        MOV       R2,#0x1
        MOV       R3,#0x0
        LCALL     `??osal_nv_read::?relay`; Banked call to: osal_nv_read
        MOV       A,#0x4
        LCALL     ?DEALLOC_XSTACK8
          CFI CFA_XSP16 add(XSP16, 26)
        MOV       A,R1
        JNZ       ??zmain_ext_addr_0
        ; Setup parameters for call to function osal_memcmp
        MOV       R0,#?V4
        LCALL     ?PUSH_XSTACK_I_THREE
          CFI CFA_XSP16 add(XSP16, 29)
        MOV       R4,#0x8
        MOV       R5,#0x0
        MOV       R1,?V0
        MOV       R2,?V1
        MOV       R3,?V2
        LCALL     `??osal_memcmp::?relay`; Banked call to: osal_memcmp
        MOV       A,#0x3
        LCALL     ?DEALLOC_XSTACK8
          CFI CFA_XSP16 add(XSP16, 26)
        MOV       A,R1
        JNZ       $+5
        LJMP      ??zmain_ext_addr_1 & 0xFFFF
//  144   {
//  145     // Attempt to read the extended address from the location on the lock bits page
//  146     // where the programming tools know to reserve it.
//  147     HalFlashRead(HAL_FLASH_IEEE_PAGE, HAL_FLASH_IEEE_OSET, aExtendedAddress, Z_EXTADDR_LEN);
??zmain_ext_addr_0:
        ; Setup parameters for call to function HalFlashRead
        MOV       ?V8,#0x8
        MOV       R0,#?V8
        LCALL     ?PUSH_XSTACK_I_TWO
          CFI CFA_XSP16 add(XSP16, 28)
        MOV       R4,#aExtendedAddress & 0xff
        MOV       R5,#(aExtendedAddress >> 8) & 0xff
        MOV       R2,#-0x18
        MOV       R3,#0x7
        MOV       R1,#0x7f
        LCALL     `??HalFlashRead::?relay`; Banked call to: HalFlashRead
        MOV       A,#0x2
        LCALL     ?DEALLOC_XSTACK8
          CFI CFA_XSP16 add(XSP16, 26)
//  148 
//  149     if (osal_memcmp(aExtendedAddress, nullAddr, Z_EXTADDR_LEN))
        ; Setup parameters for call to function osal_memcmp
        MOV       R0,#?V4
        LCALL     ?PUSH_XSTACK_I_THREE
          CFI CFA_XSP16 add(XSP16, 29)
        MOV       R4,#0x8
        MOV       R5,#0x0
        MOV       R1,?V0
        MOV       R2,?V1
        MOV       R3,?V2
        LCALL     `??osal_memcmp::?relay`; Banked call to: osal_memcmp
        MOV       A,#0x3
        LCALL     ?DEALLOC_XSTACK8
          CFI CFA_XSP16 add(XSP16, 26)
        MOV       A,R1
        JZ        ??zmain_ext_addr_2
//  150     {
//  151       // Attempt to read the extended address from the designated location in the Info Page.
//  152       if (!osal_memcmp((uint8 *)(P_INFOPAGE+HAL_INFOP_IEEE_OSET), nullAddr, Z_EXTADDR_LEN))
        ; Setup parameters for call to function osal_memcmp
        MOV       R0,#?V4
        LCALL     ?PUSH_XSTACK_I_THREE
          CFI CFA_XSP16 add(XSP16, 29)
        MOV       R4,#0x8
        MOV       R5,#0x0
        MOV       R1,#0xc
        MOV       R2,#0x78
        MOV       R3,#0x0
        LCALL     `??osal_memcmp::?relay`; Banked call to: osal_memcmp
        MOV       A,#0x3
        LCALL     ?DEALLOC_XSTACK8
          CFI CFA_XSP16 add(XSP16, 26)
        MOV       A,R1
        JNZ       ??zmain_ext_addr_3
//  153       {
//  154         osal_memcpy(aExtendedAddress, (uint8 *)(P_INFOPAGE+HAL_INFOP_IEEE_OSET), Z_EXTADDR_LEN);
        ; Setup parameters for call to function osal_memcpy
        MOV       ?V0,#0xc
        MOV       ?V1,#0x78
        MOV       R0,#?V0
        LCALL     ?PUSH_XSTACK_I_THREE
          CFI CFA_XSP16 add(XSP16, 29)
        MOV       R4,#0x8
        MOV       R5,#0x0
        MOV       R2,#aExtendedAddress & 0xff
        MOV       R3,#(aExtendedAddress >> 8) & 0xff
        LCALL     `??osal_memcpy::?relay`; Banked call to: osal_memcpy
        MOV       A,#0x3
        LCALL     ?DEALLOC_XSTACK8
          CFI CFA_XSP16 add(XSP16, 26)
        SJMP      ??zmain_ext_addr_2
//  155       }
//  156       else  // No valid extended address was found.
//  157       {
//  158         uint8 idx;
//  159         
//  160 #if !defined ( NV_RESTORE )
//  161         writeNV = FALSE;  // Make this a temporary IEEE address
//  162 #endif
//  163 
//  164         /* Attempt to create a sufficiently random extended address for expediency.
//  165          * Note: this is only valid/legal in a test environment and
//  166          *       must never be used for a commercial product.
//  167          */
//  168         for (idx = 0; idx < (Z_EXTADDR_LEN - 2);)
??zmain_ext_addr_3:
        MOV       R6,#0x0
//  169         {
//  170           uint16 randy = osal_rand();
??zmain_ext_addr_4:
        ; Setup parameters for call to function osal_rand
        LCALL     `??osal_rand::?relay`; Banked call to: osal_rand
        MOV       ?V0,R2
//  171           aExtendedAddress[idx++] = LO_UINT16(randy);
        MOV       A,R6
        MOV       R2,A
        MOV       A,#aExtendedAddress & 0xff
        ADD       A,R2
        MOV       DPL,A
        CLR       A
        ADDC      A,#(aExtendedAddress >> 8) & 0xff
        MOV       DPH,A
        MOV       A,?V0
        MOVX      @DPTR,A
        INC       R6
//  172           aExtendedAddress[idx++] = HI_UINT16(randy);
        MOV       A,R6
        MOV       R0,A
        LCALL     ?Subroutine0 & 0xFFFF
//  173         }
??CrossCallReturnLabel_0:
        MOV       A,R3
        MOVX      @DPTR,A
        INC       R6
        MOV       A,R6
        CLR       C
        SUBB      A,#0x6
        JC        ??zmain_ext_addr_4
//  174         // Next-to-MSB identifies ZigBee devicetype.
//  175 #if ZG_BUILD_COORDINATOR_TYPE && !ZG_BUILD_JOINING_TYPE
//  176         aExtendedAddress[idx++] = 0x10;
        INC       R0
        LCALL     ?Subroutine0 & 0xFFFF
??CrossCallReturnLabel_1:
        MOV       A,#0x10
        MOVX      @DPTR,A
//  177 #elif ZG_BUILD_RTRONLY_TYPE
//  178         aExtendedAddress[idx++] = 0x20;
//  179 #else
//  180         aExtendedAddress[idx++] = 0x30;
//  181 #endif
//  182         // MSB has historical signficance.
//  183         aExtendedAddress[idx] = 0xF8;
        INC       R0
        MOV       A,#aExtendedAddress & 0xff
        ADD       A,R0
        MOV       DPL,A
        CLR       A
        ADDC      A,#(aExtendedAddress >> 8) & 0xff
        MOV       DPH,A
        MOV       A,#-0x8
        MOVX      @DPTR,A
//  184       }
//  185     }
//  186 
//  187     if (writeNV)
//  188     {
//  189       (void)osal_nv_write(ZCD_NV_EXTADDR, 0, Z_EXTADDR_LEN, aExtendedAddress);
??zmain_ext_addr_2:
        ; Setup parameters for call to function osal_nv_write
        MOV       ?V0,#aExtendedAddress & 0xff
        MOV       ?V1,#(aExtendedAddress >> 8) & 0xff
        MOV       R0,#?V0
        LCALL     ?PUSH_XSTACK_I_TWO
          CFI CFA_XSP16 add(XSP16, 28)
        MOV       ?V0,#0x8
        MOV       ?V1,#0x0
        MOV       R0,#?V0
        LCALL     ?PUSH_XSTACK_I_TWO
          CFI CFA_XSP16 add(XSP16, 30)
        MOV       R4,#0x0
        MOV       R5,#0x0
        MOV       R2,#0x1
        MOV       R3,#0x0
        LCALL     `??osal_nv_write::?relay`; Banked call to: osal_nv_write
        MOV       A,#0x4
        LCALL     ?DEALLOC_XSTACK8
          CFI CFA_XSP16 add(XSP16, 26)
//  190     }
//  191   }
//  192 
//  193   // Set the MAC PIB extended address according to results from above.
//  194   (void)ZMacSetReq(MAC_EXTENDED_ADDRESS, aExtendedAddress);
??zmain_ext_addr_1:
        ; Setup parameters for call to function ZMacSetReq
        MOV       R2,#aExtendedAddress & 0xff
        MOV       R3,#(aExtendedAddress >> 8) & 0xff
        MOV       R1,#-0x1e
        LCALL     `??ZMacSetReq::?relay`; Banked call to: ZMacSetReq
//  195 }
        MOV       A,#0x8
        LCALL     ?DEALLOC_XSTACK8
          CFI CFA_XSP16 add(XSP16, 18)
        MOV       R7,#0xa
        LJMP      ?BANKED_LEAVE_XDATA
          CFI EndBlock cfiBlock1

        RSEG BANKED_CODE:HUGECODE:NOROOT(0)
?Subroutine0:
          CFI Block cfiCond2 Using cfiCommon1
          CFI Function zmain_ext_addr
          CFI Conditional ??CrossCallReturnLabel_0
          CFI R6 load(1, XDATA, add(CFA_XSP16, literal(-18)))
          CFI VB load(1, XDATA, add(CFA_XSP16, literal(-17)))
          CFI V0 load(1, XDATA, add(CFA_XSP16, literal(-16)))
          CFI V1 load(1, XDATA, add(CFA_XSP16, literal(-15)))
          CFI V2 load(1, XDATA, add(CFA_XSP16, literal(-14)))
          CFI V3 load(1, XDATA, add(CFA_XSP16, literal(-13)))
          CFI V4 load(1, XDATA, add(CFA_XSP16, literal(-12)))
          CFI V5 load(1, XDATA, add(CFA_XSP16, literal(-11)))
          CFI V6 load(1, XDATA, add(CFA_XSP16, literal(-10)))
          CFI V7 load(1, XDATA, add(CFA_XSP16, literal(-9)))
          CFI V8 load(1, XDATA, add(CFA_XSP16, literal(-8)))
          CFI V9 load(1, XDATA, add(CFA_XSP16, literal(-7)))
          CFI R7 load(1, XDATA, add(CFA_XSP16, literal(-6)))
          CFI ?RET_LOW load(1, XDATA, add(CFA_XSP16, literal(-5)))
          CFI ?RET_HIGH load(1, XDATA, add(CFA_XSP16, literal(-4)))
          CFI ?BRET_EXT load(1, XDATA, add(CFA_XSP16, literal(-3)))
          CFI DPL0 load(1, XDATA, add(CFA_XSP16, literal(-2)))
          CFI DPH0 load(1, XDATA, add(CFA_XSP16, literal(-1)))
          CFI CFA_SP SP+-2
          CFI CFA_XSP16 add(XSP16, 26)
          CFI Block cfiCond3 Using cfiCommon1
          CFI (cfiCond3) Function zmain_ext_addr
          CFI (cfiCond3) Conditional ??CrossCallReturnLabel_1
          CFI (cfiCond3) R6 load(1, XDATA, add(CFA_XSP16, literal(-18)))
          CFI (cfiCond3) VB load(1, XDATA, add(CFA_XSP16, literal(-17)))
          CFI (cfiCond3) V0 load(1, XDATA, add(CFA_XSP16, literal(-16)))
          CFI (cfiCond3) V1 load(1, XDATA, add(CFA_XSP16, literal(-15)))
          CFI (cfiCond3) V2 load(1, XDATA, add(CFA_XSP16, literal(-14)))
          CFI (cfiCond3) V3 load(1, XDATA, add(CFA_XSP16, literal(-13)))
          CFI (cfiCond3) V4 load(1, XDATA, add(CFA_XSP16, literal(-12)))
          CFI (cfiCond3) V5 load(1, XDATA, add(CFA_XSP16, literal(-11)))
          CFI (cfiCond3) V6 load(1, XDATA, add(CFA_XSP16, literal(-10)))
          CFI (cfiCond3) V7 load(1, XDATA, add(CFA_XSP16, literal(-9)))
          CFI (cfiCond3) V8 load(1, XDATA, add(CFA_XSP16, literal(-8)))
          CFI (cfiCond3) V9 load(1, XDATA, add(CFA_XSP16, literal(-7)))
          CFI (cfiCond3) R7 load(1, XDATA, add(CFA_XSP16, literal(-6)))
          CFI (cfiCond3) ?RET_LOW load(1, XDATA, add(CFA_XSP16, literal(-5)))
          CFI (cfiCond3) ?RET_HIGH load(1, XDATA, add(CFA_XSP16, literal(-4)))
          CFI (cfiCond3) ?BRET_EXT load(1, XDATA, add(CFA_XSP16, literal(-3)))
          CFI (cfiCond3) DPL0 load(1, XDATA, add(CFA_XSP16, literal(-2)))
          CFI (cfiCond3) DPH0 load(1, XDATA, add(CFA_XSP16, literal(-1)))
          CFI (cfiCond3) CFA_SP SP+-2
          CFI (cfiCond3) CFA_XSP16 add(XSP16, 26)
          CFI Block cfiPicker4 Using cfiCommon2
          CFI (cfiPicker4) NoFunction
          CFI (cfiPicker4) Picker
        MOV       A,#aExtendedAddress & 0xff
        ADD       A,R6
        MOV       DPL,A
        CLR       A
        ADDC      A,#(aExtendedAddress >> 8) & 0xff
        MOV       DPH,A
        RET
          CFI EndBlock cfiCond2
          CFI EndBlock cfiCond3
          CFI EndBlock cfiPicker4

        RSEG BANK_RELAYS:CODE:REORDER:NOROOT(0)
`??main::?relay`:
        CODE
        LCALL   ?BDISPATCH
        DATA24
        DC24    main

        RSEG BANK_RELAYS:CODE:REORDER:NOROOT(0)
`??zmain_ext_addr::?relay`:
        CODE
        LCALL   ?BDISPATCH
        DATA24
        DC24    zmain_ext_addr

        RSEG XDATA_ROM_C:CONST:REORDER:NOROOT(0)
        DATA8
`?<Constant {255, 255, 255, 255, 255, 255, 255,`:
        DB 255
        DB 255
        DB 255
        DB 255
        DB 255
        DB 255
        DB 255
        DB 255

        RSEG XDATA_ROM_C:CONST:REORDER:NOROOT(0)
        DATA8
`?<Constant "IEEE: ">`:
        DB "IEEE: "

        RSEG XDATA_ROM_C:CONST:REORDER:NOROOT(0)
        DATA8
`?<Constant "TexasInstruments">`:
        DB "TexasInstruments"

        END
//  196 
//  197 #if defined ZCL_KEY_ESTABLISH
//  198 /**************************************************************************************************
//  199  * @fn          zmain_cert_init
//  200  *
//  201  * @brief       Initialize the Certicom certificate information.
//  202  *
//  203  * input parameters
//  204  *
//  205  * None.
//  206  *
//  207  * output parameters
//  208  *
//  209  * None.
//  210  *
//  211  * @return      None.
//  212  **************************************************************************************************
//  213  */
//  214 static void zmain_cert_init(void)
//  215 {
//  216   uint8 certData[ZCL_KE_IMPLICIT_CERTIFICATE_LEN];
//  217   uint8 nullData[ZCL_KE_IMPLICIT_CERTIFICATE_LEN] = {
//  218     0xFF, 0xFF, 0xFF, 0xFF, 0xFF, 0xFF, 0xFF, 0xFF,
//  219     0xFF, 0xFF, 0xFF, 0xFF, 0xFF, 0xFF, 0xFF, 0xFF,
//  220     0xFF, 0xFF, 0xFF, 0xFF, 0xFF, 0xFF, 0xFF, 0xFF,
//  221     0xFF, 0xFF, 0xFF, 0xFF, 0xFF, 0xFF, 0xFF, 0xFF,
//  222     0xFF, 0xFF, 0xFF, 0xFF, 0xFF, 0xFF, 0xFF, 0xFF,
//  223     0xFF, 0xFF, 0xFF, 0xFF, 0xFF, 0xFF, 0xFF, 0xFF
//  224   };
//  225 
//  226   (void)osal_nv_item_init(ZCD_NV_IMPLICIT_CERTIFICATE, ZCL_KE_IMPLICIT_CERTIFICATE_LEN, NULL);
//  227   (void)osal_nv_item_init(ZCD_NV_DEVICE_PRIVATE_KEY, ZCL_KE_DEVICE_PRIVATE_KEY_LEN, NULL);
//  228 
//  229   // First check whether non-null certificate data exists in the OSAL NV. To save on code space,
//  230   // just use the ZCD_NV_CA_PUBLIC_KEY as the bellwether for all three.
//  231   if ((SUCCESS != osal_nv_item_init(ZCD_NV_CA_PUBLIC_KEY, ZCL_KE_CA_PUBLIC_KEY_LEN, NULL))    ||
//  232       (SUCCESS != osal_nv_read(ZCD_NV_CA_PUBLIC_KEY, 0, ZCL_KE_CA_PUBLIC_KEY_LEN, certData))  ||
//  233       (osal_memcmp(certData, nullData, ZCL_KE_CA_PUBLIC_KEY_LEN)))
//  234   {
//  235     // Attempt to read the certificate data from its corresponding location on the lock bits page.
//  236     HalFlashRead(HAL_FLASH_IEEE_PAGE, HAL_FLASH_CA_PUBLIC_KEY_OSET, certData,
//  237                                          ZCL_KE_CA_PUBLIC_KEY_LEN);
//  238     // If the certificate data is not NULL, use it to update the corresponding NV items.
//  239     if (!osal_memcmp(certData, nullData, ZCL_KE_CA_PUBLIC_KEY_LEN))
//  240     {
//  241       (void)osal_nv_write(ZCD_NV_CA_PUBLIC_KEY, 0, ZCL_KE_CA_PUBLIC_KEY_LEN, certData);
//  242       HalFlashRead(HAL_FLASH_IEEE_PAGE, HAL_FLASH_IMPLICIT_CERT_OSET, certData,
//  243                                            ZCL_KE_IMPLICIT_CERTIFICATE_LEN);
//  244       (void)osal_nv_write(ZCD_NV_IMPLICIT_CERTIFICATE, 0,
//  245                           ZCL_KE_IMPLICIT_CERTIFICATE_LEN, certData);
//  246       HalFlashRead(HAL_FLASH_IEEE_PAGE, HAL_FLASH_DEV_PRIVATE_KEY_OSET, certData,
//  247                                         ZCL_KE_DEVICE_PRIVATE_KEY_LEN);
//  248       (void)osal_nv_write(ZCD_NV_DEVICE_PRIVATE_KEY, 0, ZCL_KE_DEVICE_PRIVATE_KEY_LEN, certData);
//  249     }
//  250   }
//  251 }
//  252 #endif
//  253 
//  254 /**************************************************************************************************
//  255  * @fn          zmain_dev_info
//  256  *
//  257  * @brief       This displays the IEEE (MSB to LSB) on the LCD.
//  258  *
//  259  * input parameters
//  260  *
//  261  * None.
//  262  *
//  263  * output parameters
//  264  *
//  265  * None.
//  266  *
//  267  * @return      None.
//  268  **************************************************************************************************
//  269  */
//  270 static void zmain_dev_info(void)
//  271 {
//  272 #if defined ( SERIAL_DEBUG_SUPPORTED ) || (defined ( LEGACY_LCD_DEBUG ) && defined (LCD_SUPPORTED))
//  273   uint8 i;
//  274   uint8 *xad;
//  275   uint8 lcd_buf[Z_EXTADDR_LEN*2+1];
//  276 
//  277   // Display the extended address.
//  278   xad = aExtendedAddress + Z_EXTADDR_LEN - 1;
//  279 
//  280   for (i = 0; i < Z_EXTADDR_LEN*2; xad--)
//  281   {
//  282     uint8 ch;
//  283     ch = (*xad >> 4) & 0x0F;
//  284     lcd_buf[i++] = ch + (( ch < 10 ) ? '0' : '7');
//  285     ch = *xad & 0x0F;
//  286     lcd_buf[i++] = ch + (( ch < 10 ) ? '0' : '7');
//  287   }
//  288   lcd_buf[Z_EXTADDR_LEN*2] = '\0';
//  289   HalLcdWriteString( "IEEE: ", HAL_LCD_DEBUG_LINE_1 );
//  290   HalLcdWriteString( (char*)lcd_buf, HAL_LCD_DEBUG_LINE_2 );
//  291 #endif
//  292 }
//  293 
//  294 #ifdef LCD_SUPPORTED
//  295 /*********************************************************************
//  296  * @fn      zmain_lcd_init
//  297  * @brief   Initialize LCD at start up.
//  298  * @return  none
//  299  *********************************************************************/
//  300 static void zmain_lcd_init ( void )
//  301 {
//  302 #ifdef SERIAL_DEBUG_SUPPORTED
//  303   {
//  304     HalLcdWriteString( "TexasInstruments", HAL_LCD_DEBUG_LINE_1 );
//  305 
//  306 #if defined( MT_MAC_FUNC )
//  307 #if defined( ZDO_COORDINATOR )
//  308       HalLcdWriteString( "MAC-MT Coord", HAL_LCD_DEBUG_LINE_2 );
//  309 #else
//  310       HalLcdWriteString( "MAC-MT Device", HAL_LCD_DEBUG_LINE_2 );
//  311 #endif // ZDO
//  312 #elif defined( MT_NWK_FUNC )
//  313 #if defined( ZDO_COORDINATOR )
//  314       HalLcdWriteString( "NWK Coordinator", HAL_LCD_DEBUG_LINE_2 );
//  315 #else
//  316       HalLcdWriteString( "NWK Device", HAL_LCD_DEBUG_LINE_2 );
//  317 #endif // ZDO
//  318 #endif // MT_FUNC
//  319   }
//  320 #endif // SERIAL_DEBUG_SUPPORTED
//  321 }
//  322 #endif
//  323 
//  324 /*********************************************************************
//  325 *********************************************************************/
// 
// 666 bytes in segment BANKED_CODE
//  12 bytes in segment BANK_RELAYS
//   9 bytes in segment SFR_AN
//  32 bytes in segment XDATA_ROM_C
// 
//  12 bytes of CODE     memory
//  32 bytes of CONST    memory
//   0 bytes of DATA     memory (+ 9 bytes shared)
// 666 bytes of HUGECODE memory
//
//Errors: none
//Warnings: none
