///////////////////////////////////////////////////////////////////////////////
//
// IAR C/C++ Compiler V10.10.1.4655 for 8051              30/Sep/2024  10:48:42
// Copyright 2004-2017 IAR Systems AB.
// Standalone license - IAR Embedded Workbench for 8051
//
//    Core               =  plain
//    Code model         =  banked
//    Data model         =  large
//    Calling convention =  xdata reentrant
//    Constant location  =  data_rom
//    Dptr setup         =  1,16
//                          
//    Source file        =  
//        D:\Z-Stack 3.0.2\Z-Stack
//        3.0.2\Projects\zstack\HomeAutomation\SampleLight\Source\zcl_samplelight.c
//    Command line       =  
//        -f C:\Users\ASUS\AppData\Local\Temp\EWFAA5.tmp ("D:\Z-Stack
//        3.0.2\Z-Stack
//        3.0.2\Projects\zstack\HomeAutomation\SampleLight\Source\zcl_samplelight.c"
//        -D BDB_REPORTING -D SECURE=1 -D TC_LINKKEY_JOIN -D NV_INIT -D
//        NV_RESTORE -D xZTOOL_P1 -D xMT_TASK -D xMT_APP_FUNC -D xMT_SYS_FUNC
//        -D xMT_ZDO_FUNC -D xMT_ZDO_MGMT -D xMT_APP_CNF_FUNC -D
//        LCD_SUPPORTED=DEBUG -D MULTICAST_ENABLED=FALSE -D ZCL_READ -D
//        ZCL_DISCOVER -D ZCL_WRITE -D ZCL_BASIC -D ZCL_IDENTIFY -D ZCL_ON_OFF
//        -D ZCL_SCENES -D ZCL_GROUPS -D ZCL_LEVEL_CTRL -lC "D:\Z-Stack
//        3.0.2\Z-Stack
//        3.0.2\Projects\zstack\HomeAutomation\SampleLight\CC2530DB\CoordinatorEB\List"
//        -lA "D:\Z-Stack 3.0.2\Z-Stack
//        3.0.2\Projects\zstack\HomeAutomation\SampleLight\CC2530DB\CoordinatorEB\List"
//        --diag_suppress Pe001,Pa010 -o "D:\Z-Stack 3.0.2\Z-Stack
//        3.0.2\Projects\zstack\HomeAutomation\SampleLight\CC2530DB\CoordinatorEB\Obj"
//        -e --debug --core=plain --dptr=16,1 --data_model=large
//        --code_model=banked --calling_convention=xdata_reentrant
//        --place_constants=data_rom --nr_virtual_regs 16 -f "D:\Z-Stack
//        3.0.2\Z-Stack
//        3.0.2\Projects\zstack\HomeAutomation\SampleLight\CC2530DB\..\..\..\Tools\CC2530DB\f8wCoord.cfg"
//        (-DCPU32MHZ -DROOT=__near_func -DMAC_CFG_APP_PENDING_QUEUE=TRUE
//        -DMAC_CFG_TX_DATA_MAX=5 -DMAC_CFG_TX_MAX=8 -DMAC_CFG_RX_MAX=5
//        -DZDO_COORDINATOR -DRTR_NWK) -f "D:\Z-Stack 3.0.2\Z-Stack
//        3.0.2\Projects\zstack\HomeAutomation\SampleLight\CC2530DB\..\..\..\Tools\CC2530DB\f8wConfig.cfg"
//        (-DZIGBEEPRO -DSECURE=1 -DZG_SECURE_DYNAMIC=0 -DREFLECTOR
//        -DDEFAULT_CHANLIST=0x00000800 -DZDAPP_CONFIG_PAN_ID=0xFFFF
//        -DNWK_START_DELAY=100 -DEXTENDED_JOINING_RANDOM_MASK=0x007F
//        -DBEACON_REQUEST_DELAY=100 -DBEACON_REQ_DELAY_MASK=0x00FF
//        -DLINK_STATUS_JITTER_MASK=0x007F -DROUTE_EXPIRY_TIME=30
//        -DAPSC_ACK_WAIT_DURATION_POLLED=3000 -DNWK_INDIRECT_MSG_TIMEOUT=7
//        -DMAX_RREQ_ENTRIES=8 -DAPSC_MAX_FRAME_RETRIES=3
//        -DNWK_MAX_DATA_RETRIES=2 -DMAX_POLL_FAILURE_RETRIES=2 -DMAX_BCAST=9
//        -DAPS_MAX_GROUPS=16 -DMAX_RTG_ENTRIES=40 -DNWK_MAX_BINDING_ENTRIES=4
//        -DMAX_BINDING_CLUSTER_IDS=4 -DDEFAULT_KEY={0}
//        -DMAC_MAX_FRAME_SIZE=116 -DZDNWKMGR_MIN_TRANSMISSIONS=20
//        "-DCONST=const __code" -DGENERIC=__generic -DRFD_RCVC_ALWAYS_ON=FALSE
//        -DPOLL_RATE=1000 -DQUEUED_POLL_RATE=100 -DRESPONSE_POLL_RATE=100
//        -DREJOIN_POLL_RATE=440 -DREJOIN_BACKOFF=900000 -DREJOIN_SCAN=900000
//        -DENABLE_LED4_DISABLE_S1) -f "D:\Z-Stack 3.0.2\Z-Stack
//        3.0.2\Projects\zstack\HomeAutomation\SampleLight\CC2530DB\..\..\..\Tools\CC2530DB\f8wZCL.cfg"
//        -I "D:\Z-Stack 3.0.2\Z-Stack
//        3.0.2\Projects\zstack\HomeAutomation\SampleLight\CC2530DB\" -I
//        "D:\Z-Stack 3.0.2\Z-Stack
//        3.0.2\Projects\zstack\HomeAutomation\SampleLight\CC2530DB\..\Source\"
//        -I "D:\Z-Stack 3.0.2\Z-Stack
//        3.0.2\Projects\zstack\HomeAutomation\SampleLight\CC2530DB\..\..\Source\"
//        -I "D:\Z-Stack 3.0.2\Z-Stack
//        3.0.2\Projects\zstack\HomeAutomation\SampleLight\CC2530DB\..\..\..\ZMain\TI2530DB\"
//        -I "D:\Z-Stack 3.0.2\Z-Stack
//        3.0.2\Projects\zstack\HomeAutomation\SampleLight\CC2530DB\..\..\..\..\..\Components\hal\include\"
//        -I "D:\Z-Stack 3.0.2\Z-Stack
//        3.0.2\Projects\zstack\HomeAutomation\SampleLight\CC2530DB\..\..\..\..\..\Components\hal\target\CC2530EB\"
//        -I "D:\Z-Stack 3.0.2\Z-Stack
//        3.0.2\Projects\zstack\HomeAutomation\SampleLight\CC2530DB\..\..\..\..\..\Components\mac\include\"
//        -I "D:\Z-Stack 3.0.2\Z-Stack
//        3.0.2\Projects\zstack\HomeAutomation\SampleLight\CC2530DB\..\..\..\..\..\Components\mac\high_level\"
//        -I "D:\Z-Stack 3.0.2\Z-Stack
//        3.0.2\Projects\zstack\HomeAutomation\SampleLight\CC2530DB\..\..\..\..\..\Components\mac\low_level\srf04\"
//        -I "D:\Z-Stack 3.0.2\Z-Stack
//        3.0.2\Projects\zstack\HomeAutomation\SampleLight\CC2530DB\..\..\..\..\..\Components\mac\low_level\srf04\single_chip\"
//        -I "D:\Z-Stack 3.0.2\Z-Stack
//        3.0.2\Projects\zstack\HomeAutomation\SampleLight\CC2530DB\..\..\..\..\..\Components\mt\"
//        -I "D:\Z-Stack 3.0.2\Z-Stack
//        3.0.2\Projects\zstack\HomeAutomation\SampleLight\CC2530DB\..\..\..\..\..\Components\osal\include\"
//        -I "D:\Z-Stack 3.0.2\Z-Stack
//        3.0.2\Projects\zstack\HomeAutomation\SampleLight\CC2530DB\..\..\..\..\..\Components\services\saddr\"
//        -I "D:\Z-Stack 3.0.2\Z-Stack
//        3.0.2\Projects\zstack\HomeAutomation\SampleLight\CC2530DB\..\..\..\..\..\Components\services\sdata\"
//        -I "D:\Z-Stack 3.0.2\Z-Stack
//        3.0.2\Projects\zstack\HomeAutomation\SampleLight\CC2530DB\..\..\..\..\..\Components\stack\af\"
//        -I "D:\Z-Stack 3.0.2\Z-Stack
//        3.0.2\Projects\zstack\HomeAutomation\SampleLight\CC2530DB\..\..\..\..\..\Components\stack\bdb\"
//        -I "D:\Z-Stack 3.0.2\Z-Stack
//        3.0.2\Projects\zstack\HomeAutomation\SampleLight\CC2530DB\..\..\..\..\..\Components\stack\gp\"
//        -I "D:\Z-Stack 3.0.2\Z-Stack
//        3.0.2\Projects\zstack\HomeAutomation\SampleLight\CC2530DB\..\..\..\..\..\Components\stack\nwk\"
//        -I "D:\Z-Stack 3.0.2\Z-Stack
//        3.0.2\Projects\zstack\HomeAutomation\SampleLight\CC2530DB\..\..\..\..\..\Components\stack\sapi\"
//        -I "D:\Z-Stack 3.0.2\Z-Stack
//        3.0.2\Projects\zstack\HomeAutomation\SampleLight\CC2530DB\..\..\..\..\..\Components\stack\sec\"
//        -I "D:\Z-Stack 3.0.2\Z-Stack
//        3.0.2\Projects\zstack\HomeAutomation\SampleLight\CC2530DB\..\..\..\..\..\Components\stack\sys\"
//        -I "D:\Z-Stack 3.0.2\Z-Stack
//        3.0.2\Projects\zstack\HomeAutomation\SampleLight\CC2530DB\..\..\..\..\..\Components\stack\zcl\"
//        -I "D:\Z-Stack 3.0.2\Z-Stack
//        3.0.2\Projects\zstack\HomeAutomation\SampleLight\CC2530DB\..\..\..\..\..\Components\stack\zdo\"
//        -I "D:\Z-Stack 3.0.2\Z-Stack
//        3.0.2\Projects\zstack\HomeAutomation\SampleLight\CC2530DB\..\..\..\..\..\Components\zmac\"
//        -I "D:\Z-Stack 3.0.2\Z-Stack
//        3.0.2\Projects\zstack\HomeAutomation\SampleLight\CC2530DB\..\..\..\..\..\Components\zmac\f8w\"
//        -Ohz --require_prototypes)
//    Locale             =  Chinese (Simplified)_China.936
//    List file          =  
//        D:\Z-Stack 3.0.2\Z-Stack
//        3.0.2\Projects\zstack\HomeAutomation\SampleLight\CC2530DB\CoordinatorEB\List\zcl_samplelight.s51
//
///////////////////////////////////////////////////////////////////////////////

        NAME zcl_samplelight

        RTMODEL "__SystemLibrary", "CLib"
        RTMODEL "__calling_convention", "xdata_reentrant"
        RTMODEL "__code_model", "banked"
        RTMODEL "__core", "plain"
        RTMODEL "__data_model", "large"
        RTMODEL "__dptr_size", "16"
        RTMODEL "__extended_stack", "disabled"
        RTMODEL "__location_for_constants", "data"
        RTMODEL "__number_of_dptrs", "1"
        RTMODEL "__register_banks", "*"
        RTMODEL "__rt_version", "1"

        RSEG DOVERLAY:DATA:NOROOT(0)
        RSEG IOVERLAY:IDATA:NOROOT(0)
        RSEG ISTACK:IDATA:NOROOT(0)
        RSEG PSTACK:XDATA:NOROOT(0)
        RSEG XSTACK:XDATA:NOROOT(0)

        EXTERN ?V0
        EXTERN ?V1
        EXTERN ?V2
        EXTERN ?V3
        EXTERN ?V4
        EXTERN ?V5
        EXTERN ?V6
        EXTERN ?V7
        EXTERN ?BANKED_ENTER_XDATA
        EXTERN ?BANKED_LEAVE_XDATA
        EXTERN ?BDISPATCH
        EXTERN ?BRET
        EXTERN ?DEALLOC_XSTACK8
        EXTERN ?L_ADD_TO_X
        EXTERN ?L_DIV_MOD
        EXTERN ?L_MOV_TO_X
        EXTERN ?L_MOV_X
        EXTERN ?L_MUL
        EXTERN ?L_SUB
        EXTERN ?L_SUB_FROM_X
        EXTERN ?L_SUB_X
        EXTERN ?PUSH_XSTACK8_X_FOUR
        EXTERN ?PUSH_XSTACK_I_TWO
        EXTERN ?UL_DIV_MOD
        EXTERN ?US_DIV_MOD
        EXTERN __INIT_XDATA_I
        EXTERN __INIT_XDATA_Z

        FUNCTION `??gp_ChangeChannelReq::?relay`,0203H
        FUNCTION `??gp_CommissioningMode::?relay`,0203H
        FUNCTION `??zclSampleApp_BatteryWarningCB::?relay`,0203H
        FUNCTION `??zclSampleLight_AdjustLightLevel::?relay`,0203H
        FUNCTION `??zclSampleLight_BasicResetCB::?relay`,0203H
        PUBLIC `??zclSampleLight_Init::?relay`
        FUNCTION `??zclSampleLight_Init::?relay`,0203H
        FUNCTION `??zclSampleLight_LevelControlMoveCB::?relay`,0203H
        FUNCTION `??zclSampleLight_LevelControlMoveToLevelCB::?re`,0203H
        FUNCTION `??zclSampleLight_LevelControlStepCB::?relay`,0203H
        FUNCTION `??zclSampleLight_LevelControlStopCB::?relay`,0203H
        FUNCTION `??zclSampleLight_MoveBasedOnRate::?relay`,0203H
        FUNCTION `??zclSampleLight_MoveBasedOnTime::?relay`,0203H
        FUNCTION `??zclSampleLight_OnOffCB::?relay`,0203H
        FUNCTION `??zclSampleLight_ProcessCommissioningStatus::?r`,0203H
        FUNCTION `??zclSampleLight_ProcessInDiscCmdsRspCmd::?rela`,0203H
        FUNCTION `??zclSampleLight_ProcessIncomingMsg::?relay`,0203H
        FUNCTION `??zclSampleLight_TimeRateHelper::?relay`,0203H
        PUBLIC `??zclSampleLight_UiActionToggleLight::?relay`
        FUNCTION `??zclSampleLight_UiActionToggleLight::?relay`,0203H
        PUBLIC `??zclSampleLight_UiUpdateLcd::?relay`
        FUNCTION `??zclSampleLight_UiUpdateLcd::?relay`,0203H
        PUBLIC `??zclSampleLight_UpdateLedState::?relay`
        FUNCTION `??zclSampleLight_UpdateLedState::?relay`,0203H
        PUBLIC `??zclSampleLight_event_loop::?relay`
        FUNCTION `??zclSampleLight_event_loop::?relay`,0203H
        PUBWEAK __Constant_3e8
        PUBWEAK __Constant_64
        FUNCTION gp_ChangeChannelReq,0603H
        ARGFRAME XSTACK, 0, STACK
        FUNCTION gp_CommissioningMode,0603H
        ARGFRAME XSTACK, 0, STACK
        PUBLIC sLightLevel
        PUBLIC sLightOff
        PUBLIC sLightOn
        FUNCTION zclSampleApp_BatteryWarningCB,0603H
        ARGFRAME XSTACK, 0, STACK
        PUBLIC zclSampleLightSeqNum
        FUNCTION zclSampleLight_AdjustLightLevel,0a1203H
        ARGFRAME XSTACK, 12, STACK
        ARGFRAME IOVERLAY, 0, STATIC
        ARGFRAME DOVERLAY, 0, STATIC
        LOCFRAME XSTACK, 20, STACK
        FUNCTION zclSampleLight_BasicResetCB,021603H
        ARGFRAME XSTACK, 0, STACK
        LOCFRAME ISTACK, 2, STACK
        PUBLIC zclSampleLight_CurrentLevel32
        PUBLIC zclSampleLight_DstAddr
        PUBLIC zclSampleLight_Init
        FUNCTION zclSampleLight_Init,0a1203H
        ARGFRAME XSTACK, 0, STACK
        LOCFRAME XSTACK, 18, STACK
        PUBLIC zclSampleLight_LevelChangeCmd
        FUNCTION zclSampleLight_LevelControlMoveCB,0a1603H
        ARGFRAME XSTACK, 0, STACK
        LOCFRAME XSTACK, 16, STACK
        FUNCTION zclSampleLight_LevelControlMoveToLevelCB,021603H
        ARGFRAME XSTACK, 0, STACK
        LOCFRAME ISTACK, 2, STACK
        FUNCTION zclSampleLight_LevelControlStepCB,021603H
        ARGFRAME XSTACK, 0, STACK
        LOCFRAME XSTACK, 9, STACK
        FUNCTION zclSampleLight_LevelControlStopCB,021603H
        ARGFRAME XSTACK, 0, STACK
        LOCFRAME ISTACK, 2, STACK
        PUBLIC zclSampleLight_LevelLastLevel
        FUNCTION zclSampleLight_MoveBasedOnRate,0a1203H
        ARGFRAME XSTACK, 16, STACK
        ARGFRAME IOVERLAY, 0, STATIC
        ARGFRAME DOVERLAY, 0, STATIC
        LOCFRAME XSTACK, 20, STACK
        FUNCTION zclSampleLight_MoveBasedOnTime,0a1203H
        ARGFRAME XSTACK, 9, STACK
        ARGFRAME IOVERLAY, 0, STATIC
        ARGFRAME DOVERLAY, 0, STATIC
        LOCFRAME XSTACK, 20, STACK
        PUBLIC zclSampleLight_NewLevel
        PUBLIC zclSampleLight_NewLevelUp
        FUNCTION zclSampleLight_OnOffCB,0a1603H
        ARGFRAME XSTACK, 0, STACK
        ARGFRAME IOVERLAY, 0, STATIC
        ARGFRAME DOVERLAY, 0, STATIC
        LOCFRAME XSTACK, 16, STACK
        FUNCTION zclSampleLight_ProcessCommissioningStatus,021603H
        ARGFRAME XSTACK, 0, STACK
        LOCFRAME XSTACK, 9, STACK
        FUNCTION zclSampleLight_ProcessInDiscCmdsRspCmd,0203H
        ARGFRAME XSTACK, 9, STACK
        ARGFRAME IOVERLAY, 0, STATIC
        ARGFRAME DOVERLAY, 0, STATIC
        LOCFRAME ISTACK, 2, STACK
        FUNCTION zclSampleLight_ProcessIncomingMsg,021203H
        ARGFRAME XSTACK, 12, STACK
        ARGFRAME IOVERLAY, 0, STATIC
        ARGFRAME DOVERLAY, 0, STATIC
        LOCFRAME XSTACK, 9, STACK
        PUBLIC zclSampleLight_Rate32
        PUBLIC zclSampleLight_TaskID
        FUNCTION zclSampleLight_TimeRateHelper,080203H
        ARGFRAME XSTACK, 16, STACK
        ARGFRAME IOVERLAY, 0, STATIC
        ARGFRAME DOVERLAY, 0, STATIC
        LOCFRAME XSTACK, 16, STACK
        PUBLIC zclSampleLight_UiActionToggleLight
        FUNCTION zclSampleLight_UiActionToggleLight,021603H
        ARGFRAME XSTACK, 0, STACK
        LOCFRAME ISTACK, 2, STACK
        PUBLIC zclSampleLight_UiStatesMain
        PUBLIC zclSampleLight_UiUpdateLcd
        FUNCTION zclSampleLight_UiUpdateLcd,021603H
        ARGFRAME XSTACK, 0, STACK
        LOCFRAME XSTACK, 9, STACK
        PUBLIC zclSampleLight_UpdateLedState
        FUNCTION zclSampleLight_UpdateLedState,021203H
        ARGFRAME XSTACK, 16, STACK
        ARGFRAME IOVERLAY, 0, STATIC
        ARGFRAME DOVERLAY, 0, STATIC
        LOCFRAME ISTACK, 2, STACK
        PUBLIC zclSampleLight_WithOnOff
        PUBLIC zclSampleLight_event_loop
        FUNCTION zclSampleLight_event_loop,0a1203H
        ARGFRAME XSTACK, 0, STACK
        LOCFRAME XSTACK, 12, STACK
        
          CFI Names cfiNames0
          CFI StackFrame CFA_SP SP IDATA
          CFI StackFrame CFA_PSP16 PSP16 XDATA
          CFI StackFrame CFA_XSP16 XSP16 XDATA
          CFI StaticOverlayFrame CFA_IOVERLAY IOVERLAY
          CFI StaticOverlayFrame CFA_DOVERLAY DOVERLAY
          CFI Resource `PSW.CY`:1, `B.BR0`:1, `B.BR1`:1, `B.BR2`:1, `B.BR3`:1
          CFI Resource `B.BR4`:1, `B.BR5`:1, `B.BR6`:1, `B.BR7`:1, `VB.BR8`:1
          CFI Resource `VB.BR9`:1, `VB.BR10`:1, `VB.BR11`:1, `VB.BR12`:1
          CFI Resource `VB.BR13`:1, `VB.BR14`:1, `VB.BR15`:1, VB:8, B:8, A:8
          CFI Resource PSW:8, DPL0:8, DPH0:8, R0:8, R1:8, R2:8, R3:8, R4:8, R5:8
          CFI Resource R6:8, R7:8, V0:8, V1:8, V2:8, V3:8, V4:8, V5:8, V6:8, V7:8
          CFI Resource V8:8, V9:8, V10:8, V11:8, V12:8, V13:8, V14:8, V15:8, SP:8
          CFI Resource PSPH:8, PSPL:8, PSP16:16, XSPH:8, XSPL:8, XSP16:16
          CFI VirtualResource ?RET:24
          CFI Resource ?BRET_EXT:8
          CFI VirtualResource ?RET_HIGH:8, ?RET_LOW:8
          CFI ResourceParts PSP16 PSPH, PSPL
          CFI ResourceParts XSP16 XSPH, XSPL
          CFI ResourceParts ?RET ?BRET_EXT, ?RET_HIGH, ?RET_LOW
          CFI EndNames cfiNames0
        
          CFI Common cfiCommon0 Using cfiNames0
          CFI CodeAlign 1
          CFI DataAlign -1
          CFI ReturnAddress ?RET CODE
          CFI CFA_DOVERLAY Used
          CFI CFA_IOVERLAY Used
          CFI CFA_SP SP+-3
          CFI CFA_PSP16 PSP16+0
          CFI CFA_XSP16 XSP16+0
          CFI `PSW.CY` SameValue
          CFI `B.BR0` SameValue
          CFI `B.BR1` SameValue
          CFI `B.BR2` SameValue
          CFI `B.BR3` SameValue
          CFI `B.BR4` SameValue
          CFI `B.BR5` SameValue
          CFI `B.BR6` SameValue
          CFI `B.BR7` SameValue
          CFI `VB.BR8` SameValue
          CFI `VB.BR9` SameValue
          CFI `VB.BR10` SameValue
          CFI `VB.BR11` SameValue
          CFI `VB.BR12` SameValue
          CFI `VB.BR13` SameValue
          CFI `VB.BR14` SameValue
          CFI `VB.BR15` SameValue
          CFI VB SameValue
          CFI B Undefined
          CFI A Undefined
          CFI PSW SameValue
          CFI DPL0 SameValue
          CFI DPH0 SameValue
          CFI R0 Undefined
          CFI R1 Undefined
          CFI R2 Undefined
          CFI R3 Undefined
          CFI R4 Undefined
          CFI R5 Undefined
          CFI R6 SameValue
          CFI R7 SameValue
          CFI V0 SameValue
          CFI V1 SameValue
          CFI V2 SameValue
          CFI V3 SameValue
          CFI V4 SameValue
          CFI V5 SameValue
          CFI V6 SameValue
          CFI V7 SameValue
          CFI V8 SameValue
          CFI V9 SameValue
          CFI V10 SameValue
          CFI V11 SameValue
          CFI V12 SameValue
          CFI V13 SameValue
          CFI V14 SameValue
          CFI V15 SameValue
          CFI PSPH Undefined
          CFI PSPL Undefined
          CFI XSPH Undefined
          CFI XSPL Undefined
          CFI ?RET Concat
          CFI ?BRET_EXT Frame(CFA_SP, 3)
          CFI ?RET_HIGH Frame(CFA_SP, 2)
          CFI ?RET_LOW Frame(CFA_SP, 1)
          CFI EndCommon cfiCommon0
        
        
          CFI Common cfiCommon1 Using cfiNames0
          CFI CodeAlign 1
          CFI DataAlign -1
          CFI ReturnAddress ?RET CODE
          CFI CFA_DOVERLAY Used
          CFI CFA_IOVERLAY Used
          CFI CFA_SP SP+-2
          CFI CFA_PSP16 PSP16+0
          CFI CFA_XSP16 XSP16+0
          CFI `PSW.CY` SameValue
          CFI `B.BR0` SameValue
          CFI `B.BR1` SameValue
          CFI `B.BR2` SameValue
          CFI `B.BR3` SameValue
          CFI `B.BR4` SameValue
          CFI `B.BR5` SameValue
          CFI `B.BR6` SameValue
          CFI `B.BR7` SameValue
          CFI `VB.BR8` SameValue
          CFI `VB.BR9` SameValue
          CFI `VB.BR10` SameValue
          CFI `VB.BR11` SameValue
          CFI `VB.BR12` SameValue
          CFI `VB.BR13` SameValue
          CFI `VB.BR14` SameValue
          CFI `VB.BR15` SameValue
          CFI VB SameValue
          CFI B SameValue
          CFI A SameValue
          CFI PSW SameValue
          CFI DPL0 SameValue
          CFI DPH0 SameValue
          CFI R0 SameValue
          CFI R1 SameValue
          CFI R2 SameValue
          CFI R3 SameValue
          CFI R4 SameValue
          CFI R5 SameValue
          CFI R6 SameValue
          CFI R7 SameValue
          CFI V0 SameValue
          CFI V1 SameValue
          CFI V2 SameValue
          CFI V3 SameValue
          CFI V4 SameValue
          CFI V5 SameValue
          CFI V6 SameValue
          CFI V7 SameValue
          CFI V8 SameValue
          CFI V9 SameValue
          CFI V10 SameValue
          CFI V11 SameValue
          CFI V12 SameValue
          CFI V13 SameValue
          CFI V14 SameValue
          CFI V15 SameValue
          CFI PSPH Undefined
          CFI PSPL Undefined
          CFI XSPH Undefined
          CFI XSPL Undefined
          CFI ?RET Concat
          CFI ?BRET_EXT SameValue
          CFI ?RET_HIGH Frame(CFA_SP, 2)
          CFI ?RET_LOW Frame(CFA_SP, 1)
          CFI EndCommon cfiCommon1
        
HalLedSet           SYMBOL "HalLedSet"
`??HalLedSet::?relay` SYMBOL "?relay", HalLedSet
RegisterForKeys     SYMBOL "RegisterForKeys"
`??RegisterForKeys::?relay` SYMBOL "?relay", RegisterForKeys
RegisterVoltageWarningCB SYMBOL "RegisterVoltageWarningCB"
`??RegisterVoltageWarningCB::?relay` SYMBOL "?relay", RegisterVoltageWarningCB
`?<Name UI_ActionBackFromApp 6>` SYMBOL "UI_ActionBackFromAppMenu"
`??UI_ActionBackFromAppMenu::?relay` SYMBOL "?relay", `?<Name UI_ActionBackFromApp 6>`
UI_DeviceStateUpdated SYMBOL "UI_DeviceStateUpdated"
`??UI_DeviceStateUpdated::?relay` SYMBOL "?relay", UI_DeviceStateUpdated
UI_Init             SYMBOL "UI_Init"
`??UI_Init::?relay` SYMBOL "?relay", UI_Init
UI_MainStateMachine SYMBOL "UI_MainStateMachine"
`??UI_MainStateMachine::?relay` SYMBOL "?relay", UI_MainStateMachine
UI_UpdateComissioningStatus SYMBOL "UI_UpdateComissioningStatus"
`??UI_UpdateComissioningStatus::?relay` SYMBOL "?relay", UI_UpdateComissioningStatus
UI_UpdateLcd        SYMBOL "UI_UpdateLcd"
`??UI_UpdateLcd::?relay` SYMBOL "?relay", UI_UpdateLcd
afRegister          SYMBOL "afRegister"
`??afRegister::?relay` SYMBOL "?relay", afRegister
bdb_RegisterCommissioningStatusCB SYMBOL "bdb_RegisterCommissioningStatusCB"
`??bdb_RegisterCommissioningStatusCB::?relay` SYMBOL "?relay", bdb_RegisterCommissioningStatusCB
bdb_RegisterSimpleDescriptor SYMBOL "bdb_RegisterSimpleDescriptor"
`??bdb_RegisterSimpleDescriptor::?relay` SYMBOL "?relay", bdb_RegisterSimpleDescriptor
bdb_StartCommissioning SYMBOL "bdb_StartCommissioning"
`??bdb_StartCommissioning::?relay` SYMBOL "?relay", bdb_StartCommissioning
gp_RegisterCommissioningModeCB SYMBOL "gp_RegisterCommissioningModeCB"
`??gp_RegisterCommissioningModeCB::?relay` SYMBOL "?relay", gp_RegisterCommissioningModeCB
gp_RegisterGPChangeChannelReqCB SYMBOL "gp_RegisterGPChangeChannelReqCB"
`??gp_RegisterGPChangeChannelReqCB::?relay` SYMBOL "?relay", gp_RegisterGPChangeChannelReqCB
osal_mem_free       SYMBOL "osal_mem_free"
`??osal_mem_free::?relay` SYMBOL "?relay", osal_mem_free
osal_msg_deallocate SYMBOL "osal_msg_deallocate"
`??osal_msg_deallocate::?relay` SYMBOL "?relay", osal_msg_deallocate
osal_msg_receive    SYMBOL "osal_msg_receive"
`??osal_msg_receive::?relay` SYMBOL "?relay", osal_msg_receive
osal_start_timerEx  SYMBOL "osal_start_timerEx"
`??osal_start_timerEx::?relay` SYMBOL "?relay", osal_start_timerEx
osal_stop_timerEx   SYMBOL "osal_stop_timerEx"
`??osal_stop_timerEx::?relay` SYMBOL "?relay", osal_stop_timerEx
zclGeneral_RegisterCmdCallbacks SYMBOL "zclGeneral_RegisterCmdCallbacks"
`??zclGeneral_RegisterCmdCallbacks::?relay` SYMBOL "?relay", zclGeneral_RegisterCmdCallbacks
zclHA_uint8toa      SYMBOL "zclHA_uint8toa"
`??zclHA_uint8toa::?relay` SYMBOL "?relay", zclHA_uint8toa
zclSampleLight_ResetAttributesToDefaultValues SYMBOL "zclSampleLight_ResetAttributesToDefaultValues"
??zclSampleLight_ResetAttributesToDefaultValues SYMBOL "?relay", zclSampleLight_ResetAttributesToDefaultValues
zcl_getRawAFMsg     SYMBOL "zcl_getRawAFMsg"
`??zcl_getRawAFMsg::?relay` SYMBOL "?relay", zcl_getRawAFMsg
zcl_registerAttrList SYMBOL "zcl_registerAttrList"
`??zcl_registerAttrList::?relay` SYMBOL "?relay", zcl_registerAttrList
zcl_registerCmdList SYMBOL "zcl_registerCmdList"
`??zcl_registerCmdList::?relay` SYMBOL "?relay", zcl_registerCmdList
zcl_registerForMsg  SYMBOL "zcl_registerForMsg"
`??zcl_registerForMsg::?relay` SYMBOL "?relay", zcl_registerForMsg
zclSampleLight_Init SYMBOL "zclSampleLight_Init"
`??zclSampleLight_Init::?relay` SYMBOL "?relay", zclSampleLight_Init
zclSampleLight_UiActionToggleLight SYMBOL "zclSampleLight_UiActionToggleLight"
`??zclSampleLight_UiActionToggleLight::?relay` SYMBOL "?relay", zclSampleLight_UiActionToggleLight
zclSampleLight_UiUpdateLcd SYMBOL "zclSampleLight_UiUpdateLcd"
`??zclSampleLight_UiUpdateLcd::?relay` SYMBOL "?relay", zclSampleLight_UiUpdateLcd
zclSampleLight_UpdateLedState SYMBOL "zclSampleLight_UpdateLedState"
`??zclSampleLight_UpdateLedState::?relay` SYMBOL "?relay", zclSampleLight_UpdateLedState
zclSampleLight_event_loop SYMBOL "zclSampleLight_event_loop"
`??zclSampleLight_event_loop::?relay` SYMBOL "?relay", zclSampleLight_event_loop

        EXTERN `??HalLedSet::?relay`
        FUNCTION `??HalLedSet::?relay`,00H
        EXTERN `??RegisterForKeys::?relay`
        FUNCTION `??RegisterForKeys::?relay`,00H
        EXTERN `??RegisterVoltageWarningCB::?relay`
        FUNCTION `??RegisterVoltageWarningCB::?relay`,00H
        EXTERN `??UI_ActionBackFromAppMenu::?relay`
        FUNCTION `??UI_ActionBackFromAppMenu::?relay`,00H
        EXTERN `??UI_DeviceStateUpdated::?relay`
        FUNCTION `??UI_DeviceStateUpdated::?relay`,00H
        EXTERN `??UI_Init::?relay`
        FUNCTION `??UI_Init::?relay`,00H
        EXTERN `??UI_MainStateMachine::?relay`
        FUNCTION `??UI_MainStateMachine::?relay`,00H
        EXTERN `??UI_UpdateComissioningStatus::?relay`
        FUNCTION `??UI_UpdateComissioningStatus::?relay`,00H
        EXTERN `??UI_UpdateLcd::?relay`
        FUNCTION `??UI_UpdateLcd::?relay`,00H
        EXTERN `??afRegister::?relay`
        FUNCTION `??afRegister::?relay`,00H
        EXTERN `??bdb_RegisterCommissioningStatusCB::?relay`
        FUNCTION `??bdb_RegisterCommissioningStatusCB::?relay`,00H
        EXTERN `??bdb_RegisterSimpleDescriptor::?relay`
        FUNCTION `??bdb_RegisterSimpleDescriptor::?relay`,00H
        EXTERN `??bdb_StartCommissioning::?relay`
        FUNCTION `??bdb_StartCommissioning::?relay`,00H
        EXTERN `??gp_RegisterCommissioningModeCB::?relay`
        FUNCTION `??gp_RegisterCommissioningModeCB::?relay`,00H
        EXTERN `??gp_RegisterGPChangeChannelReqCB::?relay`
        FUNCTION `??gp_RegisterGPChangeChannelReqCB::?relay`,00H
        EXTERN `??osal_mem_free::?relay`
        FUNCTION `??osal_mem_free::?relay`,00H
        EXTERN `??osal_msg_deallocate::?relay`
        FUNCTION `??osal_msg_deallocate::?relay`,00H
        EXTERN `??osal_msg_receive::?relay`
        FUNCTION `??osal_msg_receive::?relay`,00H
        EXTERN `??osal_start_timerEx::?relay`
        FUNCTION `??osal_start_timerEx::?relay`,00H
        EXTERN `??osal_stop_timerEx::?relay`
        FUNCTION `??osal_stop_timerEx::?relay`,00H
        EXTERN `??zclGeneral_RegisterCmdCallbacks::?relay`
        FUNCTION `??zclGeneral_RegisterCmdCallbacks::?relay`,00H
        EXTERN `??zclHA_uint8toa::?relay`
        FUNCTION `??zclHA_uint8toa::?relay`,00H
        EXTERN ??zclSampleLight_ResetAttributesToDefaultValues
        FUNCTION ??zclSampleLight_ResetAttributesToDefaultValues,00H
        EXTERN `??zcl_getRawAFMsg::?relay`
        FUNCTION `??zcl_getRawAFMsg::?relay`,00H
        EXTERN `??zcl_registerAttrList::?relay`
        FUNCTION `??zcl_registerAttrList::?relay`,00H
        EXTERN `??zcl_registerCmdList::?relay`
        FUNCTION `??zcl_registerCmdList::?relay`,00H
        EXTERN `??zcl_registerForMsg::?relay`
        FUNCTION `??zcl_registerForMsg::?relay`,00H
        EXTERN HalLedSet
        FUNCTION HalLedSet,0202H
        ARGFRAME ISTACK, 2, STACK
        ARGFRAME PSTACK, 0, STACK
        ARGFRAME XSTACK, 0, STACK
        ARGFRAME IOVERLAY, 0, STATIC
        ARGFRAME DOVERLAY, 0, STATIC
        EXTERN RegisterForKeys
        FUNCTION RegisterForKeys,0202H
        ARGFRAME ISTACK, 0, STACK
        ARGFRAME PSTACK, 0, STACK
        ARGFRAME XSTACK, 10, STACK
        ARGFRAME IOVERLAY, 0, STATIC
        ARGFRAME DOVERLAY, 0, STATIC
        EXTERN RegisterVoltageWarningCB
        FUNCTION RegisterVoltageWarningCB,0202H
        ARGFRAME ISTACK, 0, STACK
        ARGFRAME PSTACK, 0, STACK
        ARGFRAME XSTACK, 10, STACK
        ARGFRAME IOVERLAY, 0, STATIC
        ARGFRAME DOVERLAY, 0, STATIC
        EXTERN UI_DeviceStateUpdated
        FUNCTION UI_DeviceStateUpdated,0202H
        ARGFRAME ISTACK, 0, STACK
        ARGFRAME PSTACK, 0, STACK
        ARGFRAME XSTACK, 12, STACK
        ARGFRAME IOVERLAY, 0, STATIC
        ARGFRAME DOVERLAY, 0, STATIC
        EXTERN UI_Init
        FUNCTION UI_Init,0202H
        ARGFRAME ISTACK, 0, STACK
        ARGFRAME PSTACK, 0, STACK
        ARGFRAME XSTACK, 18, STACK
        ARGFRAME IOVERLAY, 0, STATIC
        ARGFRAME DOVERLAY, 0, STATIC
        EXTERN UI_MainStateMachine
        FUNCTION UI_MainStateMachine,0202H
        ARGFRAME ISTACK, 0, STACK
        ARGFRAME PSTACK, 0, STACK
        ARGFRAME XSTACK, 12, STACK
        ARGFRAME IOVERLAY, 0, STATIC
        ARGFRAME DOVERLAY, 0, STATIC
        EXTERN UI_UpdateComissioningStatus
        FUNCTION UI_UpdateComissioningStatus,0202H
        ARGFRAME ISTACK, 0, STACK
        ARGFRAME PSTACK, 0, STACK
        ARGFRAME XSTACK, 9, STACK
        ARGFRAME IOVERLAY, 0, STATIC
        ARGFRAME DOVERLAY, 0, STATIC
        EXTERN UI_UpdateLcd
        FUNCTION UI_UpdateLcd,0202H
        ARGFRAME ISTACK, 2, STACK
        ARGFRAME PSTACK, 0, STACK
        ARGFRAME XSTACK, 16, STACK
        ARGFRAME IOVERLAY, 0, STATIC
        ARGFRAME DOVERLAY, 0, STATIC
        EXTERN afRegister
        FUNCTION afRegister,0202H
        ARGFRAME ISTACK, 0, STACK
        ARGFRAME PSTACK, 0, STACK
        ARGFRAME XSTACK, 10, STACK
        ARGFRAME IOVERLAY, 0, STATIC
        ARGFRAME DOVERLAY, 0, STATIC
        EXTERN bdb_RegisterCommissioningStatusCB
        FUNCTION bdb_RegisterCommissioningStatusCB,0202H
        ARGFRAME ISTACK, 0, STACK
        ARGFRAME PSTACK, 0, STACK
        ARGFRAME XSTACK, 10, STACK
        ARGFRAME IOVERLAY, 0, STATIC
        ARGFRAME DOVERLAY, 0, STATIC
        EXTERN bdb_RegisterSimpleDescriptor
        FUNCTION bdb_RegisterSimpleDescriptor,0202H
        ARGFRAME ISTACK, 0, STACK
        ARGFRAME PSTACK, 0, STACK
        ARGFRAME XSTACK, 10, STACK
        ARGFRAME IOVERLAY, 0, STATIC
        ARGFRAME DOVERLAY, 0, STATIC
        EXTERN bdb_StartCommissioning
        FUNCTION bdb_StartCommissioning,0202H
        ARGFRAME ISTACK, 0, STACK
        ARGFRAME PSTACK, 0, STACK
        ARGFRAME XSTACK, 9, STACK
        ARGFRAME IOVERLAY, 0, STATIC
        ARGFRAME DOVERLAY, 0, STATIC
        EXTERN gp_RegisterCommissioningModeCB
        FUNCTION gp_RegisterCommissioningModeCB,0202H
        ARGFRAME ISTACK, 0, STACK
        ARGFRAME PSTACK, 0, STACK
        ARGFRAME XSTACK, 10, STACK
        ARGFRAME IOVERLAY, 0, STATIC
        ARGFRAME DOVERLAY, 0, STATIC
        EXTERN gp_RegisterGPChangeChannelReqCB
        FUNCTION gp_RegisterGPChangeChannelReqCB,0202H
        ARGFRAME ISTACK, 0, STACK
        ARGFRAME PSTACK, 0, STACK
        ARGFRAME XSTACK, 10, STACK
        ARGFRAME IOVERLAY, 0, STATIC
        ARGFRAME DOVERLAY, 0, STATIC
        EXTERN osal_mem_free
        FUNCTION osal_mem_free,0202H
        ARGFRAME ISTACK, 0, STACK
        ARGFRAME PSTACK, 0, STACK
        ARGFRAME XSTACK, 9, STACK
        ARGFRAME IOVERLAY, 0, STATIC
        ARGFRAME DOVERLAY, 0, STATIC
        EXTERN osal_msg_deallocate
        FUNCTION osal_msg_deallocate,0202H
        ARGFRAME ISTACK, 0, STACK
        ARGFRAME PSTACK, 0, STACK
        ARGFRAME XSTACK, 12, STACK
        ARGFRAME IOVERLAY, 0, STATIC
        ARGFRAME DOVERLAY, 0, STATIC
        EXTERN osal_msg_receive
        FUNCTION osal_msg_receive,0202H
        ARGFRAME ISTACK, 0, STACK
        ARGFRAME PSTACK, 0, STACK
        ARGFRAME XSTACK, 12, STACK
        ARGFRAME IOVERLAY, 0, STATIC
        ARGFRAME DOVERLAY, 0, STATIC
        EXTERN osal_start_timerEx
        FUNCTION osal_start_timerEx,0202H
        ARGFRAME ISTACK, 0, STACK
        ARGFRAME PSTACK, 0, STACK
        ARGFRAME XSTACK, 20, STACK
        ARGFRAME IOVERLAY, 0, STATIC
        ARGFRAME DOVERLAY, 0, STATIC
        EXTERN osal_stop_timerEx
        FUNCTION osal_stop_timerEx,0202H
        ARGFRAME ISTACK, 2, STACK
        ARGFRAME PSTACK, 0, STACK
        ARGFRAME XSTACK, 0, STACK
        ARGFRAME IOVERLAY, 0, STATIC
        ARGFRAME DOVERLAY, 0, STATIC
        EXTERN zclCmdsArraySize
        EXTERN zclGeneral_RegisterCmdCallbacks
        FUNCTION zclGeneral_RegisterCmdCallbacks,0202H
        ARGFRAME ISTACK, 0, STACK
        ARGFRAME PSTACK, 0, STACK
        ARGFRAME XSTACK, 10, STACK
        ARGFRAME IOVERLAY, 0, STATIC
        ARGFRAME DOVERLAY, 0, STATIC
        EXTERN zclHA_uint8toa
        FUNCTION zclHA_uint8toa,0202H
        ARGFRAME ISTACK, 0, STACK
        ARGFRAME PSTACK, 0, STACK
        ARGFRAME XSTACK, 9, STACK
        ARGFRAME IOVERLAY, 0, STATIC
        ARGFRAME DOVERLAY, 0, STATIC
        EXTERN zclSampleLight_Attrs
        EXTERN zclSampleLight_Cmds
        EXTERN zclSampleLight_IdentifyTime
        EXTERN zclSampleLight_LevelCurrentLevel
        EXTERN zclSampleLight_LevelOffTransitionTime
        EXTERN zclSampleLight_LevelOnLevel
        EXTERN zclSampleLight_LevelOnOffTransitionTime
        EXTERN zclSampleLight_LevelOnTransitionTime
        EXTERN zclSampleLight_LevelRemainingTime
        EXTERN zclSampleLight_NumAttributes
        EXTERN zclSampleLight_OnOff
        EXTERN zclSampleLight_ResetAttributesToDefaultValues
        FUNCTION zclSampleLight_ResetAttributesToDefaultValues,0202H
        ARGFRAME ISTACK, 2, STACK
        ARGFRAME PSTACK, 0, STACK
        ARGFRAME XSTACK, 10, STACK
        ARGFRAME IOVERLAY, 0, STATIC
        ARGFRAME DOVERLAY, 0, STATIC
        EXTERN zclSampleLight_SimpleDesc
        EXTERN zcl_getRawAFMsg
        FUNCTION zcl_getRawAFMsg,0202H
        ARGFRAME ISTACK, 0, STACK
        ARGFRAME PSTACK, 0, STACK
        ARGFRAME XSTACK, 16, STACK
        ARGFRAME IOVERLAY, 0, STATIC
        ARGFRAME DOVERLAY, 0, STATIC
        EXTERN zcl_registerAttrList
        FUNCTION zcl_registerAttrList,0202H
        ARGFRAME ISTACK, 0, STACK
        ARGFRAME PSTACK, 0, STACK
        ARGFRAME XSTACK, 10, STACK
        ARGFRAME IOVERLAY, 0, STATIC
        ARGFRAME DOVERLAY, 0, STATIC
        EXTERN zcl_registerCmdList
        FUNCTION zcl_registerCmdList,0202H
        ARGFRAME ISTACK, 0, STACK
        ARGFRAME PSTACK, 0, STACK
        ARGFRAME XSTACK, 10, STACK
        ARGFRAME IOVERLAY, 0, STATIC
        ARGFRAME DOVERLAY, 0, STATIC
        EXTERN zcl_registerForMsg
        FUNCTION zcl_registerForMsg,0202H
        ARGFRAME ISTACK, 0, STACK
        ARGFRAME PSTACK, 0, STACK
        ARGFRAME XSTACK, 10, STACK
        ARGFRAME IOVERLAY, 0, STATIC
        ARGFRAME DOVERLAY, 0, STATIC
        EXTERN zdpExternalStateTaskID

// D:\Z-Stack 3.0.2\Z-Stack 3.0.2\Projects\zstack\HomeAutomation\SampleLight\Source\zcl_samplelight.c
//    1 /**************************************************************************************************
//    2   Filename:       zcl_sampleLight.c
//    3   Revised:        $Date: 2014-10-24 16:04:46 -0700 (Fri, 24 Oct 2014) $
//    4   Revision:       $Revision: 40796 $
//    5 
//    6 
//    7   Description:    Zigbee Cluster Library - sample light application.
//    8 
//    9 
//   10   Copyright 2006-2014 Texas Instruments Incorporated. All rights reserved.
//   11 
//   12   IMPORTANT: Your use of this Software is limited to those specific rights
//   13   granted under the terms of a software license agreement between the user
//   14   who downloaded the software, his/her employer (which must be your employer)
//   15   and Texas Instruments Incorporated (the "License").  You may not use this
//   16   Software unless you agree to abide by the terms of the License. The License
//   17   limits your use, and you acknowledge, that the Software may not be modified,
//   18   copied or distributed unless embedded on a Texas Instruments microcontroller
//   19   or used solely and exclusively in conjunction with a Texas Instruments radio
//   20   frequency transceiver, which is integrated into your product.  Other than for
//   21   the foregoing purpose, you may not use, reproduce, copy, prepare derivative
//   22   works of, modify, distribute, perform, display or sell this Software and/or
//   23   its documentation for any purpose.
//   24 
//   25   YOU FURTHER ACKNOWLEDGE AND AGREE THAT THE SOFTWARE AND DOCUMENTATION ARE
//   26   PROVIDED "AS IS" WITHOUT WARRANTY OF ANY KIND, EITHER EXPRESS OR IMPLIED,
//   27   INCLUDING WITHOUT LIMITATION, ANY WARRANTY OF MERCHANTABILITY, TITLE,
//   28   NON-INFRINGEMENT AND FITNESS FOR A PARTICULAR PURPOSE. IN NO EVENT SHALL
//   29   TEXAS INSTRUMENTS OR ITS LICENSORS BE LIABLE OR OBLIGATED UNDER CONTRACT,
//   30   NEGLIGENCE, STRICT LIABILITY, CONTRIBUTION, BREACH OF WARRANTY, OR OTHER
//   31   LEGAL EQUITABLE THEORY ANY DIRECT OR INDIRECT DAMAGES OR EXPENSES
//   32   INCLUDING BUT NOT LIMITED TO ANY INCIDENTAL, SPECIAL, INDIRECT, PUNITIVE
//   33   OR CONSEQUENTIAL DAMAGES, LOST PROFITS OR LOST DATA, COST OF PROCUREMENT
//   34   OF SUBSTITUTE GOODS, TECHNOLOGY, SERVICES, OR ANY CLAIMS BY THIRD PARTIES
//   35   (INCLUDING BUT NOT LIMITED TO ANY DEFENSE THEREOF), OR OTHER SIMILAR COSTS.
//   36 
//   37   Should you have any questions regarding your right to use this Software,
//   38   contact Texas Instruments Incorporated at www.TI.com.
//   39 **************************************************************************************************/
//   40 
//   41 /*********************************************************************
//   42   This application implements a ZigBee Light, based on Z-Stack 3.0. It can be configured as an
//   43   On/Off light or as a dimmable light, by undefining or defining ZCL_LEVEL_CTRL, respectively.
//   44 
//   45   This application is based on the common sample-application user interface. Please see the main
//   46   comment in zcl_sampleapp_ui.c. The rest of this comment describes only the content specific for
//   47   this sample applicetion.
//   48   
//   49   Application-specific UI peripherals being used:
//   50 
//   51   - LEDs:
//   52     LED1 reflect the current light state (On / Off accordingly).
//   53 
//   54   Application-specific menu system:
//   55 
//   56     <TOGGLE LIGHT> Toggle the local light and display its status and level
//   57       Press OK to toggle the local light on and off.
//   58       This screen shows the following information
//   59         Line1: (only populated if ZCL_LEVEL_CTRL is defined)
//   60           LEVEL XXX - xxx is the current level of the light if the light state is ON, or the target level
//   61             of the light when the light state is off. The target level is the level that the light will be
//   62             set to when it is switched from off to on using the on or the toggle commands.
//   63         Line2:
//   64           LIGHT OFF / ON: shows the current state of the light.
//   65       Note when ZCL_LEVEL_CTRL is enabled:
//   66         - If the light state is ON and the light level is X, and then the light receives the OFF or TOGGLE 
//   67           commands: The level will decrease gradually until it reaches 1, and only then the light state will
//   68           be changed to OFF. The level then will be restored to X, with the state staying OFF. At this stage
//   69           the light is not lighting, and the level represent the target level for the next ON or TOGGLE 
//   70           commands.
//   71         - If the light state is OFF and the light level is X, and then the light receives the ON or TOGGLE
//   72           commands; The level will be set to 1, the light state will be set to ON, and then the level will
//   73           increase gradually until it reaches level X.
//   74         - Any level-setting command will affect the level directly, and may also affect the on/off state,
//   75           depending on the command's arguments.       
//   76 
//   77 *********************************************************************/
//   78 
//   79 /*********************************************************************
//   80  * INCLUDES
//   81  */
//   82 #include "ZComDef.h"
//   83 #include "OSAL.h"
//   84 #include "AF.h"
//   85 #include "ZDApp.h"
//   86 #include "ZDObject.h"
//   87 #include "MT_SYS.h"
//   88 
//   89 #include "nwk_util.h"
//   90 
//   91 #include "zcl.h"
//   92 #include "zcl_general.h"
//   93 #include "zcl_ha.h"
//   94 #include "zcl_diagnostic.h"
//   95 
//   96 #include "zcl_samplelight.h"
//   97    
//   98 #include "bdb.h"
//   99 #include "bdb_interface.h"
//  100 
//  101  //GP_UPDATE
//  102 #include "gp_interface.h"
//  103    
//  104 #include "onboard.h"
//  105 
//  106 /* HAL */
//  107 #include "hal_lcd.h"
//  108 #include "hal_led.h"
//  109 #include "hal_key.h"
//  110 
//  111 #include "NLMEDE.h"
//  112 
//  113 // Added to include TouchLink initiator functionality 
//  114 #if defined ( BDB_TL_INITIATOR )
//  115   #include "bdb_touchlink_initiator.h"
//  116 #endif // BDB_TL_INITIATOR
//  117 
//  118 #if defined ( BDB_TL_TARGET )
//  119   #include "bdb_touchlink_target.h"
//  120 #endif // BDB_TL_TARGET
//  121 
//  122 #if defined ( BDB_TL_INITIATOR ) || defined ( BDB_TL_TARGET )
//  123   #include "bdb_touchlink.h"
//  124 #endif
//  125 
//  126 #include "zcl_sampleapps_ui.h"
//  127 
//  128 /*********************************************************************
//  129  * MACROS
//  130  */
//  131 #define UI_STATE_TOGGLE_LIGHT 1 //UI_STATE_BACK_FROM_APP_MENU is item #0, so app item numbers should start from 1
//  132 
//  133 #define APP_TITLE "TI Sample Light"
//  134 
//  135 /*********************************************************************
//  136  * TYPEDEFS
//  137  */
//  138 
//  139 /*********************************************************************
//  140  * GLOBAL VARIABLES
//  141  */

        RSEG XDATA_Z:XDATA:NOROOT(0)
        DATA8
//  142 byte zclSampleLight_TaskID;
zclSampleLight_TaskID:
        DS 1
        REQUIRE __INIT_XDATA_Z

        RSEG XDATA_Z:XDATA:NOROOT(0)
        DATA8
//  143 uint8 zclSampleLightSeqNum;
zclSampleLightSeqNum:
        DS 1
        REQUIRE __INIT_XDATA_Z
//  144 
//  145 /*********************************************************************
//  146  * GLOBAL FUNCTIONS
//  147  */
//  148 
//  149 /*********************************************************************
//  150  * LOCAL VARIABLES
//  151  */

        RSEG XDATA_Z:XDATA:NOROOT(0)
        DATA8
//  152 afAddrType_t zclSampleLight_DstAddr;
zclSampleLight_DstAddr:
        DS 12
        REQUIRE __INIT_XDATA_Z
//  153 
//  154 // Test Endpoint to allow SYS_APP_MSGs

        RSEG XDATA_I:XDATA:NOROOT(0)
//  155 static endPointDesc_t sampleLight_TestEp =
sampleLight_TestEp:
        DATA8
        DS 7
        REQUIRE `?<Initializer for sampleLight_TestEp>`
        REQUIRE __INIT_XDATA_I
//  156 {
//  157   SAMPLELIGHT_ENDPOINT,
//  158   0,
//  159   &zclSampleLight_TaskID,
//  160   (SimpleDescriptionFormat_t *)NULL,  // No Simple description for this test endpoint
//  161   (afNetworkLatencyReq_t)0            // No Network Latency req
//  162 };
//  163 
//  164 #ifdef ZCL_LEVEL_CTRL

        RSEG XDATA_Z:XDATA:NOROOT(0)
        DATA8
//  165 uint8 zclSampleLight_WithOnOff;       // set to TRUE if state machine should set light on/off
zclSampleLight_WithOnOff:
        DS 1
        REQUIRE __INIT_XDATA_Z

        RSEG XDATA_Z:XDATA:NOROOT(0)
        DATA8
//  166 uint8 zclSampleLight_NewLevel;        // new level when done moving
zclSampleLight_NewLevel:
        DS 1
        REQUIRE __INIT_XDATA_Z

        RSEG XDATA_Z:XDATA:NOROOT(0)
        DATA8
//  167 uint8 zclSampleLight_LevelChangeCmd; // current level change was triggered by an on/off command
zclSampleLight_LevelChangeCmd:
        DS 1
        REQUIRE __INIT_XDATA_Z

        RSEG XDATA_Z:XDATA:NOROOT(0)
        DATA8
//  168 bool  zclSampleLight_NewLevelUp;      // is direction to new level up or down?
zclSampleLight_NewLevelUp:
        DS 1
        REQUIRE __INIT_XDATA_Z

        RSEG XDATA_Z:XDATA:NOROOT(0)
        DATA32
//  169 int32 zclSampleLight_CurrentLevel32;  // current level, fixed point (e.g. 192.456)
zclSampleLight_CurrentLevel32:
        DS 4
        REQUIRE __INIT_XDATA_Z

        RSEG XDATA_Z:XDATA:NOROOT(0)
        DATA32
//  170 int32 zclSampleLight_Rate32;          // rate in units, fixed point (e.g. 16.123)
zclSampleLight_Rate32:
        DS 4
        REQUIRE __INIT_XDATA_Z

        RSEG XDATA_Z:XDATA:NOROOT(0)
        DATA8
//  171 uint8 zclSampleLight_LevelLastLevel;  // to save the Current Level before the light was turned OFF
zclSampleLight_LevelLastLevel:
        DS 1
        REQUIRE __INIT_XDATA_Z
//  172 #endif
//  173 
//  174 /*********************************************************************
//  175  * LOCAL FUNCTIONS
//  176  */
//  177 static void zclSampleLight_HandleKeys( byte shift, byte keys );
//  178 static void zclSampleLight_BasicResetCB( void );
//  179 static void zclSampleLight_OnOffCB( uint8 cmd );
//  180 //GP_UPDATE
//  181 #if (ZG_BUILD_RTR_TYPE)
//  182 static void gp_CommissioningMode(bool isEntering);
//  183 static uint8 gp_ChangeChannelReq(void);
//  184 #endif
//  185 
//  186 
//  187 static void zclSampleLight_ProcessCommissioningStatus(bdbCommissioningModeMsg_t *bdbCommissioningModeMsg);
//  188 
//  189 
//  190 #ifdef ZCL_LEVEL_CTRL
//  191 static void zclSampleLight_LevelControlMoveToLevelCB( zclLCMoveToLevel_t *pCmd );
//  192 static void zclSampleLight_LevelControlMoveCB( zclLCMove_t *pCmd );
//  193 static void zclSampleLight_LevelControlStepCB( zclLCStep_t *pCmd );
//  194 static void zclSampleLight_LevelControlStopCB( void );
//  195 static void zclSampleLight_DefaultMove( uint8 OnOff );
//  196 static uint32 zclSampleLight_TimeRateHelper( uint8 newLevel );
//  197 static uint16 zclSampleLight_GetTime ( uint8 level, uint16 time );
//  198 static void zclSampleLight_MoveBasedOnRate( uint8 newLevel, uint32 rate );
//  199 static void zclSampleLight_MoveBasedOnTime( uint8 newLevel, uint16 time );
//  200 static void zclSampleLight_AdjustLightLevel( void );
//  201 #endif
//  202 
//  203 // Functions to process ZCL Foundation incoming Command/Response messages
//  204 static void zclSampleLight_ProcessIncomingMsg( zclIncomingMsg_t *msg );
//  205 #ifdef ZCL_READ
//  206 static uint8 zclSampleLight_ProcessInReadRspCmd( zclIncomingMsg_t *pInMsg );
//  207 #endif
//  208 #ifdef ZCL_WRITE
//  209 static uint8 zclSampleLight_ProcessInWriteRspCmd( zclIncomingMsg_t *pInMsg );
//  210 #endif
//  211 static uint8 zclSampleLight_ProcessInDefaultRspCmd( zclIncomingMsg_t *pInMsg );
//  212 #ifdef ZCL_DISCOVER
//  213 static uint8 zclSampleLight_ProcessInDiscCmdsRspCmd( zclIncomingMsg_t *pInMsg );
//  214 static uint8 zclSampleLight_ProcessInDiscAttrsRspCmd( zclIncomingMsg_t *pInMsg );
//  215 static uint8 zclSampleLight_ProcessInDiscAttrsExtRspCmd( zclIncomingMsg_t *pInMsg );
//  216 #endif
//  217 
//  218 static void zclSampleApp_BatteryWarningCB( uint8 voltLevel);
//  219 
//  220 void zclSampleLight_UiActionToggleLight(uint16 keys);
//  221 void zclSampleLight_UiUpdateLcd(uint8 uiCurrentState, char * line[3]);
//  222 void zclSampleLight_UpdateLedState(void);
//  223 
//  224 /*********************************************************************
//  225  * CONSTANTS
//  226  */

        RSEG XDATA_ROM_C:CONST:REORDER:NOROOT(0)
        DATA8
//  227 const uiState_t zclSampleLight_UiStatesMain[] = 
zclSampleLight_UiStatesMain:
        DB 254
        DB 1
        DATA16
        DW 4
        DW `??UI_ActionBackFromAppMenu::?relay`
        DATA8
        DB 0
        DB 254
        DATA16
        DW 4
        DW `??zclSampleLight_UiActionToggleLight::?relay`
//  228 {
//  229   /*  UI_STATE_BACK_FROM_APP_MENU  */   {UI_STATE_DEFAULT_MOVE,       UI_STATE_TOGGLE_LIGHT,  UI_KEY_SW_5_PRESSED, &UI_ActionBackFromAppMenu}, //do not change this line, except for the second item, which should point to the last entry in this menu
//  230   /*  UI_STATE_TOGGLE_LIGHT        */   {UI_STATE_BACK_FROM_APP_MENU, UI_STATE_DEFAULT_MOVE,  UI_KEY_SW_5_PRESSED, &zclSampleLight_UiActionToggleLight},
//  231 };
//  232 
//  233 #define LEVEL_CHANGED_BY_LEVEL_CMD  0
//  234 #define LEVEL_CHANGED_BY_ON_CMD     1
//  235 #define LEVEL_CHANGED_BY_OFF_CMD    2
//  236 
//  237 /*********************************************************************
//  238  * STATUS STRINGS
//  239  */
//  240 #ifdef LCD_SUPPORTED

        RSEG XDATA_ROM_C:CONST:REORDER:NOROOT(0)
        DATA8
//  241   const char sLightOn[]      = "   LIGHT ON     ";
sLightOn:
        DB "   LIGHT ON     "

        RSEG XDATA_ROM_C:CONST:REORDER:NOROOT(0)
        DATA8
//  242   const char sLightOff[]     = "   LIGHT OFF    ";
sLightOff:
        DB "   LIGHT OFF    "
//  243   #ifdef ZCL_LEVEL_CTRL

        RSEG XDATA_I:XDATA:NOROOT(0)
//  244     char sLightLevel[]        = "   LEVEL ###    "; // displays level 1-254
sLightLevel:
        DATA8
        DS 17
        REQUIRE `?<Initializer for sLightLevel>`
        REQUIRE __INIT_XDATA_I
//  245   #endif
//  246 #endif
//  247 
//  248 /*********************************************************************
//  249  * REFERENCED EXTERNALS
//  250  */
//  251 extern int16 zdpExternalStateTaskID;
//  252 
//  253 /*********************************************************************
//  254  * ZCL General Profile Callback table
//  255  */

        RSEG XDATA_I:XDATA:NOROOT(0)
//  256 static zclGeneral_AppCallbacks_t zclSampleLight_CmdCallbacks =
zclSampleLight_CmdCallbacks:
        DATA8
        DS 32
        REQUIRE `?<Initializer for zclSampleLight_CmdCallbacks>`
        REQUIRE __INIT_XDATA_I
//  257 {
//  258   zclSampleLight_BasicResetCB,            // Basic Cluster Reset command
//  259   NULL,                                   // Identify Trigger Effect command
//  260   zclSampleLight_OnOffCB,                 // On/Off cluster commands
//  261   NULL,                                   // On/Off cluster enhanced command Off with Effect
//  262   NULL,                                   // On/Off cluster enhanced command On with Recall Global Scene
//  263   NULL,                                   // On/Off cluster enhanced command On with Timed Off
//  264 #ifdef ZCL_LEVEL_CTRL
//  265   zclSampleLight_LevelControlMoveToLevelCB, // Level Control Move to Level command
//  266   zclSampleLight_LevelControlMoveCB,        // Level Control Move command
//  267   zclSampleLight_LevelControlStepCB,        // Level Control Step command
//  268   zclSampleLight_LevelControlStopCB,        // Level Control Stop command
//  269 #endif
//  270 #ifdef ZCL_GROUPS
//  271   NULL,                                   // Group Response commands
//  272 #endif
//  273 #ifdef ZCL_SCENES
//  274   NULL,                                  // Scene Store Request command
//  275   NULL,                                  // Scene Recall Request command
//  276   NULL,                                  // Scene Response command
//  277 #endif
//  278 #ifdef ZCL_ALARMS
//  279   NULL,                                  // Alarm (Response) commands
//  280 #endif
//  281 #ifdef SE_UK_EXT
//  282   NULL,                                  // Get Event Log command
//  283   NULL,                                  // Publish Event Log command
//  284 #endif
//  285   NULL,                                  // RSSI Location command
//  286   NULL                                   // RSSI Location Response command
//  287 };
//  288 
//  289 /*********************************************************************
//  290  * @fn          zclSampleLight_Init
//  291  *
//  292  * @brief       Initialization function for the zclGeneral layer.
//  293  *
//  294  * @param       none
//  295  *
//  296  * @return      none
//  297  */

        RSEG BANKED_CODE:HUGECODE:NOROOT(0)
//  298 void zclSampleLight_Init( byte task_id )
zclSampleLight_Init:
          CFI Block cfiBlock0 Using cfiCommon0
          CFI Function zclSampleLight_Init
        CODE
//  299 {
        FUNCALL zclSampleLight_Init, bdb_RegisterSimpleDescriptor
        LOCFRAME ISTACK, 0, STACK
        LOCFRAME PSTACK, 0, STACK
        LOCFRAME XSTACK, 10, STACK
        LOCFRAME IOVERLAY, 0, STATIC
        LOCFRAME DOVERLAY, 0, STATIC
        ARGFRAME ISTACK, 0, STACK
        ARGFRAME PSTACK, 0, STACK
        ARGFRAME XSTACK, 10, STACK
        ARGFRAME IOVERLAY, 0, STATIC
        ARGFRAME DOVERLAY, 0, STATIC
        FUNCALL zclSampleLight_Init, zclGeneral_RegisterCmdCallbacks
        LOCFRAME ISTACK, 0, STACK
        LOCFRAME PSTACK, 0, STACK
        LOCFRAME XSTACK, 10, STACK
        LOCFRAME IOVERLAY, 0, STATIC
        LOCFRAME DOVERLAY, 0, STATIC
        ARGFRAME ISTACK, 0, STACK
        ARGFRAME PSTACK, 0, STACK
        ARGFRAME XSTACK, 10, STACK
        ARGFRAME IOVERLAY, 0, STATIC
        ARGFRAME DOVERLAY, 0, STATIC
        FUNCALL zclSampleLight_Init, zclSampleLight_ResetAttributesToDefaultValues
        LOCFRAME ISTACK, 0, STACK
        LOCFRAME PSTACK, 0, STACK
        LOCFRAME XSTACK, 10, STACK
        LOCFRAME IOVERLAY, 0, STATIC
        LOCFRAME DOVERLAY, 0, STATIC
        ARGFRAME ISTACK, 0, STACK
        ARGFRAME PSTACK, 0, STACK
        ARGFRAME XSTACK, 10, STACK
        ARGFRAME IOVERLAY, 0, STATIC
        ARGFRAME DOVERLAY, 0, STATIC
        FUNCALL zclSampleLight_Init, zcl_registerAttrList
        LOCFRAME ISTACK, 0, STACK
        LOCFRAME PSTACK, 0, STACK
        LOCFRAME XSTACK, 10, STACK
        LOCFRAME IOVERLAY, 0, STATIC
        LOCFRAME DOVERLAY, 0, STATIC
        ARGFRAME ISTACK, 0, STACK
        ARGFRAME PSTACK, 0, STACK
        ARGFRAME XSTACK, 10, STACK
        ARGFRAME IOVERLAY, 0, STATIC
        ARGFRAME DOVERLAY, 0, STATIC
        FUNCALL zclSampleLight_Init, zcl_registerForMsg
        LOCFRAME ISTACK, 0, STACK
        LOCFRAME PSTACK, 0, STACK
        LOCFRAME XSTACK, 10, STACK
        LOCFRAME IOVERLAY, 0, STATIC
        LOCFRAME DOVERLAY, 0, STATIC
        ARGFRAME ISTACK, 0, STACK
        ARGFRAME PSTACK, 0, STACK
        ARGFRAME XSTACK, 10, STACK
        ARGFRAME IOVERLAY, 0, STATIC
        ARGFRAME DOVERLAY, 0, STATIC
        FUNCALL zclSampleLight_Init, zcl_registerCmdList
        LOCFRAME ISTACK, 0, STACK
        LOCFRAME PSTACK, 0, STACK
        LOCFRAME XSTACK, 10, STACK
        LOCFRAME IOVERLAY, 0, STATIC
        LOCFRAME DOVERLAY, 0, STATIC
        ARGFRAME ISTACK, 0, STACK
        ARGFRAME PSTACK, 0, STACK
        ARGFRAME XSTACK, 10, STACK
        ARGFRAME IOVERLAY, 0, STATIC
        ARGFRAME DOVERLAY, 0, STATIC
        FUNCALL zclSampleLight_Init, RegisterVoltageWarningCB
        LOCFRAME ISTACK, 0, STACK
        LOCFRAME PSTACK, 0, STACK
        LOCFRAME XSTACK, 10, STACK
        LOCFRAME IOVERLAY, 0, STATIC
        LOCFRAME DOVERLAY, 0, STATIC
        ARGFRAME ISTACK, 0, STACK
        ARGFRAME PSTACK, 0, STACK
        ARGFRAME XSTACK, 10, STACK
        ARGFRAME IOVERLAY, 0, STATIC
        ARGFRAME DOVERLAY, 0, STATIC
        FUNCALL zclSampleLight_Init, RegisterForKeys
        LOCFRAME ISTACK, 0, STACK
        LOCFRAME PSTACK, 0, STACK
        LOCFRAME XSTACK, 10, STACK
        LOCFRAME IOVERLAY, 0, STATIC
        LOCFRAME DOVERLAY, 0, STATIC
        ARGFRAME ISTACK, 0, STACK
        ARGFRAME PSTACK, 0, STACK
        ARGFRAME XSTACK, 10, STACK
        ARGFRAME IOVERLAY, 0, STATIC
        ARGFRAME DOVERLAY, 0, STATIC
        FUNCALL zclSampleLight_Init, bdb_RegisterCommissioningStatusCB
        LOCFRAME ISTACK, 0, STACK
        LOCFRAME PSTACK, 0, STACK
        LOCFRAME XSTACK, 10, STACK
        LOCFRAME IOVERLAY, 0, STATIC
        LOCFRAME DOVERLAY, 0, STATIC
        ARGFRAME ISTACK, 0, STACK
        ARGFRAME PSTACK, 0, STACK
        ARGFRAME XSTACK, 10, STACK
        ARGFRAME IOVERLAY, 0, STATIC
        ARGFRAME DOVERLAY, 0, STATIC
        FUNCALL zclSampleLight_Init, afRegister
        LOCFRAME ISTACK, 0, STACK
        LOCFRAME PSTACK, 0, STACK
        LOCFRAME XSTACK, 10, STACK
        LOCFRAME IOVERLAY, 0, STATIC
        LOCFRAME DOVERLAY, 0, STATIC
        ARGFRAME ISTACK, 0, STACK
        ARGFRAME PSTACK, 0, STACK
        ARGFRAME XSTACK, 10, STACK
        ARGFRAME IOVERLAY, 0, STATIC
        ARGFRAME DOVERLAY, 0, STATIC
        FUNCALL zclSampleLight_Init, gp_RegisterCommissioningModeCB
        LOCFRAME ISTACK, 0, STACK
        LOCFRAME PSTACK, 0, STACK
        LOCFRAME XSTACK, 10, STACK
        LOCFRAME IOVERLAY, 0, STATIC
        LOCFRAME DOVERLAY, 0, STATIC
        ARGFRAME ISTACK, 0, STACK
        ARGFRAME PSTACK, 0, STACK
        ARGFRAME XSTACK, 10, STACK
        ARGFRAME IOVERLAY, 0, STATIC
        ARGFRAME DOVERLAY, 0, STATIC
        FUNCALL zclSampleLight_Init, gp_RegisterGPChangeChannelReqCB
        LOCFRAME ISTACK, 0, STACK
        LOCFRAME PSTACK, 0, STACK
        LOCFRAME XSTACK, 10, STACK
        LOCFRAME IOVERLAY, 0, STATIC
        LOCFRAME DOVERLAY, 0, STATIC
        ARGFRAME ISTACK, 0, STACK
        ARGFRAME PSTACK, 0, STACK
        ARGFRAME XSTACK, 10, STACK
        ARGFRAME IOVERLAY, 0, STATIC
        ARGFRAME DOVERLAY, 0, STATIC
        FUNCALL zclSampleLight_Init, UI_Init
        LOCFRAME ISTACK, 0, STACK
        LOCFRAME PSTACK, 0, STACK
        LOCFRAME XSTACK, 18, STACK
        LOCFRAME IOVERLAY, 0, STATIC
        LOCFRAME DOVERLAY, 0, STATIC
        ARGFRAME ISTACK, 0, STACK
        ARGFRAME PSTACK, 0, STACK
        ARGFRAME XSTACK, 18, STACK
        ARGFRAME IOVERLAY, 0, STATIC
        ARGFRAME DOVERLAY, 0, STATIC
        FUNCALL zclSampleLight_Init, UI_UpdateLcd
        LOCFRAME ISTACK, 0, STACK
        LOCFRAME PSTACK, 0, STACK
        LOCFRAME XSTACK, 10, STACK
        LOCFRAME IOVERLAY, 0, STATIC
        LOCFRAME DOVERLAY, 0, STATIC
        ARGFRAME ISTACK, 0, STACK
        ARGFRAME PSTACK, 0, STACK
        ARGFRAME XSTACK, 10, STACK
        ARGFRAME IOVERLAY, 0, STATIC
        ARGFRAME DOVERLAY, 0, STATIC
        REQUIRE ?V0
        REQUIRE ?V1
        MOV       A,#-0xa
        LCALL     ?BANKED_ENTER_XDATA
          CFI DPH0 load(1, XDATA, add(CFA_XSP16, literal(-1)))
          CFI DPL0 load(1, XDATA, add(CFA_XSP16, literal(-2)))
          CFI ?BRET_EXT load(1, XDATA, add(CFA_XSP16, literal(-3)))
          CFI ?RET_HIGH load(1, XDATA, add(CFA_XSP16, literal(-4)))
          CFI ?RET_LOW load(1, XDATA, add(CFA_XSP16, literal(-5)))
          CFI R7 load(1, XDATA, add(CFA_XSP16, literal(-6)))
          CFI V1 load(1, XDATA, add(CFA_XSP16, literal(-7)))
          CFI V0 load(1, XDATA, add(CFA_XSP16, literal(-8)))
          CFI VB load(1, XDATA, add(CFA_XSP16, literal(-9)))
          CFI R6 load(1, XDATA, add(CFA_XSP16, literal(-10)))
          CFI CFA_SP SP+0
          CFI CFA_XSP16 add(XSP16, 10)
        ; Saved register size: 10
        ; Auto size: 0
        MOV       A,R1
//  300   zclSampleLight_TaskID = task_id;
        MOV       DPTR,#zclSampleLight_TaskID
        MOVX      @DPTR,A
//  301 
//  302   // Set destination address to indirect
//  303   zclSampleLight_DstAddr.addrMode = (afAddrMode_t)AddrNotPresent;
        MOV       DPTR,#zclSampleLight_DstAddr + 8
        CLR       A
        MOVX      @DPTR,A
//  304   zclSampleLight_DstAddr.endPoint = 0;
        INC       DPTR
        MOVX      @DPTR,A
//  305   zclSampleLight_DstAddr.addr.shortAddr = 0;
        MOV       DPTR,#zclSampleLight_DstAddr
        MOVX      @DPTR,A
        INC       DPTR
        MOVX      @DPTR,A
//  306 
//  307   // Register the Simple Descriptor for this application
//  308   bdb_RegisterSimpleDescriptor( &zclSampleLight_SimpleDesc );
        ; Setup parameters for call to function bdb_RegisterSimpleDescriptor
        MOV       R2,#zclSampleLight_SimpleDesc & 0xff
        MOV       R3,#(zclSampleLight_SimpleDesc >> 8) & 0xff
        LCALL     `??bdb_RegisterSimpleDescriptor::?relay`; Banked call to: bdb_RegisterSimpleDescriptor
//  309 
//  310   // Register the ZCL General Cluster Library callback functions
//  311   zclGeneral_RegisterCmdCallbacks( SAMPLELIGHT_ENDPOINT, &zclSampleLight_CmdCallbacks );
        ; Setup parameters for call to function zclGeneral_RegisterCmdCallbacks
        MOV       R2,#zclSampleLight_CmdCallbacks & 0xff
        MOV       R3,#(zclSampleLight_CmdCallbacks >> 8) & 0xff
        MOV       R1,#0x8
        LCALL     `??zclGeneral_RegisterCmdCallbacks::?relay`; Banked call to: zclGeneral_RegisterCmdCallbacks
//  312 
//  313   // Register the application's attribute list
//  314   zclSampleLight_ResetAttributesToDefaultValues();
        ; Setup parameters for call to function zclSampleLight_ResetAttributesToDefaultValues
        LCALL     ??zclSampleLight_ResetAttributesToDefaultValues; Banked call to: zclSampleLight_ResetAttributesToDefaultValues
//  315   zcl_registerAttrList( SAMPLELIGHT_ENDPOINT, zclSampleLight_NumAttributes, zclSampleLight_Attrs );
        ; Setup parameters for call to function zcl_registerAttrList
        MOV       R4,#zclSampleLight_Attrs & 0xff
        MOV       R5,#(zclSampleLight_Attrs >> 8) & 0xff
        MOV       DPTR,#zclSampleLight_NumAttributes
        CLR       A
        MOVC      A,@A+DPTR
        MOV       R2,A
        MOV       R1,#0x8
        LCALL     `??zcl_registerAttrList::?relay`; Banked call to: zcl_registerAttrList
//  316 
//  317 #ifdef ZCL_LEVEL_CTRL
//  318   zclSampleLight_LevelLastLevel = zclSampleLight_LevelCurrentLevel;
        MOV       DPTR,#zclSampleLight_LevelCurrentLevel
        MOVX      A,@DPTR
        MOV       DPTR,#zclSampleLight_LevelLastLevel
        MOVX      @DPTR,A
//  319 #endif
//  320 
//  321   // Register the Application to receive the unprocessed Foundation command/response messages
//  322   zcl_registerForMsg( zclSampleLight_TaskID );
        ; Setup parameters for call to function zcl_registerForMsg
        MOV       DPTR,#zclSampleLight_TaskID
        MOVX      A,@DPTR
        MOV       R1,A
        LCALL     `??zcl_registerForMsg::?relay`; Banked call to: zcl_registerForMsg
//  323 
//  324 #ifdef ZCL_DISCOVER
//  325   // Register the application's command list
//  326   zcl_registerCmdList( SAMPLELIGHT_ENDPOINT, zclCmdsArraySize, zclSampleLight_Cmds );
        ; Setup parameters for call to function zcl_registerCmdList
        MOV       R4,#zclSampleLight_Cmds & 0xff
        MOV       R5,#(zclSampleLight_Cmds >> 8) & 0xff
        MOV       DPTR,#zclCmdsArraySize
        CLR       A
        MOVC      A,@A+DPTR
        MOV       R2,A
        MOV       R1,#0x8
        LCALL     `??zcl_registerCmdList::?relay`; Banked call to: zcl_registerCmdList
//  327 #endif
//  328 
//  329   // Register low voltage NV memory protection application callback
//  330   RegisterVoltageWarningCB( zclSampleApp_BatteryWarningCB );
        ; Setup parameters for call to function RegisterVoltageWarningCB
        MOV       R2,#`??zclSampleApp_BatteryWarningCB::?relay` & 0xff
        MOV       R3,#(`??zclSampleApp_BatteryWarningCB::?relay` >> 8) & 0xff
        LCALL     `??RegisterVoltageWarningCB::?relay`; Banked call to: RegisterVoltageWarningCB
//  331 
//  332   // Register for all key events - This app will handle all key events
//  333   RegisterForKeys( zclSampleLight_TaskID );
        ; Setup parameters for call to function RegisterForKeys
        MOV       DPTR,#zclSampleLight_TaskID
        MOVX      A,@DPTR
        MOV       R1,A
        LCALL     `??RegisterForKeys::?relay`; Banked call to: RegisterForKeys
//  334   
//  335   bdb_RegisterCommissioningStatusCB( zclSampleLight_ProcessCommissioningStatus );
        ; Setup parameters for call to function bdb_RegisterCommissioningStatusCB
        MOV       R2,#`??zclSampleLight_ProcessCommissioningStatus::?r` & 0xff
        MOV       R3,#(`??zclSampleLight_ProcessCommissioningStatus::?r` >> 8) & 0xff
        LCALL     `??bdb_RegisterCommissioningStatusCB::?relay`; Banked call to: bdb_RegisterCommissioningStatusCB
//  336   
//  337   // Register for a test endpoint
//  338   afRegister( &sampleLight_TestEp );
        ; Setup parameters for call to function afRegister
        MOV       R2,#sampleLight_TestEp & 0xff
        MOV       R3,#(sampleLight_TestEp >> 8) & 0xff
        LCALL     `??afRegister::?relay`; Banked call to: afRegister
//  339 
//  340 #ifdef ZCL_DIAGNOSTIC
//  341   // Register the application's callback function to read/write attribute data.
//  342   // This is only required when the attribute data format is unknown to ZCL.
//  343   zcl_registerReadWriteCB( SAMPLELIGHT_ENDPOINT, zclDiagnostic_ReadWriteAttrCB, NULL );
//  344 
//  345   if ( zclDiagnostic_InitStats() == ZSuccess )
//  346   {
//  347     // Here the user could start the timer to save Diagnostics to NV
//  348   }
//  349 #endif
//  350   
//  351 //GP_UPDATE  
//  352 #if (ZG_BUILD_RTR_TYPE)  
//  353   gp_RegisterCommissioningModeCB(gp_CommissioningMode);
        ; Setup parameters for call to function gp_RegisterCommissioningModeCB
        MOV       R2,#`??gp_CommissioningMode::?relay` & 0xff
        MOV       R3,#(`??gp_CommissioningMode::?relay` >> 8) & 0xff
        LCALL     `??gp_RegisterCommissioningModeCB::?relay`; Banked call to: gp_RegisterCommissioningModeCB
//  354   gp_RegisterGPChangeChannelReqCB(gp_ChangeChannelReq);
        ; Setup parameters for call to function gp_RegisterGPChangeChannelReqCB
        MOV       R2,#`??gp_ChangeChannelReq::?relay` & 0xff
        MOV       R3,#(`??gp_ChangeChannelReq::?relay` >> 8) & 0xff
        LCALL     `??gp_RegisterGPChangeChannelReqCB::?relay`; Banked call to: gp_RegisterGPChangeChannelReqCB
//  355 #endif
//  356   
//  357   zdpExternalStateTaskID = zclSampleLight_TaskID;
        MOV       DPTR,#zclSampleLight_TaskID
        MOVX      A,@DPTR
        MOV       DPTR,#zdpExternalStateTaskID
        MOVX      @DPTR,A
        INC       DPTR
        CLR       A
        MOVX      @DPTR,A
//  358 
//  359   UI_Init(zclSampleLight_TaskID, SAMPLEAPP_LCD_AUTO_UPDATE_EVT, SAMPLEAPP_KEY_AUTO_REPEAT_EVT, &zclSampleLight_IdentifyTime, APP_TITLE, &zclSampleLight_UiUpdateLcd, zclSampleLight_UiStatesMain);
        ; Setup parameters for call to function UI_Init
        MOV       ?V0,#zclSampleLight_UiStatesMain & 0xff
        MOV       ?V1,#(zclSampleLight_UiStatesMain >> 8) & 0xff
        MOV       R0,#?V0
        LCALL     ?PUSH_XSTACK_I_TWO
          CFI CFA_XSP16 add(XSP16, 12)
        MOV       ?V0,#`??zclSampleLight_UiUpdateLcd::?relay` & 0xff
        MOV       ?V1,#(`??zclSampleLight_UiUpdateLcd::?relay` >> 8) & 0xff
        MOV       R0,#?V0
        LCALL     ?PUSH_XSTACK_I_TWO
          CFI CFA_XSP16 add(XSP16, 14)
        MOV       ?V0,#`?<Constant "TI Sample Light">` & 0xff
        MOV       ?V1,#(`?<Constant "TI Sample Light">` >> 8) & 0xff
        MOV       R0,#?V0
        LCALL     ?PUSH_XSTACK_I_TWO
          CFI CFA_XSP16 add(XSP16, 16)
        MOV       ?V0,#zclSampleLight_IdentifyTime & 0xff
        MOV       ?V1,#(zclSampleLight_IdentifyTime >> 8) & 0xff
        MOV       R0,#?V0
        LCALL     ?PUSH_XSTACK_I_TWO
          CFI CFA_XSP16 add(XSP16, 18)
        MOV       R4,#0x20
        MOV       R5,#0x0
        MOV       R2,#0x10
        MOV       R3,#0x0
        MOV       DPTR,#zclSampleLight_TaskID
        MOVX      A,@DPTR
        MOV       R1,A
        LCALL     `??UI_Init::?relay`; Banked call to: UI_Init
        MOV       A,#0x8
        LCALL     ?DEALLOC_XSTACK8
          CFI CFA_XSP16 add(XSP16, 10)
//  360 
//  361   UI_UpdateLcd();
        ; Setup parameters for call to function UI_UpdateLcd
        LCALL     `??UI_UpdateLcd::?relay`; Banked call to: UI_UpdateLcd
//  362 }
        MOV       R7,#0x2
        LJMP      ?BANKED_LEAVE_XDATA
          CFI EndBlock cfiBlock0
//  363 
//  364 /*********************************************************************
//  365  * @fn          zclSample_event_loop
//  366  *
//  367  * @brief       Event Loop Processor for zclGeneral.
//  368  *
//  369  * @param       none
//  370  *
//  371  * @return      none
//  372  */

        RSEG BANKED_CODE:HUGECODE:NOROOT(0)
//  373 uint16 zclSampleLight_event_loop( uint8 task_id, uint16 events )
zclSampleLight_event_loop:
          CFI Block cfiBlock1 Using cfiCommon0
          CFI Function zclSampleLight_event_loop
        CODE
//  374 {
        FUNCALL zclSampleLight_event_loop, zclSampleLight_AdjustLightLevel
        LOCFRAME ISTACK, 0, STACK
        LOCFRAME PSTACK, 0, STACK
        LOCFRAME XSTACK, 12, STACK
        LOCFRAME IOVERLAY, 0, STATIC
        LOCFRAME DOVERLAY, 0, STATIC
        ARGFRAME ISTACK, 0, STACK
        ARGFRAME PSTACK, 0, STACK
        ARGFRAME XSTACK, 12, STACK
        ARGFRAME IOVERLAY, 0, STATIC
        ARGFRAME DOVERLAY, 0, STATIC
        FUNCALL zclSampleLight_event_loop, UI_DeviceStateUpdated
        LOCFRAME ISTACK, 0, STACK
        LOCFRAME PSTACK, 0, STACK
        LOCFRAME XSTACK, 12, STACK
        LOCFRAME IOVERLAY, 0, STATIC
        LOCFRAME DOVERLAY, 0, STATIC
        ARGFRAME ISTACK, 0, STACK
        ARGFRAME PSTACK, 0, STACK
        ARGFRAME XSTACK, 12, STACK
        ARGFRAME IOVERLAY, 0, STATIC
        ARGFRAME DOVERLAY, 0, STATIC
        FUNCALL zclSampleLight_event_loop, osal_msg_deallocate
        LOCFRAME ISTACK, 0, STACK
        LOCFRAME PSTACK, 0, STACK
        LOCFRAME XSTACK, 12, STACK
        LOCFRAME IOVERLAY, 0, STATIC
        LOCFRAME DOVERLAY, 0, STATIC
        ARGFRAME ISTACK, 0, STACK
        ARGFRAME PSTACK, 0, STACK
        ARGFRAME XSTACK, 12, STACK
        ARGFRAME IOVERLAY, 0, STATIC
        ARGFRAME DOVERLAY, 0, STATIC
        FUNCALL zclSampleLight_event_loop, osal_msg_receive
        LOCFRAME ISTACK, 0, STACK
        LOCFRAME PSTACK, 0, STACK
        LOCFRAME XSTACK, 12, STACK
        LOCFRAME IOVERLAY, 0, STATIC
        LOCFRAME DOVERLAY, 0, STATIC
        ARGFRAME ISTACK, 0, STACK
        ARGFRAME PSTACK, 0, STACK
        ARGFRAME XSTACK, 12, STACK
        ARGFRAME IOVERLAY, 0, STATIC
        ARGFRAME DOVERLAY, 0, STATIC
        FUNCALL zclSampleLight_event_loop, zclSampleLight_ProcessIncomingMsg
        LOCFRAME ISTACK, 0, STACK
        LOCFRAME PSTACK, 0, STACK
        LOCFRAME XSTACK, 12, STACK
        LOCFRAME IOVERLAY, 0, STATIC
        LOCFRAME DOVERLAY, 0, STATIC
        ARGFRAME ISTACK, 0, STACK
        ARGFRAME PSTACK, 0, STACK
        ARGFRAME XSTACK, 12, STACK
        ARGFRAME IOVERLAY, 0, STATIC
        ARGFRAME DOVERLAY, 0, STATIC
        FUNCALL zclSampleLight_event_loop, UI_MainStateMachine
        LOCFRAME ISTACK, 0, STACK
        LOCFRAME PSTACK, 0, STACK
        LOCFRAME XSTACK, 12, STACK
        LOCFRAME IOVERLAY, 0, STATIC
        LOCFRAME DOVERLAY, 0, STATIC
        ARGFRAME ISTACK, 0, STACK
        ARGFRAME PSTACK, 0, STACK
        ARGFRAME XSTACK, 12, STACK
        ARGFRAME IOVERLAY, 0, STATIC
        ARGFRAME DOVERLAY, 0, STATIC
        FUNCALL zclSampleLight_event_loop, UI_UpdateLcd
        LOCFRAME ISTACK, 0, STACK
        LOCFRAME PSTACK, 0, STACK
        LOCFRAME XSTACK, 12, STACK
        LOCFRAME IOVERLAY, 0, STATIC
        LOCFRAME DOVERLAY, 0, STATIC
        ARGFRAME ISTACK, 0, STACK
        ARGFRAME PSTACK, 0, STACK
        ARGFRAME XSTACK, 12, STACK
        ARGFRAME IOVERLAY, 0, STATIC
        ARGFRAME DOVERLAY, 0, STATIC
        FUNCALL zclSampleLight_event_loop, UI_MainStateMachine
        LOCFRAME ISTACK, 0, STACK
        LOCFRAME PSTACK, 0, STACK
        LOCFRAME XSTACK, 12, STACK
        LOCFRAME IOVERLAY, 0, STATIC
        LOCFRAME DOVERLAY, 0, STATIC
        ARGFRAME ISTACK, 0, STACK
        ARGFRAME PSTACK, 0, STACK
        ARGFRAME XSTACK, 12, STACK
        ARGFRAME IOVERLAY, 0, STATIC
        ARGFRAME DOVERLAY, 0, STATIC
        REQUIRE ?V0
        REQUIRE ?V1
        REQUIRE ?V2
        REQUIRE ?V3
        MOV       A,#-0xc
        LCALL     ?BANKED_ENTER_XDATA
          CFI DPH0 load(1, XDATA, add(CFA_XSP16, literal(-1)))
          CFI DPL0 load(1, XDATA, add(CFA_XSP16, literal(-2)))
          CFI ?BRET_EXT load(1, XDATA, add(CFA_XSP16, literal(-3)))
          CFI ?RET_HIGH load(1, XDATA, add(CFA_XSP16, literal(-4)))
          CFI ?RET_LOW load(1, XDATA, add(CFA_XSP16, literal(-5)))
          CFI R7 load(1, XDATA, add(CFA_XSP16, literal(-6)))
          CFI V3 load(1, XDATA, add(CFA_XSP16, literal(-7)))
          CFI V2 load(1, XDATA, add(CFA_XSP16, literal(-8)))
          CFI V1 load(1, XDATA, add(CFA_XSP16, literal(-9)))
          CFI V0 load(1, XDATA, add(CFA_XSP16, literal(-10)))
          CFI VB load(1, XDATA, add(CFA_XSP16, literal(-11)))
          CFI R6 load(1, XDATA, add(CFA_XSP16, literal(-12)))
          CFI CFA_SP SP+0
          CFI CFA_XSP16 add(XSP16, 12)
        ; Saved register size: 12
        ; Auto size: 0
        MOV       A,R2
        MOV       R6,A
        MOV       A,R3
        MOV       R7,A
//  375   afIncomingMSGPacket_t *MSGpkt;
//  376 
//  377   (void)task_id;  // Intentionally unreferenced parameter
//  378 
//  379   if ( events & SYS_EVENT_MSG )
        ANL       A,#0x80
        JNZ       ??zclSampleLight_event_loop_0
//  380   {
//  381     while ( (MSGpkt = (afIncomingMSGPacket_t *)osal_msg_receive( zclSampleLight_TaskID )) )
//  382     {
//  383       switch ( MSGpkt->hdr.event )
//  384       {
//  385         case ZCL_INCOMING_MSG:
//  386           // Incoming ZCL Foundation command/response messages
//  387           zclSampleLight_ProcessIncomingMsg( (zclIncomingMsg_t *)MSGpkt );
//  388           break;
//  389 
//  390         case KEY_CHANGE:
//  391           zclSampleLight_HandleKeys( ((keyChange_t *)MSGpkt)->state, ((keyChange_t *)MSGpkt)->keys );
//  392           break;
//  393 
//  394         case ZDO_STATE_CHANGE:
//  395           UI_DeviceStateUpdated((devStates_t)(MSGpkt->hdr.status));
//  396           break;
//  397 
//  398         default:
//  399           break;
//  400       }
//  401 
//  402       // Release the memory
//  403       osal_msg_deallocate( (uint8 *)MSGpkt );
//  404     }
//  405 
//  406     // return unprocessed events
//  407     return (events ^ SYS_EVENT_MSG);
//  408   }
//  409 
//  410 #ifdef ZCL_LEVEL_CTRL
//  411   if ( events & SAMPLELIGHT_LEVEL_CTRL_EVT )
        MOV       A,R6
        ANL       A,#0x2
        JZ        ??zclSampleLight_event_loop_1
//  412   {
//  413     zclSampleLight_AdjustLightLevel();
        ; Setup parameters for call to function zclSampleLight_AdjustLightLevel
        LCALL     `??zclSampleLight_AdjustLightLevel::?relay`; Banked call to: zclSampleLight_AdjustLightLevel
//  414     return ( events ^ SAMPLELIGHT_LEVEL_CTRL_EVT );
        MOV       A,R6
        XRL       A,#0x2
        SJMP      ??zclSampleLight_event_loop_2
//  415   }
??zclSampleLight_event_loop_3:
        ; Setup parameters for call to function UI_DeviceStateUpdated
        INC       DPTR
        MOVX      A,@DPTR
        MOV       R1,A
        LCALL     `??UI_DeviceStateUpdated::?relay`; Banked call to: UI_DeviceStateUpdated
??zclSampleLight_event_loop_4:
        ; Setup parameters for call to function osal_msg_deallocate
        MOV       R2,?V0
        MOV       R3,?V1
        LCALL     `??osal_msg_deallocate::?relay`; Banked call to: osal_msg_deallocate
??zclSampleLight_event_loop_0:
        ; Setup parameters for call to function osal_msg_receive
        MOV       DPTR,#zclSampleLight_TaskID
        MOVX      A,@DPTR
        MOV       R1,A
        LCALL     `??osal_msg_receive::?relay`; Banked call to: osal_msg_receive
        MOV       ?V0,R2
        MOV       ?V1,R3
        MOV       A,R2
        ORL       A,?V1
        JZ        ??zclSampleLight_event_loop_5
        MOV       DPL,R2
        MOV       DPH,R3
        MOVX      A,@DPTR
        ADD       A,#-0x34
        JZ        ??zclSampleLight_event_loop_6
        ADD       A,#0x74
        JZ        ??zclSampleLight_event_loop_7
        ADD       A,#-0x11
        JZ        ??zclSampleLight_event_loop_3
        SJMP      ??zclSampleLight_event_loop_4
??zclSampleLight_event_loop_6:
        ; Setup parameters for call to function zclSampleLight_ProcessIncomingMsg
        LCALL     `??zclSampleLight_ProcessIncomingMsg::?relay`; Banked call to: zclSampleLight_ProcessIncomingMsg
        SJMP      ??zclSampleLight_event_loop_4
??zclSampleLight_event_loop_7:
        ; Setup parameters for call to function UI_MainStateMachine
        INC       DPTR
        INC       DPTR
        INC       DPTR
        MOVX      A,@DPTR
        MOV       R2,A
        MOV       R3,#0x0
        LCALL     `??UI_MainStateMachine::?relay`; Banked call to: UI_MainStateMachine
        SJMP      ??zclSampleLight_event_loop_4
??zclSampleLight_event_loop_5:
        MOV       A,R6
        MOV       R2,A
        MOV       A,R7
        XRL       A,#0x80
        SJMP      ??zclSampleLight_event_loop_8
//  416 #endif
//  417 
//  418 #if ZG_BUILD_ENDDEVICE_TYPE    
//  419   if ( events & SAMPLEAPP_END_DEVICE_REJOIN_EVT )
//  420   {
//  421     bdb_ZedAttemptRecoverNwk();
//  422     return ( events ^ SAMPLEAPP_END_DEVICE_REJOIN_EVT );
//  423   }
//  424 #endif
//  425 
//  426   if ( events & SAMPLEAPP_LCD_AUTO_UPDATE_EVT )
??zclSampleLight_event_loop_1:
        MOV       A,R6
        ANL       A,#0x10
        JZ        ??zclSampleLight_event_loop_9
//  427   {
//  428     UI_UpdateLcd();
        ; Setup parameters for call to function UI_UpdateLcd
        LCALL     `??UI_UpdateLcd::?relay`; Banked call to: UI_UpdateLcd
//  429     return ( events ^ SAMPLEAPP_LCD_AUTO_UPDATE_EVT );
        MOV       A,R6
        XRL       A,#0x10
        SJMP      ??zclSampleLight_event_loop_2
//  430   }
//  431 
//  432   if ( events & SAMPLEAPP_KEY_AUTO_REPEAT_EVT )
??zclSampleLight_event_loop_9:
        MOV       A,R6
        ANL       A,#0x20
        JZ        ??zclSampleLight_event_loop_10
//  433   {
//  434     UI_MainStateMachine(UI_KEY_AUTO_PRESSED);
        ; Setup parameters for call to function UI_MainStateMachine
        MOV       R2,#-0x1
        MOV       R3,#-0x1
        LCALL     `??UI_MainStateMachine::?relay`; Banked call to: UI_MainStateMachine
//  435     return ( events ^ SAMPLEAPP_KEY_AUTO_REPEAT_EVT );
        MOV       A,R6
        XRL       A,#0x20
??zclSampleLight_event_loop_2:
        MOV       R2,A
        MOV       A,R7
??zclSampleLight_event_loop_8:
        MOV       R3,A
        SJMP      ??zclSampleLight_event_loop_11
//  436   }
//  437 
//  438   // Discard unknown events
//  439   return 0;
??zclSampleLight_event_loop_10:
        MOV       R2,#0x0
        MOV       R3,#0x0
??zclSampleLight_event_loop_11:
        MOV       R7,#0x4
        LJMP      ?BANKED_LEAVE_XDATA
//  440 }
          CFI EndBlock cfiBlock1
//  441 
//  442 
//  443 /*********************************************************************
//  444  * @fn      zclSampleLight_HandleKeys
//  445  *
//  446  * @brief   Handles all key events for this device.
//  447  *
//  448  * @param   shift - true if in shift/alt.
//  449  * @param   keys - bit field for key events. Valid entries:
//  450  *                 HAL_KEY_SW_5
//  451  *                 HAL_KEY_SW_4
//  452  *                 HAL_KEY_SW_2
//  453  *                 HAL_KEY_SW_1
//  454  *
//  455  * @return  none
//  456  */
//  457 static void zclSampleLight_HandleKeys( byte shift, byte keys )
//  458 {
//  459   UI_MainStateMachine(keys);
//  460 }
//  461 
//  462 //GP_UPDATE
//  463 #if (ZG_BUILD_RTR_TYPE)
//  464 /*********************************************************************
//  465  * @fn      gp_CommissioningMode
//  466  *
//  467  * @brief   Callback that notifies the application that gp Proxy is entering 
//  468  *          into commissioning mode
//  469  *
//  470  * @param   isEntering - 
//  471  *
//  472  * @return  
//  473  */

        RSEG BANKED_CODE:HUGECODE:NOROOT(0)
//  474 static void gp_CommissioningMode(bool isEntering)
gp_CommissioningMode:
          CFI Block cfiBlock2 Using cfiCommon0
          CFI Function gp_CommissioningMode
        CODE
//  475 {
        ; Saved register size: 0
        ; Auto size: 0
//  476   if(isEntering)
//  477   {
//  478     //Led on indicating enter commissioning mode
//  479   }
//  480   else
//  481   {
//  482     //Led off indicating enter commissioning mode
//  483   }
//  484 }
        LJMP      ?BRET
          CFI EndBlock cfiBlock2
//  485 
//  486 
//  487 
//  488 //GP_UPDATE
//  489 /*********************************************************************
//  490  * @fn      gp_ChangeChannelReq
//  491  *
//  492  * @brief   Callback function to notify the application about a GP commissioning 
//  493  * request that will change the current channel for at most 
//  494  * gpBirectionalCommissioningChangeChannelTimeout ms
//  495  *
//  496  * @param   channel - Channel in which the commissioning will take place
//  497  *
//  498  * @return  TRUE to allow change channel, FALSE to do not allow
//  499  */

        RSEG BANKED_CODE:HUGECODE:NOROOT(0)
//  500 static uint8 gp_ChangeChannelReq(void)
gp_ChangeChannelReq:
          CFI Block cfiBlock3 Using cfiCommon0
          CFI Function gp_ChangeChannelReq
        CODE
//  501 {
        ; Saved register size: 0
        ; Auto size: 0
//  502   bool allowChangeChannel = TRUE;
//  503   
//  504   //Check application state to decide if allow change channel or not
//  505   
//  506   return allowChangeChannel;
        MOV       R1,#0x1
        LJMP      ?BRET
//  507 }
          CFI EndBlock cfiBlock3
//  508 
//  509 #endif
//  510 
//  511 
//  512 /*********************************************************************
//  513  * @fn      zclSampleLight_ProcessCommissioningStatus
//  514  *
//  515  * @brief   Callback in which the status of the commissioning process are reported
//  516  *
//  517  * @param   bdbCommissioningModeMsg - Context message of the status of a commissioning process
//  518  *
//  519  * @return  none
//  520  */

        RSEG BANKED_CODE:HUGECODE:NOROOT(0)
//  521 static void zclSampleLight_ProcessCommissioningStatus(bdbCommissioningModeMsg_t *bdbCommissioningModeMsg)
zclSampleLight_ProcessCommissioningStatus:
          CFI Block cfiBlock4 Using cfiCommon0
          CFI Function zclSampleLight_ProcessCommissioningStatus
        CODE
//  522 {
        FUNCALL zclSampleLight_ProcessCommissioningStatus, bdb_StartCommissioning
        LOCFRAME ISTACK, 0, STACK
        LOCFRAME PSTACK, 0, STACK
        LOCFRAME XSTACK, 9, STACK
        LOCFRAME IOVERLAY, 0, STATIC
        LOCFRAME DOVERLAY, 0, STATIC
        ARGFRAME ISTACK, 0, STACK
        ARGFRAME PSTACK, 0, STACK
        ARGFRAME XSTACK, 9, STACK
        ARGFRAME IOVERLAY, 0, STATIC
        ARGFRAME DOVERLAY, 0, STATIC
        FUNCALL zclSampleLight_ProcessCommissioningStatus, UI_UpdateComissioningStatus
        LOCFRAME ISTACK, 0, STACK
        LOCFRAME PSTACK, 0, STACK
        LOCFRAME XSTACK, 9, STACK
        LOCFRAME IOVERLAY, 0, STATIC
        LOCFRAME DOVERLAY, 0, STATIC
        ARGFRAME ISTACK, 0, STACK
        ARGFRAME PSTACK, 0, STACK
        ARGFRAME XSTACK, 9, STACK
        ARGFRAME IOVERLAY, 0, STATIC
        ARGFRAME DOVERLAY, 0, STATIC
        MOV       A,#-0x9
        LCALL     ?BANKED_ENTER_XDATA
          CFI DPH0 load(1, XDATA, add(CFA_XSP16, literal(-1)))
          CFI DPL0 load(1, XDATA, add(CFA_XSP16, literal(-2)))
          CFI ?BRET_EXT load(1, XDATA, add(CFA_XSP16, literal(-3)))
          CFI ?RET_HIGH load(1, XDATA, add(CFA_XSP16, literal(-4)))
          CFI ?RET_LOW load(1, XDATA, add(CFA_XSP16, literal(-5)))
          CFI R7 load(1, XDATA, add(CFA_XSP16, literal(-6)))
          CFI V0 load(1, XDATA, add(CFA_XSP16, literal(-7)))
          CFI VB load(1, XDATA, add(CFA_XSP16, literal(-8)))
          CFI R6 load(1, XDATA, add(CFA_XSP16, literal(-9)))
          CFI CFA_SP SP+0
          CFI CFA_XSP16 add(XSP16, 9)
        ; Saved register size: 9
        ; Auto size: 0
        MOV       A,R2
        MOV       R6,A
        MOV       A,R3
        MOV       R7,A
//  523   switch(bdbCommissioningModeMsg->bdbCommissioningMode)
        MOV       DPL,R6
        MOV       DPH,R7
        INC       DPTR
        MOVX      A,@DPTR
        XRL       A,#0x2
        JNZ       ??zclSampleLight_ProcessCommissioningStatus_0
//  524   {
//  525     case BDB_COMMISSIONING_FORMATION:
//  526       if(bdbCommissioningModeMsg->bdbCommissioningStatus == BDB_COMMISSIONING_SUCCESS)
        MOV       DPL,R6
        MOV       DPH,R7
        MOVX      A,@DPTR
        JNZ       ??zclSampleLight_ProcessCommissioningStatus_0
//  527       {
//  528         //After formation, perform nwk steering again plus the remaining commissioning modes that has not been process yet
//  529         bdb_StartCommissioning(BDB_COMMISSIONING_MODE_NWK_STEERING | bdbCommissioningModeMsg->bdbRemainingCommissioningModes);
        ; Setup parameters for call to function bdb_StartCommissioning
        INC       DPTR
        INC       DPTR
        MOVX      A,@DPTR
        ORL       A,#0x2
        MOV       R1,A
        LCALL     `??bdb_StartCommissioning::?relay`; Banked call to: bdb_StartCommissioning
//  530       }
//  531       else
//  532       {
//  533         //Want to try other channels?
//  534         //try with bdb_setChannelAttribute
//  535       }
//  536     break;
//  537     case BDB_COMMISSIONING_NWK_STEERING:
//  538       if(bdbCommissioningModeMsg->bdbCommissioningStatus == BDB_COMMISSIONING_SUCCESS)
//  539       {
//  540         //YOUR JOB:
//  541         //We are on the nwk, what now?
//  542       }
//  543       else
//  544       {
//  545         //See the possible errors for nwk steering procedure
//  546         //No suitable networks found
//  547         //Want to try other channels?
//  548         //try with bdb_setChannelAttribute
//  549       }
//  550     break;
//  551     case BDB_COMMISSIONING_FINDING_BINDING:
//  552       if(bdbCommissioningModeMsg->bdbCommissioningStatus == BDB_COMMISSIONING_SUCCESS)
//  553       {
//  554         //YOUR JOB:
//  555       }
//  556       else
//  557       {
//  558         //YOUR JOB:
//  559         //retry?, wait for user interaction?
//  560       }
//  561     break;
//  562     case BDB_COMMISSIONING_INITIALIZATION:
//  563       //Initialization notification can only be successful. Failure on initialization 
//  564       //only happens for ZED and is notified as BDB_COMMISSIONING_PARENT_LOST notification
//  565       
//  566       //YOUR JOB:
//  567       //We are on a network, what now?
//  568       
//  569     break;
//  570 #if ZG_BUILD_ENDDEVICE_TYPE    
//  571     case BDB_COMMISSIONING_PARENT_LOST:
//  572       if(bdbCommissioningModeMsg->bdbCommissioningStatus == BDB_COMMISSIONING_NETWORK_RESTORED)
//  573       {
//  574         //We did recover from losing parent
//  575       }
//  576       else
//  577       {
//  578         //Parent not found, attempt to rejoin again after a fixed delay
//  579         osal_start_timerEx(zclSampleLight_TaskID, SAMPLEAPP_END_DEVICE_REJOIN_EVT, SAMPLEAPP_END_DEVICE_REJOIN_DELAY);
//  580       }
//  581     break;
//  582 #endif 
//  583   }
//  584   
//  585   UI_UpdateComissioningStatus(bdbCommissioningModeMsg);
??zclSampleLight_ProcessCommissioningStatus_0:
        ; Setup parameters for call to function UI_UpdateComissioningStatus
        MOV       A,R6
        MOV       R2,A
        MOV       A,R7
        MOV       R3,A
        LCALL     `??UI_UpdateComissioningStatus::?relay`; Banked call to: UI_UpdateComissioningStatus
//  586 }
        LJMP      ?Subroutine1 & 0xFFFF
          CFI EndBlock cfiBlock4
//  587 
//  588 /*********************************************************************
//  589  * @fn      zclSampleLight_BasicResetCB
//  590  *
//  591  * @brief   Callback from the ZCL General Cluster Library
//  592  *          to set all the Basic Cluster attributes to default values.
//  593  *
//  594  * @param   none
//  595  *
//  596  * @return  none
//  597  */

        RSEG BANKED_CODE:HUGECODE:NOROOT(0)
//  598 static void zclSampleLight_BasicResetCB( void )
zclSampleLight_BasicResetCB:
          CFI Block cfiBlock5 Using cfiCommon0
          CFI Function zclSampleLight_BasicResetCB
        CODE
//  599 {
        FUNCALL zclSampleLight_BasicResetCB, zclSampleLight_ResetAttributesToDefaultValues
        LOCFRAME ISTACK, 2, STACK
        LOCFRAME PSTACK, 0, STACK
        LOCFRAME XSTACK, 0, STACK
        LOCFRAME IOVERLAY, 0, STATIC
        LOCFRAME DOVERLAY, 0, STATIC
        ARGFRAME ISTACK, 2, STACK
        ARGFRAME PSTACK, 0, STACK
        ARGFRAME XSTACK, 0, STACK
        ARGFRAME IOVERLAY, 0, STATIC
        ARGFRAME DOVERLAY, 0, STATIC
        FUNCALL zclSampleLight_BasicResetCB, zclSampleLight_UpdateLedState
        LOCFRAME ISTACK, 2, STACK
        LOCFRAME PSTACK, 0, STACK
        LOCFRAME XSTACK, 0, STACK
        LOCFRAME IOVERLAY, 0, STATIC
        LOCFRAME DOVERLAY, 0, STATIC
        ARGFRAME ISTACK, 2, STACK
        ARGFRAME PSTACK, 0, STACK
        ARGFRAME XSTACK, 0, STACK
        ARGFRAME IOVERLAY, 0, STATIC
        ARGFRAME DOVERLAY, 0, STATIC
        FUNCALL zclSampleLight_BasicResetCB, UI_UpdateLcd
        LOCFRAME ISTACK, 2, STACK
        LOCFRAME PSTACK, 0, STACK
        LOCFRAME XSTACK, 0, STACK
        LOCFRAME IOVERLAY, 0, STATIC
        LOCFRAME DOVERLAY, 0, STATIC
        ARGFRAME ISTACK, 2, STACK
        ARGFRAME PSTACK, 0, STACK
        ARGFRAME XSTACK, 0, STACK
        ARGFRAME IOVERLAY, 0, STATIC
        ARGFRAME DOVERLAY, 0, STATIC
        PUSH      DPL
          CFI DPL0 Frame(CFA_SP, 4)
          CFI CFA_SP SP+-4
        PUSH      DPH
          CFI DPH0 Frame(CFA_SP, 5)
          CFI CFA_SP SP+-5
        ; Saved register size: 2
        ; Auto size: 0
//  600   //Reset every attribute in all supported cluster to their default value.
//  601 
//  602   zclSampleLight_ResetAttributesToDefaultValues();
        ; Setup parameters for call to function zclSampleLight_ResetAttributesToDefaultValues
        LCALL     ??zclSampleLight_ResetAttributesToDefaultValues; Banked call to: zclSampleLight_ResetAttributesToDefaultValues
//  603 
//  604   zclSampleLight_UpdateLedState();
        ; Setup parameters for call to function zclSampleLight_UpdateLedState
        LCALL     `??zclSampleLight_UpdateLedState::?relay`; Banked call to: zclSampleLight_UpdateLedState
//  605 
//  606   // update the display
//  607   UI_UpdateLcd( ); 
        ; Setup parameters for call to function UI_UpdateLcd
        LCALL     `??UI_UpdateLcd::?relay`; Banked call to: UI_UpdateLcd
//  608 }
        LJMP      ?Subroutine0 & 0xFFFF
          CFI EndBlock cfiBlock5
//  609 
//  610 /*********************************************************************
//  611  * @fn      zclSampleLight_OnOffCB
//  612  *
//  613  * @brief   Callback from the ZCL General Cluster Library when
//  614  *          it received an On/Off Command for this application.
//  615  *
//  616  * @param   cmd - COMMAND_ON, COMMAND_OFF or COMMAND_TOGGLE
//  617  *
//  618  * @return  none
//  619  */

        RSEG BANKED_CODE:HUGECODE:NOROOT(0)
//  620 static void zclSampleLight_OnOffCB( uint8 cmd )
zclSampleLight_OnOffCB:
          CFI Block cfiBlock6 Using cfiCommon0
          CFI Function zclSampleLight_OnOffCB
        CODE
//  621 {
        FUNCALL zclSampleLight_OnOffCB, zcl_getRawAFMsg
        LOCFRAME ISTACK, 0, STACK
        LOCFRAME PSTACK, 0, STACK
        LOCFRAME XSTACK, 16, STACK
        LOCFRAME IOVERLAY, 0, STATIC
        LOCFRAME DOVERLAY, 0, STATIC
        ARGFRAME ISTACK, 0, STACK
        ARGFRAME PSTACK, 0, STACK
        ARGFRAME XSTACK, 16, STACK
        ARGFRAME IOVERLAY, 0, STATIC
        ARGFRAME DOVERLAY, 0, STATIC
        FUNCALL zclSampleLight_OnOffCB, zclSampleLight_MoveBasedOnRate
        LOCFRAME ISTACK, 0, STACK
        LOCFRAME PSTACK, 0, STACK
        LOCFRAME XSTACK, 16, STACK
        LOCFRAME IOVERLAY, 0, STATIC
        LOCFRAME DOVERLAY, 0, STATIC
        ARGFRAME ISTACK, 0, STACK
        ARGFRAME PSTACK, 0, STACK
        ARGFRAME XSTACK, 16, STACK
        ARGFRAME IOVERLAY, 0, STATIC
        ARGFRAME DOVERLAY, 0, STATIC
        FUNCALL zclSampleLight_OnOffCB, zclSampleLight_UpdateLedState
        LOCFRAME ISTACK, 0, STACK
        LOCFRAME PSTACK, 0, STACK
        LOCFRAME XSTACK, 16, STACK
        LOCFRAME IOVERLAY, 0, STATIC
        LOCFRAME DOVERLAY, 0, STATIC
        ARGFRAME ISTACK, 0, STACK
        ARGFRAME PSTACK, 0, STACK
        ARGFRAME XSTACK, 16, STACK
        ARGFRAME IOVERLAY, 0, STATIC
        ARGFRAME DOVERLAY, 0, STATIC
        FUNCALL zclSampleLight_OnOffCB, UI_UpdateLcd
        LOCFRAME ISTACK, 0, STACK
        LOCFRAME PSTACK, 0, STACK
        LOCFRAME XSTACK, 16, STACK
        LOCFRAME IOVERLAY, 0, STATIC
        LOCFRAME DOVERLAY, 0, STATIC
        ARGFRAME ISTACK, 0, STACK
        ARGFRAME PSTACK, 0, STACK
        ARGFRAME XSTACK, 16, STACK
        ARGFRAME IOVERLAY, 0, STATIC
        ARGFRAME DOVERLAY, 0, STATIC
        REQUIRE ?V0
        REQUIRE ?V1
        REQUIRE ?V2
        REQUIRE ?V3
        REQUIRE ?V4
        REQUIRE ?V5
        REQUIRE ?V6
        REQUIRE ?V7
        MOV       A,#-0x10
        LCALL     ?BANKED_ENTER_XDATA
          CFI DPH0 load(1, XDATA, add(CFA_XSP16, literal(-1)))
          CFI DPL0 load(1, XDATA, add(CFA_XSP16, literal(-2)))
          CFI ?BRET_EXT load(1, XDATA, add(CFA_XSP16, literal(-3)))
          CFI ?RET_HIGH load(1, XDATA, add(CFA_XSP16, literal(-4)))
          CFI ?RET_LOW load(1, XDATA, add(CFA_XSP16, literal(-5)))
          CFI R7 load(1, XDATA, add(CFA_XSP16, literal(-6)))
          CFI V7 load(1, XDATA, add(CFA_XSP16, literal(-7)))
          CFI V6 load(1, XDATA, add(CFA_XSP16, literal(-8)))
          CFI V5 load(1, XDATA, add(CFA_XSP16, literal(-9)))
          CFI V4 load(1, XDATA, add(CFA_XSP16, literal(-10)))
          CFI V3 load(1, XDATA, add(CFA_XSP16, literal(-11)))
          CFI V2 load(1, XDATA, add(CFA_XSP16, literal(-12)))
          CFI V1 load(1, XDATA, add(CFA_XSP16, literal(-13)))
          CFI V0 load(1, XDATA, add(CFA_XSP16, literal(-14)))
          CFI VB load(1, XDATA, add(CFA_XSP16, literal(-15)))
          CFI R6 load(1, XDATA, add(CFA_XSP16, literal(-16)))
          CFI CFA_SP SP+0
          CFI CFA_XSP16 add(XSP16, 16)
        ; Saved register size: 16
        ; Auto size: 0
        MOV       A,R1
        MOV       R7,A
//  622   afIncomingMSGPacket_t *pPtr = zcl_getRawAFMsg();
        ; Setup parameters for call to function zcl_getRawAFMsg
        LCALL     `??zcl_getRawAFMsg::?relay`; Banked call to: zcl_getRawAFMsg
        MOV       DPL,R2
        MOV       DPH,R3
//  623 
//  624   uint8 OnOff;
//  625 
//  626   zclSampleLight_DstAddr.addr.shortAddr = pPtr->srcAddr.addr.shortAddr;
        INC       DPTR
        INC       DPTR
        INC       DPTR
        INC       DPTR
        INC       DPTR
        INC       DPTR
        LCALL     ?Subroutine9 & 0xFFFF
??CrossCallReturnLabel_19:
        MOV       DPTR,#zclSampleLight_DstAddr
        MOV       A,R0
        MOVX      @DPTR,A
        INC       DPTR
        MOV       A,R1
        MOVX      @DPTR,A
//  627 
//  628 
//  629   // Turn on the light
//  630   if ( cmd == COMMAND_ON )
        MOV       A,#0x1
        XRL       A,R7
        JZ        ??zclSampleLight_OnOffCB_0
//  631   {
//  632     OnOff = LIGHT_ON;
//  633   }
//  634   // Turn off the light
//  635   else if ( cmd == COMMAND_OFF )
        MOV       A,R7
        JZ        ??zclSampleLight_OnOffCB_1
//  636   {
//  637     OnOff = LIGHT_OFF;
//  638   }
//  639   // Toggle the light
//  640   else if ( cmd == COMMAND_TOGGLE )
        MOV       A,#0x2
        XRL       A,R7
        JNZ       ??zclSampleLight_OnOffCB_2
//  641   {
//  642 #ifdef ZCL_LEVEL_CTRL
//  643     if (zclSampleLight_LevelRemainingTime > 0) 
        LCALL     ?Subroutine4 & 0xFFFF
??CrossCallReturnLabel_0:
        JZ        ??zclSampleLight_OnOffCB_3
//  644     {
//  645       if (zclSampleLight_NewLevelUp)
        MOV       DPTR,#zclSampleLight_NewLevelUp
        MOVX      A,@DPTR
        JZ        ??zclSampleLight_OnOffCB_0
??zclSampleLight_OnOffCB_1:
        MOV       DPTR,#zclSampleLight_LevelChangeCmd
        MOV       A,#0x2
        MOVX      @DPTR,A
        MOV       R6,#0x1
        MOV       DPTR,#zclSampleLight_LevelOffTransitionTime
        SJMP      ??zclSampleLight_OnOffCB_4
//  646       {
//  647         OnOff = LIGHT_OFF;
//  648       }
//  649       else
//  650       {
//  651         OnOff = LIGHT_ON;
//  652       }
//  653     }
//  654     else
//  655     {
//  656       if (zclSampleLight_OnOff == LIGHT_ON)
??zclSampleLight_OnOffCB_3:
        MOV       DPTR,#zclSampleLight_OnOff
        MOVX      A,@DPTR
        XRL       A,#0x1
        JNZ       ??zclSampleLight_OnOffCB_0
        SJMP      ??zclSampleLight_OnOffCB_1
//  657       {
//  658         OnOff = LIGHT_OFF;
//  659       }
//  660       else
//  661       {
//  662         OnOff = LIGHT_ON;
//  663       }
//  664     }
//  665 #else
//  666     if (zclSampleLight_OnOff == LIGHT_ON)
//  667     {
//  668       OnOff = LIGHT_OFF;
//  669     }
//  670     else
//  671     {
//  672       OnOff = LIGHT_ON;
//  673     }
//  674 #endif
//  675   }
//  676 
//  677 #ifdef ZCL_LEVEL_CTRL
//  678   zclSampleLight_LevelChangeCmd = (OnOff == LIGHT_ON ? LEVEL_CHANGED_BY_ON_CMD : LEVEL_CHANGED_BY_OFF_CMD);
??zclSampleLight_OnOffCB_2:
        MOV       A,R2
        JZ        ??zclSampleLight_OnOffCB_1
??zclSampleLight_OnOffCB_0:
        MOV       DPTR,#zclSampleLight_LevelChangeCmd
        MOV       A,#0x1
        MOVX      @DPTR,A
        MOV       DPTR,#zclSampleLight_OnOff
        MOVX      A,@DPTR
        JNZ       ??zclSampleLight_OnOffCB_5
        MOV       DPTR,#zclSampleLight_LevelCurrentLevel
        MOV       A,#0x1
        MOVX      @DPTR,A
??zclSampleLight_OnOffCB_5:
        MOV       DPTR,#zclSampleLight_LevelOnLevel
        MOVX      A,@DPTR
        CPL       A
        JNZ       ??zclSampleLight_OnOffCB_6
        MOV       DPTR,#zclSampleLight_LevelLastLevel
??zclSampleLight_OnOffCB_6:
        MOVX      A,@DPTR
        MOV       R6,A
        MOV       DPTR,#zclSampleLight_LevelOnTransitionTime
??zclSampleLight_OnOffCB_4:
        LCALL     ?Subroutine9 & 0xFFFF
??CrossCallReturnLabel_20:
        MOV       A,#-0x1
        XRL       A,R0
        JNZ       ??zclSampleLight_OnOffCB_7
        MOV       A,#-0x1
        XRL       A,R1
??zclSampleLight_OnOffCB_7:
        JNZ       ??CrossCallReturnLabel_21
        MOV       DPTR,#zclSampleLight_LevelOnOffTransitionTime
        LCALL     ?Subroutine9 & 0xFFFF
??CrossCallReturnLabel_21:
        MOV       A,#-0x1
        XRL       A,R0
        JNZ       ??zclSampleLight_OnOffCB_8
        MOV       A,#-0x1
        XRL       A,R1
??zclSampleLight_OnOffCB_8:
        JNZ       ??zclSampleLight_OnOffCB_9
        MOV       R0,#0x1
        MOV       R1,#0x0
??zclSampleLight_OnOffCB_9:
        MOV       DPTR,#zclSampleLight_WithOnOff
        MOV       A,#0x1
        MOVX      @DPTR,A
        ; Setup parameters for call to function zclSampleLight_MoveBasedOnRate
        MOV       ?V0,#0x18
        MOV       ?V1,#-0x1c
        MOV       ?V2,#0x3
        MOV       ?V3,#0x0
        MOV       ?V4,R0
        MOV       ?V5,R1
        CLR       A
        MOV       ?V6,A
        MOV       ?V7,A
        MOV       R0,#?V0
        MOV       R1,#?V4
        LCALL     ?L_DIV_MOD
        MOV       R2,?V0
        MOV       R3,?V1
        MOV       R4,?V2
        MOV       R5,?V3
        MOV       A,R6
        MOV       R1,A
        LCALL     `??zclSampleLight_MoveBasedOnRate::?relay`; Banked call to: zclSampleLight_MoveBasedOnRate
//  679 
//  680   zclSampleLight_DefaultMove(OnOff);
//  681 #else
//  682   zclSampleLight_OnOff = OnOff;
//  683 #endif
//  684 
//  685   zclSampleLight_UpdateLedState();
        ; Setup parameters for call to function zclSampleLight_UpdateLedState
        LCALL     `??zclSampleLight_UpdateLedState::?relay`; Banked call to: zclSampleLight_UpdateLedState
//  686   
//  687   // update the display
//  688   UI_UpdateLcd( );
        ; Setup parameters for call to function UI_UpdateLcd
        LCALL     `??UI_UpdateLcd::?relay`; Banked call to: UI_UpdateLcd
//  689 }
        LJMP      ??Subroutine10_0 & 0xFFFF
          CFI EndBlock cfiBlock6
//  690 
//  691 #ifdef ZCL_LEVEL_CTRL
//  692 /*********************************************************************
//  693  * @fn      zclSampleLight_TimeRateHelper
//  694  *
//  695  * @brief   Calculate time based on rate, and startup level state machine
//  696  *
//  697  * @param   newLevel - new level for current level
//  698  *
//  699  * @return  diff (directly), zclSampleLight_CurrentLevel32 and zclSampleLight_NewLevel, zclSampleLight_NewLevelUp
//  700  */

        RSEG BANKED_CODE:HUGECODE:NOROOT(0)
//  701 static uint32 zclSampleLight_TimeRateHelper( uint8 newLevel )
zclSampleLight_TimeRateHelper:
          CFI Block cfiBlock7 Using cfiCommon0
          CFI Function zclSampleLight_TimeRateHelper
        CODE
//  702 {
        REQUIRE ?V0
        REQUIRE ?V1
        REQUIRE ?V2
        REQUIRE ?V3
        REQUIRE ?V4
        REQUIRE ?V5
        REQUIRE ?V6
        REQUIRE ?V7
        MOV       A,#-0x10
        LCALL     ?BANKED_ENTER_XDATA
          CFI DPH0 load(1, XDATA, add(CFA_XSP16, literal(-1)))
          CFI DPL0 load(1, XDATA, add(CFA_XSP16, literal(-2)))
          CFI ?BRET_EXT load(1, XDATA, add(CFA_XSP16, literal(-3)))
          CFI ?RET_HIGH load(1, XDATA, add(CFA_XSP16, literal(-4)))
          CFI ?RET_LOW load(1, XDATA, add(CFA_XSP16, literal(-5)))
          CFI R7 load(1, XDATA, add(CFA_XSP16, literal(-6)))
          CFI V7 load(1, XDATA, add(CFA_XSP16, literal(-7)))
          CFI V6 load(1, XDATA, add(CFA_XSP16, literal(-8)))
          CFI V5 load(1, XDATA, add(CFA_XSP16, literal(-9)))
          CFI V4 load(1, XDATA, add(CFA_XSP16, literal(-10)))
          CFI V3 load(1, XDATA, add(CFA_XSP16, literal(-11)))
          CFI V2 load(1, XDATA, add(CFA_XSP16, literal(-12)))
          CFI V1 load(1, XDATA, add(CFA_XSP16, literal(-13)))
          CFI V0 load(1, XDATA, add(CFA_XSP16, literal(-14)))
          CFI VB load(1, XDATA, add(CFA_XSP16, literal(-15)))
          CFI R6 load(1, XDATA, add(CFA_XSP16, literal(-16)))
          CFI CFA_SP SP+0
          CFI CFA_XSP16 add(XSP16, 16)
        ; Saved register size: 16
        ; Auto size: 0
        MOV       A,R1
        MOV       R6,A
//  703   uint32 diff;
//  704   uint32 newLevel32;
//  705 
//  706   // remember current and new level
//  707   zclSampleLight_NewLevel = newLevel;
        MOV       DPTR,#zclSampleLight_NewLevel
        MOVX      @DPTR,A
//  708   zclSampleLight_CurrentLevel32 = (uint32)1000 * zclSampleLight_LevelCurrentLevel;
        MOV       DPTR,#zclSampleLight_LevelCurrentLevel
        LCALL     ?Subroutine8 & 0xFFFF
??CrossCallReturnLabel_6:
        MOV       DPTR,#__Constant_3e8
        MOV       R0,#?V4
        LCALL     ?L_MOV_X
        MOV       R0,#?V0
        MOV       R1,#?V4
        LCALL     ?L_MUL
        MOV       DPTR,#zclSampleLight_CurrentLevel32
        MOV       R0,#?V0
        LCALL     ?L_MOV_TO_X
//  709 
//  710   // calculate diff
//  711   newLevel32 = (uint32)1000 * newLevel;
        MOV       ?V4,R6
        CLR       A
        MOV       ?V5,A
        MOV       ?V6,A
        MOV       ?V7,A
        MOV       DPTR,#__Constant_3e8
        MOV       R0,#?V0
        LCALL     ?L_MOV_X
        MOV       R0,#?V4
        MOV       R1,#?V0
        LCALL     ?L_MUL
//  712   if ( zclSampleLight_LevelCurrentLevel > newLevel )
        MOV       DPTR,#zclSampleLight_LevelCurrentLevel
        MOVX      A,@DPTR
        MOV       R0,A
        MOV       A,R6
        CLR       C
        SUBB      A,R0
        MOV       DPTR,#zclSampleLight_CurrentLevel32
        JNC       ??zclSampleLight_TimeRateHelper_0
//  713   {
//  714     diff = zclSampleLight_CurrentLevel32 - newLevel32;
        MOV       R0,#?V0
        LCALL     ?L_MOV_X
        MOV       R0,#?V0
        MOV       R1,#?V4
        LCALL     ?L_SUB
        MOV       ?V4,?V0
        MOV       ?V5,?V1
        MOV       ?V6,?V2
        MOV       ?V7,?V3
//  715     zclSampleLight_NewLevelUp = FALSE;  // moving down
        MOV       DPTR,#zclSampleLight_NewLevelUp
        CLR       A
        SJMP      ??zclSampleLight_TimeRateHelper_1
//  716   }
//  717   else
//  718   {
//  719     diff = newLevel32 - zclSampleLight_CurrentLevel32;
??zclSampleLight_TimeRateHelper_0:
        MOV       R0,#?V4
        LCALL     ?L_SUB_X
//  720     zclSampleLight_NewLevelUp = TRUE;   // moving up
        MOV       DPTR,#zclSampleLight_NewLevelUp
        MOV       A,#0x1
??zclSampleLight_TimeRateHelper_1:
        MOVX      @DPTR,A
//  721   }
//  722 
//  723   return ( diff );
        MOV       R2,?V4
        MOV       R3,?V5
        MOV       R4,?V6
        MOV       R5,?V7
        SJMP      ??Subroutine10_0
//  724 }
          CFI EndBlock cfiBlock7
//  725 
//  726 /*********************************************************************
//  727  * @fn      zclSampleLight_MoveBasedOnRate
//  728  *
//  729  * @brief   Calculate time based on rate, and startup level state machine
//  730  *
//  731  * @param   newLevel - new level for current level
//  732  * @param   rate16   - fixed point rate (e.g. 16.123)
//  733  *
//  734  * @return  none
//  735  */

        RSEG BANKED_CODE:HUGECODE:NOROOT(0)
?Subroutine2:
          CFI Block cfiBlock8 Using cfiCommon0
          CFI NoFunction
          CFI CFA_SP SP+0
          CFI CFA_XSP16 add(XSP16, 16)
          CFI VB load(1, XDATA, add(CFA_XSP16, literal(-15)))
          CFI DPL0 load(1, XDATA, add(CFA_XSP16, literal(-2)))
          CFI DPH0 load(1, XDATA, add(CFA_XSP16, literal(-1)))
          CFI R6 load(1, XDATA, add(CFA_XSP16, literal(-16)))
          CFI R7 load(1, XDATA, add(CFA_XSP16, literal(-6)))
          CFI V0 load(1, XDATA, add(CFA_XSP16, literal(-14)))
          CFI V1 load(1, XDATA, add(CFA_XSP16, literal(-13)))
          CFI V2 load(1, XDATA, add(CFA_XSP16, literal(-12)))
          CFI V3 load(1, XDATA, add(CFA_XSP16, literal(-11)))
          CFI V4 load(1, XDATA, add(CFA_XSP16, literal(-10)))
          CFI V5 load(1, XDATA, add(CFA_XSP16, literal(-9)))
          CFI V6 load(1, XDATA, add(CFA_XSP16, literal(-8)))
          CFI V7 load(1, XDATA, add(CFA_XSP16, literal(-7)))
          CFI ?BRET_EXT load(1, XDATA, add(CFA_XSP16, literal(-3)))
          CFI ?RET_HIGH load(1, XDATA, add(CFA_XSP16, literal(-4)))
          CFI ?RET_LOW load(1, XDATA, add(CFA_XSP16, literal(-5)))
        MOV       DPTR,#__Constant_64
        LCALL     ?PUSH_XSTACK8_X_FOUR
          CFI CFA_XSP16 add(XSP16, 20)
        MOV       R2,#0x2
        MOV       R3,#0x0
        MOV       DPTR,#zclSampleLight_TaskID
        MOVX      A,@DPTR
        MOV       R1,A
        LCALL     `??osal_start_timerEx::?relay`; Banked call to: osal_start_timerEx
        MOV       A,#0x4
        LCALL     ?DEALLOC_XSTACK8
          CFI EndBlock cfiBlock8
        REQUIRE ??Subroutine10_0
        ; // Fall through to label ??Subroutine10_0

        RSEG BANKED_CODE:HUGECODE:NOROOT(0)
??Subroutine10_0:
          CFI Block cfiBlock9 Using cfiCommon0
          CFI NoFunction
          CFI CFA_SP SP+0
          CFI CFA_XSP16 add(XSP16, 16)
          CFI VB load(1, XDATA, add(CFA_XSP16, literal(-15)))
          CFI DPL0 load(1, XDATA, add(CFA_XSP16, literal(-2)))
          CFI DPH0 load(1, XDATA, add(CFA_XSP16, literal(-1)))
          CFI R6 load(1, XDATA, add(CFA_XSP16, literal(-16)))
          CFI R7 load(1, XDATA, add(CFA_XSP16, literal(-6)))
          CFI V0 load(1, XDATA, add(CFA_XSP16, literal(-14)))
          CFI V1 load(1, XDATA, add(CFA_XSP16, literal(-13)))
          CFI V2 load(1, XDATA, add(CFA_XSP16, literal(-12)))
          CFI V3 load(1, XDATA, add(CFA_XSP16, literal(-11)))
          CFI V4 load(1, XDATA, add(CFA_XSP16, literal(-10)))
          CFI V5 load(1, XDATA, add(CFA_XSP16, literal(-9)))
          CFI V6 load(1, XDATA, add(CFA_XSP16, literal(-8)))
          CFI V7 load(1, XDATA, add(CFA_XSP16, literal(-7)))
          CFI ?BRET_EXT load(1, XDATA, add(CFA_XSP16, literal(-3)))
          CFI ?RET_HIGH load(1, XDATA, add(CFA_XSP16, literal(-4)))
          CFI ?RET_LOW load(1, XDATA, add(CFA_XSP16, literal(-5)))
        MOV       R7,#0x8
        LJMP      ?BANKED_LEAVE_XDATA
          CFI EndBlock cfiBlock9

        RSEG BANKED_CODE:HUGECODE:NOROOT(0)
//  736 static void zclSampleLight_MoveBasedOnRate( uint8 newLevel, uint32 rate )
zclSampleLight_MoveBasedOnRate:
          CFI Block cfiBlock10 Using cfiCommon0
          CFI Function zclSampleLight_MoveBasedOnRate
        CODE
//  737 {
        FUNCALL zclSampleLight_MoveBasedOnRate, zclSampleLight_TimeRateHelper
        LOCFRAME ISTACK, 0, STACK
        LOCFRAME PSTACK, 0, STACK
        LOCFRAME XSTACK, 16, STACK
        LOCFRAME IOVERLAY, 0, STATIC
        LOCFRAME DOVERLAY, 0, STATIC
        ARGFRAME ISTACK, 0, STACK
        ARGFRAME PSTACK, 0, STACK
        ARGFRAME XSTACK, 16, STACK
        ARGFRAME IOVERLAY, 0, STATIC
        ARGFRAME DOVERLAY, 0, STATIC
        FUNCALL zclSampleLight_MoveBasedOnRate, osal_start_timerEx
        LOCFRAME ISTACK, 0, STACK
        LOCFRAME PSTACK, 0, STACK
        LOCFRAME XSTACK, 20, STACK
        LOCFRAME IOVERLAY, 0, STATIC
        LOCFRAME DOVERLAY, 0, STATIC
        ARGFRAME ISTACK, 0, STACK
        ARGFRAME PSTACK, 0, STACK
        ARGFRAME XSTACK, 20, STACK
        ARGFRAME IOVERLAY, 0, STATIC
        ARGFRAME DOVERLAY, 0, STATIC
        REQUIRE ?V0
        REQUIRE ?V1
        REQUIRE ?V2
        REQUIRE ?V3
        REQUIRE ?V4
        REQUIRE ?V5
        REQUIRE ?V6
        REQUIRE ?V7
        MOV       A,#-0x10
        LCALL     ?BANKED_ENTER_XDATA
          CFI DPH0 load(1, XDATA, add(CFA_XSP16, literal(-1)))
          CFI DPL0 load(1, XDATA, add(CFA_XSP16, literal(-2)))
          CFI ?BRET_EXT load(1, XDATA, add(CFA_XSP16, literal(-3)))
          CFI ?RET_HIGH load(1, XDATA, add(CFA_XSP16, literal(-4)))
          CFI ?RET_LOW load(1, XDATA, add(CFA_XSP16, literal(-5)))
          CFI R7 load(1, XDATA, add(CFA_XSP16, literal(-6)))
          CFI V7 load(1, XDATA, add(CFA_XSP16, literal(-7)))
          CFI V6 load(1, XDATA, add(CFA_XSP16, literal(-8)))
          CFI V5 load(1, XDATA, add(CFA_XSP16, literal(-9)))
          CFI V4 load(1, XDATA, add(CFA_XSP16, literal(-10)))
          CFI V3 load(1, XDATA, add(CFA_XSP16, literal(-11)))
          CFI V2 load(1, XDATA, add(CFA_XSP16, literal(-12)))
          CFI V1 load(1, XDATA, add(CFA_XSP16, literal(-13)))
          CFI V0 load(1, XDATA, add(CFA_XSP16, literal(-14)))
          CFI VB load(1, XDATA, add(CFA_XSP16, literal(-15)))
          CFI R6 load(1, XDATA, add(CFA_XSP16, literal(-16)))
          CFI CFA_SP SP+0
          CFI CFA_XSP16 add(XSP16, 16)
        ; Saved register size: 16
        ; Auto size: 0
        MOV       ?V4,R2
        MOV       ?V5,R3
        MOV       ?V6,R4
        MOV       ?V7,R5
//  738   uint32 diff;
//  739 
//  740   // determine how much time (in 10ths of seconds) based on the difference and rate
//  741   zclSampleLight_Rate32 = rate;
        MOV       DPTR,#zclSampleLight_Rate32
        MOV       R0,#?V4
        LCALL     ?L_MOV_TO_X
//  742   diff = zclSampleLight_TimeRateHelper( newLevel );
//  743   zclSampleLight_LevelRemainingTime = diff / rate;
        ; Setup parameters for call to function zclSampleLight_TimeRateHelper
        LCALL     `??zclSampleLight_TimeRateHelper::?relay`; Banked call to: zclSampleLight_TimeRateHelper
        MOV       ?V0,R2
        MOV       ?V1,R3
        MOV       ?V2,R4
        MOV       ?V3,R5
        MOV       R0,#?V0
        MOV       R1,#?V4
        LCALL     ?UL_DIV_MOD
        MOV       DPTR,#zclSampleLight_LevelRemainingTime
        MOV       A,?V0
        MOVX      @DPTR,A
        INC       DPTR
        MOV       A,?V1
        MOVX      @DPTR,A
//  744   if ( !zclSampleLight_LevelRemainingTime )
        LCALL     ?Subroutine4 & 0xFFFF
??CrossCallReturnLabel_1:
        JNZ       ??zclSampleLight_MoveBasedOnRate_0
//  745   {
//  746     zclSampleLight_LevelRemainingTime = 1;
        MOV       DPTR,#zclSampleLight_LevelRemainingTime
        MOV       A,#0x1
        MOVX      @DPTR,A
        INC       DPTR
        CLR       A
        MOVX      @DPTR,A
//  747   }
//  748 
//  749   osal_start_timerEx( zclSampleLight_TaskID, SAMPLELIGHT_LEVEL_CTRL_EVT, 100 );
??zclSampleLight_MoveBasedOnRate_0:
        ; Setup parameters for call to function osal_start_timerEx
        SJMP      ?Subroutine2
//  750 }
          CFI EndBlock cfiBlock10

        RSEG BANKED_CODE:HUGECODE:NOROOT(0)
?Subroutine4:
          CFI Block cfiCond11 Using cfiCommon0
          CFI Function zclSampleLight_OnOffCB
          CFI Conditional ??CrossCallReturnLabel_0
          CFI R6 load(1, XDATA, add(CFA_XSP16, literal(-16)))
          CFI VB load(1, XDATA, add(CFA_XSP16, literal(-15)))
          CFI V0 load(1, XDATA, add(CFA_XSP16, literal(-14)))
          CFI V1 load(1, XDATA, add(CFA_XSP16, literal(-13)))
          CFI V2 load(1, XDATA, add(CFA_XSP16, literal(-12)))
          CFI V3 load(1, XDATA, add(CFA_XSP16, literal(-11)))
          CFI V4 load(1, XDATA, add(CFA_XSP16, literal(-10)))
          CFI V5 load(1, XDATA, add(CFA_XSP16, literal(-9)))
          CFI V6 load(1, XDATA, add(CFA_XSP16, literal(-8)))
          CFI V7 load(1, XDATA, add(CFA_XSP16, literal(-7)))
          CFI R7 load(1, XDATA, add(CFA_XSP16, literal(-6)))
          CFI ?RET_LOW load(1, XDATA, add(CFA_XSP16, literal(-5)))
          CFI ?RET_HIGH load(1, XDATA, add(CFA_XSP16, literal(-4)))
          CFI ?BRET_EXT load(1, XDATA, add(CFA_XSP16, literal(-3)))
          CFI DPL0 load(1, XDATA, add(CFA_XSP16, literal(-2)))
          CFI DPH0 load(1, XDATA, add(CFA_XSP16, literal(-1)))
          CFI CFA_SP SP+-2
          CFI CFA_XSP16 add(XSP16, 16)
          CFI Block cfiCond12 Using cfiCommon0
          CFI (cfiCond12) Function zclSampleLight_MoveBasedOnRate
          CFI (cfiCond12) Conditional ??CrossCallReturnLabel_1
          CFI (cfiCond12) R6 load(1, XDATA, add(CFA_XSP16, literal(-16)))
          CFI (cfiCond12) VB load(1, XDATA, add(CFA_XSP16, literal(-15)))
          CFI (cfiCond12) V0 load(1, XDATA, add(CFA_XSP16, literal(-14)))
          CFI (cfiCond12) V1 load(1, XDATA, add(CFA_XSP16, literal(-13)))
          CFI (cfiCond12) V2 load(1, XDATA, add(CFA_XSP16, literal(-12)))
          CFI (cfiCond12) V3 load(1, XDATA, add(CFA_XSP16, literal(-11)))
          CFI (cfiCond12) V4 load(1, XDATA, add(CFA_XSP16, literal(-10)))
          CFI (cfiCond12) V5 load(1, XDATA, add(CFA_XSP16, literal(-9)))
          CFI (cfiCond12) V6 load(1, XDATA, add(CFA_XSP16, literal(-8)))
          CFI (cfiCond12) V7 load(1, XDATA, add(CFA_XSP16, literal(-7)))
          CFI (cfiCond12) R7 load(1, XDATA, add(CFA_XSP16, literal(-6)))
          CFI (cfiCond12) ?RET_LOW load(1, XDATA, add(CFA_XSP16, literal(-5)))
          CFI (cfiCond12) ?RET_HIGH load(1, XDATA, add(CFA_XSP16, literal(-4)))
          CFI (cfiCond12) ?BRET_EXT load(1, XDATA, add(CFA_XSP16, literal(-3)))
          CFI (cfiCond12) DPL0 load(1, XDATA, add(CFA_XSP16, literal(-2)))
          CFI (cfiCond12) DPH0 load(1, XDATA, add(CFA_XSP16, literal(-1)))
          CFI (cfiCond12) CFA_SP SP+-2
          CFI (cfiCond12) CFA_XSP16 add(XSP16, 16)
          CFI Block cfiCond13 Using cfiCommon0
          CFI (cfiCond13) Function zclSampleLight_AdjustLightLevel
          CFI (cfiCond13) Conditional ??CrossCallReturnLabel_2
          CFI (cfiCond13) R6 load(1, XDATA, add(CFA_XSP16, literal(-16)))
          CFI (cfiCond13) VB load(1, XDATA, add(CFA_XSP16, literal(-15)))
          CFI (cfiCond13) V0 load(1, XDATA, add(CFA_XSP16, literal(-14)))
          CFI (cfiCond13) V1 load(1, XDATA, add(CFA_XSP16, literal(-13)))
          CFI (cfiCond13) V2 load(1, XDATA, add(CFA_XSP16, literal(-12)))
          CFI (cfiCond13) V3 load(1, XDATA, add(CFA_XSP16, literal(-11)))
          CFI (cfiCond13) V4 load(1, XDATA, add(CFA_XSP16, literal(-10)))
          CFI (cfiCond13) V5 load(1, XDATA, add(CFA_XSP16, literal(-9)))
          CFI (cfiCond13) V6 load(1, XDATA, add(CFA_XSP16, literal(-8)))
          CFI (cfiCond13) V7 load(1, XDATA, add(CFA_XSP16, literal(-7)))
          CFI (cfiCond13) R7 load(1, XDATA, add(CFA_XSP16, literal(-6)))
          CFI (cfiCond13) ?RET_LOW load(1, XDATA, add(CFA_XSP16, literal(-5)))
          CFI (cfiCond13) ?RET_HIGH load(1, XDATA, add(CFA_XSP16, literal(-4)))
          CFI (cfiCond13) ?BRET_EXT load(1, XDATA, add(CFA_XSP16, literal(-3)))
          CFI (cfiCond13) DPL0 load(1, XDATA, add(CFA_XSP16, literal(-2)))
          CFI (cfiCond13) DPH0 load(1, XDATA, add(CFA_XSP16, literal(-1)))
          CFI (cfiCond13) CFA_SP SP+-2
          CFI (cfiCond13) CFA_XSP16 add(XSP16, 16)
          CFI Block cfiCond14 Using cfiCommon0
          CFI (cfiCond14) Function zclSampleLight_AdjustLightLevel
          CFI (cfiCond14) Conditional ??CrossCallReturnLabel_3
          CFI (cfiCond14) R6 load(1, XDATA, add(CFA_XSP16, literal(-16)))
          CFI (cfiCond14) VB load(1, XDATA, add(CFA_XSP16, literal(-15)))
          CFI (cfiCond14) V0 load(1, XDATA, add(CFA_XSP16, literal(-14)))
          CFI (cfiCond14) V1 load(1, XDATA, add(CFA_XSP16, literal(-13)))
          CFI (cfiCond14) V2 load(1, XDATA, add(CFA_XSP16, literal(-12)))
          CFI (cfiCond14) V3 load(1, XDATA, add(CFA_XSP16, literal(-11)))
          CFI (cfiCond14) V4 load(1, XDATA, add(CFA_XSP16, literal(-10)))
          CFI (cfiCond14) V5 load(1, XDATA, add(CFA_XSP16, literal(-9)))
          CFI (cfiCond14) V6 load(1, XDATA, add(CFA_XSP16, literal(-8)))
          CFI (cfiCond14) V7 load(1, XDATA, add(CFA_XSP16, literal(-7)))
          CFI (cfiCond14) R7 load(1, XDATA, add(CFA_XSP16, literal(-6)))
          CFI (cfiCond14) ?RET_LOW load(1, XDATA, add(CFA_XSP16, literal(-5)))
          CFI (cfiCond14) ?RET_HIGH load(1, XDATA, add(CFA_XSP16, literal(-4)))
          CFI (cfiCond14) ?BRET_EXT load(1, XDATA, add(CFA_XSP16, literal(-3)))
          CFI (cfiCond14) DPL0 load(1, XDATA, add(CFA_XSP16, literal(-2)))
          CFI (cfiCond14) DPH0 load(1, XDATA, add(CFA_XSP16, literal(-1)))
          CFI (cfiCond14) CFA_SP SP+-2
          CFI (cfiCond14) CFA_XSP16 add(XSP16, 16)
          CFI Block cfiPicker15 Using cfiCommon1
          CFI (cfiPicker15) NoFunction
          CFI (cfiPicker15) Picker
        MOV       DPTR,#zclSampleLight_LevelRemainingTime
        LCALL     ?Subroutine9 & 0xFFFF
??CrossCallReturnLabel_22:
        MOV       A,R0
        ORL       A,R1
        RET
          CFI EndBlock cfiCond11
          CFI EndBlock cfiCond12
          CFI EndBlock cfiCond13
          CFI EndBlock cfiCond14
          CFI EndBlock cfiPicker15
//  751 
//  752 /*********************************************************************
//  753  * @fn      zclSampleLight_MoveBasedOnTime
//  754  *
//  755  * @brief   Calculate rate based on time, and startup level state machine
//  756  *
//  757  * @param   newLevel  - new level for current level
//  758  * @param   time      - in 10ths of seconds
//  759  *
//  760  * @return  none
//  761  */

        RSEG BANKED_CODE:HUGECODE:NOROOT(0)
//  762 static void zclSampleLight_MoveBasedOnTime( uint8 newLevel, uint16 time )
zclSampleLight_MoveBasedOnTime:
          CFI Block cfiBlock16 Using cfiCommon0
          CFI Function zclSampleLight_MoveBasedOnTime
        CODE
//  763 {
        FUNCALL zclSampleLight_MoveBasedOnTime, zclSampleLight_TimeRateHelper
        LOCFRAME ISTACK, 0, STACK
        LOCFRAME PSTACK, 0, STACK
        LOCFRAME XSTACK, 16, STACK
        LOCFRAME IOVERLAY, 0, STATIC
        LOCFRAME DOVERLAY, 0, STATIC
        ARGFRAME ISTACK, 0, STACK
        ARGFRAME PSTACK, 0, STACK
        ARGFRAME XSTACK, 16, STACK
        ARGFRAME IOVERLAY, 0, STATIC
        ARGFRAME DOVERLAY, 0, STATIC
        FUNCALL zclSampleLight_MoveBasedOnTime, osal_start_timerEx
        LOCFRAME ISTACK, 0, STACK
        LOCFRAME PSTACK, 0, STACK
        LOCFRAME XSTACK, 20, STACK
        LOCFRAME IOVERLAY, 0, STATIC
        LOCFRAME DOVERLAY, 0, STATIC
        ARGFRAME ISTACK, 0, STACK
        ARGFRAME PSTACK, 0, STACK
        ARGFRAME XSTACK, 20, STACK
        ARGFRAME IOVERLAY, 0, STATIC
        ARGFRAME DOVERLAY, 0, STATIC
        REQUIRE ?V0
        REQUIRE ?V4
        REQUIRE ?V5
        REQUIRE ?V6
        REQUIRE ?V7
        MOV       A,#-0x10
        LCALL     ?BANKED_ENTER_XDATA
          CFI DPH0 load(1, XDATA, add(CFA_XSP16, literal(-1)))
          CFI DPL0 load(1, XDATA, add(CFA_XSP16, literal(-2)))
          CFI ?BRET_EXT load(1, XDATA, add(CFA_XSP16, literal(-3)))
          CFI ?RET_HIGH load(1, XDATA, add(CFA_XSP16, literal(-4)))
          CFI ?RET_LOW load(1, XDATA, add(CFA_XSP16, literal(-5)))
          CFI R7 load(1, XDATA, add(CFA_XSP16, literal(-6)))
          CFI V7 load(1, XDATA, add(CFA_XSP16, literal(-7)))
          CFI V6 load(1, XDATA, add(CFA_XSP16, literal(-8)))
          CFI V5 load(1, XDATA, add(CFA_XSP16, literal(-9)))
          CFI V4 load(1, XDATA, add(CFA_XSP16, literal(-10)))
          CFI V3 load(1, XDATA, add(CFA_XSP16, literal(-11)))
          CFI V2 load(1, XDATA, add(CFA_XSP16, literal(-12)))
          CFI V1 load(1, XDATA, add(CFA_XSP16, literal(-13)))
          CFI V0 load(1, XDATA, add(CFA_XSP16, literal(-14)))
          CFI VB load(1, XDATA, add(CFA_XSP16, literal(-15)))
          CFI R6 load(1, XDATA, add(CFA_XSP16, literal(-16)))
          CFI CFA_SP SP+0
          CFI CFA_XSP16 add(XSP16, 16)
        ; Saved register size: 16
        ; Auto size: 0
        MOV       ?V0,R1
        MOV       A,R2
        MOV       R6,A
        MOV       A,R3
        MOV       R7,A
//  764   uint16 diff;
//  765 
//  766   // determine rate (in units) based on difference and time
//  767   diff = zclSampleLight_TimeRateHelper( newLevel );
        ; Setup parameters for call to function zclSampleLight_TimeRateHelper
        LCALL     `??zclSampleLight_TimeRateHelper::?relay`; Banked call to: zclSampleLight_TimeRateHelper
        MOV       ?V4,R2
        MOV       ?V5,R3
        MOV       R0,?V4
        MOV       R1,?V5
//  768   zclSampleLight_LevelRemainingTime = zclSampleLight_GetTime( newLevel, time );
        MOV       A,R6
        MOV       R2,A
        MOV       A,R7
        MOV       R3,A
        MOV       A,#-0x1
        XRL       A,R2
        JNZ       ??zclSampleLight_MoveBasedOnTime_0
        MOV       A,#-0x1
        XRL       A,R3
??zclSampleLight_MoveBasedOnTime_0:
        JNZ       ??zclSampleLight_MoveBasedOnTime_1
        MOV       DPTR,#zclSampleLight_LevelCurrentLevel
        MOVX      A,@DPTR
        MOV       R2,A
        MOV       A,?V0
        CLR       C
        SUBB      A,R2
        JNC       ??zclSampleLight_MoveBasedOnTime_2
        MOV       DPTR,#zclSampleLight_LevelOffTransitionTime
        SJMP      ??zclSampleLight_MoveBasedOnTime_3
??zclSampleLight_MoveBasedOnTime_2:
        MOV       DPTR,#zclSampleLight_LevelOnTransitionTime
??zclSampleLight_MoveBasedOnTime_3:
        LCALL     ??Subroutine11_0 & 0xFFFF
??CrossCallReturnLabel_8:
        MOV       A,#-0x1
        XRL       A,R2
        JNZ       ??zclSampleLight_MoveBasedOnTime_4
        MOV       A,#-0x1
        XRL       A,R3
??zclSampleLight_MoveBasedOnTime_4:
        JNZ       ??CrossCallReturnLabel_9
        MOV       DPTR,#zclSampleLight_LevelOnOffTransitionTime
        LCALL     ??Subroutine11_0 & 0xFFFF
??CrossCallReturnLabel_9:
        MOV       A,#-0x1
        XRL       A,R2
        JNZ       ??zclSampleLight_MoveBasedOnTime_5
        MOV       A,#-0x1
        XRL       A,R3
??zclSampleLight_MoveBasedOnTime_5:
        JZ        ??zclSampleLight_MoveBasedOnTime_6
??zclSampleLight_MoveBasedOnTime_1:
        MOV       A,R2
        ORL       A,R3
        JNZ       ??zclSampleLight_MoveBasedOnTime_7
??zclSampleLight_MoveBasedOnTime_6:
        MOV       R2,#0x1
        MOV       R3,#0x0
??zclSampleLight_MoveBasedOnTime_7:
        MOV       DPTR,#zclSampleLight_LevelRemainingTime
        MOV       A,R2
        MOVX      @DPTR,A
        INC       DPTR
        MOV       A,R3
        MOVX      @DPTR,A
//  769   zclSampleLight_Rate32 = diff / time;
        MOV       A,R6
        MOV       R2,A
        MOV       A,R7
        MOV       R3,A
        LCALL     ?US_DIV_MOD
        MOV       A,R0
        MOV       R4,A
        MOV       A,R1
        MOV       R5,A
        MOV       DPTR,#zclSampleLight_Rate32
        MOV       A,R4
        MOVX      @DPTR,A
        INC       DPTR
        MOV       A,R5
        MOVX      @DPTR,A
        INC       DPTR
        CLR       A
        MOVX      @DPTR,A
        INC       DPTR
        MOVX      @DPTR,A
//  770 
//  771   osal_start_timerEx( zclSampleLight_TaskID, SAMPLELIGHT_LEVEL_CTRL_EVT, 100 );
        ; Setup parameters for call to function osal_start_timerEx
        LJMP      ?Subroutine2 & 0xFFFF
//  772 }
          CFI EndBlock cfiBlock16
//  773 
//  774 /*********************************************************************
//  775  * @fn      zclSampleLight_GetTime
//  776  *
//  777  * @brief   Determine amount of time that MoveXXX will take to complete.
//  778  *
//  779  * @param   level = new level to move to
//  780  *          time  = 0xffff=default, or 0x0000-n amount of time in tenths of seconds.
//  781  *
//  782  * @return  none
//  783  */
//  784 static uint16 zclSampleLight_GetTime( uint8 newLevel, uint16 time )
//  785 {
//  786   // there is a hiearchy of the amount of time to use for transistioning
//  787   // check each one in turn. If none of defaults are set, then use fastest
//  788   // time possible.
//  789   if ( time == 0xFFFF )
//  790   {
//  791     // use On or Off Transition Time if set (not 0xffff)
//  792     if ( zclSampleLight_LevelCurrentLevel > newLevel )
//  793     {
//  794       time = zclSampleLight_LevelOffTransitionTime;
//  795     }
//  796     else
//  797     {
//  798       time = zclSampleLight_LevelOnTransitionTime;
//  799     }
//  800 
//  801     // else use OnOffTransitionTime if set (not 0xffff)
//  802     if ( time == 0xFFFF )
//  803     {
//  804       time = zclSampleLight_LevelOnOffTransitionTime;
//  805     }
//  806 
//  807     // else as fast as possible
//  808     if ( time == 0xFFFF )
//  809     {
//  810       time = 1;
//  811     }
//  812   }
//  813 
//  814   if ( time == 0 )
//  815   {
//  816     time = 1; // as fast as possible
//  817   }
//  818 
//  819   return ( time );
//  820 }
//  821 
//  822 /*********************************************************************
//  823  * @fn      zclSampleLight_DefaultMove
//  824  *
//  825  * @brief   We were turned on/off. Use default time to move to on or off.
//  826  *
//  827  * @param   zclSampleLight_OnOff - must be set prior to calling this function.
//  828  *
//  829  * @return  none
//  830  */
//  831 static void zclSampleLight_DefaultMove( uint8 OnOff )
//  832 {
//  833   uint8  newLevel;
//  834   uint32 rate;      // fixed point decimal (3 places, eg. 16.345)
//  835   uint16 time;
//  836 
//  837   // if moving to on position, move to on level
//  838   if ( OnOff )
//  839   {
//  840     if (zclSampleLight_OnOff == LIGHT_OFF)
//  841     {
//  842       zclSampleLight_LevelCurrentLevel = ATTR_LEVEL_MIN_LEVEL;
//  843     }
//  844     
//  845     if ( zclSampleLight_LevelOnLevel == ATTR_LEVEL_ON_LEVEL_NO_EFFECT )
//  846     {
//  847       // The last Level (before going OFF) should be used)
//  848       newLevel = zclSampleLight_LevelLastLevel;
//  849     }
//  850     else
//  851     {
//  852       newLevel = zclSampleLight_LevelOnLevel;
//  853     }
//  854 
//  855     time = zclSampleLight_LevelOnTransitionTime;
//  856 
//  857   }
//  858   else
//  859   {
//  860     newLevel = ATTR_LEVEL_MIN_LEVEL;
//  861 
//  862     time = zclSampleLight_LevelOffTransitionTime;
//  863   }
//  864 
//  865   // else use OnOffTransitionTime if set (not 0xffff)
//  866   if ( time == 0xFFFF )
//  867   {
//  868     time = zclSampleLight_LevelOnOffTransitionTime;
//  869   }
//  870 
//  871   // else as fast as possible
//  872   if ( time == 0xFFFF )
//  873   {
//  874     time = 1;
//  875   }
//  876 
//  877   // calculate rate based on time (int 10ths) for full transition (1-254)
//  878   rate = 255000 / time;    // units per tick, fixed point, 3 decimal places (e.g. 8500 = 8.5 units per tick)
//  879 
//  880   // start up state machine.
//  881   zclSampleLight_WithOnOff = TRUE;
//  882   zclSampleLight_MoveBasedOnRate( newLevel, rate );
//  883 }
//  884 
//  885 /*********************************************************************
//  886  * @fn      zclSampleLight_AdjustLightLevel
//  887  *
//  888  * @brief   Called each 10th of a second while state machine running
//  889  *
//  890  * @param   none
//  891  *
//  892  * @return  none
//  893  */

        RSEG BANKED_CODE:HUGECODE:NOROOT(0)
//  894 static void zclSampleLight_AdjustLightLevel( void )
zclSampleLight_AdjustLightLevel:
          CFI Block cfiBlock17 Using cfiCommon0
          CFI Function zclSampleLight_AdjustLightLevel
        CODE
//  895 {
        FUNCALL zclSampleLight_AdjustLightLevel, zclSampleLight_UpdateLedState
        LOCFRAME ISTACK, 0, STACK
        LOCFRAME PSTACK, 0, STACK
        LOCFRAME XSTACK, 16, STACK
        LOCFRAME IOVERLAY, 0, STATIC
        LOCFRAME DOVERLAY, 0, STATIC
        ARGFRAME ISTACK, 0, STACK
        ARGFRAME PSTACK, 0, STACK
        ARGFRAME XSTACK, 16, STACK
        ARGFRAME IOVERLAY, 0, STATIC
        ARGFRAME DOVERLAY, 0, STATIC
        FUNCALL zclSampleLight_AdjustLightLevel, UI_UpdateLcd
        LOCFRAME ISTACK, 0, STACK
        LOCFRAME PSTACK, 0, STACK
        LOCFRAME XSTACK, 16, STACK
        LOCFRAME IOVERLAY, 0, STATIC
        LOCFRAME DOVERLAY, 0, STATIC
        ARGFRAME ISTACK, 0, STACK
        ARGFRAME PSTACK, 0, STACK
        ARGFRAME XSTACK, 16, STACK
        ARGFRAME IOVERLAY, 0, STATIC
        ARGFRAME DOVERLAY, 0, STATIC
        FUNCALL zclSampleLight_AdjustLightLevel, osal_start_timerEx
        LOCFRAME ISTACK, 0, STACK
        LOCFRAME PSTACK, 0, STACK
        LOCFRAME XSTACK, 20, STACK
        LOCFRAME IOVERLAY, 0, STATIC
        LOCFRAME DOVERLAY, 0, STATIC
        ARGFRAME ISTACK, 0, STACK
        ARGFRAME PSTACK, 0, STACK
        ARGFRAME XSTACK, 20, STACK
        ARGFRAME IOVERLAY, 0, STATIC
        ARGFRAME DOVERLAY, 0, STATIC
        REQUIRE ?V0
        REQUIRE ?V1
        REQUIRE ?V2
        REQUIRE ?V3
        REQUIRE ?V4
        REQUIRE ?V5
        REQUIRE ?V6
        REQUIRE ?V7
        MOV       A,#-0x10
        LCALL     ?BANKED_ENTER_XDATA
          CFI DPH0 load(1, XDATA, add(CFA_XSP16, literal(-1)))
          CFI DPL0 load(1, XDATA, add(CFA_XSP16, literal(-2)))
          CFI ?BRET_EXT load(1, XDATA, add(CFA_XSP16, literal(-3)))
          CFI ?RET_HIGH load(1, XDATA, add(CFA_XSP16, literal(-4)))
          CFI ?RET_LOW load(1, XDATA, add(CFA_XSP16, literal(-5)))
          CFI R7 load(1, XDATA, add(CFA_XSP16, literal(-6)))
          CFI V7 load(1, XDATA, add(CFA_XSP16, literal(-7)))
          CFI V6 load(1, XDATA, add(CFA_XSP16, literal(-8)))
          CFI V5 load(1, XDATA, add(CFA_XSP16, literal(-9)))
          CFI V4 load(1, XDATA, add(CFA_XSP16, literal(-10)))
          CFI V3 load(1, XDATA, add(CFA_XSP16, literal(-11)))
          CFI V2 load(1, XDATA, add(CFA_XSP16, literal(-12)))
          CFI V1 load(1, XDATA, add(CFA_XSP16, literal(-13)))
          CFI V0 load(1, XDATA, add(CFA_XSP16, literal(-14)))
          CFI VB load(1, XDATA, add(CFA_XSP16, literal(-15)))
          CFI R6 load(1, XDATA, add(CFA_XSP16, literal(-16)))
          CFI CFA_SP SP+0
          CFI CFA_XSP16 add(XSP16, 16)
        ; Saved register size: 16
        ; Auto size: 0
//  896   // one tick (10th of a second) less
//  897   if ( zclSampleLight_LevelRemainingTime )
        LCALL     ?Subroutine4 & 0xFFFF
??CrossCallReturnLabel_2:
        JZ        ??zclSampleLight_AdjustLightLevel_0
//  898   {
//  899     --zclSampleLight_LevelRemainingTime;
//  900   }
//  901 
//  902   // no time left, done
//  903   if ( zclSampleLight_LevelRemainingTime == 0)
        MOV       DPTR,#zclSampleLight_LevelRemainingTime
        MOVX      A,@DPTR
        ADD       A,#-0x1
        MOVX      @DPTR,A
        DEC       R0
        INC       DPTR
        MOVX      A,@DPTR
        ADDC      A,#-0x1
        MOVX      @DPTR,A
        MOV       R1,A
        MOV       A,R0
        ORL       A,R1
        JNZ       ??zclSampleLight_AdjustLightLevel_1
//  904   {
//  905     zclSampleLight_LevelCurrentLevel = zclSampleLight_NewLevel;
??zclSampleLight_AdjustLightLevel_0:
        MOV       DPTR,#zclSampleLight_NewLevel
        MOVX      A,@DPTR
        SJMP      ??zclSampleLight_AdjustLightLevel_2
//  906   }
//  907 
//  908   // still time left, keep increment/decrementing
//  909   else
//  910   {
//  911     if ( zclSampleLight_NewLevelUp )
??zclSampleLight_AdjustLightLevel_1:
        MOV       DPTR,#zclSampleLight_NewLevelUp
        MOVX      A,@DPTR
        MOV       DPTR,#zclSampleLight_Rate32
        MOV       R0,#?V0
        JZ        ??zclSampleLight_AdjustLightLevel_3
//  912     {
//  913       zclSampleLight_CurrentLevel32 += zclSampleLight_Rate32;
        LCALL     ?L_MOV_X
        MOV       DPTR,#zclSampleLight_CurrentLevel32
        MOV       R0,#?V0
        LCALL     ?L_ADD_TO_X
        SJMP      ??zclSampleLight_AdjustLightLevel_4
//  914     }
//  915     else
//  916     {
//  917       zclSampleLight_CurrentLevel32 -= zclSampleLight_Rate32;
??zclSampleLight_AdjustLightLevel_3:
        LCALL     ?L_MOV_X
        MOV       DPTR,#zclSampleLight_CurrentLevel32
        MOV       R0,#?V0
        LCALL     ?L_SUB_FROM_X
//  918     }
//  919     zclSampleLight_LevelCurrentLevel = (uint8)( zclSampleLight_CurrentLevel32 / 1000 );
??zclSampleLight_AdjustLightLevel_4:
        MOV       DPTR,#zclSampleLight_CurrentLevel32
        MOV       R0,#?V0
        LCALL     ?L_MOV_X
        MOV       DPTR,#__Constant_3e8
        MOV       R0,#?V4
        LCALL     ?L_MOV_X
        MOV       R0,#?V0
        MOV       R1,#?V4
        LCALL     ?L_DIV_MOD
        MOV       A,?V0
??zclSampleLight_AdjustLightLevel_2:
        MOV       DPTR,#zclSampleLight_LevelCurrentLevel
        MOVX      @DPTR,A
//  920   }
//  921 
//  922   if (( zclSampleLight_LevelChangeCmd == LEVEL_CHANGED_BY_LEVEL_CMD ) && ( zclSampleLight_LevelOnLevel == ATTR_LEVEL_ON_LEVEL_NO_EFFECT ))
        MOV       DPTR,#zclSampleLight_LevelChangeCmd
        MOVX      A,@DPTR
        JNZ       ??zclSampleLight_AdjustLightLevel_5
        MOV       DPTR,#zclSampleLight_LevelOnLevel
        MOVX      A,@DPTR
        CPL       A
        JNZ       ??zclSampleLight_AdjustLightLevel_5
//  923   {
//  924     zclSampleLight_LevelLastLevel = zclSampleLight_LevelCurrentLevel;
        MOV       DPTR,#zclSampleLight_LevelCurrentLevel
        MOVX      A,@DPTR
        MOV       DPTR,#zclSampleLight_LevelLastLevel
        MOVX      @DPTR,A
//  925   }
//  926 
//  927   // also affect on/off
//  928   if ( zclSampleLight_WithOnOff )
??zclSampleLight_AdjustLightLevel_5:
        MOV       DPTR,#zclSampleLight_WithOnOff
        MOVX      A,@DPTR
        JZ        ??zclSampleLight_AdjustLightLevel_6
//  929   {
//  930     if ( zclSampleLight_LevelCurrentLevel > ATTR_LEVEL_MIN_LEVEL )
        MOV       DPTR,#zclSampleLight_LevelCurrentLevel
        MOVX      A,@DPTR
        CLR       C
        SUBB      A,#0x2
        JC        ??zclSampleLight_AdjustLightLevel_7
//  931     {
//  932       zclSampleLight_OnOff = LIGHT_ON;
        MOV       DPTR,#zclSampleLight_OnOff
        MOV       A,#0x1
        SJMP      ??zclSampleLight_AdjustLightLevel_8
//  933     }
//  934     else
//  935     {
//  936       if (zclSampleLight_LevelChangeCmd != LEVEL_CHANGED_BY_ON_CMD)
??zclSampleLight_AdjustLightLevel_7:
        MOV       DPTR,#zclSampleLight_LevelChangeCmd
        MOVX      A,@DPTR
        XRL       A,#0x1
        MOV       DPTR,#zclSampleLight_OnOff
        JZ        ??zclSampleLight_AdjustLightLevel_9
//  937       {
//  938         zclSampleLight_OnOff = LIGHT_OFF;
        CLR       A
        MOVX      @DPTR,A
//  939       }
//  940       else
//  941       {
//  942         zclSampleLight_OnOff = LIGHT_ON;
//  943       }
//  944       
//  945       if (( zclSampleLight_LevelChangeCmd != LEVEL_CHANGED_BY_LEVEL_CMD ) && ( zclSampleLight_LevelOnLevel == ATTR_LEVEL_ON_LEVEL_NO_EFFECT ))
        MOV       DPTR,#zclSampleLight_LevelChangeCmd
        MOVX      A,@DPTR
        JNZ       ??zclSampleLight_AdjustLightLevel_10
        SJMP      ??zclSampleLight_AdjustLightLevel_6
??zclSampleLight_AdjustLightLevel_9:
        MOV       A,#0x1
        MOVX      @DPTR,A
??zclSampleLight_AdjustLightLevel_10:
        MOV       DPTR,#zclSampleLight_LevelOnLevel
        MOVX      A,@DPTR
        CPL       A
        JNZ       ??zclSampleLight_AdjustLightLevel_6
//  946       {
//  947         zclSampleLight_LevelCurrentLevel = zclSampleLight_LevelLastLevel;
        MOV       DPTR,#zclSampleLight_LevelLastLevel
        MOVX      A,@DPTR
        MOV       DPTR,#zclSampleLight_LevelCurrentLevel
??zclSampleLight_AdjustLightLevel_8:
        MOVX      @DPTR,A
//  948       }
//  949     }
//  950   }
//  951 
//  952   zclSampleLight_UpdateLedState();
??zclSampleLight_AdjustLightLevel_6:
        ; Setup parameters for call to function zclSampleLight_UpdateLedState
        LCALL     `??zclSampleLight_UpdateLedState::?relay`; Banked call to: zclSampleLight_UpdateLedState
//  953   
//  954   // display light level as we go
//  955   UI_UpdateLcd( );
        ; Setup parameters for call to function UI_UpdateLcd
        LCALL     `??UI_UpdateLcd::?relay`; Banked call to: UI_UpdateLcd
//  956 
//  957   // keep ticking away
//  958   if ( zclSampleLight_LevelRemainingTime )
        LCALL     ?Subroutine4 & 0xFFFF
??CrossCallReturnLabel_3:
        JZ        ??zclSampleLight_AdjustLightLevel_11
//  959   {
//  960     osal_start_timerEx( zclSampleLight_TaskID, SAMPLELIGHT_LEVEL_CTRL_EVT, 100 );
        ; Setup parameters for call to function osal_start_timerEx
        MOV       DPTR,#__Constant_64
        LCALL     ?PUSH_XSTACK8_X_FOUR
          CFI CFA_XSP16 add(XSP16, 20)
        MOV       R2,#0x2
        MOV       R3,#0x0
        MOV       DPTR,#zclSampleLight_TaskID
        MOVX      A,@DPTR
        MOV       R1,A
        LCALL     `??osal_start_timerEx::?relay`; Banked call to: osal_start_timerEx
        MOV       A,#0x4
        LCALL     ?DEALLOC_XSTACK8
          CFI CFA_XSP16 add(XSP16, 16)
//  961   }
//  962 }
??zclSampleLight_AdjustLightLevel_11:
        LJMP      ??Subroutine10_0 & 0xFFFF
          CFI EndBlock cfiBlock17
//  963 
//  964 /*********************************************************************
//  965  * @fn      zclSampleLight_LevelControlMoveToLevelCB
//  966  *
//  967  * @brief   Callback from the ZCL General Cluster Library when
//  968  *          it received a LevelControlMoveToLevel Command for this application.
//  969  *
//  970  * @param   pCmd - ZigBee command parameters
//  971  *
//  972  * @return  none
//  973  */

        RSEG BANKED_CODE:HUGECODE:NOROOT(0)
//  974 static void zclSampleLight_LevelControlMoveToLevelCB( zclLCMoveToLevel_t *pCmd )
zclSampleLight_LevelControlMoveToLevelCB:
          CFI Block cfiBlock18 Using cfiCommon0
          CFI Function zclSampleLight_LevelControlMoveToLevelCB
        CODE
//  975 {
        FUNCALL zclSampleLight_LevelControlMoveToLevelCB, zclSampleLight_MoveBasedOnTime
        LOCFRAME ISTACK, 2, STACK
        LOCFRAME PSTACK, 0, STACK
        LOCFRAME XSTACK, 0, STACK
        LOCFRAME IOVERLAY, 0, STATIC
        LOCFRAME DOVERLAY, 0, STATIC
        ARGFRAME ISTACK, 2, STACK
        ARGFRAME PSTACK, 0, STACK
        ARGFRAME XSTACK, 0, STACK
        ARGFRAME IOVERLAY, 0, STATIC
        ARGFRAME DOVERLAY, 0, STATIC
        PUSH      DPL
          CFI DPL0 Frame(CFA_SP, 4)
          CFI CFA_SP SP+-4
        PUSH      DPH
          CFI DPH0 Frame(CFA_SP, 5)
          CFI CFA_SP SP+-5
        ; Saved register size: 2
        ; Auto size: 0
        MOV       A,R2
        MOV       R0,A
        MOV       A,R3
        MOV       R1,A
//  976   zclSampleLight_LevelChangeCmd = LEVEL_CHANGED_BY_LEVEL_CMD;
        MOV       DPTR,#zclSampleLight_LevelChangeCmd
        CLR       A
        MOVX      @DPTR,A
//  977 
//  978   zclSampleLight_WithOnOff = pCmd->withOnOff;
        MOV       DPL,R0
        MOV       DPH,R1
        INC       DPTR
        INC       DPTR
        INC       DPTR
        MOVX      A,@DPTR
        MOV       DPTR,#zclSampleLight_WithOnOff
        MOVX      @DPTR,A
//  979   zclSampleLight_MoveBasedOnTime( pCmd->level, pCmd->transitionTime );
        ; Setup parameters for call to function zclSampleLight_MoveBasedOnTime
        MOV       DPL,R0
        MOV       DPH,R1
        LCALL     ?Subroutine5 & 0xFFFF
??CrossCallReturnLabel_11:
        MOV       DPL,R0
        MOV       DPH,R1
        MOVX      A,@DPTR
        MOV       R1,A
        LCALL     `??zclSampleLight_MoveBasedOnTime::?relay`; Banked call to: zclSampleLight_MoveBasedOnTime
//  980 }
        LJMP      ?Subroutine0 & 0xFFFF
          CFI EndBlock cfiBlock18

        RSEG BANKED_CODE:HUGECODE:NOROOT(0)
?Subroutine5:
          CFI Block cfiCond19 Using cfiCommon0
          CFI Function zclSampleLight_LevelControlMoveToLevelCB
          CFI Conditional ??CrossCallReturnLabel_11
          CFI DPL0 Frame(CFA_SP, 4)
          CFI DPH0 Frame(CFA_SP, 5)
          CFI CFA_SP SP+-7
          CFI Block cfiCond20 Using cfiCommon0
          CFI (cfiCond20) Function zclSampleLight_LevelControlStepCB
          CFI (cfiCond20) Conditional ??CrossCallReturnLabel_12
          CFI (cfiCond20) R6 load(1, XDATA, add(CFA_XSP16, literal(-9)))
          CFI (cfiCond20) VB load(1, XDATA, add(CFA_XSP16, literal(-8)))
          CFI (cfiCond20) V0 load(1, XDATA, add(CFA_XSP16, literal(-7)))
          CFI (cfiCond20) R7 load(1, XDATA, add(CFA_XSP16, literal(-6)))
          CFI (cfiCond20) ?RET_LOW load(1, XDATA, add(CFA_XSP16, literal(-5)))
          CFI (cfiCond20) ?RET_HIGH load(1, XDATA, add(CFA_XSP16, literal(-4)))
          CFI (cfiCond20) ?BRET_EXT load(1, XDATA, add(CFA_XSP16, literal(-3)))
          CFI (cfiCond20) DPL0 load(1, XDATA, add(CFA_XSP16, literal(-2)))
          CFI (cfiCond20) DPH0 load(1, XDATA, add(CFA_XSP16, literal(-1)))
          CFI (cfiCond20) CFA_SP SP+-2
          CFI (cfiCond20) CFA_XSP16 add(XSP16, 9)
          CFI Block cfiPicker21 Using cfiCommon1
          CFI (cfiPicker21) NoFunction
          CFI (cfiPicker21) Picker
        INC       DPTR
          CFI EndBlock cfiCond19
          CFI EndBlock cfiCond20
          CFI EndBlock cfiPicker21
        REQUIRE ??Subroutine11_0
        ; // Fall through to label ??Subroutine11_0

        RSEG BANKED_CODE:HUGECODE:NOROOT(0)
??Subroutine11_0:
          CFI Block cfiCond22 Using cfiCommon0
          CFI Function zclSampleLight_MoveBasedOnTime
          CFI Conditional ??CrossCallReturnLabel_8
          CFI R6 load(1, XDATA, add(CFA_XSP16, literal(-16)))
          CFI VB load(1, XDATA, add(CFA_XSP16, literal(-15)))
          CFI V0 load(1, XDATA, add(CFA_XSP16, literal(-14)))
          CFI V1 load(1, XDATA, add(CFA_XSP16, literal(-13)))
          CFI V2 load(1, XDATA, add(CFA_XSP16, literal(-12)))
          CFI V3 load(1, XDATA, add(CFA_XSP16, literal(-11)))
          CFI V4 load(1, XDATA, add(CFA_XSP16, literal(-10)))
          CFI V5 load(1, XDATA, add(CFA_XSP16, literal(-9)))
          CFI V6 load(1, XDATA, add(CFA_XSP16, literal(-8)))
          CFI V7 load(1, XDATA, add(CFA_XSP16, literal(-7)))
          CFI R7 load(1, XDATA, add(CFA_XSP16, literal(-6)))
          CFI ?RET_LOW load(1, XDATA, add(CFA_XSP16, literal(-5)))
          CFI ?RET_HIGH load(1, XDATA, add(CFA_XSP16, literal(-4)))
          CFI ?BRET_EXT load(1, XDATA, add(CFA_XSP16, literal(-3)))
          CFI DPL0 load(1, XDATA, add(CFA_XSP16, literal(-2)))
          CFI DPH0 load(1, XDATA, add(CFA_XSP16, literal(-1)))
          CFI CFA_SP SP+-2
          CFI CFA_XSP16 add(XSP16, 16)
          CFI Block cfiCond23 Using cfiCommon0
          CFI (cfiCond23) Function zclSampleLight_MoveBasedOnTime
          CFI (cfiCond23) Conditional ??CrossCallReturnLabel_9
          CFI (cfiCond23) R6 load(1, XDATA, add(CFA_XSP16, literal(-16)))
          CFI (cfiCond23) VB load(1, XDATA, add(CFA_XSP16, literal(-15)))
          CFI (cfiCond23) V0 load(1, XDATA, add(CFA_XSP16, literal(-14)))
          CFI (cfiCond23) V1 load(1, XDATA, add(CFA_XSP16, literal(-13)))
          CFI (cfiCond23) V2 load(1, XDATA, add(CFA_XSP16, literal(-12)))
          CFI (cfiCond23) V3 load(1, XDATA, add(CFA_XSP16, literal(-11)))
          CFI (cfiCond23) V4 load(1, XDATA, add(CFA_XSP16, literal(-10)))
          CFI (cfiCond23) V5 load(1, XDATA, add(CFA_XSP16, literal(-9)))
          CFI (cfiCond23) V6 load(1, XDATA, add(CFA_XSP16, literal(-8)))
          CFI (cfiCond23) V7 load(1, XDATA, add(CFA_XSP16, literal(-7)))
          CFI (cfiCond23) R7 load(1, XDATA, add(CFA_XSP16, literal(-6)))
          CFI (cfiCond23) ?RET_LOW load(1, XDATA, add(CFA_XSP16, literal(-5)))
          CFI (cfiCond23) ?RET_HIGH load(1, XDATA, add(CFA_XSP16, literal(-4)))
          CFI (cfiCond23) ?BRET_EXT load(1, XDATA, add(CFA_XSP16, literal(-3)))
          CFI (cfiCond23) DPL0 load(1, XDATA, add(CFA_XSP16, literal(-2)))
          CFI (cfiCond23) DPH0 load(1, XDATA, add(CFA_XSP16, literal(-1)))
          CFI (cfiCond23) CFA_SP SP+-2
          CFI (cfiCond23) CFA_XSP16 add(XSP16, 16)
          CFI Block cfiCond24 Using cfiCommon0
          CFI (cfiCond24) Function zclSampleLight_ProcessIncomingMsg
          CFI (cfiCond24) Conditional ??CrossCallReturnLabel_10
          CFI (cfiCond24) R6 load(1, XDATA, add(CFA_XSP16, literal(-9)))
          CFI (cfiCond24) VB load(1, XDATA, add(CFA_XSP16, literal(-8)))
          CFI (cfiCond24) V0 load(1, XDATA, add(CFA_XSP16, literal(-7)))
          CFI (cfiCond24) R7 load(1, XDATA, add(CFA_XSP16, literal(-6)))
          CFI (cfiCond24) ?RET_LOW load(1, XDATA, add(CFA_XSP16, literal(-5)))
          CFI (cfiCond24) ?RET_HIGH load(1, XDATA, add(CFA_XSP16, literal(-4)))
          CFI (cfiCond24) ?BRET_EXT load(1, XDATA, add(CFA_XSP16, literal(-3)))
          CFI (cfiCond24) DPL0 load(1, XDATA, add(CFA_XSP16, literal(-2)))
          CFI (cfiCond24) DPH0 load(1, XDATA, add(CFA_XSP16, literal(-1)))
          CFI (cfiCond24) CFA_SP SP+-2
          CFI (cfiCond24) CFA_XSP16 add(XSP16, 9)
          CFI Block cfiCond25 Using cfiCommon0
          CFI (cfiCond25) Function zclSampleLight_LevelControlMoveToLevelCB
          CFI (cfiCond25) Conditional ??CrossCallReturnLabel_11
          CFI (cfiCond25) DPL0 Frame(CFA_SP, 4)
          CFI (cfiCond25) DPH0 Frame(CFA_SP, 5)
          CFI (cfiCond25) CFA_SP SP+-7
          CFI Block cfiCond26 Using cfiCommon0
          CFI (cfiCond26) Function zclSampleLight_LevelControlStepCB
          CFI (cfiCond26) Conditional ??CrossCallReturnLabel_12
          CFI (cfiCond26) R6 load(1, XDATA, add(CFA_XSP16, literal(-9)))
          CFI (cfiCond26) VB load(1, XDATA, add(CFA_XSP16, literal(-8)))
          CFI (cfiCond26) V0 load(1, XDATA, add(CFA_XSP16, literal(-7)))
          CFI (cfiCond26) R7 load(1, XDATA, add(CFA_XSP16, literal(-6)))
          CFI (cfiCond26) ?RET_LOW load(1, XDATA, add(CFA_XSP16, literal(-5)))
          CFI (cfiCond26) ?RET_HIGH load(1, XDATA, add(CFA_XSP16, literal(-4)))
          CFI (cfiCond26) ?BRET_EXT load(1, XDATA, add(CFA_XSP16, literal(-3)))
          CFI (cfiCond26) DPL0 load(1, XDATA, add(CFA_XSP16, literal(-2)))
          CFI (cfiCond26) DPH0 load(1, XDATA, add(CFA_XSP16, literal(-1)))
          CFI (cfiCond26) CFA_SP SP+-2
          CFI (cfiCond26) CFA_XSP16 add(XSP16, 9)
          CFI Block cfiPicker27 Using cfiCommon1
          CFI (cfiPicker27) NoFunction
          CFI (cfiPicker27) Picker
        MOVX      A,@DPTR
        MOV       R2,A
        INC       DPTR
        MOVX      A,@DPTR
        MOV       R3,A
        RET
          CFI EndBlock cfiCond22
          CFI EndBlock cfiCond23
          CFI EndBlock cfiCond24
          CFI EndBlock cfiCond25
          CFI EndBlock cfiCond26
          CFI EndBlock cfiPicker27
//  981 
//  982 /*********************************************************************
//  983  * @fn      zclSampleLight_LevelControlMoveCB
//  984  *
//  985  * @brief   Callback from the ZCL General Cluster Library when
//  986  *          it received a LevelControlMove Command for this application.
//  987  *
//  988  * @param   pCmd - ZigBee command parameters
//  989  *
//  990  * @return  none
//  991  */

        RSEG BANKED_CODE:HUGECODE:NOROOT(0)
//  992 static void zclSampleLight_LevelControlMoveCB( zclLCMove_t *pCmd )
zclSampleLight_LevelControlMoveCB:
          CFI Block cfiBlock28 Using cfiCommon0
          CFI Function zclSampleLight_LevelControlMoveCB
        CODE
//  993 {
        FUNCALL zclSampleLight_LevelControlMoveCB, zclSampleLight_MoveBasedOnRate
        LOCFRAME ISTACK, 0, STACK
        LOCFRAME PSTACK, 0, STACK
        LOCFRAME XSTACK, 16, STACK
        LOCFRAME IOVERLAY, 0, STATIC
        LOCFRAME DOVERLAY, 0, STATIC
        ARGFRAME ISTACK, 0, STACK
        ARGFRAME PSTACK, 0, STACK
        ARGFRAME XSTACK, 16, STACK
        ARGFRAME IOVERLAY, 0, STATIC
        ARGFRAME DOVERLAY, 0, STATIC
        REQUIRE ?V0
        REQUIRE ?V1
        REQUIRE ?V2
        REQUIRE ?V3
        REQUIRE ?V4
        REQUIRE ?V5
        REQUIRE ?V6
        REQUIRE ?V7
        MOV       A,#-0x10
        LCALL     ?BANKED_ENTER_XDATA
          CFI DPH0 load(1, XDATA, add(CFA_XSP16, literal(-1)))
          CFI DPL0 load(1, XDATA, add(CFA_XSP16, literal(-2)))
          CFI ?BRET_EXT load(1, XDATA, add(CFA_XSP16, literal(-3)))
          CFI ?RET_HIGH load(1, XDATA, add(CFA_XSP16, literal(-4)))
          CFI ?RET_LOW load(1, XDATA, add(CFA_XSP16, literal(-5)))
          CFI R7 load(1, XDATA, add(CFA_XSP16, literal(-6)))
          CFI V7 load(1, XDATA, add(CFA_XSP16, literal(-7)))
          CFI V6 load(1, XDATA, add(CFA_XSP16, literal(-8)))
          CFI V5 load(1, XDATA, add(CFA_XSP16, literal(-9)))
          CFI V4 load(1, XDATA, add(CFA_XSP16, literal(-10)))
          CFI V3 load(1, XDATA, add(CFA_XSP16, literal(-11)))
          CFI V2 load(1, XDATA, add(CFA_XSP16, literal(-12)))
          CFI V1 load(1, XDATA, add(CFA_XSP16, literal(-13)))
          CFI V0 load(1, XDATA, add(CFA_XSP16, literal(-14)))
          CFI VB load(1, XDATA, add(CFA_XSP16, literal(-15)))
          CFI R6 load(1, XDATA, add(CFA_XSP16, literal(-16)))
          CFI CFA_SP SP+0
          CFI CFA_XSP16 add(XSP16, 16)
        ; Saved register size: 16
        ; Auto size: 0
//  994   uint8 newLevel;
//  995   uint32 rate;
//  996 
//  997   // convert rate from units per second to units per tick (10ths of seconds)
//  998   // and move at that right up or down
//  999   zclSampleLight_WithOnOff = pCmd->withOnOff;
        MOV       DPL,R2
        MOV       DPH,R3
        INC       DPTR
        INC       DPTR
        MOVX      A,@DPTR
        MOV       DPTR,#zclSampleLight_WithOnOff
        MOVX      @DPTR,A
// 1000 
// 1001   if ( pCmd->moveMode == LEVEL_MOVE_UP )
        MOV       DPL,R2
        MOV       DPH,R3
        MOVX      A,@DPTR
        JNZ       ??zclSampleLight_LevelControlMoveCB_0
// 1002   {
// 1003     newLevel = ATTR_LEVEL_MAX_LEVEL;  // fully on
        MOV       R6,#-0x2
        SJMP      ??zclSampleLight_LevelControlMoveCB_1
// 1004   }
// 1005   else
// 1006   {
// 1007     newLevel = ATTR_LEVEL_MIN_LEVEL; // fully off
??zclSampleLight_LevelControlMoveCB_0:
        MOV       R6,#0x1
// 1008   }
// 1009 
// 1010   zclSampleLight_LevelChangeCmd = LEVEL_CHANGED_BY_LEVEL_CMD;
??zclSampleLight_LevelControlMoveCB_1:
        LCALL     ?Subroutine3 & 0xFFFF
// 1011 
// 1012   rate = (uint32)100 * pCmd->rate;
// 1013   zclSampleLight_MoveBasedOnRate( newLevel, rate );
??CrossCallReturnLabel_13:
        LCALL     ?Subroutine8 & 0xFFFF
??CrossCallReturnLabel_7:
        MOV       DPTR,#__Constant_64
        MOV       R0,#?V4
        LCALL     ?L_MOV_X
        MOV       R0,#?V0
        MOV       R1,#?V4
        LCALL     ?L_MUL
        MOV       R2,?V0
        MOV       R3,?V1
        MOV       R4,?V2
        MOV       R5,?V3
        MOV       A,R6
        MOV       R1,A
        LCALL     `??zclSampleLight_MoveBasedOnRate::?relay`; Banked call to: zclSampleLight_MoveBasedOnRate
// 1014 }
        LJMP      ??Subroutine10_0 & 0xFFFF
          CFI EndBlock cfiBlock28

        RSEG BANKED_CODE:HUGECODE:NOROOT(0)
?Subroutine8:
          CFI Block cfiCond29 Using cfiCommon0
          CFI Function zclSampleLight_TimeRateHelper
          CFI Conditional ??CrossCallReturnLabel_6
          CFI R6 load(1, XDATA, add(CFA_XSP16, literal(-16)))
          CFI VB load(1, XDATA, add(CFA_XSP16, literal(-15)))
          CFI V0 load(1, XDATA, add(CFA_XSP16, literal(-14)))
          CFI V1 load(1, XDATA, add(CFA_XSP16, literal(-13)))
          CFI V2 load(1, XDATA, add(CFA_XSP16, literal(-12)))
          CFI V3 load(1, XDATA, add(CFA_XSP16, literal(-11)))
          CFI V4 load(1, XDATA, add(CFA_XSP16, literal(-10)))
          CFI V5 load(1, XDATA, add(CFA_XSP16, literal(-9)))
          CFI V6 load(1, XDATA, add(CFA_XSP16, literal(-8)))
          CFI V7 load(1, XDATA, add(CFA_XSP16, literal(-7)))
          CFI R7 load(1, XDATA, add(CFA_XSP16, literal(-6)))
          CFI ?RET_LOW load(1, XDATA, add(CFA_XSP16, literal(-5)))
          CFI ?RET_HIGH load(1, XDATA, add(CFA_XSP16, literal(-4)))
          CFI ?BRET_EXT load(1, XDATA, add(CFA_XSP16, literal(-3)))
          CFI DPL0 load(1, XDATA, add(CFA_XSP16, literal(-2)))
          CFI DPH0 load(1, XDATA, add(CFA_XSP16, literal(-1)))
          CFI CFA_SP SP+-2
          CFI CFA_XSP16 add(XSP16, 16)
          CFI Block cfiCond30 Using cfiCommon0
          CFI (cfiCond30) Function zclSampleLight_LevelControlMoveCB
          CFI (cfiCond30) Conditional ??CrossCallReturnLabel_7
          CFI (cfiCond30) R6 load(1, XDATA, add(CFA_XSP16, literal(-16)))
          CFI (cfiCond30) VB load(1, XDATA, add(CFA_XSP16, literal(-15)))
          CFI (cfiCond30) V0 load(1, XDATA, add(CFA_XSP16, literal(-14)))
          CFI (cfiCond30) V1 load(1, XDATA, add(CFA_XSP16, literal(-13)))
          CFI (cfiCond30) V2 load(1, XDATA, add(CFA_XSP16, literal(-12)))
          CFI (cfiCond30) V3 load(1, XDATA, add(CFA_XSP16, literal(-11)))
          CFI (cfiCond30) V4 load(1, XDATA, add(CFA_XSP16, literal(-10)))
          CFI (cfiCond30) V5 load(1, XDATA, add(CFA_XSP16, literal(-9)))
          CFI (cfiCond30) V6 load(1, XDATA, add(CFA_XSP16, literal(-8)))
          CFI (cfiCond30) V7 load(1, XDATA, add(CFA_XSP16, literal(-7)))
          CFI (cfiCond30) R7 load(1, XDATA, add(CFA_XSP16, literal(-6)))
          CFI (cfiCond30) ?RET_LOW load(1, XDATA, add(CFA_XSP16, literal(-5)))
          CFI (cfiCond30) ?RET_HIGH load(1, XDATA, add(CFA_XSP16, literal(-4)))
          CFI (cfiCond30) ?BRET_EXT load(1, XDATA, add(CFA_XSP16, literal(-3)))
          CFI (cfiCond30) DPL0 load(1, XDATA, add(CFA_XSP16, literal(-2)))
          CFI (cfiCond30) DPH0 load(1, XDATA, add(CFA_XSP16, literal(-1)))
          CFI (cfiCond30) CFA_SP SP+-2
          CFI (cfiCond30) CFA_XSP16 add(XSP16, 16)
          CFI Block cfiPicker31 Using cfiCommon1
          CFI (cfiPicker31) NoFunction
          CFI (cfiPicker31) Picker
        MOVX      A,@DPTR
        MOV       ?V0,A
        CLR       A
        MOV       ?V1,A
        MOV       ?V2,A
        MOV       ?V3,A
        RET
          CFI EndBlock cfiCond29
          CFI EndBlock cfiCond30
          CFI EndBlock cfiPicker31

        RSEG BANKED_CODE:HUGECODE:NOROOT(0)
?Subroutine3:
          CFI Block cfiCond32 Using cfiCommon0
          CFI Function zclSampleLight_LevelControlMoveCB
          CFI Conditional ??CrossCallReturnLabel_13
          CFI R6 load(1, XDATA, add(CFA_XSP16, literal(-16)))
          CFI VB load(1, XDATA, add(CFA_XSP16, literal(-15)))
          CFI V0 load(1, XDATA, add(CFA_XSP16, literal(-14)))
          CFI V1 load(1, XDATA, add(CFA_XSP16, literal(-13)))
          CFI V2 load(1, XDATA, add(CFA_XSP16, literal(-12)))
          CFI V3 load(1, XDATA, add(CFA_XSP16, literal(-11)))
          CFI V4 load(1, XDATA, add(CFA_XSP16, literal(-10)))
          CFI V5 load(1, XDATA, add(CFA_XSP16, literal(-9)))
          CFI V6 load(1, XDATA, add(CFA_XSP16, literal(-8)))
          CFI V7 load(1, XDATA, add(CFA_XSP16, literal(-7)))
          CFI R7 load(1, XDATA, add(CFA_XSP16, literal(-6)))
          CFI ?RET_LOW load(1, XDATA, add(CFA_XSP16, literal(-5)))
          CFI ?RET_HIGH load(1, XDATA, add(CFA_XSP16, literal(-4)))
          CFI ?BRET_EXT load(1, XDATA, add(CFA_XSP16, literal(-3)))
          CFI DPL0 load(1, XDATA, add(CFA_XSP16, literal(-2)))
          CFI DPH0 load(1, XDATA, add(CFA_XSP16, literal(-1)))
          CFI CFA_SP SP+-2
          CFI CFA_XSP16 add(XSP16, 16)
          CFI Block cfiCond33 Using cfiCommon0
          CFI (cfiCond33) Function zclSampleLight_LevelControlStepCB
          CFI (cfiCond33) Conditional ??CrossCallReturnLabel_14
          CFI (cfiCond33) R6 load(1, XDATA, add(CFA_XSP16, literal(-9)))
          CFI (cfiCond33) VB load(1, XDATA, add(CFA_XSP16, literal(-8)))
          CFI (cfiCond33) V0 load(1, XDATA, add(CFA_XSP16, literal(-7)))
          CFI (cfiCond33) R7 load(1, XDATA, add(CFA_XSP16, literal(-6)))
          CFI (cfiCond33) ?RET_LOW load(1, XDATA, add(CFA_XSP16, literal(-5)))
          CFI (cfiCond33) ?RET_HIGH load(1, XDATA, add(CFA_XSP16, literal(-4)))
          CFI (cfiCond33) ?BRET_EXT load(1, XDATA, add(CFA_XSP16, literal(-3)))
          CFI (cfiCond33) DPL0 load(1, XDATA, add(CFA_XSP16, literal(-2)))
          CFI (cfiCond33) DPH0 load(1, XDATA, add(CFA_XSP16, literal(-1)))
          CFI (cfiCond33) CFA_SP SP+-2
          CFI (cfiCond33) CFA_XSP16 add(XSP16, 9)
          CFI Block cfiPicker34 Using cfiCommon1
          CFI (cfiPicker34) NoFunction
          CFI (cfiPicker34) Picker
        MOV       DPTR,#zclSampleLight_LevelChangeCmd
        CLR       A
          CFI EndBlock cfiCond32
          CFI EndBlock cfiCond33
          CFI EndBlock cfiPicker34
        REQUIRE ??Subroutine12_0
        ; // Fall through to label ??Subroutine12_0

        RSEG BANKED_CODE:HUGECODE:NOROOT(0)
??Subroutine12_0:
          CFI Block cfiCond35 Using cfiCommon0
          CFI Function zclSampleLight_LevelControlStepCB
          CFI Conditional ??CrossCallReturnLabel_15
          CFI R6 load(1, XDATA, add(CFA_XSP16, literal(-9)))
          CFI VB load(1, XDATA, add(CFA_XSP16, literal(-8)))
          CFI V0 load(1, XDATA, add(CFA_XSP16, literal(-7)))
          CFI R7 load(1, XDATA, add(CFA_XSP16, literal(-6)))
          CFI ?RET_LOW load(1, XDATA, add(CFA_XSP16, literal(-5)))
          CFI ?RET_HIGH load(1, XDATA, add(CFA_XSP16, literal(-4)))
          CFI ?BRET_EXT load(1, XDATA, add(CFA_XSP16, literal(-3)))
          CFI DPL0 load(1, XDATA, add(CFA_XSP16, literal(-2)))
          CFI DPH0 load(1, XDATA, add(CFA_XSP16, literal(-1)))
          CFI CFA_SP SP+-2
          CFI CFA_XSP16 add(XSP16, 9)
          CFI Block cfiCond36 Using cfiCommon0
          CFI (cfiCond36) Function zclSampleLight_LevelControlMoveCB
          CFI (cfiCond36) Conditional ??CrossCallReturnLabel_13
          CFI (cfiCond36) R6 load(1, XDATA, add(CFA_XSP16, literal(-16)))
          CFI (cfiCond36) VB load(1, XDATA, add(CFA_XSP16, literal(-15)))
          CFI (cfiCond36) V0 load(1, XDATA, add(CFA_XSP16, literal(-14)))
          CFI (cfiCond36) V1 load(1, XDATA, add(CFA_XSP16, literal(-13)))
          CFI (cfiCond36) V2 load(1, XDATA, add(CFA_XSP16, literal(-12)))
          CFI (cfiCond36) V3 load(1, XDATA, add(CFA_XSP16, literal(-11)))
          CFI (cfiCond36) V4 load(1, XDATA, add(CFA_XSP16, literal(-10)))
          CFI (cfiCond36) V5 load(1, XDATA, add(CFA_XSP16, literal(-9)))
          CFI (cfiCond36) V6 load(1, XDATA, add(CFA_XSP16, literal(-8)))
          CFI (cfiCond36) V7 load(1, XDATA, add(CFA_XSP16, literal(-7)))
          CFI (cfiCond36) R7 load(1, XDATA, add(CFA_XSP16, literal(-6)))
          CFI (cfiCond36) ?RET_LOW load(1, XDATA, add(CFA_XSP16, literal(-5)))
          CFI (cfiCond36) ?RET_HIGH load(1, XDATA, add(CFA_XSP16, literal(-4)))
          CFI (cfiCond36) ?BRET_EXT load(1, XDATA, add(CFA_XSP16, literal(-3)))
          CFI (cfiCond36) DPL0 load(1, XDATA, add(CFA_XSP16, literal(-2)))
          CFI (cfiCond36) DPH0 load(1, XDATA, add(CFA_XSP16, literal(-1)))
          CFI (cfiCond36) CFA_SP SP+-2
          CFI (cfiCond36) CFA_XSP16 add(XSP16, 16)
          CFI Block cfiCond37 Using cfiCommon0
          CFI (cfiCond37) Function zclSampleLight_LevelControlStepCB
          CFI (cfiCond37) Conditional ??CrossCallReturnLabel_14
          CFI (cfiCond37) R6 load(1, XDATA, add(CFA_XSP16, literal(-9)))
          CFI (cfiCond37) VB load(1, XDATA, add(CFA_XSP16, literal(-8)))
          CFI (cfiCond37) V0 load(1, XDATA, add(CFA_XSP16, literal(-7)))
          CFI (cfiCond37) R7 load(1, XDATA, add(CFA_XSP16, literal(-6)))
          CFI (cfiCond37) ?RET_LOW load(1, XDATA, add(CFA_XSP16, literal(-5)))
          CFI (cfiCond37) ?RET_HIGH load(1, XDATA, add(CFA_XSP16, literal(-4)))
          CFI (cfiCond37) ?BRET_EXT load(1, XDATA, add(CFA_XSP16, literal(-3)))
          CFI (cfiCond37) DPL0 load(1, XDATA, add(CFA_XSP16, literal(-2)))
          CFI (cfiCond37) DPH0 load(1, XDATA, add(CFA_XSP16, literal(-1)))
          CFI (cfiCond37) CFA_SP SP+-2
          CFI (cfiCond37) CFA_XSP16 add(XSP16, 9)
          CFI Block cfiPicker38 Using cfiCommon1
          CFI (cfiPicker38) NoFunction
          CFI (cfiPicker38) Picker
        MOVX      @DPTR,A
        ; Setup parameters for call to function zclSampleLight_MoveBasedOnRate
        ; Setup parameters for call to function zclSampleLight_MoveBasedOnTime
        MOV       DPL,R2
        MOV       DPH,R3
        INC       DPTR
        RET
          CFI EndBlock cfiCond35
          CFI EndBlock cfiCond36
          CFI EndBlock cfiCond37
          CFI EndBlock cfiPicker38
// 1015 
// 1016 /*********************************************************************
// 1017  * @fn      zclSampleLight_LevelControlStepCB
// 1018  *
// 1019  * @brief   Callback from the ZCL General Cluster Library when
// 1020  *          it received an On/Off Command for this application.
// 1021  *
// 1022  * @param   pCmd - ZigBee command parameters
// 1023  *
// 1024  * @return  none
// 1025  */

        RSEG BANKED_CODE:HUGECODE:NOROOT(0)
// 1026 static void zclSampleLight_LevelControlStepCB( zclLCStep_t *pCmd )
zclSampleLight_LevelControlStepCB:
          CFI Block cfiBlock39 Using cfiCommon0
          CFI Function zclSampleLight_LevelControlStepCB
        CODE
// 1027 {
        FUNCALL zclSampleLight_LevelControlStepCB, zclSampleLight_MoveBasedOnTime
        LOCFRAME ISTACK, 0, STACK
        LOCFRAME PSTACK, 0, STACK
        LOCFRAME XSTACK, 9, STACK
        LOCFRAME IOVERLAY, 0, STATIC
        LOCFRAME DOVERLAY, 0, STATIC
        ARGFRAME ISTACK, 0, STACK
        ARGFRAME PSTACK, 0, STACK
        ARGFRAME XSTACK, 9, STACK
        ARGFRAME IOVERLAY, 0, STATIC
        ARGFRAME DOVERLAY, 0, STATIC
        MOV       A,#-0x9
        LCALL     ?BANKED_ENTER_XDATA
          CFI DPH0 load(1, XDATA, add(CFA_XSP16, literal(-1)))
          CFI DPL0 load(1, XDATA, add(CFA_XSP16, literal(-2)))
          CFI ?BRET_EXT load(1, XDATA, add(CFA_XSP16, literal(-3)))
          CFI ?RET_HIGH load(1, XDATA, add(CFA_XSP16, literal(-4)))
          CFI ?RET_LOW load(1, XDATA, add(CFA_XSP16, literal(-5)))
          CFI R7 load(1, XDATA, add(CFA_XSP16, literal(-6)))
          CFI V0 load(1, XDATA, add(CFA_XSP16, literal(-7)))
          CFI VB load(1, XDATA, add(CFA_XSP16, literal(-8)))
          CFI R6 load(1, XDATA, add(CFA_XSP16, literal(-9)))
          CFI CFA_SP SP+0
          CFI CFA_XSP16 add(XSP16, 9)
        ; Saved register size: 9
        ; Auto size: 0
// 1028   uint8 newLevel;
// 1029 
// 1030   // determine new level, but don't exceed boundaries
// 1031   if ( pCmd->stepMode == LEVEL_MOVE_UP )
        MOV       DPL,R2
        MOV       DPH,R3
        INC       DPTR
        MOVX      A,@DPTR
        MOV       R4,A
        MOV       DPL,R2
        MOV       DPH,R3
        MOVX      A,@DPTR
        MOV       DPTR,#zclSampleLight_LevelCurrentLevel
        JNZ       ??zclSampleLight_LevelControlStepCB_0
// 1032   {
// 1033     if ( (uint16)zclSampleLight_LevelCurrentLevel + pCmd->amount > ATTR_LEVEL_MAX_LEVEL )
        MOVX      A,@DPTR
        ADD       A,R4
        MOV       R0,A
        CLR       A
        ADDC      A,#0x0
        MOV       R1,A
        MOV       A,R0
        SUBB      A,#-0x1
        MOV       A,R1
        SUBB      A,#0x0
        JC        ??zclSampleLight_LevelControlStepCB_1
// 1034     {
// 1035       newLevel = ATTR_LEVEL_MAX_LEVEL;
        MOV       R1,#-0x2
        SJMP      ??zclSampleLight_LevelControlStepCB_2
// 1036     }
// 1037     else
// 1038     {
// 1039       newLevel = zclSampleLight_LevelCurrentLevel + pCmd->amount;
??zclSampleLight_LevelControlStepCB_1:
        MOVX      A,@DPTR
        ADD       A,R4
        SJMP      ??zclSampleLight_LevelControlStepCB_3
// 1040     }
// 1041   }
// 1042   else
// 1043   {
// 1044     if ( pCmd->amount >= zclSampleLight_LevelCurrentLevel )
??zclSampleLight_LevelControlStepCB_0:
        MOVX      A,@DPTR
        MOV       R0,A
        MOV       A,R4
        CLR       C
        SUBB      A,R0
        JC        ??zclSampleLight_LevelControlStepCB_4
// 1045     {
// 1046       newLevel = ATTR_LEVEL_MIN_LEVEL;
        MOV       R1,#0x1
        SJMP      ??zclSampleLight_LevelControlStepCB_2
// 1047     }
// 1048     else
// 1049     {
// 1050       newLevel = zclSampleLight_LevelCurrentLevel - pCmd->amount;
??zclSampleLight_LevelControlStepCB_4:
        MOVX      A,@DPTR
        CLR       C
        SUBB      A,R4
??zclSampleLight_LevelControlStepCB_3:
        MOV       R1,A
// 1051     }
// 1052   }
// 1053   
// 1054   zclSampleLight_LevelChangeCmd = LEVEL_CHANGED_BY_LEVEL_CMD;
??zclSampleLight_LevelControlStepCB_2:
        LCALL     ?Subroutine3 & 0xFFFF
// 1055 
// 1056   // move to the new level
// 1057   zclSampleLight_WithOnOff = pCmd->withOnOff;
??CrossCallReturnLabel_14:
        INC       DPTR
        INC       DPTR
        INC       DPTR
        MOVX      A,@DPTR
        MOV       DPTR,#zclSampleLight_WithOnOff
        LCALL     ??Subroutine12_0 & 0xFFFF
// 1058   zclSampleLight_MoveBasedOnTime( newLevel, pCmd->transitionTime );
??CrossCallReturnLabel_15:
        LCALL     ?Subroutine5 & 0xFFFF
??CrossCallReturnLabel_12:
        LCALL     `??zclSampleLight_MoveBasedOnTime::?relay`; Banked call to: zclSampleLight_MoveBasedOnTime
// 1059 }
        LJMP      ?Subroutine1 & 0xFFFF
          CFI EndBlock cfiBlock39
// 1060 
// 1061 /*********************************************************************
// 1062  * @fn      zclSampleLight_LevelControlStopCB
// 1063  *
// 1064  * @brief   Callback from the ZCL General Cluster Library when
// 1065  *          it received an Level Control Stop Command for this application.
// 1066  *
// 1067  * @param   pCmd - ZigBee command parameters
// 1068  *
// 1069  * @return  none
// 1070  */

        RSEG BANKED_CODE:HUGECODE:NOROOT(0)
// 1071 static void zclSampleLight_LevelControlStopCB( void )
zclSampleLight_LevelControlStopCB:
          CFI Block cfiBlock40 Using cfiCommon0
          CFI Function zclSampleLight_LevelControlStopCB
        CODE
// 1072 {
        FUNCALL zclSampleLight_LevelControlStopCB, osal_stop_timerEx
        LOCFRAME ISTACK, 2, STACK
        LOCFRAME PSTACK, 0, STACK
        LOCFRAME XSTACK, 0, STACK
        LOCFRAME IOVERLAY, 0, STATIC
        LOCFRAME DOVERLAY, 0, STATIC
        ARGFRAME ISTACK, 2, STACK
        ARGFRAME PSTACK, 0, STACK
        ARGFRAME XSTACK, 0, STACK
        ARGFRAME IOVERLAY, 0, STATIC
        ARGFRAME DOVERLAY, 0, STATIC
        PUSH      DPL
          CFI DPL0 Frame(CFA_SP, 4)
          CFI CFA_SP SP+-4
        PUSH      DPH
          CFI DPH0 Frame(CFA_SP, 5)
          CFI CFA_SP SP+-5
        ; Saved register size: 2
        ; Auto size: 0
// 1073   // stop immediately
// 1074   osal_stop_timerEx( zclSampleLight_TaskID, SAMPLELIGHT_LEVEL_CTRL_EVT );
        ; Setup parameters for call to function osal_stop_timerEx
        MOV       R2,#0x2
        MOV       R3,#0x0
        MOV       DPTR,#zclSampleLight_TaskID
        MOVX      A,@DPTR
        MOV       R1,A
        LCALL     `??osal_stop_timerEx::?relay`; Banked call to: osal_stop_timerEx
// 1075   zclSampleLight_LevelRemainingTime = 0;
        MOV       DPTR,#zclSampleLight_LevelRemainingTime
        CLR       A
        MOVX      @DPTR,A
        INC       DPTR
        MOVX      @DPTR,A
// 1076 }
        LJMP      ?Subroutine0 & 0xFFFF
          CFI EndBlock cfiBlock40
// 1077 #endif
// 1078 
// 1079 /*********************************************************************
// 1080  * @fn      zclSampleApp_BatteryWarningCB
// 1081  *
// 1082  * @brief   Called to handle battery-low situation.
// 1083  *
// 1084  * @param   voltLevel - level of severity
// 1085  *
// 1086  * @return  none
// 1087  */

        RSEG BANKED_CODE:HUGECODE:NOROOT(0)
// 1088 void zclSampleApp_BatteryWarningCB( uint8 voltLevel )
zclSampleApp_BatteryWarningCB:
          CFI Block cfiBlock41 Using cfiCommon0
          CFI Function zclSampleApp_BatteryWarningCB
        CODE
// 1089 {
        ; Saved register size: 0
        ; Auto size: 0
// 1090   if ( voltLevel == VOLT_LEVEL_CAUTIOUS )
// 1091   {
// 1092     // Send warning message to the gateway and blink LED
// 1093   }
// 1094   else if ( voltLevel == VOLT_LEVEL_BAD )
// 1095   {
// 1096     // Shut down the system
// 1097   }
// 1098 }
        LJMP      ?BRET
          CFI EndBlock cfiBlock41
// 1099 
// 1100 /******************************************************************************
// 1101  *
// 1102  *  Functions for processing ZCL Foundation incoming Command/Response messages
// 1103  *
// 1104  *****************************************************************************/
// 1105 
// 1106 /*********************************************************************
// 1107  * @fn      zclSampleLight_ProcessIncomingMsg
// 1108  *
// 1109  * @brief   Process ZCL Foundation incoming message
// 1110  *
// 1111  * @param   pInMsg - pointer to the received message
// 1112  *
// 1113  * @return  none
// 1114  */

        RSEG BANKED_CODE:HUGECODE:NOROOT(0)
// 1115 static void zclSampleLight_ProcessIncomingMsg( zclIncomingMsg_t *pInMsg )
zclSampleLight_ProcessIncomingMsg:
          CFI Block cfiBlock42 Using cfiCommon0
          CFI Function zclSampleLight_ProcessIncomingMsg
        CODE
// 1116 {
        FUNCALL zclSampleLight_ProcessIncomingMsg, zclSampleLight_ProcessInDiscCmdsRspCmd
        LOCFRAME ISTACK, 0, STACK
        LOCFRAME PSTACK, 0, STACK
        LOCFRAME XSTACK, 9, STACK
        LOCFRAME IOVERLAY, 0, STATIC
        LOCFRAME DOVERLAY, 0, STATIC
        ARGFRAME ISTACK, 0, STACK
        ARGFRAME PSTACK, 0, STACK
        ARGFRAME XSTACK, 9, STACK
        ARGFRAME IOVERLAY, 0, STATIC
        ARGFRAME DOVERLAY, 0, STATIC
        FUNCALL zclSampleLight_ProcessIncomingMsg, zclSampleLight_ProcessInDiscCmdsRspCmd
        LOCFRAME ISTACK, 0, STACK
        LOCFRAME PSTACK, 0, STACK
        LOCFRAME XSTACK, 9, STACK
        LOCFRAME IOVERLAY, 0, STATIC
        LOCFRAME DOVERLAY, 0, STATIC
        ARGFRAME ISTACK, 0, STACK
        ARGFRAME PSTACK, 0, STACK
        ARGFRAME XSTACK, 9, STACK
        ARGFRAME IOVERLAY, 0, STATIC
        ARGFRAME DOVERLAY, 0, STATIC
        FUNCALL zclSampleLight_ProcessIncomingMsg, osal_mem_free
        LOCFRAME ISTACK, 0, STACK
        LOCFRAME PSTACK, 0, STACK
        LOCFRAME XSTACK, 9, STACK
        LOCFRAME IOVERLAY, 0, STATIC
        LOCFRAME DOVERLAY, 0, STATIC
        ARGFRAME ISTACK, 0, STACK
        ARGFRAME PSTACK, 0, STACK
        ARGFRAME XSTACK, 9, STACK
        ARGFRAME IOVERLAY, 0, STATIC
        ARGFRAME DOVERLAY, 0, STATIC
        MOV       A,#-0x9
        LCALL     ?BANKED_ENTER_XDATA
          CFI DPH0 load(1, XDATA, add(CFA_XSP16, literal(-1)))
          CFI DPL0 load(1, XDATA, add(CFA_XSP16, literal(-2)))
          CFI ?BRET_EXT load(1, XDATA, add(CFA_XSP16, literal(-3)))
          CFI ?RET_HIGH load(1, XDATA, add(CFA_XSP16, literal(-4)))
          CFI ?RET_LOW load(1, XDATA, add(CFA_XSP16, literal(-5)))
          CFI R7 load(1, XDATA, add(CFA_XSP16, literal(-6)))
          CFI V0 load(1, XDATA, add(CFA_XSP16, literal(-7)))
          CFI VB load(1, XDATA, add(CFA_XSP16, literal(-8)))
          CFI R6 load(1, XDATA, add(CFA_XSP16, literal(-9)))
          CFI CFA_SP SP+0
          CFI CFA_XSP16 add(XSP16, 9)
        ; Saved register size: 9
        ; Auto size: 0
// 1117   switch ( pInMsg->zclHdr.commandID )
        MOV       A,R2
        ADD       A,#0x17
        MOV       R0,A
        CLR       A
        ADDC      A,R3
        MOV       R1,A
        MOV       A,R0
        MOV       R6,A
        MOV       A,R1
        MOV       R7,A
        MOV       DPL,R2
        MOV       DPH,R3
        INC       DPTR
        INC       DPTR
        INC       DPTR
        INC       DPTR
        INC       DPTR
        INC       DPTR
        INC       DPTR
        MOVX      A,@DPTR
        DEC       A
        JZ        ??zclSampleLight_ProcessIncomingMsg_0
        ADD       A,#-0x3
        JZ        ??zclSampleLight_ProcessIncomingMsg_1
        ADD       A,#-0x9
        JZ        ??zclSampleLight_ProcessIncomingMsg_2
        ADD       A,#-0x5
        JZ        ??zclSampleLight_ProcessIncomingMsg_3
        ADD       A,#-0x2
        JZ        ??zclSampleLight_ProcessIncomingMsg_3
        ADD       A,#-0x2
        JZ        ??zclSampleLight_ProcessIncomingMsg_4
        SJMP      ??zclSampleLight_ProcessIncomingMsg_5
// 1118   {
// 1119 #ifdef ZCL_READ
// 1120     case ZCL_CMD_READ_RSP:
// 1121       zclSampleLight_ProcessInReadRspCmd( pInMsg );
??zclSampleLight_ProcessIncomingMsg_0:
        LCALL     ?Subroutine6 & 0xFFFF
??CrossCallReturnLabel_4:
        MOVX      A,@DPTR
        MOV       R1,A
        MOV       A,R0
        CLR       C
        SUBB      A,R1
        JNC       ??zclSampleLight_ProcessIncomingMsg_5
        INC       R0
        SJMP      ??CrossCallReturnLabel_4
// 1122       break;
// 1123 #endif
// 1124 #ifdef ZCL_WRITE
// 1125     case ZCL_CMD_WRITE_RSP:
// 1126       zclSampleLight_ProcessInWriteRspCmd( pInMsg );
??zclSampleLight_ProcessIncomingMsg_1:
        LCALL     ?Subroutine6 & 0xFFFF
??CrossCallReturnLabel_5:
        MOVX      A,@DPTR
        MOV       R1,A
        MOV       A,R0
        CLR       C
        SUBB      A,R1
        JNC       ??zclSampleLight_ProcessIncomingMsg_5
        INC       R0
        SJMP      ??CrossCallReturnLabel_5
// 1127       break;
// 1128 #endif
// 1129     case ZCL_CMD_CONFIG_REPORT:
// 1130     case ZCL_CMD_CONFIG_REPORT_RSP:
// 1131     case ZCL_CMD_READ_REPORT_CFG:
// 1132     case ZCL_CMD_READ_REPORT_CFG_RSP:
// 1133     case ZCL_CMD_REPORT:
// 1134       //bdb_ProcessIncomingReportingMsg( pInMsg );
// 1135       break;
// 1136 
// 1137     case ZCL_CMD_DEFAULT_RSP:
// 1138       zclSampleLight_ProcessInDefaultRspCmd( pInMsg );
// 1139       break;
// 1140 #ifdef ZCL_DISCOVER
// 1141     case ZCL_CMD_DISCOVER_CMDS_RECEIVED_RSP:
// 1142       zclSampleLight_ProcessInDiscCmdsRspCmd( pInMsg );
??zclSampleLight_ProcessIncomingMsg_3:
        ; Setup parameters for call to function zclSampleLight_ProcessInDiscCmdsRspCmd
// 1143       break;
// 1144 
// 1145     case ZCL_CMD_DISCOVER_CMDS_GEN_RSP:
// 1146       zclSampleLight_ProcessInDiscCmdsRspCmd( pInMsg );
        ; Setup parameters for call to function zclSampleLight_ProcessInDiscCmdsRspCmd
        LCALL     `??zclSampleLight_ProcessInDiscCmdsRspCmd::?rela`; Banked call to: zclSampleLight_ProcessInDiscCmdsRspCmd
// 1147       break;
        SJMP      ??zclSampleLight_ProcessIncomingMsg_5
// 1148 
// 1149     case ZCL_CMD_DISCOVER_ATTRS_RSP:
// 1150       zclSampleLight_ProcessInDiscAttrsRspCmd( pInMsg );
??zclSampleLight_ProcessIncomingMsg_2:
        LCALL     ?Subroutine7 & 0xFFFF
??CrossCallReturnLabel_17:
        MOV       DPL,R0
        MOV       DPH,R1
        INC       DPTR
        MOVX      A,@DPTR
        MOV       R3,A
        MOV       A,R2
        CLR       C
        SUBB      A,R3
        JNC       ??zclSampleLight_ProcessIncomingMsg_5
        INC       R2
        SJMP      ??CrossCallReturnLabel_17
// 1151       break;
// 1152 
// 1153     case ZCL_CMD_DISCOVER_ATTRS_EXT_RSP:
// 1154       zclSampleLight_ProcessInDiscAttrsExtRspCmd( pInMsg );
??zclSampleLight_ProcessIncomingMsg_4:
        LCALL     ?Subroutine7 & 0xFFFF
// 1155       break;
// 1156 #endif
// 1157     default:
// 1158       break;
// 1159   }
??CrossCallReturnLabel_18:
        SJMP      ??zclSampleLight_ProcessIncomingMsg_6
??zclSampleLight_ProcessIncomingMsg_7:
        INC       R2
??zclSampleLight_ProcessIncomingMsg_6:
        MOV       DPL,R0
        MOV       DPH,R1
        INC       DPTR
        MOVX      A,@DPTR
        MOV       R3,A
        MOV       A,R2
        CLR       C
        SUBB      A,R3
        JC        ??zclSampleLight_ProcessIncomingMsg_7
// 1160 
// 1161   if ( pInMsg->attrCmd )
??zclSampleLight_ProcessIncomingMsg_5:
        MOV       DPL,R6
        MOV       DPH,R7
        LCALL     ??Subroutine11_0 & 0xFFFF
??CrossCallReturnLabel_10:
        MOV       A,R2
        ORL       A,R3
        JZ        ??zclSampleLight_ProcessIncomingMsg_8
// 1162     osal_mem_free( pInMsg->attrCmd );
        ; Setup parameters for call to function osal_mem_free
        LCALL     `??osal_mem_free::?relay`; Banked call to: osal_mem_free
// 1163 }
??zclSampleLight_ProcessIncomingMsg_8:
          CFI EndBlock cfiBlock42
        REQUIRE ?Subroutine1
        ; // Fall through to label ?Subroutine1

        RSEG BANKED_CODE:HUGECODE:NOROOT(0)
?Subroutine1:
          CFI Block cfiBlock43 Using cfiCommon0
          CFI NoFunction
          CFI CFA_SP SP+0
          CFI CFA_XSP16 add(XSP16, 9)
          CFI VB load(1, XDATA, add(CFA_XSP16, literal(-8)))
          CFI DPL0 load(1, XDATA, add(CFA_XSP16, literal(-2)))
          CFI DPH0 load(1, XDATA, add(CFA_XSP16, literal(-1)))
          CFI R6 load(1, XDATA, add(CFA_XSP16, literal(-9)))
          CFI R7 load(1, XDATA, add(CFA_XSP16, literal(-6)))
          CFI V0 load(1, XDATA, add(CFA_XSP16, literal(-7)))
          CFI ?BRET_EXT load(1, XDATA, add(CFA_XSP16, literal(-3)))
          CFI ?RET_HIGH load(1, XDATA, add(CFA_XSP16, literal(-4)))
          CFI ?RET_LOW load(1, XDATA, add(CFA_XSP16, literal(-5)))
        MOV       R7,#0x1
        LJMP      ?BANKED_LEAVE_XDATA
          CFI EndBlock cfiBlock43

        RSEG BANKED_CODE:HUGECODE:NOROOT(0)
?Subroutine7:
          CFI Block cfiCond44 Using cfiCommon0
          CFI Function zclSampleLight_ProcessIncomingMsg
          CFI Conditional ??CrossCallReturnLabel_17
          CFI R6 load(1, XDATA, add(CFA_XSP16, literal(-9)))
          CFI VB load(1, XDATA, add(CFA_XSP16, literal(-8)))
          CFI V0 load(1, XDATA, add(CFA_XSP16, literal(-7)))
          CFI R7 load(1, XDATA, add(CFA_XSP16, literal(-6)))
          CFI ?RET_LOW load(1, XDATA, add(CFA_XSP16, literal(-5)))
          CFI ?RET_HIGH load(1, XDATA, add(CFA_XSP16, literal(-4)))
          CFI ?BRET_EXT load(1, XDATA, add(CFA_XSP16, literal(-3)))
          CFI DPL0 load(1, XDATA, add(CFA_XSP16, literal(-2)))
          CFI DPH0 load(1, XDATA, add(CFA_XSP16, literal(-1)))
          CFI CFA_SP SP+-2
          CFI CFA_XSP16 add(XSP16, 9)
          CFI Block cfiCond45 Using cfiCommon0
          CFI (cfiCond45) Function zclSampleLight_ProcessIncomingMsg
          CFI (cfiCond45) Conditional ??CrossCallReturnLabel_18
          CFI (cfiCond45) R6 load(1, XDATA, add(CFA_XSP16, literal(-9)))
          CFI (cfiCond45) VB load(1, XDATA, add(CFA_XSP16, literal(-8)))
          CFI (cfiCond45) V0 load(1, XDATA, add(CFA_XSP16, literal(-7)))
          CFI (cfiCond45) R7 load(1, XDATA, add(CFA_XSP16, literal(-6)))
          CFI (cfiCond45) ?RET_LOW load(1, XDATA, add(CFA_XSP16, literal(-5)))
          CFI (cfiCond45) ?RET_HIGH load(1, XDATA, add(CFA_XSP16, literal(-4)))
          CFI (cfiCond45) ?BRET_EXT load(1, XDATA, add(CFA_XSP16, literal(-3)))
          CFI (cfiCond45) DPL0 load(1, XDATA, add(CFA_XSP16, literal(-2)))
          CFI (cfiCond45) DPH0 load(1, XDATA, add(CFA_XSP16, literal(-1)))
          CFI (cfiCond45) CFA_SP SP+-2
          CFI (cfiCond45) CFA_XSP16 add(XSP16, 9)
          CFI Block cfiPicker46 Using cfiCommon1
          CFI (cfiPicker46) NoFunction
          CFI (cfiPicker46) Picker
        MOV       DPL,R6
        MOV       DPH,R7
          CFI EndBlock cfiCond44
          CFI EndBlock cfiCond45
          CFI EndBlock cfiPicker46
        REQUIRE ??Subroutine13_0
        ; // Fall through to label ??Subroutine13_0

        RSEG BANKED_CODE:HUGECODE:NOROOT(0)
??Subroutine13_0:
          CFI Block cfiCond47 Using cfiCommon0
          CFI Function zclSampleLight_ProcessInDiscCmdsRspCmd
          CFI Conditional ??CrossCallReturnLabel_16
          CFI DPL0 Frame(CFA_SP, 4)
          CFI DPH0 Frame(CFA_SP, 5)
          CFI CFA_SP SP+-7
          CFI Block cfiCond48 Using cfiCommon0
          CFI (cfiCond48) Function zclSampleLight_ProcessIncomingMsg
          CFI (cfiCond48) Conditional ??CrossCallReturnLabel_17
          CFI (cfiCond48) R6 load(1, XDATA, add(CFA_XSP16, literal(-9)))
          CFI (cfiCond48) VB load(1, XDATA, add(CFA_XSP16, literal(-8)))
          CFI (cfiCond48) V0 load(1, XDATA, add(CFA_XSP16, literal(-7)))
          CFI (cfiCond48) R7 load(1, XDATA, add(CFA_XSP16, literal(-6)))
          CFI (cfiCond48) ?RET_LOW load(1, XDATA, add(CFA_XSP16, literal(-5)))
          CFI (cfiCond48) ?RET_HIGH load(1, XDATA, add(CFA_XSP16, literal(-4)))
          CFI (cfiCond48) ?BRET_EXT load(1, XDATA, add(CFA_XSP16, literal(-3)))
          CFI (cfiCond48) DPL0 load(1, XDATA, add(CFA_XSP16, literal(-2)))
          CFI (cfiCond48) DPH0 load(1, XDATA, add(CFA_XSP16, literal(-1)))
          CFI (cfiCond48) CFA_SP SP+-2
          CFI (cfiCond48) CFA_XSP16 add(XSP16, 9)
          CFI Block cfiCond49 Using cfiCommon0
          CFI (cfiCond49) Function zclSampleLight_ProcessIncomingMsg
          CFI (cfiCond49) Conditional ??CrossCallReturnLabel_18
          CFI (cfiCond49) R6 load(1, XDATA, add(CFA_XSP16, literal(-9)))
          CFI (cfiCond49) VB load(1, XDATA, add(CFA_XSP16, literal(-8)))
          CFI (cfiCond49) V0 load(1, XDATA, add(CFA_XSP16, literal(-7)))
          CFI (cfiCond49) R7 load(1, XDATA, add(CFA_XSP16, literal(-6)))
          CFI (cfiCond49) ?RET_LOW load(1, XDATA, add(CFA_XSP16, literal(-5)))
          CFI (cfiCond49) ?RET_HIGH load(1, XDATA, add(CFA_XSP16, literal(-4)))
          CFI (cfiCond49) ?BRET_EXT load(1, XDATA, add(CFA_XSP16, literal(-3)))
          CFI (cfiCond49) DPL0 load(1, XDATA, add(CFA_XSP16, literal(-2)))
          CFI (cfiCond49) DPH0 load(1, XDATA, add(CFA_XSP16, literal(-1)))
          CFI (cfiCond49) CFA_SP SP+-2
          CFI (cfiCond49) CFA_XSP16 add(XSP16, 9)
          CFI Block cfiPicker50 Using cfiCommon1
          CFI (cfiPicker50) NoFunction
          CFI (cfiPicker50) Picker
        LCALL     ?Subroutine9 & 0xFFFF
??CrossCallReturnLabel_24:
        MOV       R2,#0x0
        RET
          CFI EndBlock cfiCond47
          CFI EndBlock cfiCond48
          CFI EndBlock cfiCond49
          CFI EndBlock cfiPicker50

        RSEG BANKED_CODE:HUGECODE:NOROOT(0)
?Subroutine9:
          CFI Block cfiCond51 Using cfiCommon0
          CFI Function zclSampleLight_OnOffCB
          CFI Conditional ??CrossCallReturnLabel_19
          CFI R6 load(1, XDATA, add(CFA_XSP16, literal(-16)))
          CFI VB load(1, XDATA, add(CFA_XSP16, literal(-15)))
          CFI V0 load(1, XDATA, add(CFA_XSP16, literal(-14)))
          CFI V1 load(1, XDATA, add(CFA_XSP16, literal(-13)))
          CFI V2 load(1, XDATA, add(CFA_XSP16, literal(-12)))
          CFI V3 load(1, XDATA, add(CFA_XSP16, literal(-11)))
          CFI V4 load(1, XDATA, add(CFA_XSP16, literal(-10)))
          CFI V5 load(1, XDATA, add(CFA_XSP16, literal(-9)))
          CFI V6 load(1, XDATA, add(CFA_XSP16, literal(-8)))
          CFI V7 load(1, XDATA, add(CFA_XSP16, literal(-7)))
          CFI R7 load(1, XDATA, add(CFA_XSP16, literal(-6)))
          CFI ?RET_LOW load(1, XDATA, add(CFA_XSP16, literal(-5)))
          CFI ?RET_HIGH load(1, XDATA, add(CFA_XSP16, literal(-4)))
          CFI ?BRET_EXT load(1, XDATA, add(CFA_XSP16, literal(-3)))
          CFI DPL0 load(1, XDATA, add(CFA_XSP16, literal(-2)))
          CFI DPH0 load(1, XDATA, add(CFA_XSP16, literal(-1)))
          CFI CFA_SP SP+-2
          CFI CFA_XSP16 add(XSP16, 16)
          CFI Block cfiCond52 Using cfiCommon0
          CFI (cfiCond52) Function zclSampleLight_OnOffCB
          CFI (cfiCond52) Conditional ??CrossCallReturnLabel_20
          CFI (cfiCond52) R6 load(1, XDATA, add(CFA_XSP16, literal(-16)))
          CFI (cfiCond52) VB load(1, XDATA, add(CFA_XSP16, literal(-15)))
          CFI (cfiCond52) V0 load(1, XDATA, add(CFA_XSP16, literal(-14)))
          CFI (cfiCond52) V1 load(1, XDATA, add(CFA_XSP16, literal(-13)))
          CFI (cfiCond52) V2 load(1, XDATA, add(CFA_XSP16, literal(-12)))
          CFI (cfiCond52) V3 load(1, XDATA, add(CFA_XSP16, literal(-11)))
          CFI (cfiCond52) V4 load(1, XDATA, add(CFA_XSP16, literal(-10)))
          CFI (cfiCond52) V5 load(1, XDATA, add(CFA_XSP16, literal(-9)))
          CFI (cfiCond52) V6 load(1, XDATA, add(CFA_XSP16, literal(-8)))
          CFI (cfiCond52) V7 load(1, XDATA, add(CFA_XSP16, literal(-7)))
          CFI (cfiCond52) R7 load(1, XDATA, add(CFA_XSP16, literal(-6)))
          CFI (cfiCond52) ?RET_LOW load(1, XDATA, add(CFA_XSP16, literal(-5)))
          CFI (cfiCond52) ?RET_HIGH load(1, XDATA, add(CFA_XSP16, literal(-4)))
          CFI (cfiCond52) ?BRET_EXT load(1, XDATA, add(CFA_XSP16, literal(-3)))
          CFI (cfiCond52) DPL0 load(1, XDATA, add(CFA_XSP16, literal(-2)))
          CFI (cfiCond52) DPH0 load(1, XDATA, add(CFA_XSP16, literal(-1)))
          CFI (cfiCond52) CFA_SP SP+-2
          CFI (cfiCond52) CFA_XSP16 add(XSP16, 16)
          CFI Block cfiCond53 Using cfiCommon0
          CFI (cfiCond53) Function zclSampleLight_OnOffCB
          CFI (cfiCond53) Conditional ??CrossCallReturnLabel_21
          CFI (cfiCond53) R6 load(1, XDATA, add(CFA_XSP16, literal(-16)))
          CFI (cfiCond53) VB load(1, XDATA, add(CFA_XSP16, literal(-15)))
          CFI (cfiCond53) V0 load(1, XDATA, add(CFA_XSP16, literal(-14)))
          CFI (cfiCond53) V1 load(1, XDATA, add(CFA_XSP16, literal(-13)))
          CFI (cfiCond53) V2 load(1, XDATA, add(CFA_XSP16, literal(-12)))
          CFI (cfiCond53) V3 load(1, XDATA, add(CFA_XSP16, literal(-11)))
          CFI (cfiCond53) V4 load(1, XDATA, add(CFA_XSP16, literal(-10)))
          CFI (cfiCond53) V5 load(1, XDATA, add(CFA_XSP16, literal(-9)))
          CFI (cfiCond53) V6 load(1, XDATA, add(CFA_XSP16, literal(-8)))
          CFI (cfiCond53) V7 load(1, XDATA, add(CFA_XSP16, literal(-7)))
          CFI (cfiCond53) R7 load(1, XDATA, add(CFA_XSP16, literal(-6)))
          CFI (cfiCond53) ?RET_LOW load(1, XDATA, add(CFA_XSP16, literal(-5)))
          CFI (cfiCond53) ?RET_HIGH load(1, XDATA, add(CFA_XSP16, literal(-4)))
          CFI (cfiCond53) ?BRET_EXT load(1, XDATA, add(CFA_XSP16, literal(-3)))
          CFI (cfiCond53) DPL0 load(1, XDATA, add(CFA_XSP16, literal(-2)))
          CFI (cfiCond53) DPH0 load(1, XDATA, add(CFA_XSP16, literal(-1)))
          CFI (cfiCond53) CFA_SP SP+-2
          CFI (cfiCond53) CFA_XSP16 add(XSP16, 16)
          CFI Block cfiCond54 Using cfiCommon0
          CFI (cfiCond54) Function zclSampleLight_OnOffCB
          CFI (cfiCond54) Conditional ??CrossCallReturnLabel_22, ??CrossCallReturnLabel_0
          CFI (cfiCond54) R6 load(1, XDATA, add(CFA_XSP16, literal(-16)))
          CFI (cfiCond54) VB load(1, XDATA, add(CFA_XSP16, literal(-15)))
          CFI (cfiCond54) V0 load(1, XDATA, add(CFA_XSP16, literal(-14)))
          CFI (cfiCond54) V1 load(1, XDATA, add(CFA_XSP16, literal(-13)))
          CFI (cfiCond54) V2 load(1, XDATA, add(CFA_XSP16, literal(-12)))
          CFI (cfiCond54) V3 load(1, XDATA, add(CFA_XSP16, literal(-11)))
          CFI (cfiCond54) V4 load(1, XDATA, add(CFA_XSP16, literal(-10)))
          CFI (cfiCond54) V5 load(1, XDATA, add(CFA_XSP16, literal(-9)))
          CFI (cfiCond54) V6 load(1, XDATA, add(CFA_XSP16, literal(-8)))
          CFI (cfiCond54) V7 load(1, XDATA, add(CFA_XSP16, literal(-7)))
          CFI (cfiCond54) R7 load(1, XDATA, add(CFA_XSP16, literal(-6)))
          CFI (cfiCond54) ?RET_LOW load(1, XDATA, add(CFA_XSP16, literal(-5)))
          CFI (cfiCond54) ?RET_HIGH load(1, XDATA, add(CFA_XSP16, literal(-4)))
          CFI (cfiCond54) ?BRET_EXT load(1, XDATA, add(CFA_XSP16, literal(-3)))
          CFI (cfiCond54) DPL0 load(1, XDATA, add(CFA_XSP16, literal(-2)))
          CFI (cfiCond54) DPH0 load(1, XDATA, add(CFA_XSP16, literal(-1)))
          CFI (cfiCond54) CFA_SP SP+-4
          CFI (cfiCond54) CFA_XSP16 add(XSP16, 16)
          CFI Block cfiCond55 Using cfiCommon0
          CFI (cfiCond55) Function zclSampleLight_MoveBasedOnRate
          CFI (cfiCond55) Conditional ??CrossCallReturnLabel_22, ??CrossCallReturnLabel_1
          CFI (cfiCond55) R6 load(1, XDATA, add(CFA_XSP16, literal(-16)))
          CFI (cfiCond55) VB load(1, XDATA, add(CFA_XSP16, literal(-15)))
          CFI (cfiCond55) V0 load(1, XDATA, add(CFA_XSP16, literal(-14)))
          CFI (cfiCond55) V1 load(1, XDATA, add(CFA_XSP16, literal(-13)))
          CFI (cfiCond55) V2 load(1, XDATA, add(CFA_XSP16, literal(-12)))
          CFI (cfiCond55) V3 load(1, XDATA, add(CFA_XSP16, literal(-11)))
          CFI (cfiCond55) V4 load(1, XDATA, add(CFA_XSP16, literal(-10)))
          CFI (cfiCond55) V5 load(1, XDATA, add(CFA_XSP16, literal(-9)))
          CFI (cfiCond55) V6 load(1, XDATA, add(CFA_XSP16, literal(-8)))
          CFI (cfiCond55) V7 load(1, XDATA, add(CFA_XSP16, literal(-7)))
          CFI (cfiCond55) R7 load(1, XDATA, add(CFA_XSP16, literal(-6)))
          CFI (cfiCond55) ?RET_LOW load(1, XDATA, add(CFA_XSP16, literal(-5)))
          CFI (cfiCond55) ?RET_HIGH load(1, XDATA, add(CFA_XSP16, literal(-4)))
          CFI (cfiCond55) ?BRET_EXT load(1, XDATA, add(CFA_XSP16, literal(-3)))
          CFI (cfiCond55) DPL0 load(1, XDATA, add(CFA_XSP16, literal(-2)))
          CFI (cfiCond55) DPH0 load(1, XDATA, add(CFA_XSP16, literal(-1)))
          CFI (cfiCond55) CFA_SP SP+-4
          CFI (cfiCond55) CFA_XSP16 add(XSP16, 16)
          CFI Block cfiCond56 Using cfiCommon0
          CFI (cfiCond56) Function zclSampleLight_AdjustLightLevel
          CFI (cfiCond56) Conditional ??CrossCallReturnLabel_22, ??CrossCallReturnLabel_2
          CFI (cfiCond56) R6 load(1, XDATA, add(CFA_XSP16, literal(-16)))
          CFI (cfiCond56) VB load(1, XDATA, add(CFA_XSP16, literal(-15)))
          CFI (cfiCond56) V0 load(1, XDATA, add(CFA_XSP16, literal(-14)))
          CFI (cfiCond56) V1 load(1, XDATA, add(CFA_XSP16, literal(-13)))
          CFI (cfiCond56) V2 load(1, XDATA, add(CFA_XSP16, literal(-12)))
          CFI (cfiCond56) V3 load(1, XDATA, add(CFA_XSP16, literal(-11)))
          CFI (cfiCond56) V4 load(1, XDATA, add(CFA_XSP16, literal(-10)))
          CFI (cfiCond56) V5 load(1, XDATA, add(CFA_XSP16, literal(-9)))
          CFI (cfiCond56) V6 load(1, XDATA, add(CFA_XSP16, literal(-8)))
          CFI (cfiCond56) V7 load(1, XDATA, add(CFA_XSP16, literal(-7)))
          CFI (cfiCond56) R7 load(1, XDATA, add(CFA_XSP16, literal(-6)))
          CFI (cfiCond56) ?RET_LOW load(1, XDATA, add(CFA_XSP16, literal(-5)))
          CFI (cfiCond56) ?RET_HIGH load(1, XDATA, add(CFA_XSP16, literal(-4)))
          CFI (cfiCond56) ?BRET_EXT load(1, XDATA, add(CFA_XSP16, literal(-3)))
          CFI (cfiCond56) DPL0 load(1, XDATA, add(CFA_XSP16, literal(-2)))
          CFI (cfiCond56) DPH0 load(1, XDATA, add(CFA_XSP16, literal(-1)))
          CFI (cfiCond56) CFA_SP SP+-4
          CFI (cfiCond56) CFA_XSP16 add(XSP16, 16)
          CFI Block cfiCond57 Using cfiCommon0
          CFI (cfiCond57) Function zclSampleLight_AdjustLightLevel
          CFI (cfiCond57) Conditional ??CrossCallReturnLabel_22, ??CrossCallReturnLabel_3
          CFI (cfiCond57) R6 load(1, XDATA, add(CFA_XSP16, literal(-16)))
          CFI (cfiCond57) VB load(1, XDATA, add(CFA_XSP16, literal(-15)))
          CFI (cfiCond57) V0 load(1, XDATA, add(CFA_XSP16, literal(-14)))
          CFI (cfiCond57) V1 load(1, XDATA, add(CFA_XSP16, literal(-13)))
          CFI (cfiCond57) V2 load(1, XDATA, add(CFA_XSP16, literal(-12)))
          CFI (cfiCond57) V3 load(1, XDATA, add(CFA_XSP16, literal(-11)))
          CFI (cfiCond57) V4 load(1, XDATA, add(CFA_XSP16, literal(-10)))
          CFI (cfiCond57) V5 load(1, XDATA, add(CFA_XSP16, literal(-9)))
          CFI (cfiCond57) V6 load(1, XDATA, add(CFA_XSP16, literal(-8)))
          CFI (cfiCond57) V7 load(1, XDATA, add(CFA_XSP16, literal(-7)))
          CFI (cfiCond57) R7 load(1, XDATA, add(CFA_XSP16, literal(-6)))
          CFI (cfiCond57) ?RET_LOW load(1, XDATA, add(CFA_XSP16, literal(-5)))
          CFI (cfiCond57) ?RET_HIGH load(1, XDATA, add(CFA_XSP16, literal(-4)))
          CFI (cfiCond57) ?BRET_EXT load(1, XDATA, add(CFA_XSP16, literal(-3)))
          CFI (cfiCond57) DPL0 load(1, XDATA, add(CFA_XSP16, literal(-2)))
          CFI (cfiCond57) DPH0 load(1, XDATA, add(CFA_XSP16, literal(-1)))
          CFI (cfiCond57) CFA_SP SP+-4
          CFI (cfiCond57) CFA_XSP16 add(XSP16, 16)
          CFI Block cfiCond58 Using cfiCommon0
          CFI (cfiCond58) Function zclSampleLight_ProcessIncomingMsg
          CFI (cfiCond58) Conditional ??CrossCallReturnLabel_24, ??CrossCallReturnLabel_17
          CFI (cfiCond58) R6 load(1, XDATA, add(CFA_XSP16, literal(-9)))
          CFI (cfiCond58) VB load(1, XDATA, add(CFA_XSP16, literal(-8)))
          CFI (cfiCond58) V0 load(1, XDATA, add(CFA_XSP16, literal(-7)))
          CFI (cfiCond58) R7 load(1, XDATA, add(CFA_XSP16, literal(-6)))
          CFI (cfiCond58) ?RET_LOW load(1, XDATA, add(CFA_XSP16, literal(-5)))
          CFI (cfiCond58) ?RET_HIGH load(1, XDATA, add(CFA_XSP16, literal(-4)))
          CFI (cfiCond58) ?BRET_EXT load(1, XDATA, add(CFA_XSP16, literal(-3)))
          CFI (cfiCond58) DPL0 load(1, XDATA, add(CFA_XSP16, literal(-2)))
          CFI (cfiCond58) DPH0 load(1, XDATA, add(CFA_XSP16, literal(-1)))
          CFI (cfiCond58) CFA_SP SP+-4
          CFI (cfiCond58) CFA_XSP16 add(XSP16, 9)
          CFI Block cfiCond59 Using cfiCommon0
          CFI (cfiCond59) Function zclSampleLight_ProcessIncomingMsg
          CFI (cfiCond59) Conditional ??CrossCallReturnLabel_24, ??CrossCallReturnLabel_18
          CFI (cfiCond59) R6 load(1, XDATA, add(CFA_XSP16, literal(-9)))
          CFI (cfiCond59) VB load(1, XDATA, add(CFA_XSP16, literal(-8)))
          CFI (cfiCond59) V0 load(1, XDATA, add(CFA_XSP16, literal(-7)))
          CFI (cfiCond59) R7 load(1, XDATA, add(CFA_XSP16, literal(-6)))
          CFI (cfiCond59) ?RET_LOW load(1, XDATA, add(CFA_XSP16, literal(-5)))
          CFI (cfiCond59) ?RET_HIGH load(1, XDATA, add(CFA_XSP16, literal(-4)))
          CFI (cfiCond59) ?BRET_EXT load(1, XDATA, add(CFA_XSP16, literal(-3)))
          CFI (cfiCond59) DPL0 load(1, XDATA, add(CFA_XSP16, literal(-2)))
          CFI (cfiCond59) DPH0 load(1, XDATA, add(CFA_XSP16, literal(-1)))
          CFI (cfiCond59) CFA_SP SP+-4
          CFI (cfiCond59) CFA_XSP16 add(XSP16, 9)
          CFI Block cfiCond60 Using cfiCommon0
          CFI (cfiCond60) Function zclSampleLight_ProcessInDiscCmdsRspCmd
          CFI (cfiCond60) Conditional ??CrossCallReturnLabel_24, ??CrossCallReturnLabel_16
          CFI (cfiCond60) DPL0 Frame(CFA_SP, 4)
          CFI (cfiCond60) DPH0 Frame(CFA_SP, 5)
          CFI (cfiCond60) CFA_SP SP+-9
          CFI Block cfiCond61 Using cfiCommon0
          CFI (cfiCond61) Function zclSampleLight_ProcessIncomingMsg
          CFI (cfiCond61) Conditional ??CrossCallReturnLabel_23, ??CrossCallReturnLabel_4
          CFI (cfiCond61) R6 load(1, XDATA, add(CFA_XSP16, literal(-9)))
          CFI (cfiCond61) VB load(1, XDATA, add(CFA_XSP16, literal(-8)))
          CFI (cfiCond61) V0 load(1, XDATA, add(CFA_XSP16, literal(-7)))
          CFI (cfiCond61) R7 load(1, XDATA, add(CFA_XSP16, literal(-6)))
          CFI (cfiCond61) ?RET_LOW load(1, XDATA, add(CFA_XSP16, literal(-5)))
          CFI (cfiCond61) ?RET_HIGH load(1, XDATA, add(CFA_XSP16, literal(-4)))
          CFI (cfiCond61) ?BRET_EXT load(1, XDATA, add(CFA_XSP16, literal(-3)))
          CFI (cfiCond61) DPL0 load(1, XDATA, add(CFA_XSP16, literal(-2)))
          CFI (cfiCond61) DPH0 load(1, XDATA, add(CFA_XSP16, literal(-1)))
          CFI (cfiCond61) CFA_SP SP+-4
          CFI (cfiCond61) CFA_XSP16 add(XSP16, 9)
          CFI Block cfiCond62 Using cfiCommon0
          CFI (cfiCond62) Function zclSampleLight_ProcessIncomingMsg
          CFI (cfiCond62) Conditional ??CrossCallReturnLabel_23, ??CrossCallReturnLabel_5
          CFI (cfiCond62) R6 load(1, XDATA, add(CFA_XSP16, literal(-9)))
          CFI (cfiCond62) VB load(1, XDATA, add(CFA_XSP16, literal(-8)))
          CFI (cfiCond62) V0 load(1, XDATA, add(CFA_XSP16, literal(-7)))
          CFI (cfiCond62) R7 load(1, XDATA, add(CFA_XSP16, literal(-6)))
          CFI (cfiCond62) ?RET_LOW load(1, XDATA, add(CFA_XSP16, literal(-5)))
          CFI (cfiCond62) ?RET_HIGH load(1, XDATA, add(CFA_XSP16, literal(-4)))
          CFI (cfiCond62) ?BRET_EXT load(1, XDATA, add(CFA_XSP16, literal(-3)))
          CFI (cfiCond62) DPL0 load(1, XDATA, add(CFA_XSP16, literal(-2)))
          CFI (cfiCond62) DPH0 load(1, XDATA, add(CFA_XSP16, literal(-1)))
          CFI (cfiCond62) CFA_SP SP+-4
          CFI (cfiCond62) CFA_XSP16 add(XSP16, 9)
          CFI Block cfiPicker63 Using cfiCommon1
          CFI (cfiPicker63) NoFunction
          CFI (cfiPicker63) Picker
        MOVX      A,@DPTR
        MOV       R0,A
        INC       DPTR
        MOVX      A,@DPTR
        MOV       R1,A
        RET
          CFI EndBlock cfiCond51
          CFI EndBlock cfiCond52
          CFI EndBlock cfiCond53
          CFI EndBlock cfiCond54
          CFI EndBlock cfiCond55
          CFI EndBlock cfiCond56
          CFI EndBlock cfiCond57
          CFI EndBlock cfiCond58
          CFI EndBlock cfiCond59
          CFI EndBlock cfiCond60
          CFI EndBlock cfiCond61
          CFI EndBlock cfiCond62
          CFI EndBlock cfiPicker63

        RSEG BANKED_CODE:HUGECODE:NOROOT(0)
?Subroutine6:
          CFI Block cfiCond64 Using cfiCommon0
          CFI Function zclSampleLight_ProcessIncomingMsg
          CFI Conditional ??CrossCallReturnLabel_4
          CFI R6 load(1, XDATA, add(CFA_XSP16, literal(-9)))
          CFI VB load(1, XDATA, add(CFA_XSP16, literal(-8)))
          CFI V0 load(1, XDATA, add(CFA_XSP16, literal(-7)))
          CFI R7 load(1, XDATA, add(CFA_XSP16, literal(-6)))
          CFI ?RET_LOW load(1, XDATA, add(CFA_XSP16, literal(-5)))
          CFI ?RET_HIGH load(1, XDATA, add(CFA_XSP16, literal(-4)))
          CFI ?BRET_EXT load(1, XDATA, add(CFA_XSP16, literal(-3)))
          CFI DPL0 load(1, XDATA, add(CFA_XSP16, literal(-2)))
          CFI DPH0 load(1, XDATA, add(CFA_XSP16, literal(-1)))
          CFI CFA_SP SP+-2
          CFI CFA_XSP16 add(XSP16, 9)
          CFI Block cfiCond65 Using cfiCommon0
          CFI (cfiCond65) Function zclSampleLight_ProcessIncomingMsg
          CFI (cfiCond65) Conditional ??CrossCallReturnLabel_5
          CFI (cfiCond65) R6 load(1, XDATA, add(CFA_XSP16, literal(-9)))
          CFI (cfiCond65) VB load(1, XDATA, add(CFA_XSP16, literal(-8)))
          CFI (cfiCond65) V0 load(1, XDATA, add(CFA_XSP16, literal(-7)))
          CFI (cfiCond65) R7 load(1, XDATA, add(CFA_XSP16, literal(-6)))
          CFI (cfiCond65) ?RET_LOW load(1, XDATA, add(CFA_XSP16, literal(-5)))
          CFI (cfiCond65) ?RET_HIGH load(1, XDATA, add(CFA_XSP16, literal(-4)))
          CFI (cfiCond65) ?BRET_EXT load(1, XDATA, add(CFA_XSP16, literal(-3)))
          CFI (cfiCond65) DPL0 load(1, XDATA, add(CFA_XSP16, literal(-2)))
          CFI (cfiCond65) DPH0 load(1, XDATA, add(CFA_XSP16, literal(-1)))
          CFI (cfiCond65) CFA_SP SP+-2
          CFI (cfiCond65) CFA_XSP16 add(XSP16, 9)
          CFI Block cfiPicker66 Using cfiCommon1
          CFI (cfiPicker66) NoFunction
          CFI (cfiPicker66) Picker
        MOV       DPL,R6
        MOV       DPH,R7
        LCALL     ?Subroutine9 & 0xFFFF
??CrossCallReturnLabel_23:
        MOV       DPL,R0
        MOV       DPH,R1
        MOV       R0,#0x0
        RET
          CFI EndBlock cfiCond64
          CFI EndBlock cfiCond65
          CFI EndBlock cfiPicker66
// 1164 
// 1165 #ifdef ZCL_READ
// 1166 /*********************************************************************
// 1167  * @fn      zclSampleLight_ProcessInReadRspCmd
// 1168  *
// 1169  * @brief   Process the "Profile" Read Response Command
// 1170  *
// 1171  * @param   pInMsg - incoming message to process
// 1172  *
// 1173  * @return  none
// 1174  */
// 1175 static uint8 zclSampleLight_ProcessInReadRspCmd( zclIncomingMsg_t *pInMsg )
// 1176 {
// 1177   zclReadRspCmd_t *readRspCmd;
// 1178   uint8 i;
// 1179 
// 1180   readRspCmd = (zclReadRspCmd_t *)pInMsg->attrCmd;
// 1181   for (i = 0; i < readRspCmd->numAttr; i++)
// 1182   {
// 1183     // Notify the originator of the results of the original read attributes
// 1184     // attempt and, for each successfull request, the value of the requested
// 1185     // attribute
// 1186   }
// 1187 
// 1188   return ( TRUE );
// 1189 }
// 1190 #endif // ZCL_READ
// 1191 
// 1192 #ifdef ZCL_WRITE
// 1193 /*********************************************************************
// 1194  * @fn      zclSampleLight_ProcessInWriteRspCmd
// 1195  *
// 1196  * @brief   Process the "Profile" Write Response Command
// 1197  *
// 1198  * @param   pInMsg - incoming message to process
// 1199  *
// 1200  * @return  none
// 1201  */
// 1202 static uint8 zclSampleLight_ProcessInWriteRspCmd( zclIncomingMsg_t *pInMsg )
// 1203 {
// 1204   zclWriteRspCmd_t *writeRspCmd;
// 1205   uint8 i;
// 1206 
// 1207   writeRspCmd = (zclWriteRspCmd_t *)pInMsg->attrCmd;
// 1208   for ( i = 0; i < writeRspCmd->numAttr; i++ )
// 1209   {
// 1210     // Notify the device of the results of the its original write attributes
// 1211     // command.
// 1212   }
// 1213 
// 1214   return ( TRUE );
// 1215 }
// 1216 #endif // ZCL_WRITE
// 1217 
// 1218 /*********************************************************************
// 1219  * @fn      zclSampleLight_ProcessInDefaultRspCmd
// 1220  *
// 1221  * @brief   Process the "Profile" Default Response Command
// 1222  *
// 1223  * @param   pInMsg - incoming message to process
// 1224  *
// 1225  * @return  none
// 1226  */
// 1227 static uint8 zclSampleLight_ProcessInDefaultRspCmd( zclIncomingMsg_t *pInMsg )
// 1228 {
// 1229   // zclDefaultRspCmd_t *defaultRspCmd = (zclDefaultRspCmd_t *)pInMsg->attrCmd;
// 1230 
// 1231   // Device is notified of the Default Response command.
// 1232   (void)pInMsg;
// 1233 
// 1234   return ( TRUE );
// 1235 }
// 1236 
// 1237 #ifdef ZCL_DISCOVER
// 1238 /*********************************************************************
// 1239  * @fn      zclSampleLight_ProcessInDiscCmdsRspCmd
// 1240  *
// 1241  * @brief   Process the Discover Commands Response Command
// 1242  *
// 1243  * @param   pInMsg - incoming message to process
// 1244  *
// 1245  * @return  none
// 1246  */

        RSEG BANKED_CODE:HUGECODE:NOROOT(0)
// 1247 static uint8 zclSampleLight_ProcessInDiscCmdsRspCmd( zclIncomingMsg_t *pInMsg )
zclSampleLight_ProcessInDiscCmdsRspCmd:
          CFI Block cfiBlock67 Using cfiCommon0
          CFI Function zclSampleLight_ProcessInDiscCmdsRspCmd
        CODE
// 1248 {
        PUSH      DPL
          CFI DPL0 Frame(CFA_SP, 4)
          CFI CFA_SP SP+-4
        PUSH      DPH
          CFI DPH0 Frame(CFA_SP, 5)
          CFI CFA_SP SP+-5
        ; Saved register size: 2
        ; Auto size: 0
// 1249   zclDiscoverCmdsCmdRsp_t *discoverRspCmd;
// 1250   uint8 i;
// 1251 
// 1252   discoverRspCmd = (zclDiscoverCmdsCmdRsp_t *)pInMsg->attrCmd;
        MOV       A,R2
        ADD       A,#0x17
        MOV       DPL,A
        CLR       A
        ADDC      A,R3
        MOV       DPH,A
        LCALL     ??Subroutine13_0 & 0xFFFF
// 1253   for ( i = 0; i < discoverRspCmd->numCmd; i++ )
??CrossCallReturnLabel_16:
        SJMP      ??zclSampleLight_ProcessInDiscCmdsRspCmd_0
??zclSampleLight_ProcessInDiscCmdsRspCmd_1:
        INC       R2
??zclSampleLight_ProcessInDiscCmdsRspCmd_0:
        MOV       DPL,R0
        MOV       DPH,R1
        INC       DPTR
        INC       DPTR
        MOVX      A,@DPTR
        MOV       R3,A
        MOV       A,R2
        CLR       C
        SUBB      A,R3
        JC        ??zclSampleLight_ProcessInDiscCmdsRspCmd_1
// 1254   {
// 1255     // Device is notified of the result of its attribute discovery command.
// 1256   }
// 1257 
// 1258   return ( TRUE );
        MOV       R1,#0x1
          CFI EndBlock cfiBlock67
        REQUIRE ?Subroutine0
        ; // Fall through to label ?Subroutine0
// 1259 }

        RSEG BANKED_CODE:HUGECODE:NOROOT(0)
?Subroutine0:
          CFI Block cfiBlock68 Using cfiCommon0
          CFI NoFunction
          CFI CFA_SP SP+-5
          CFI DPL0 Frame(CFA_SP, 4)
          CFI DPH0 Frame(CFA_SP, 5)
        POP       DPH
          CFI CFA_SP SP+-4
          CFI DPH0 SameValue
        POP       DPL
          CFI CFA_SP SP+-3
          CFI DPL0 SameValue
        LJMP      ?BRET
          CFI EndBlock cfiBlock68
// 1260 
// 1261 /*********************************************************************
// 1262  * @fn      zclSampleLight_ProcessInDiscAttrsRspCmd
// 1263  *
// 1264  * @brief   Process the "Profile" Discover Attributes Response Command
// 1265  *
// 1266  * @param   pInMsg - incoming message to process
// 1267  *
// 1268  * @return  none
// 1269  */
// 1270 static uint8 zclSampleLight_ProcessInDiscAttrsRspCmd( zclIncomingMsg_t *pInMsg )
// 1271 {
// 1272   zclDiscoverAttrsRspCmd_t *discoverRspCmd;
// 1273   uint8 i;
// 1274 
// 1275   discoverRspCmd = (zclDiscoverAttrsRspCmd_t *)pInMsg->attrCmd;
// 1276   for ( i = 0; i < discoverRspCmd->numAttr; i++ )
// 1277   {
// 1278     // Device is notified of the result of its attribute discovery command.
// 1279   }
// 1280 
// 1281   return ( TRUE );
// 1282 }
// 1283 
// 1284 /*********************************************************************
// 1285  * @fn      zclSampleLight_ProcessInDiscAttrsExtRspCmd
// 1286  *
// 1287  * @brief   Process the "Profile" Discover Attributes Extended Response Command
// 1288  *
// 1289  * @param   pInMsg - incoming message to process
// 1290  *
// 1291  * @return  none
// 1292  */
// 1293 static uint8 zclSampleLight_ProcessInDiscAttrsExtRspCmd( zclIncomingMsg_t *pInMsg )
// 1294 {
// 1295   zclDiscoverAttrsExtRsp_t *discoverRspCmd;
// 1296   uint8 i;
// 1297 
// 1298   discoverRspCmd = (zclDiscoverAttrsExtRsp_t *)pInMsg->attrCmd;
// 1299   for ( i = 0; i < discoverRspCmd->numAttr; i++ )
// 1300   {
// 1301     // Device is notified of the result of its attribute discovery command.
// 1302   }
// 1303 
// 1304   return ( TRUE );
// 1305 }
// 1306 #endif // ZCL_DISCOVER
// 1307 

        RSEG BANKED_CODE:HUGECODE:NOROOT(0)
// 1308 void zclSampleLight_UiActionToggleLight(uint16 keys)
zclSampleLight_UiActionToggleLight:
          CFI Block cfiBlock69 Using cfiCommon0
          CFI Function zclSampleLight_UiActionToggleLight
        CODE
// 1309 {
        FUNCALL zclSampleLight_UiActionToggleLight, zclSampleLight_OnOffCB
        LOCFRAME ISTACK, 2, STACK
        LOCFRAME PSTACK, 0, STACK
        LOCFRAME XSTACK, 0, STACK
        LOCFRAME IOVERLAY, 0, STATIC
        LOCFRAME DOVERLAY, 0, STATIC
        ARGFRAME ISTACK, 2, STACK
        ARGFRAME PSTACK, 0, STACK
        ARGFRAME XSTACK, 0, STACK
        ARGFRAME IOVERLAY, 0, STATIC
        ARGFRAME DOVERLAY, 0, STATIC
        PUSH      DPL
          CFI DPL0 Frame(CFA_SP, 4)
          CFI CFA_SP SP+-4
        PUSH      DPH
          CFI DPH0 Frame(CFA_SP, 5)
          CFI CFA_SP SP+-5
        ; Saved register size: 2
        ; Auto size: 0
// 1310   zclSampleLight_OnOffCB(COMMAND_TOGGLE);
        ; Setup parameters for call to function zclSampleLight_OnOffCB
        MOV       R1,#0x2
        LCALL     `??zclSampleLight_OnOffCB::?relay`; Banked call to: zclSampleLight_OnOffCB
// 1311 }
        SJMP      ?Subroutine0
          CFI EndBlock cfiBlock69
// 1312 

        RSEG BANKED_CODE:HUGECODE:NOROOT(0)
// 1313 void zclSampleLight_UpdateLedState(void)
zclSampleLight_UpdateLedState:
          CFI Block cfiBlock70 Using cfiCommon0
          CFI Function zclSampleLight_UpdateLedState
        CODE
// 1314 {
        FUNCALL zclSampleLight_UpdateLedState, HalLedSet
        LOCFRAME ISTACK, 2, STACK
        LOCFRAME PSTACK, 0, STACK
        LOCFRAME XSTACK, 0, STACK
        LOCFRAME IOVERLAY, 0, STATIC
        LOCFRAME DOVERLAY, 0, STATIC
        ARGFRAME ISTACK, 2, STACK
        ARGFRAME PSTACK, 0, STACK
        ARGFRAME XSTACK, 0, STACK
        ARGFRAME IOVERLAY, 0, STATIC
        ARGFRAME DOVERLAY, 0, STATIC
        FUNCALL zclSampleLight_UpdateLedState, HalLedSet
        LOCFRAME ISTACK, 2, STACK
        LOCFRAME PSTACK, 0, STACK
        LOCFRAME XSTACK, 0, STACK
        LOCFRAME IOVERLAY, 0, STATIC
        LOCFRAME DOVERLAY, 0, STATIC
        ARGFRAME ISTACK, 2, STACK
        ARGFRAME PSTACK, 0, STACK
        ARGFRAME XSTACK, 0, STACK
        ARGFRAME IOVERLAY, 0, STATIC
        ARGFRAME DOVERLAY, 0, STATIC
        PUSH      DPL
          CFI DPL0 Frame(CFA_SP, 4)
          CFI CFA_SP SP+-4
        PUSH      DPH
          CFI DPH0 Frame(CFA_SP, 5)
          CFI CFA_SP SP+-5
        ; Saved register size: 2
        ; Auto size: 0
// 1315   // set the LED1 based on light (on or off)
// 1316   if ( zclSampleLight_OnOff == LIGHT_ON )
        MOV       DPTR,#zclSampleLight_OnOff
        MOVX      A,@DPTR
        XRL       A,#0x1
        JNZ       ??zclSampleLight_UpdateLedState_0
// 1317   {
// 1318     HalLedSet ( UI_LED_APP, HAL_LED_MODE_ON );
        ; Setup parameters for call to function HalLedSet
        MOV       R2,#0x1
        SJMP      ??zclSampleLight_UpdateLedState_1
// 1319   }
// 1320   else
// 1321   {
// 1322     HalLedSet ( UI_LED_APP, HAL_LED_MODE_OFF );
??zclSampleLight_UpdateLedState_0:
        ; Setup parameters for call to function HalLedSet
        MOV       R2,#0x0
??zclSampleLight_UpdateLedState_1:
        MOV       R1,#0x1
        LCALL     `??HalLedSet::?relay`; Banked call to: HalLedSet
// 1323   }
// 1324 }
        SJMP      ?Subroutine0
          CFI EndBlock cfiBlock70
// 1325 

        RSEG BANKED_CODE:HUGECODE:NOROOT(0)
// 1326 void zclSampleLight_UiUpdateLcd(uint8 UiState, char * line[3])
zclSampleLight_UiUpdateLcd:
          CFI Block cfiBlock71 Using cfiCommon0
          CFI Function zclSampleLight_UiUpdateLcd
        CODE
// 1327 {
        FUNCALL zclSampleLight_UiUpdateLcd, zclHA_uint8toa
        LOCFRAME ISTACK, 0, STACK
        LOCFRAME PSTACK, 0, STACK
        LOCFRAME XSTACK, 9, STACK
        LOCFRAME IOVERLAY, 0, STATIC
        LOCFRAME DOVERLAY, 0, STATIC
        ARGFRAME ISTACK, 0, STACK
        ARGFRAME PSTACK, 0, STACK
        ARGFRAME XSTACK, 9, STACK
        ARGFRAME IOVERLAY, 0, STATIC
        ARGFRAME DOVERLAY, 0, STATIC
        MOV       A,#-0x9
        LCALL     ?BANKED_ENTER_XDATA
          CFI DPH0 load(1, XDATA, add(CFA_XSP16, literal(-1)))
          CFI DPL0 load(1, XDATA, add(CFA_XSP16, literal(-2)))
          CFI ?BRET_EXT load(1, XDATA, add(CFA_XSP16, literal(-3)))
          CFI ?RET_HIGH load(1, XDATA, add(CFA_XSP16, literal(-4)))
          CFI ?RET_LOW load(1, XDATA, add(CFA_XSP16, literal(-5)))
          CFI R7 load(1, XDATA, add(CFA_XSP16, literal(-6)))
          CFI V0 load(1, XDATA, add(CFA_XSP16, literal(-7)))
          CFI VB load(1, XDATA, add(CFA_XSP16, literal(-8)))
          CFI R6 load(1, XDATA, add(CFA_XSP16, literal(-9)))
          CFI CFA_SP SP+0
          CFI CFA_XSP16 add(XSP16, 9)
        ; Saved register size: 9
        ; Auto size: 0
        MOV       A,R2
        MOV       R6,A
        MOV       A,R3
        MOV       R7,A
// 1328 #ifdef LCD_SUPPORTED
// 1329 #ifdef ZCL_LEVEL_CTRL
// 1330   zclHA_uint8toa( zclSampleLight_LevelCurrentLevel, &sLightLevel[9] );
        ; Setup parameters for call to function zclHA_uint8toa
        MOV       R2,#(sLightLevel + 9) & 0xff
        MOV       R3,#((sLightLevel + 9) >> 8) & 0xff
        MOV       DPTR,#zclSampleLight_LevelCurrentLevel
        MOVX      A,@DPTR
        MOV       R1,A
        LCALL     `??zclHA_uint8toa::?relay`; Banked call to: zclHA_uint8toa
// 1331   line[0] = (char *)sLightLevel;
        MOV       DPL,R6
        MOV       DPH,R7
        MOV       A,#sLightLevel & 0xff
        MOVX      @DPTR,A
        INC       DPTR
        MOV       A,#(sLightLevel >> 8) & 0xff
        MOVX      @DPTR,A
// 1332 #endif // ZCL_LEVEL_CTRL
// 1333   line[1] = (char *)(zclSampleLight_OnOff ? sLightOn : sLightOff);
        MOV       DPTR,#zclSampleLight_OnOff
        MOVX      A,@DPTR
        JZ        ??zclSampleLight_UiUpdateLcd_0
        MOV       R0,#sLightOn & 0xff
        MOV       R1,#(sLightOn >> 8) & 0xff
        SJMP      ??zclSampleLight_UiUpdateLcd_1
??zclSampleLight_UiUpdateLcd_0:
        MOV       R0,#sLightOff & 0xff
        MOV       R1,#(sLightOff >> 8) & 0xff
??zclSampleLight_UiUpdateLcd_1:
        MOV       DPL,R6
        MOV       DPH,R7
        INC       DPTR
        INC       DPTR
        MOV       A,R0
        MOVX      @DPTR,A
        INC       DPTR
        MOV       A,R1
        MOVX      @DPTR,A
// 1334   line[2] = "< TOGGLE LIGHT >";
        MOV       DPL,R6
        MOV       DPH,R7
        INC       DPTR
        INC       DPTR
        INC       DPTR
        INC       DPTR
        MOV       A,#`?<Constant "< TOGGLE LIGHT >">` & 0xff
        MOVX      @DPTR,A
        INC       DPTR
        MOV       A,#(`?<Constant "< TOGGLE LIGHT >">` >> 8) & 0xff
        MOVX      @DPTR,A
// 1335 #endif
// 1336 }
        LJMP      ?Subroutine1 & 0xFFFF
          CFI EndBlock cfiBlock71

        RSEG XDATA_ID:CODE:NOROOT(0)
`?<Initializer for sampleLight_TestEp>`:
        DATA8
        DB 8
        DB 0
        DATA16
        DW zclSampleLight_TaskID
        DW 0H
        DATA8
        DB 0

        RSEG XDATA_ID:CODE:NOROOT(0)
`?<Initializer for sLightLevel>`:
        DB "   LEVEL ###    "

        RSEG XDATA_ID:CODE:NOROOT(0)
`?<Initializer for zclSampleLight_CmdCallbacks>`:
        DATA16
        DW `??zclSampleLight_BasicResetCB::?relay`
        DW 0H
        DW `??zclSampleLight_OnOffCB::?relay`
        DW 0H
        DW 0H
        DW 0H
        DW `??zclSampleLight_LevelControlMoveToLevelCB::?re`
        DW `??zclSampleLight_LevelControlMoveCB::?relay`
        DW `??zclSampleLight_LevelControlStepCB::?relay`
        DW `??zclSampleLight_LevelControlStopCB::?relay`
        DW 0H
        DW 0H
        DW 0H
        DW 0H
        DW 0H
        DW 0H

        RSEG BANK_RELAYS:CODE:REORDER:NOROOT(0)
`??zclSampleLight_Init::?relay`:
        CODE
        LCALL   ?BDISPATCH
        DATA24
        DC24    zclSampleLight_Init

        RSEG BANK_RELAYS:CODE:REORDER:NOROOT(0)
`??zclSampleLight_event_loop::?relay`:
        CODE
        LCALL   ?BDISPATCH
        DATA24
        DC24    zclSampleLight_event_loop

        RSEG BANK_RELAYS:CODE:REORDER:NOROOT(0)
`??gp_CommissioningMode::?relay`:
        CODE
        LCALL   ?BDISPATCH
        DATA24
        DC24    gp_CommissioningMode

        RSEG BANK_RELAYS:CODE:REORDER:NOROOT(0)
`??gp_ChangeChannelReq::?relay`:
        CODE
        LCALL   ?BDISPATCH
        DATA24
        DC24    gp_ChangeChannelReq

        RSEG BANK_RELAYS:CODE:REORDER:NOROOT(0)
`??zclSampleLight_ProcessCommissioningStatus::?r`:
        CODE
        LCALL   ?BDISPATCH
        DATA24
        DC24    zclSampleLight_ProcessCommissioningStatus

        RSEG BANK_RELAYS:CODE:REORDER:NOROOT(0)
`??zclSampleLight_BasicResetCB::?relay`:
        CODE
        LCALL   ?BDISPATCH
        DATA24
        DC24    zclSampleLight_BasicResetCB

        RSEG BANK_RELAYS:CODE:REORDER:NOROOT(0)
`??zclSampleLight_OnOffCB::?relay`:
        CODE
        LCALL   ?BDISPATCH
        DATA24
        DC24    zclSampleLight_OnOffCB

        RSEG BANK_RELAYS:CODE:REORDER:NOROOT(0)
`??zclSampleLight_TimeRateHelper::?relay`:
        CODE
        LCALL   ?BDISPATCH
        DATA24
        DC24    zclSampleLight_TimeRateHelper

        RSEG BANK_RELAYS:CODE:REORDER:NOROOT(0)
`??zclSampleLight_MoveBasedOnRate::?relay`:
        CODE
        LCALL   ?BDISPATCH
        DATA24
        DC24    zclSampleLight_MoveBasedOnRate

        RSEG BANK_RELAYS:CODE:REORDER:NOROOT(0)
`??zclSampleLight_MoveBasedOnTime::?relay`:
        CODE
        LCALL   ?BDISPATCH
        DATA24
        DC24    zclSampleLight_MoveBasedOnTime

        RSEG BANK_RELAYS:CODE:REORDER:NOROOT(0)
`??zclSampleLight_AdjustLightLevel::?relay`:
        CODE
        LCALL   ?BDISPATCH
        DATA24
        DC24    zclSampleLight_AdjustLightLevel

        RSEG BANK_RELAYS:CODE:REORDER:NOROOT(0)
`??zclSampleLight_LevelControlMoveToLevelCB::?re`:
        CODE
        LCALL   ?BDISPATCH
        DATA24
        DC24    zclSampleLight_LevelControlMoveToLevelCB

        RSEG BANK_RELAYS:CODE:REORDER:NOROOT(0)
`??zclSampleLight_LevelControlMoveCB::?relay`:
        CODE
        LCALL   ?BDISPATCH
        DATA24
        DC24    zclSampleLight_LevelControlMoveCB

        RSEG BANK_RELAYS:CODE:REORDER:NOROOT(0)
`??zclSampleLight_LevelControlStepCB::?relay`:
        CODE
        LCALL   ?BDISPATCH
        DATA24
        DC24    zclSampleLight_LevelControlStepCB

        RSEG BANK_RELAYS:CODE:REORDER:NOROOT(0)
`??zclSampleLight_LevelControlStopCB::?relay`:
        CODE
        LCALL   ?BDISPATCH
        DATA24
        DC24    zclSampleLight_LevelControlStopCB

        RSEG BANK_RELAYS:CODE:REORDER:NOROOT(0)
`??zclSampleApp_BatteryWarningCB::?relay`:
        CODE
        LCALL   ?BDISPATCH
        DATA24
        DC24    zclSampleApp_BatteryWarningCB

        RSEG BANK_RELAYS:CODE:REORDER:NOROOT(0)
`??zclSampleLight_ProcessIncomingMsg::?relay`:
        CODE
        LCALL   ?BDISPATCH
        DATA24
        DC24    zclSampleLight_ProcessIncomingMsg

        RSEG BANK_RELAYS:CODE:REORDER:NOROOT(0)
`??zclSampleLight_ProcessInDiscCmdsRspCmd::?rela`:
        CODE
        LCALL   ?BDISPATCH
        DATA24
        DC24    zclSampleLight_ProcessInDiscCmdsRspCmd

        RSEG BANK_RELAYS:CODE:REORDER:NOROOT(0)
`??zclSampleLight_UiActionToggleLight::?relay`:
        CODE
        LCALL   ?BDISPATCH
        DATA24
        DC24    zclSampleLight_UiActionToggleLight

        RSEG BANK_RELAYS:CODE:REORDER:NOROOT(0)
`??zclSampleLight_UpdateLedState::?relay`:
        CODE
        LCALL   ?BDISPATCH
        DATA24
        DC24    zclSampleLight_UpdateLedState

        RSEG BANK_RELAYS:CODE:REORDER:NOROOT(0)
`??zclSampleLight_UiUpdateLcd::?relay`:
        CODE
        LCALL   ?BDISPATCH
        DATA24
        DC24    zclSampleLight_UiUpdateLcd

        RSEG XDATA_ROM_C:CONST:REORDER:NOROOT(0)
        DATA8
`?<Constant "TI Sample Light">`:
        DB "TI Sample Light"

        RSEG XDATA_ROM_C:CONST:REORDER:NOROOT(0)
        DATA8
`?<Constant "< TOGGLE LIGHT >">`:
        DB "< TOGGLE LIGHT >"

        RSEG XDATA_ROM_C:CONST:REORDER:NOROOT(0)
        DATA32
__Constant_3e8:
        DD 1000

        RSEG XDATA_ROM_C:CONST:REORDER:NOROOT(0)
        DATA32
__Constant_64:
        DD 100

        END
// 1337 
// 1338 /****************************************************************************
// 1339 ****************************************************************************/
// 1340 
// 1341 
// 
// 1 775 bytes in segment BANKED_CODE
//   126 bytes in segment BANK_RELAYS
//    56 bytes in segment XDATA_I
//    56 bytes in segment XDATA_ID
//    87 bytes in segment XDATA_ROM_C
//    27 bytes in segment XDATA_Z
// 
//   182 bytes of CODE     memory
//    79 bytes of CONST    memory (+ 8 bytes shared)
// 1 775 bytes of HUGECODE memory
//    83 bytes of XDATA    memory
//
//Errors: none
//Warnings: none
