///////////////////////////////////////////////////////////////////////////////
//
// IAR C/C++ Compiler V10.10.1.4655 for 8051              03/Feb/2026  00:00:31
// Copyright 2004-2017 IAR Systems AB.
// Standalone license - IAR Embedded Workbench for 8051
//
//    Core               =  plain
//    Code model         =  banked
//    Data model         =  large
//    Calling convention =  xdata reentrant
//    Constant location  =  data_rom
//    Dptr setup         =  1,16
//                          
//    Source file        =  
//        C:\Users\ASUS\Desktop\work\graduration project\software\Z-Stack
//        3.0.2\Projects\zstack\HomeAutomation\ZEM\Source\zcl_ZEM.c
//    Command line       =  
//        -f C:\Users\ASUS\AppData\Local\Temp\EWCEE1.tmp
//        ("C:\Users\ASUS\Desktop\work\graduration project\software\Z-Stack
//        3.0.2\Projects\zstack\HomeAutomation\ZEM\Source\zcl_ZEM.c" -D
//        BDB_REPORTING -D SECURE=1 -D TC_LINKKEY_JOIN -D NV_INIT -D NV_RESTORE
//        -D xPOWER_SAVING -D NWK_AUTO_POLL -D xZTOOL_P1 -D xMT_TASK -D
//        xMT_APP_FUNC -D xMT_SYS_FUNC -D xMT_ZDO_FUNC -D xMT_APP_CNF_FUNC -D
//        LCD_SUPPORTED=DEBUG -D MULTICAST_ENABLED=FALSE -D ZCL_READ -D
//        ZCL_DISCOVER -D ZCL_WRITE -D ZCL_BASIC -D ZCL_IDENTIFY -D
//        ZCL_TEMPERATURE_MEASUREMENT -D ZCL_GROUPS -lC
//        "C:\Users\ASUS\Desktop\work\graduration project\software\Z-Stack
//        3.0.2\Projects\zstack\HomeAutomation\ZEM\CC2530DB\EndDeviceEB\List"
//        -lA "C:\Users\ASUS\Desktop\work\graduration project\software\Z-Stack
//        3.0.2\Projects\zstack\HomeAutomation\ZEM\CC2530DB\EndDeviceEB\List"
//        --diag_suppress Pe001,Pa010 -o
//        "C:\Users\ASUS\Desktop\work\graduration project\software\Z-Stack
//        3.0.2\Projects\zstack\HomeAutomation\ZEM\CC2530DB\EndDeviceEB\Obj" -e
//        --debug --core=plain --dptr=16,1 --data_model=large
//        --code_model=banked --calling_convention=xdata_reentrant
//        --place_constants=data_rom --nr_virtual_regs 16 -f
//        "C:\Users\ASUS\Desktop\work\graduration project\software\Z-Stack
//        3.0.2\Projects\zstack\HomeAutomation\ZEM\CC2530DB\..\..\..\Tools\CC2530DB\f8wEndev.cfg"
//        (-DCPU32MHZ -DROOT=__near_func -DMAC_CFG_TX_DATA_MAX=3
//        -DMAC_CFG_TX_MAX=6 -DMAC_CFG_RX_MAX=3) -f
//        "C:\Users\ASUS\Desktop\work\graduration project\software\Z-Stack
//        3.0.2\Projects\zstack\HomeAutomation\ZEM\CC2530DB\..\..\..\Tools\CC2530DB\f8wConfig.cfg"
//        (-DZIGBEEPRO -DSECURE=1 -DZG_SECURE_DYNAMIC=0 -DREFLECTOR
//        -DDEFAULT_CHANLIST=0x00000800 -DZDAPP_CONFIG_PAN_ID=0x1234
//        -DNWK_START_DELAY=100 -DEXTENDED_JOINING_RANDOM_MASK=0x007F
//        -DBEACON_REQUEST_DELAY=100 -DBEACON_REQ_DELAY_MASK=0x00FF
//        -DLINK_STATUS_JITTER_MASK=0x007F -DROUTE_EXPIRY_TIME=30
//        -DAPSC_ACK_WAIT_DURATION_POLLED=3000 -DNWK_INDIRECT_MSG_TIMEOUT=7
//        -DMAX_RREQ_ENTRIES=8 -DAPSC_MAX_FRAME_RETRIES=3
//        -DNWK_MAX_DATA_RETRIES=2 -DMAX_POLL_FAILURE_RETRIES=2 -DMAX_BCAST=9
//        -DAPS_MAX_GROUPS=16 -DMAX_RTG_ENTRIES=40 -DNWK_MAX_BINDING_ENTRIES=4
//        -DMAX_BINDING_CLUSTER_IDS=4 -DDEFAULT_KEY={0}
//        -DMAC_MAX_FRAME_SIZE=116 -DZDNWKMGR_MIN_TRANSMISSIONS=20
//        "-DCONST=const __code" -DGENERIC=__generic -DRFD_RCVC_ALWAYS_ON=FALSE
//        -DPOLL_RATE=1000 -DQUEUED_POLL_RATE=100 -DRESPONSE_POLL_RATE=100
//        -DREJOIN_POLL_RATE=440 -DREJOIN_BACKOFF=900000 -DREJOIN_SCAN=900000
//        -DENABLE_LED4_DISABLE_S1) -f "C:\Users\ASUS\Desktop\work\graduration
//        project\software\Z-Stack
//        3.0.2\Projects\zstack\HomeAutomation\ZEM\CC2530DB\..\..\..\Tools\CC2530DB\f8wZCL.cfg"
//        -I "C:\Users\ASUS\Desktop\work\graduration project\software\Z-Stack
//        3.0.2\Projects\zstack\HomeAutomation\ZEM\CC2530DB\" -I
//        "C:\Users\ASUS\Desktop\work\graduration project\software\Z-Stack
//        3.0.2\Projects\zstack\HomeAutomation\ZEM\CC2530DB\..\Source\" -I
//        "C:\Users\ASUS\Desktop\work\graduration project\software\Z-Stack
//        3.0.2\Projects\zstack\HomeAutomation\ZEM\CC2530DB\..\..\Source\" -I
//        "C:\Users\ASUS\Desktop\work\graduration project\software\Z-Stack
//        3.0.2\Projects\zstack\HomeAutomation\ZEM\CC2530DB\..\..\..\ZMain\TI2530DB\"
//        -I "C:\Users\ASUS\Desktop\work\graduration project\software\Z-Stack
//        3.0.2\Projects\zstack\HomeAutomation\ZEM\CC2530DB\..\..\..\..\..\Components\hal\include\"
//        -I "C:\Users\ASUS\Desktop\work\graduration project\software\Z-Stack
//        3.0.2\Projects\zstack\HomeAutomation\ZEM\CC2530DB\..\..\..\..\..\Components\hal\target\CC2530EB\"
//        -I "C:\Users\ASUS\Desktop\work\graduration project\software\Z-Stack
//        3.0.2\Projects\zstack\HomeAutomation\ZEM\CC2530DB\..\..\..\..\..\Components\mac\include\"
//        -I "C:\Users\ASUS\Desktop\work\graduration project\software\Z-Stack
//        3.0.2\Projects\zstack\HomeAutomation\ZEM\CC2530DB\..\..\..\..\..\Components\mac\high_level\"
//        -I "C:\Users\ASUS\Desktop\work\graduration project\software\Z-Stack
//        3.0.2\Projects\zstack\HomeAutomation\ZEM\CC2530DB\..\..\..\..\..\Components\mac\low_level\srf04\"
//        -I "C:\Users\ASUS\Desktop\work\graduration project\software\Z-Stack
//        3.0.2\Projects\zstack\HomeAutomation\ZEM\CC2530DB\..\..\..\..\..\Components\mac\low_level\srf04\single_chip\"
//        -I "C:\Users\ASUS\Desktop\work\graduration project\software\Z-Stack
//        3.0.2\Projects\zstack\HomeAutomation\ZEM\CC2530DB\..\..\..\..\..\Components\mt\"
//        -I "C:\Users\ASUS\Desktop\work\graduration project\software\Z-Stack
//        3.0.2\Projects\zstack\HomeAutomation\ZEM\CC2530DB\..\..\..\..\..\Components\osal\include\"
//        -I "C:\Users\ASUS\Desktop\work\graduration project\software\Z-Stack
//        3.0.2\Projects\zstack\HomeAutomation\ZEM\CC2530DB\..\..\..\..\..\Components\services\saddr\"
//        -I "C:\Users\ASUS\Desktop\work\graduration project\software\Z-Stack
//        3.0.2\Projects\zstack\HomeAutomation\ZEM\CC2530DB\..\..\..\..\..\Components\services\sdata\"
//        -I "C:\Users\ASUS\Desktop\work\graduration project\software\Z-Stack
//        3.0.2\Projects\zstack\HomeAutomation\ZEM\CC2530DB\..\..\..\..\..\Components\stack\af\"
//        -I "C:\Users\ASUS\Desktop\work\graduration project\software\Z-Stack
//        3.0.2\Projects\zstack\HomeAutomation\ZEM\CC2530DB\..\..\..\..\..\Components\stack\bdb\"
//        -I "C:\Users\ASUS\Desktop\work\graduration project\software\Z-Stack
//        3.0.2\Projects\zstack\HomeAutomation\ZEM\CC2530DB\..\..\..\..\..\Components\stack\gp\"
//        -I "C:\Users\ASUS\Desktop\work\graduration project\software\Z-Stack
//        3.0.2\Projects\zstack\HomeAutomation\ZEM\CC2530DB\..\..\..\..\..\Components\stack\nwk\"
//        -I "C:\Users\ASUS\Desktop\work\graduration project\software\Z-Stack
//        3.0.2\Projects\zstack\HomeAutomation\ZEM\CC2530DB\..\..\..\..\..\Components\stack\sapi\"
//        -I "C:\Users\ASUS\Desktop\work\graduration project\software\Z-Stack
//        3.0.2\Projects\zstack\HomeAutomation\ZEM\CC2530DB\..\..\..\..\..\Components\stack\sec\"
//        -I "C:\Users\ASUS\Desktop\work\graduration project\software\Z-Stack
//        3.0.2\Projects\zstack\HomeAutomation\ZEM\CC2530DB\..\..\..\..\..\Components\stack\sys\"
//        -I "C:\Users\ASUS\Desktop\work\graduration project\software\Z-Stack
//        3.0.2\Projects\zstack\HomeAutomation\ZEM\CC2530DB\..\..\..\..\..\Components\stack\zcl\"
//        -I "C:\Users\ASUS\Desktop\work\graduration project\software\Z-Stack
//        3.0.2\Projects\zstack\HomeAutomation\ZEM\CC2530DB\..\..\..\..\..\Components\stack\zdo\"
//        -I "C:\Users\ASUS\Desktop\work\graduration project\software\Z-Stack
//        3.0.2\Projects\zstack\HomeAutomation\ZEM\CC2530DB\..\..\..\..\..\Components\zmac\"
//        -I "C:\Users\ASUS\Desktop\work\graduration project\software\Z-Stack
//        3.0.2\Projects\zstack\HomeAutomation\ZEM\CC2530DB\..\..\..\..\..\Components\zmac\f8w\"
//        -Ohz --require_prototypes)
//    Locale             =  Chinese (Simplified)_China.936
//    List file          =  
//        C:\Users\ASUS\Desktop\work\graduration project\software\Z-Stack
//        3.0.2\Projects\zstack\HomeAutomation\ZEM\CC2530DB\EndDeviceEB\List\zcl_ZEM.s51
//
///////////////////////////////////////////////////////////////////////////////

        NAME zcl_ZEM

        RTMODEL "__SystemLibrary", "CLib"
        RTMODEL "__calling_convention", "xdata_reentrant"
        RTMODEL "__code_model", "banked"
        RTMODEL "__core", "plain"
        RTMODEL "__data_model", "large"
        RTMODEL "__dptr_size", "16"
        RTMODEL "__extended_stack", "disabled"
        RTMODEL "__location_for_constants", "data"
        RTMODEL "__number_of_dptrs", "1"
        RTMODEL "__register_banks", "*"
        RTMODEL "__rt_version", "1"

        RSEG DOVERLAY:DATA:NOROOT(0)
        RSEG IOVERLAY:IDATA:NOROOT(0)
        RSEG ISTACK:IDATA:NOROOT(0)
        RSEG PSTACK:XDATA:NOROOT(0)
        RSEG XSTACK:XDATA:NOROOT(0)

        EXTERN ?V0
        EXTERN ?V1
        EXTERN ?V2
        EXTERN ?V3
        EXTERN ?V4
        EXTERN ?V5
        EXTERN ?V6
        EXTERN ?V8
        EXTERN ?V9
        EXTERN ?V10
        EXTERN ?ALLOC_XSTACK8
        EXTERN ?BANKED_ENTER_XDATA
        EXTERN ?BANKED_LEAVE_XDATA
        EXTERN ?BDISPATCH
        EXTERN ?BRET
        EXTERN ?DEALLOC_XSTACK8
        EXTERN ?MOVE_LONG8_XDATA_XDATA
        EXTERN ?PUSH_XSTACK8_X_FOUR
        EXTERN ?PUSH_XSTACK8_X_TWO
        EXTERN ?PUSH_XSTACK_I_ONE
        EXTERN ?PUSH_XSTACK_I_THREE
        EXTERN ?PUSH_XSTACK_I_TWO
        EXTERN ?US_SWITCH_DENSE
        EXTERN ?XSP
        EXTERN ?XSTACK_DISP0_8
        EXTERN ?XSTACK_DISP100_8
        EXTERN ?XSTACK_DISP101_8
        EXTERN ?XSTACK_DISP102_8
        EXTERN __INIT_XDATA_I
        EXTERN __INIT_XDATA_Z

        FUNCTION `??zclSampleApp_BatteryWarningCB::?relay`,0203H
        FUNCTION `??zclZEM_AF_P2P::?relay`,0203H
        FUNCTION `??zclZEM_AF_RxProc::?relay`,0203H
        FUNCTION `??zclZEM_BasicResetCB::?relay`,0203H
        PUBLIC `??zclZEM_Init::?relay`
        FUNCTION `??zclZEM_Init::?relay`,0203H
        FUNCTION `??zclZEM_ProcessCommissioningStatus::?relay`,0203H
        FUNCTION `??zclZEM_ProcessInDiscCmdsRspCmd::?relay`,0203H
        FUNCTION `??zclZEM_ProcessIncomingMsg::?relay`,0203H
        FUNCTION `??zclZEM_ReadAndSendMAC::?relay`,0203H
        FUNCTION `??zclZEM_UartCB::?relay`,0203H
        PUBLIC `??zclZEM_event_loop::?relay`
        FUNCTION `??zclZEM_event_loop::?relay`,0203H
        PUBWEAK P1DIR
        PUBWEAK P1SEL
        PUBWEAK PERCFG
        PUBWEAK __Constant_3e8
        PUBWEAK __Constant_bb8
        PUBLIC reportableChange
        FUNCTION zclSampleApp_BatteryWarningCB,0603H
        ARGFRAME XSTACK, 0, STACK
        FUNCTION zclZEM_AF_P2P,0a1203H
        ARGFRAME XSTACK, 40, STACK
        ARGFRAME IOVERLAY, 0, STATIC
        ARGFRAME DOVERLAY, 0, STATIC
        LOCFRAME XSTACK, 31, STACK
        FUNCTION zclZEM_AF_RxProc,0a1203H
        ARGFRAME XSTACK, 38, STACK
        ARGFRAME IOVERLAY, 0, STATIC
        ARGFRAME DOVERLAY, 0, STATIC
        LOCFRAME ISTACK, 1, STACK
        LOCFRAME XSTACK, 86, STACK
        FUNCTION zclZEM_BasicResetCB,021603H
        ARGFRAME XSTACK, 0, STACK
        LOCFRAME ISTACK, 2, STACK
        PUBLIC zclZEM_Init
        FUNCTION zclZEM_Init,0a1203H
        ARGFRAME XSTACK, 0, STACK
        LOCFRAME XSTACK, 95, STACK
        PUBLIC zclZEM_NwkState
        FUNCTION zclZEM_ProcessCommissioningStatus,021603H
        ARGFRAME XSTACK, 0, STACK
        LOCFRAME ISTACK, 2, STACK
        LOCFRAME XSTACK, 55, STACK
        FUNCTION zclZEM_ProcessInDiscCmdsRspCmd,0203H
        ARGFRAME XSTACK, 9, STACK
        ARGFRAME IOVERLAY, 0, STATIC
        ARGFRAME DOVERLAY, 0, STATIC
        LOCFRAME ISTACK, 2, STACK
        FUNCTION zclZEM_ProcessIncomingMsg,021203H
        ARGFRAME XSTACK, 38, STACK
        ARGFRAME IOVERLAY, 0, STATIC
        ARGFRAME DOVERLAY, 0, STATIC
        LOCFRAME XSTACK, 9, STACK
        FUNCTION zclZEM_ReadAndSendMAC,0a1203H
        ARGFRAME XSTACK, 89, STACK
        ARGFRAME IOVERLAY, 0, STATIC
        ARGFRAME DOVERLAY, 0, STATIC
        LOCFRAME ISTACK, 1, STACK
        LOCFRAME XSTACK, 71, STACK
        PUBLIC zclZEM_TaskID
        FUNCTION zclZEM_UartCB,021603H
        ARGFRAME XSTACK, 0, STACK
        LOCFRAME XSTACK, 9, STACK
        PUBLIC zclZEM_event_loop
        FUNCTION zclZEM_event_loop,0a1203H
        ARGFRAME XSTACK, 0, STACK
        LOCFRAME XSTACK, 47, STACK
        
          CFI Names cfiNames0
          CFI StackFrame CFA_SP SP IDATA
          CFI StackFrame CFA_PSP16 PSP16 XDATA
          CFI StackFrame CFA_XSP16 XSP16 XDATA
          CFI StaticOverlayFrame CFA_IOVERLAY IOVERLAY
          CFI StaticOverlayFrame CFA_DOVERLAY DOVERLAY
          CFI Resource `PSW.CY`:1, `B.BR0`:1, `B.BR1`:1, `B.BR2`:1, `B.BR3`:1
          CFI Resource `B.BR4`:1, `B.BR5`:1, `B.BR6`:1, `B.BR7`:1, `VB.BR8`:1
          CFI Resource `VB.BR9`:1, `VB.BR10`:1, `VB.BR11`:1, `VB.BR12`:1
          CFI Resource `VB.BR13`:1, `VB.BR14`:1, `VB.BR15`:1, VB:8, B:8, A:8
          CFI Resource PSW:8, DPL0:8, DPH0:8, R0:8, R1:8, R2:8, R3:8, R4:8, R5:8
          CFI Resource R6:8, R7:8, V0:8, V1:8, V2:8, V3:8, V4:8, V5:8, V6:8, V7:8
          CFI Resource V8:8, V9:8, V10:8, V11:8, V12:8, V13:8, V14:8, V15:8, SP:8
          CFI Resource PSPH:8, PSPL:8, PSP16:16, XSPH:8, XSPL:8, XSP16:16
          CFI VirtualResource ?RET:24
          CFI Resource ?BRET_EXT:8
          CFI VirtualResource ?RET_HIGH:8, ?RET_LOW:8
          CFI ResourceParts PSP16 PSPH, PSPL
          CFI ResourceParts XSP16 XSPH, XSPL
          CFI ResourceParts ?RET ?BRET_EXT, ?RET_HIGH, ?RET_LOW
          CFI EndNames cfiNames0
        
          CFI Common cfiCommon0 Using cfiNames0
          CFI CodeAlign 1
          CFI DataAlign -1
          CFI ReturnAddress ?RET CODE
          CFI CFA_DOVERLAY Used
          CFI CFA_IOVERLAY Used
          CFI CFA_SP SP+-3
          CFI CFA_PSP16 PSP16+0
          CFI CFA_XSP16 XSP16+0
          CFI `PSW.CY` SameValue
          CFI `B.BR0` SameValue
          CFI `B.BR1` SameValue
          CFI `B.BR2` SameValue
          CFI `B.BR3` SameValue
          CFI `B.BR4` SameValue
          CFI `B.BR5` SameValue
          CFI `B.BR6` SameValue
          CFI `B.BR7` SameValue
          CFI `VB.BR8` SameValue
          CFI `VB.BR9` SameValue
          CFI `VB.BR10` SameValue
          CFI `VB.BR11` SameValue
          CFI `VB.BR12` SameValue
          CFI `VB.BR13` SameValue
          CFI `VB.BR14` SameValue
          CFI `VB.BR15` SameValue
          CFI VB SameValue
          CFI B Undefined
          CFI A Undefined
          CFI PSW SameValue
          CFI DPL0 SameValue
          CFI DPH0 SameValue
          CFI R0 Undefined
          CFI R1 Undefined
          CFI R2 Undefined
          CFI R3 Undefined
          CFI R4 Undefined
          CFI R5 Undefined
          CFI R6 SameValue
          CFI R7 SameValue
          CFI V0 SameValue
          CFI V1 SameValue
          CFI V2 SameValue
          CFI V3 SameValue
          CFI V4 SameValue
          CFI V5 SameValue
          CFI V6 SameValue
          CFI V7 SameValue
          CFI V8 SameValue
          CFI V9 SameValue
          CFI V10 SameValue
          CFI V11 SameValue
          CFI V12 SameValue
          CFI V13 SameValue
          CFI V14 SameValue
          CFI V15 SameValue
          CFI PSPH Undefined
          CFI PSPL Undefined
          CFI XSPH Undefined
          CFI XSPL Undefined
          CFI ?RET Concat
          CFI ?BRET_EXT Frame(CFA_SP, 3)
          CFI ?RET_HIGH Frame(CFA_SP, 2)
          CFI ?RET_LOW Frame(CFA_SP, 1)
          CFI EndCommon cfiCommon0
        
        
          CFI Common cfiCommon1 Using cfiNames0
          CFI CodeAlign 1
          CFI DataAlign -1
          CFI ReturnAddress ?RET CODE
          CFI CFA_DOVERLAY Used
          CFI CFA_IOVERLAY Used
          CFI CFA_SP SP+-2
          CFI CFA_PSP16 PSP16+0
          CFI CFA_XSP16 XSP16+0
          CFI `PSW.CY` SameValue
          CFI `B.BR0` SameValue
          CFI `B.BR1` SameValue
          CFI `B.BR2` SameValue
          CFI `B.BR3` SameValue
          CFI `B.BR4` SameValue
          CFI `B.BR5` SameValue
          CFI `B.BR6` SameValue
          CFI `B.BR7` SameValue
          CFI `VB.BR8` SameValue
          CFI `VB.BR9` SameValue
          CFI `VB.BR10` SameValue
          CFI `VB.BR11` SameValue
          CFI `VB.BR12` SameValue
          CFI `VB.BR13` SameValue
          CFI `VB.BR14` SameValue
          CFI `VB.BR15` SameValue
          CFI VB SameValue
          CFI B SameValue
          CFI A SameValue
          CFI PSW SameValue
          CFI DPL0 SameValue
          CFI DPH0 SameValue
          CFI R0 SameValue
          CFI R1 SameValue
          CFI R2 SameValue
          CFI R3 SameValue
          CFI R4 SameValue
          CFI R5 SameValue
          CFI R6 SameValue
          CFI R7 SameValue
          CFI V0 SameValue
          CFI V1 SameValue
          CFI V2 SameValue
          CFI V3 SameValue
          CFI V4 SameValue
          CFI V5 SameValue
          CFI V6 SameValue
          CFI V7 SameValue
          CFI V8 SameValue
          CFI V9 SameValue
          CFI V10 SameValue
          CFI V11 SameValue
          CFI V12 SameValue
          CFI V13 SameValue
          CFI V14 SameValue
          CFI V15 SameValue
          CFI PSPH Undefined
          CFI PSPL Undefined
          CFI XSPH Undefined
          CFI XSPL Undefined
          CFI ?RET Concat
          CFI ?BRET_EXT SameValue
          CFI ?RET_HIGH Frame(CFA_SP, 2)
          CFI ?RET_LOW Frame(CFA_SP, 1)
          CFI EndCommon cfiCommon1
        
AF_DataRequest      SYMBOL "AF_DataRequest"
`??AF_DataRequest::?relay` SYMBOL "?relay", AF_DataRequest
HalUARTOpen         SYMBOL "HalUARTOpen"
`??HalUARTOpen::?relay` SYMBOL "?relay", HalUARTOpen
HalUARTRead         SYMBOL "HalUARTRead"
`??HalUARTRead::?relay` SYMBOL "?relay", HalUARTRead
HalUARTWrite        SYMBOL "HalUARTWrite"
`??HalUARTWrite::?relay` SYMBOL "?relay", HalUARTWrite
Hal_UART_RxBufLen   SYMBOL "Hal_UART_RxBufLen"
`??Hal_UART_RxBufLen::?relay` SYMBOL "?relay", Hal_UART_RxBufLen
NLME_GetExtAddr     SYMBOL "NLME_GetExtAddr"
`??NLME_GetExtAddr::?relay` SYMBOL "?relay", NLME_GetExtAddr
RegisterForKeys     SYMBOL "RegisterForKeys"
`??RegisterForKeys::?relay` SYMBOL "?relay", RegisterForKeys
RegisterVoltageWarningCB SYMBOL "RegisterVoltageWarningCB"
`??RegisterVoltageWarningCB::?relay` SYMBOL "?relay", RegisterVoltageWarningCB
aps_AddGroup        SYMBOL "aps_AddGroup"
`??aps_AddGroup::?relay` SYMBOL "?relay", aps_AddGroup
bdb_RegisterCommissioningStatusCB SYMBOL "bdb_RegisterCommissioningStatusCB"
`??bdb_RegisterCommissioningStatusCB::?relay` SYMBOL "?relay", bdb_RegisterCommissioningStatusCB
bdb_RegisterSimpleDescriptor SYMBOL "bdb_RegisterSimpleDescriptor"
`??bdb_RegisterSimpleDescriptor::?relay` SYMBOL "?relay", bdb_RegisterSimpleDescriptor
bdb_RepAddAttrCfgRecordDefaultToList SYMBOL "bdb_RepAddAttrCfgRecordDefaultToList"
`??bdb_RepAddAttrCfgRecordDefaultToList::?relay` SYMBOL "?relay", bdb_RepAddAttrCfgRecordDefaultToList
bdb_StartCommissioning SYMBOL "bdb_StartCommissioning"
`??bdb_StartCommissioning::?relay` SYMBOL "?relay", bdb_StartCommissioning
bdb_ZedAttemptRecoverNwk SYMBOL "bdb_ZedAttemptRecoverNwk"
`??bdb_ZedAttemptRecoverNwk::?relay` SYMBOL "?relay", bdb_ZedAttemptRecoverNwk
osal_mem_free       SYMBOL "osal_mem_free"
`??osal_mem_free::?relay` SYMBOL "?relay", osal_mem_free
osal_memcpy         SYMBOL "osal_memcpy"
`??osal_memcpy::?relay` SYMBOL "?relay", osal_memcpy
osal_msg_deallocate SYMBOL "osal_msg_deallocate"
`??osal_msg_deallocate::?relay` SYMBOL "?relay", osal_msg_deallocate
osal_msg_receive    SYMBOL "osal_msg_receive"
`??osal_msg_receive::?relay` SYMBOL "?relay", osal_msg_receive
osal_start_timerEx  SYMBOL "osal_start_timerEx"
`??osal_start_timerEx::?relay` SYMBOL "?relay", osal_start_timerEx
zclGeneral_RegisterCmdCallbacks SYMBOL "zclGeneral_RegisterCmdCallbacks"
`??zclGeneral_RegisterCmdCallbacks::?relay` SYMBOL "?relay", zclGeneral_RegisterCmdCallbacks
zclZEM_ResetAttributesToDefaultValues SYMBOL "zclZEM_ResetAttributesToDefaultValues"
`??zclZEM_ResetAttributesToDefaultValues::?relay` SYMBOL "?relay", zclZEM_ResetAttributesToDefaultValues
zcl_registerAttrList SYMBOL "zcl_registerAttrList"
`??zcl_registerAttrList::?relay` SYMBOL "?relay", zcl_registerAttrList
zcl_registerForMsg  SYMBOL "zcl_registerForMsg"
`??zcl_registerForMsg::?relay` SYMBOL "?relay", zcl_registerForMsg
zclZEM_Init         SYMBOL "zclZEM_Init"
`??zclZEM_Init::?relay` SYMBOL "?relay", zclZEM_Init
zclZEM_event_loop   SYMBOL "zclZEM_event_loop"
`??zclZEM_event_loop::?relay` SYMBOL "?relay", zclZEM_event_loop

        EXTERN `??AF_DataRequest::?relay`
        FUNCTION `??AF_DataRequest::?relay`,00H
        EXTERN `??HalUARTOpen::?relay`
        FUNCTION `??HalUARTOpen::?relay`,00H
        EXTERN `??HalUARTRead::?relay`
        FUNCTION `??HalUARTRead::?relay`,00H
        EXTERN `??HalUARTWrite::?relay`
        FUNCTION `??HalUARTWrite::?relay`,00H
        EXTERN `??Hal_UART_RxBufLen::?relay`
        FUNCTION `??Hal_UART_RxBufLen::?relay`,00H
        EXTERN `??NLME_GetExtAddr::?relay`
        FUNCTION `??NLME_GetExtAddr::?relay`,00H
        EXTERN `??RegisterForKeys::?relay`
        FUNCTION `??RegisterForKeys::?relay`,00H
        EXTERN `??RegisterVoltageWarningCB::?relay`
        FUNCTION `??RegisterVoltageWarningCB::?relay`,00H
        EXTERN `??aps_AddGroup::?relay`
        FUNCTION `??aps_AddGroup::?relay`,00H
        EXTERN `??bdb_RegisterCommissioningStatusCB::?relay`
        FUNCTION `??bdb_RegisterCommissioningStatusCB::?relay`,00H
        EXTERN `??bdb_RegisterSimpleDescriptor::?relay`
        FUNCTION `??bdb_RegisterSimpleDescriptor::?relay`,00H
        EXTERN `??bdb_RepAddAttrCfgRecordDefaultToList::?relay`
        FUNCTION `??bdb_RepAddAttrCfgRecordDefaultToList::?relay`,00H
        EXTERN `??bdb_StartCommissioning::?relay`
        FUNCTION `??bdb_StartCommissioning::?relay`,00H
        EXTERN `??bdb_ZedAttemptRecoverNwk::?relay`
        FUNCTION `??bdb_ZedAttemptRecoverNwk::?relay`,00H
        EXTERN `??osal_mem_free::?relay`
        FUNCTION `??osal_mem_free::?relay`,00H
        EXTERN `??osal_memcpy::?relay`
        FUNCTION `??osal_memcpy::?relay`,00H
        EXTERN `??osal_msg_deallocate::?relay`
        FUNCTION `??osal_msg_deallocate::?relay`,00H
        EXTERN `??osal_msg_receive::?relay`
        FUNCTION `??osal_msg_receive::?relay`,00H
        EXTERN `??osal_start_timerEx::?relay`
        FUNCTION `??osal_start_timerEx::?relay`,00H
        EXTERN `??zclGeneral_RegisterCmdCallbacks::?relay`
        FUNCTION `??zclGeneral_RegisterCmdCallbacks::?relay`,00H
        EXTERN `??zclZEM_ResetAttributesToDefaultValues::?relay`
        FUNCTION `??zclZEM_ResetAttributesToDefaultValues::?relay`,00H
        EXTERN `??zcl_registerAttrList::?relay`
        FUNCTION `??zcl_registerAttrList::?relay`,00H
        EXTERN `??zcl_registerForMsg::?relay`
        FUNCTION `??zcl_registerForMsg::?relay`,00H
        EXTERN AF_DataRequest
        FUNCTION AF_DataRequest,0202H
        ARGFRAME ISTACK, 0, STACK
        ARGFRAME PSTACK, 0, STACK
        ARGFRAME XSTACK, 47, STACK
        ARGFRAME IOVERLAY, 0, STATIC
        ARGFRAME DOVERLAY, 0, STATIC
        EXTERN HalUARTOpen
        FUNCTION HalUARTOpen,0202H
        ARGFRAME ISTACK, 0, STACK
        ARGFRAME PSTACK, 0, STACK
        ARGFRAME XSTACK, 89, STACK
        ARGFRAME IOVERLAY, 0, STATIC
        ARGFRAME DOVERLAY, 0, STATIC
        EXTERN HalUARTRead
        FUNCTION HalUARTRead,0202H
        ARGFRAME ISTACK, 0, STACK
        ARGFRAME PSTACK, 0, STACK
        ARGFRAME XSTACK, 9, STACK
        ARGFRAME IOVERLAY, 0, STATIC
        ARGFRAME DOVERLAY, 0, STATIC
        EXTERN HalUARTWrite
        FUNCTION HalUARTWrite,0202H
        ARGFRAME ISTACK, 2, STACK
        ARGFRAME PSTACK, 0, STACK
        ARGFRAME XSTACK, 89, STACK
        ARGFRAME IOVERLAY, 0, STATIC
        ARGFRAME DOVERLAY, 0, STATIC
        EXTERN Hal_UART_RxBufLen
        FUNCTION Hal_UART_RxBufLen,0202H
        ARGFRAME ISTACK, 0, STACK
        ARGFRAME PSTACK, 0, STACK
        ARGFRAME XSTACK, 9, STACK
        ARGFRAME IOVERLAY, 0, STATIC
        ARGFRAME DOVERLAY, 0, STATIC
        EXTERN NLME_GetExtAddr
        FUNCTION NLME_GetExtAddr,0202H
        ARGFRAME ISTACK, 0, STACK
        ARGFRAME PSTACK, 0, STACK
        ARGFRAME XSTACK, 68, STACK
        ARGFRAME IOVERLAY, 0, STATIC
        ARGFRAME DOVERLAY, 0, STATIC
        EXTERN RegisterForKeys
        FUNCTION RegisterForKeys,0202H
        ARGFRAME ISTACK, 0, STACK
        ARGFRAME PSTACK, 0, STACK
        ARGFRAME XSTACK, 89, STACK
        ARGFRAME IOVERLAY, 0, STATIC
        ARGFRAME DOVERLAY, 0, STATIC
        EXTERN RegisterVoltageWarningCB
        FUNCTION RegisterVoltageWarningCB,0202H
        ARGFRAME ISTACK, 0, STACK
        ARGFRAME PSTACK, 0, STACK
        ARGFRAME XSTACK, 89, STACK
        ARGFRAME IOVERLAY, 0, STATIC
        ARGFRAME DOVERLAY, 0, STATIC
        EXTERN aps_AddGroup
        FUNCTION aps_AddGroup,0202H
        ARGFRAME ISTACK, 0, STACK
        ARGFRAME PSTACK, 0, STACK
        ARGFRAME XSTACK, 89, STACK
        ARGFRAME IOVERLAY, 0, STATIC
        ARGFRAME DOVERLAY, 0, STATIC
        EXTERN bdb_RegisterCommissioningStatusCB
        FUNCTION bdb_RegisterCommissioningStatusCB,0202H
        ARGFRAME ISTACK, 0, STACK
        ARGFRAME PSTACK, 0, STACK
        ARGFRAME XSTACK, 89, STACK
        ARGFRAME IOVERLAY, 0, STATIC
        ARGFRAME DOVERLAY, 0, STATIC
        EXTERN bdb_RegisterSimpleDescriptor
        FUNCTION bdb_RegisterSimpleDescriptor,0202H
        ARGFRAME ISTACK, 0, STACK
        ARGFRAME PSTACK, 0, STACK
        ARGFRAME XSTACK, 89, STACK
        ARGFRAME IOVERLAY, 0, STATIC
        ARGFRAME DOVERLAY, 0, STATIC
        EXTERN bdb_RepAddAttrCfgRecordDefaultToList
        FUNCTION bdb_RepAddAttrCfgRecordDefaultToList,0202H
        ARGFRAME ISTACK, 0, STACK
        ARGFRAME PSTACK, 0, STACK
        ARGFRAME XSTACK, 95, STACK
        ARGFRAME IOVERLAY, 0, STATIC
        ARGFRAME DOVERLAY, 0, STATIC
        EXTERN bdb_StartCommissioning
        FUNCTION bdb_StartCommissioning,0202H
        ARGFRAME ISTACK, 2, STACK
        ARGFRAME PSTACK, 0, STACK
        ARGFRAME XSTACK, 89, STACK
        ARGFRAME IOVERLAY, 0, STATIC
        ARGFRAME DOVERLAY, 0, STATIC
        EXTERN bdb_ZedAttemptRecoverNwk
        FUNCTION bdb_ZedAttemptRecoverNwk,0202H
        ARGFRAME ISTACK, 0, STACK
        ARGFRAME PSTACK, 0, STACK
        ARGFRAME XSTACK, 38, STACK
        ARGFRAME IOVERLAY, 0, STATIC
        ARGFRAME DOVERLAY, 0, STATIC
        EXTERN osal_mem_free
        FUNCTION osal_mem_free,0202H
        ARGFRAME ISTACK, 0, STACK
        ARGFRAME PSTACK, 0, STACK
        ARGFRAME XSTACK, 9, STACK
        ARGFRAME IOVERLAY, 0, STATIC
        ARGFRAME DOVERLAY, 0, STATIC
        EXTERN osal_memcpy
        FUNCTION osal_memcpy,0202H
        ARGFRAME ISTACK, 0, STACK
        ARGFRAME PSTACK, 0, STACK
        ARGFRAME XSTACK, 86, STACK
        ARGFRAME IOVERLAY, 0, STATIC
        ARGFRAME DOVERLAY, 0, STATIC
        EXTERN osal_msg_deallocate
        FUNCTION osal_msg_deallocate,0202H
        ARGFRAME ISTACK, 0, STACK
        ARGFRAME PSTACK, 0, STACK
        ARGFRAME XSTACK, 38, STACK
        ARGFRAME IOVERLAY, 0, STATIC
        ARGFRAME DOVERLAY, 0, STATIC
        EXTERN osal_msg_receive
        FUNCTION osal_msg_receive,0202H
        ARGFRAME ISTACK, 0, STACK
        ARGFRAME PSTACK, 0, STACK
        ARGFRAME XSTACK, 38, STACK
        ARGFRAME IOVERLAY, 0, STATIC
        ARGFRAME DOVERLAY, 0, STATIC
        EXTERN osal_start_timerEx
        FUNCTION osal_start_timerEx,0202H
        ARGFRAME ISTACK, 2, STACK
        ARGFRAME PSTACK, 0, STACK
        ARGFRAME XSTACK, 93, STACK
        ARGFRAME IOVERLAY, 0, STATIC
        ARGFRAME DOVERLAY, 0, STATIC
        EXTERN zclGeneral_RegisterCmdCallbacks
        FUNCTION zclGeneral_RegisterCmdCallbacks,0202H
        ARGFRAME ISTACK, 0, STACK
        ARGFRAME PSTACK, 0, STACK
        ARGFRAME XSTACK, 89, STACK
        ARGFRAME IOVERLAY, 0, STATIC
        ARGFRAME DOVERLAY, 0, STATIC
        EXTERN zclZEM_Attrs
        EXTERN zclZEM_NumAttributes
        EXTERN zclZEM_ResetAttributesToDefaultValues
        FUNCTION zclZEM_ResetAttributesToDefaultValues,0202H
        ARGFRAME ISTACK, 2, STACK
        ARGFRAME PSTACK, 0, STACK
        ARGFRAME XSTACK, 89, STACK
        ARGFRAME IOVERLAY, 0, STATIC
        ARGFRAME DOVERLAY, 0, STATIC
        EXTERN zclZEM_SimpleDesc
        EXTERN zcl_registerAttrList
        FUNCTION zcl_registerAttrList,0202H
        ARGFRAME ISTACK, 0, STACK
        ARGFRAME PSTACK, 0, STACK
        ARGFRAME XSTACK, 89, STACK
        ARGFRAME IOVERLAY, 0, STATIC
        ARGFRAME DOVERLAY, 0, STATIC
        EXTERN zcl_registerForMsg
        FUNCTION zcl_registerForMsg,0202H
        ARGFRAME ISTACK, 0, STACK
        ARGFRAME PSTACK, 0, STACK
        ARGFRAME XSTACK, 89, STACK
        ARGFRAME IOVERLAY, 0, STATIC
        ARGFRAME DOVERLAY, 0, STATIC
        EXTERN zdpExternalStateTaskID

// C:\Users\ASUS\Desktop\work\graduration project\software\Z-Stack 3.0.2\Projects\zstack\HomeAutomation\ZEM\Source\zcl_ZEM.c
//    1 /*********************************************************************
//    2  * INCLUDES
//    3  */
//    4 #include "ZComDef.h"
//    5 #include "OSAL.h"
//    6 #include "AF.h"
//    7 #include "ZDApp.h"
//    8 #include "ZDObject.h"
//    9 #include "ZDProfile.h"
//   10 #include "MT_SYS.h"
//   11 
//   12 #include "zcl.h"
//   13 #include "zcl_general.h"
//   14 #include "zcl_ha.h"
//   15 #include "zcl_ms.h"
//   16 
//   17 #include "zcl_ZEM.h"
//   18 
//   19 #include "onboard.h"

        ASEGN SFR_AN:DATA:NOROOT,0f1H
// unsigned char volatile __sfr PERCFG
PERCFG:
        DATA8
        DS 1

        ASEGN SFR_AN:DATA:NOROOT,0f4H
// unsigned char volatile __sfr P1SEL
P1SEL:
        DATA8
        DS 1

        ASEGN SFR_AN:DATA:NOROOT,0feH
// unsigned char volatile __sfr P1DIR
P1DIR:
        DATA8
        DS 1
//   20 
//   21 /* HAL */
//   22 #include "hal_lcd.h"
//   23 #include "hal_led.h"
//   24 #include "hal_key.h"
//   25 #include "hal_uart.h"
//   26 
//   27 #include "bdb_interface.h"
//   28 #include "bdb_Reporting.h"
//   29    
//   30 /*********************************************************************
//   31  * MACROS
//   32  */
//   33 
//   34 // how often to report temperature
//   35 #define ZEM_REPORT_INTERVAL   10000
//   36 
//   37 #define GUI_LOCAL_TEMP    1
//   38 
//   39 #define APP_TITLE "   Temp Sensor  "
//   40 
//   41 /*********************************************************************
//   42  * CONSTANTS
//   43  */
//   44 
//   45 /*********************************************************************
//   46  * TYPEDEFS
//   47  */
//   48 
//   49 /*********************************************************************
//   50  * GLOBAL VARIABLES
//   51  */

        RSEG XDATA_Z:XDATA:NOROOT(0)
        DATA8
//   52 byte zclZEM_TaskID;
zclZEM_TaskID:
        DS 1
        REQUIRE __INIT_XDATA_Z
//   53 
//   54 extern int16 zdpExternalStateTaskID;
//   55 
//   56 // UART Buffer

        RSEG XDATA_Z:XDATA:NOROOT(0)
        DATA8
//   57 static uint8 zclZEM_UartBuf[ZCLZEM_UART_BUF_LEN];
zclZEM_UartBuf:
        DS 64
        REQUIRE __INIT_XDATA_Z
//   58 
//   59 /*********************************************************************
//   60  * GLOBAL FUNCTIONS
//   61  */
//   62 
//   63 /*********************************************************************
//   64  * LOCAL VARIABLES
//   65  */
//   66 

        RSEG XDATA_Z:XDATA:NOROOT(0)
        DATA8
//   67 uint8 zclZEM_NwkState = 0; // DEV_INIT
zclZEM_NwkState:
        DS 1
        REQUIRE __INIT_XDATA_Z
//   68 
//   69 //static uint8 aProcessCmd[] = { 1, 0, 0, 0 }; // used for reset command, { length + cmd0 + cmd1 + data }
//   70 
//   71 // Application Endpoint for data communication

        RSEG XDATA_I:XDATA:NOROOT(0)
//   72 static endPointDesc_t ZEM_AppEp =
ZEM_AppEp:
        DATA8
        DS 7
        REQUIRE `?<Initializer for ZEM_AppEp>`
        REQUIRE __INIT_XDATA_I
//   73 {
//   74   ZEM_ENDPOINT,                       // Application endpoint
//   75   0,
//   76   &zclZEM_TaskID,
//   77   &zclZEM_SimpleDesc,                 // Simple description for this application
//   78   (afNetworkLatencyReq_t)0            // No Network Latency req
//   79 };
//   80 #ifdef BDB_REPORTING
//   81 #if BDBREPORTING_MAX_ANALOG_ATTR_SIZE == 8
//   82   uint8 reportableChange[] = {0x2C, 0x01, 0x00, 0x00, 0x00, 0x00, 0x00, 0x00}; // 0x2C01 is 300 in int16
//   83 #endif
//   84 #if BDBREPORTING_MAX_ANALOG_ATTR_SIZE == 4

        RSEG XDATA_I:XDATA:NOROOT(0)
//   85   uint8 reportableChange[] = {0x2C, 0x01, 0x00, 0x00}; // 0x2C01 is 300 in int16
reportableChange:
        DATA32
        DS 4
        REQUIRE `?<Initializer for reportableChange>`
        REQUIRE __INIT_XDATA_I
//   86 #endif 
//   87 #if BDBREPORTING_MAX_ANALOG_ATTR_SIZE == 2
//   88   uint8 reportableChange[] = {0x2C, 0x01}; // 0x2C01 is 300 in int16
//   89 #endif 
//   90 #endif
//   91 
//   92 /*********************************************************************
//   93  * LOCAL FUNCTIONS
//   94  */
//   95 static void zclZEM_HandleKeys( byte shift, byte keys );
//   96 static void zclZEM_BasicResetCB( void );
//   97 
//   98 static void zclZEM_ProcessCommissioningStatus(bdbCommissioningModeMsg_t* bdbCommissioningModeMsg);
//   99 
//  100 // Functions to process ZCL Foundation incoming Command/Response messages
//  101 static void zclZEM_ProcessIncomingMsg( zclIncomingMsg_t *msg );
//  102 #ifdef ZCL_READ
//  103 static uint8 zclZEM_ProcessInReadRspCmd( zclIncomingMsg_t *pInMsg );
//  104 #endif
//  105 #ifdef ZCL_WRITE
//  106 static uint8 zclZEM_ProcessInWriteRspCmd( zclIncomingMsg_t *pInMsg );
//  107 #endif
//  108 static uint8 zclZEM_ProcessInDefaultRspCmd( zclIncomingMsg_t *pInMsg );
//  109 #ifdef ZCL_DISCOVER
//  110 static uint8 zclZEM_ProcessInDiscCmdsRspCmd( zclIncomingMsg_t *pInMsg );
//  111 static uint8 zclZEM_ProcessInDiscAttrsRspCmd( zclIncomingMsg_t *pInMsg );
//  112 static uint8 zclZEM_ProcessInDiscAttrsExtRspCmd( zclIncomingMsg_t *pInMsg );
//  113 #endif // ZCL_DISCOVER
//  114 
//  115 static void zclSampleApp_BatteryWarningCB( uint8 voltLevel);
//  116 
//  117 /*********************************************************************
//  118  * STATUS STRINGS
//  119  */
//  120 
//  121 /*********************************************************************
//  122  * CONSTANTS
//  123  */
//  124 
//  125 
//  126 /*********************************************************************
//  127  * ZCL General Profile Callback table
//  128  */

        RSEG XDATA_I:XDATA:NOROOT(0)
//  129 static zclGeneral_AppCallbacks_t zclZEM_CmdCallbacks =
zclZEM_CmdCallbacks:
        DATA8
        DS 18
        REQUIRE `?<Initializer for zclZEM_CmdCallbacks>`
        REQUIRE __INIT_XDATA_I
//  130 {
//  131   zclZEM_BasicResetCB,        // Basic Cluster Reset command
//  132   NULL,                                           // Identify Trigger Effect command
//  133   NULL,             				                      // On/Off cluster command
//  134   NULL,                                           // On/Off cluster enhanced command Off with Effect
//  135   NULL,                                           // On/Off cluster enhanced command On with Recall Global Scene
//  136   NULL,                                           // On/Off cluster enhanced command On with Timed Off
//  137 #ifdef ZCL_LEVEL_CTRL
//  138   NULL,                                           // Level Control Move to Level command
//  139   NULL,                                           // Level Control Move command
//  140   NULL,                                           // Level Control Step command
//  141   NULL,                                           // Level Control Stop command
//  142 #endif
//  143 #ifdef ZCL_GROUPS
//  144   NULL,                                           // Group Response commands
//  145 #endif
//  146 #ifdef ZCL_SCENES
//  147   NULL,                                           // Scene Store Request command
//  148   NULL,                                           // Scene Recall Request command
//  149   NULL,                                           // Scene Response command
//  150 #endif
//  151 #ifdef ZCL_ALARMS
//  152   NULL,                                           // Alarm (Response) commands
//  153 #endif
//  154 #ifdef SE_UK_EXT
//  155   NULL,                                           // Get Event Log command
//  156   NULL,                                           // Publish Event Log command
//  157 #endif
//  158   NULL,                                           // RSSI Location command
//  159   NULL                                            // RSSI Location Response command
//  160 };
//  161 
//  162 /*********************************************************************
//  163  * @fn          zclZEM_Init
//  164  *
//  165  * @brief       Initialization function for the zclGeneral layer.
//  166  *
//  167  * @param       none
//  168  *
//  169  * @return      none
//  170  */

        RSEG BANKED_CODE:HUGECODE:NOROOT(0)
//  171 void zclZEM_Init( byte task_id )
zclZEM_Init:
          CFI Block cfiBlock0 Using cfiCommon0
          CFI Function zclZEM_Init
        CODE
//  172 {
        FUNCALL zclZEM_Init, bdb_RegisterSimpleDescriptor
        LOCFRAME ISTACK, 0, STACK
        LOCFRAME PSTACK, 0, STACK
        LOCFRAME XSTACK, 89, STACK
        LOCFRAME IOVERLAY, 0, STATIC
        LOCFRAME DOVERLAY, 0, STATIC
        ARGFRAME ISTACK, 0, STACK
        ARGFRAME PSTACK, 0, STACK
        ARGFRAME XSTACK, 89, STACK
        ARGFRAME IOVERLAY, 0, STATIC
        ARGFRAME DOVERLAY, 0, STATIC
        FUNCALL zclZEM_Init, zclGeneral_RegisterCmdCallbacks
        LOCFRAME ISTACK, 0, STACK
        LOCFRAME PSTACK, 0, STACK
        LOCFRAME XSTACK, 89, STACK
        LOCFRAME IOVERLAY, 0, STATIC
        LOCFRAME DOVERLAY, 0, STATIC
        ARGFRAME ISTACK, 0, STACK
        ARGFRAME PSTACK, 0, STACK
        ARGFRAME XSTACK, 89, STACK
        ARGFRAME IOVERLAY, 0, STATIC
        ARGFRAME DOVERLAY, 0, STATIC
        FUNCALL zclZEM_Init, zclZEM_ResetAttributesToDefaultValues
        LOCFRAME ISTACK, 0, STACK
        LOCFRAME PSTACK, 0, STACK
        LOCFRAME XSTACK, 89, STACK
        LOCFRAME IOVERLAY, 0, STATIC
        LOCFRAME DOVERLAY, 0, STATIC
        ARGFRAME ISTACK, 0, STACK
        ARGFRAME PSTACK, 0, STACK
        ARGFRAME XSTACK, 89, STACK
        ARGFRAME IOVERLAY, 0, STATIC
        ARGFRAME DOVERLAY, 0, STATIC
        FUNCALL zclZEM_Init, zcl_registerAttrList
        LOCFRAME ISTACK, 0, STACK
        LOCFRAME PSTACK, 0, STACK
        LOCFRAME XSTACK, 89, STACK
        LOCFRAME IOVERLAY, 0, STATIC
        LOCFRAME DOVERLAY, 0, STATIC
        ARGFRAME ISTACK, 0, STACK
        ARGFRAME PSTACK, 0, STACK
        ARGFRAME XSTACK, 89, STACK
        ARGFRAME IOVERLAY, 0, STATIC
        ARGFRAME DOVERLAY, 0, STATIC
        FUNCALL zclZEM_Init, zcl_registerForMsg
        LOCFRAME ISTACK, 0, STACK
        LOCFRAME PSTACK, 0, STACK
        LOCFRAME XSTACK, 89, STACK
        LOCFRAME IOVERLAY, 0, STATIC
        LOCFRAME DOVERLAY, 0, STATIC
        ARGFRAME ISTACK, 0, STACK
        ARGFRAME PSTACK, 0, STACK
        ARGFRAME XSTACK, 89, STACK
        ARGFRAME IOVERLAY, 0, STATIC
        ARGFRAME DOVERLAY, 0, STATIC
        FUNCALL zclZEM_Init, RegisterVoltageWarningCB
        LOCFRAME ISTACK, 0, STACK
        LOCFRAME PSTACK, 0, STACK
        LOCFRAME XSTACK, 89, STACK
        LOCFRAME IOVERLAY, 0, STATIC
        LOCFRAME DOVERLAY, 0, STATIC
        ARGFRAME ISTACK, 0, STACK
        ARGFRAME PSTACK, 0, STACK
        ARGFRAME XSTACK, 89, STACK
        ARGFRAME IOVERLAY, 0, STATIC
        ARGFRAME DOVERLAY, 0, STATIC
        FUNCALL zclZEM_Init, RegisterForKeys
        LOCFRAME ISTACK, 0, STACK
        LOCFRAME PSTACK, 0, STACK
        LOCFRAME XSTACK, 89, STACK
        LOCFRAME IOVERLAY, 0, STATIC
        LOCFRAME DOVERLAY, 0, STATIC
        ARGFRAME ISTACK, 0, STACK
        ARGFRAME PSTACK, 0, STACK
        ARGFRAME XSTACK, 89, STACK
        ARGFRAME IOVERLAY, 0, STATIC
        ARGFRAME DOVERLAY, 0, STATIC
        FUNCALL zclZEM_Init, bdb_RegisterCommissioningStatusCB
        LOCFRAME ISTACK, 0, STACK
        LOCFRAME PSTACK, 0, STACK
        LOCFRAME XSTACK, 89, STACK
        LOCFRAME IOVERLAY, 0, STATIC
        LOCFRAME DOVERLAY, 0, STATIC
        ARGFRAME ISTACK, 0, STACK
        ARGFRAME PSTACK, 0, STACK
        ARGFRAME XSTACK, 89, STACK
        ARGFRAME IOVERLAY, 0, STATIC
        ARGFRAME DOVERLAY, 0, STATIC
        FUNCALL zclZEM_Init, bdb_StartCommissioning
        LOCFRAME ISTACK, 0, STACK
        LOCFRAME PSTACK, 0, STACK
        LOCFRAME XSTACK, 89, STACK
        LOCFRAME IOVERLAY, 0, STATIC
        LOCFRAME DOVERLAY, 0, STATIC
        ARGFRAME ISTACK, 0, STACK
        ARGFRAME PSTACK, 0, STACK
        ARGFRAME XSTACK, 89, STACK
        ARGFRAME IOVERLAY, 0, STATIC
        ARGFRAME DOVERLAY, 0, STATIC
        FUNCALL zclZEM_Init, aps_AddGroup
        LOCFRAME ISTACK, 0, STACK
        LOCFRAME PSTACK, 0, STACK
        LOCFRAME XSTACK, 89, STACK
        LOCFRAME IOVERLAY, 0, STATIC
        LOCFRAME DOVERLAY, 0, STATIC
        ARGFRAME ISTACK, 0, STACK
        ARGFRAME PSTACK, 0, STACK
        ARGFRAME XSTACK, 89, STACK
        ARGFRAME IOVERLAY, 0, STATIC
        ARGFRAME DOVERLAY, 0, STATIC
        FUNCALL zclZEM_Init, osal_start_timerEx
        LOCFRAME ISTACK, 0, STACK
        LOCFRAME PSTACK, 0, STACK
        LOCFRAME XSTACK, 93, STACK
        LOCFRAME IOVERLAY, 0, STATIC
        LOCFRAME DOVERLAY, 0, STATIC
        ARGFRAME ISTACK, 0, STACK
        ARGFRAME PSTACK, 0, STACK
        ARGFRAME XSTACK, 93, STACK
        ARGFRAME IOVERLAY, 0, STATIC
        ARGFRAME DOVERLAY, 0, STATIC
        FUNCALL zclZEM_Init, HalUARTOpen
        LOCFRAME ISTACK, 0, STACK
        LOCFRAME PSTACK, 0, STACK
        LOCFRAME XSTACK, 89, STACK
        LOCFRAME IOVERLAY, 0, STATIC
        LOCFRAME DOVERLAY, 0, STATIC
        ARGFRAME ISTACK, 0, STACK
        ARGFRAME PSTACK, 0, STACK
        ARGFRAME XSTACK, 89, STACK
        ARGFRAME IOVERLAY, 0, STATIC
        ARGFRAME DOVERLAY, 0, STATIC
        FUNCALL zclZEM_Init, zclZEM_ReadAndSendMAC
        LOCFRAME ISTACK, 0, STACK
        LOCFRAME PSTACK, 0, STACK
        LOCFRAME XSTACK, 89, STACK
        LOCFRAME IOVERLAY, 0, STATIC
        LOCFRAME DOVERLAY, 0, STATIC
        ARGFRAME ISTACK, 0, STACK
        ARGFRAME PSTACK, 0, STACK
        ARGFRAME XSTACK, 89, STACK
        ARGFRAME IOVERLAY, 0, STATIC
        ARGFRAME DOVERLAY, 0, STATIC
        FUNCALL zclZEM_Init, HalUARTWrite
        LOCFRAME ISTACK, 0, STACK
        LOCFRAME PSTACK, 0, STACK
        LOCFRAME XSTACK, 89, STACK
        LOCFRAME IOVERLAY, 0, STATIC
        LOCFRAME DOVERLAY, 0, STATIC
        ARGFRAME ISTACK, 0, STACK
        ARGFRAME PSTACK, 0, STACK
        ARGFRAME XSTACK, 89, STACK
        ARGFRAME IOVERLAY, 0, STATIC
        ARGFRAME DOVERLAY, 0, STATIC
        FUNCALL zclZEM_Init, HalUARTWrite
        LOCFRAME ISTACK, 0, STACK
        LOCFRAME PSTACK, 0, STACK
        LOCFRAME XSTACK, 89, STACK
        LOCFRAME IOVERLAY, 0, STATIC
        LOCFRAME DOVERLAY, 0, STATIC
        ARGFRAME ISTACK, 0, STACK
        ARGFRAME PSTACK, 0, STACK
        ARGFRAME XSTACK, 89, STACK
        ARGFRAME IOVERLAY, 0, STATIC
        ARGFRAME DOVERLAY, 0, STATIC
        FUNCALL zclZEM_Init, bdb_RepAddAttrCfgRecordDefaultToList
        LOCFRAME ISTACK, 0, STACK
        LOCFRAME PSTACK, 0, STACK
        LOCFRAME XSTACK, 95, STACK
        LOCFRAME IOVERLAY, 0, STATIC
        LOCFRAME DOVERLAY, 0, STATIC
        ARGFRAME ISTACK, 0, STACK
        ARGFRAME PSTACK, 0, STACK
        ARGFRAME XSTACK, 95, STACK
        ARGFRAME IOVERLAY, 0, STATIC
        ARGFRAME DOVERLAY, 0, STATIC
        FUNCALL zclZEM_Init, osal_start_timerEx
        LOCFRAME ISTACK, 0, STACK
        LOCFRAME PSTACK, 0, STACK
        LOCFRAME XSTACK, 93, STACK
        LOCFRAME IOVERLAY, 0, STATIC
        LOCFRAME DOVERLAY, 0, STATIC
        ARGFRAME ISTACK, 0, STACK
        ARGFRAME PSTACK, 0, STACK
        ARGFRAME XSTACK, 93, STACK
        ARGFRAME IOVERLAY, 0, STATIC
        ARGFRAME DOVERLAY, 0, STATIC
        REQUIRE ?V0
        REQUIRE ?V1
        MOV       A,#-0xa
        LCALL     ?BANKED_ENTER_XDATA
          CFI DPH0 load(1, XDATA, add(CFA_XSP16, literal(-1)))
          CFI DPL0 load(1, XDATA, add(CFA_XSP16, literal(-2)))
          CFI ?BRET_EXT load(1, XDATA, add(CFA_XSP16, literal(-3)))
          CFI ?RET_HIGH load(1, XDATA, add(CFA_XSP16, literal(-4)))
          CFI ?RET_LOW load(1, XDATA, add(CFA_XSP16, literal(-5)))
          CFI R7 load(1, XDATA, add(CFA_XSP16, literal(-6)))
          CFI V1 load(1, XDATA, add(CFA_XSP16, literal(-7)))
          CFI V0 load(1, XDATA, add(CFA_XSP16, literal(-8)))
          CFI VB load(1, XDATA, add(CFA_XSP16, literal(-9)))
          CFI R6 load(1, XDATA, add(CFA_XSP16, literal(-10)))
          CFI CFA_SP SP+0
          CFI CFA_XSP16 add(XSP16, 10)
        ; Saved register size: 10
        ; Auto size: 79
        MOV       A,#-0x4f
        LCALL     ?ALLOC_XSTACK8
          CFI CFA_XSP16 add(XSP16, 89)
        MOV       A,R1
//  173   zclZEM_TaskID = task_id;
        MOV       DPTR,#zclZEM_TaskID
        MOVX      @DPTR,A
//  174 
//  175   // Register the Simple Descriptor for this application
//  176   bdb_RegisterSimpleDescriptor( &zclZEM_SimpleDesc ); 
        ; Setup parameters for call to function bdb_RegisterSimpleDescriptor
        MOV       R2,#zclZEM_SimpleDesc & 0xff
        MOV       R3,#(zclZEM_SimpleDesc >> 8) & 0xff
        LCALL     `??bdb_RegisterSimpleDescriptor::?relay`; Banked call to: bdb_RegisterSimpleDescriptor
//  177   
//  178   // Register the ZCL General Cluster Library callback functions
//  179   zclGeneral_RegisterCmdCallbacks( ZEM_ENDPOINT, &zclZEM_CmdCallbacks );
        ; Setup parameters for call to function zclGeneral_RegisterCmdCallbacks
        MOV       R2,#zclZEM_CmdCallbacks & 0xff
        MOV       R3,#(zclZEM_CmdCallbacks >> 8) & 0xff
        MOV       R1,#0x8
        LCALL     `??zclGeneral_RegisterCmdCallbacks::?relay`; Banked call to: zclGeneral_RegisterCmdCallbacks
//  180 
//  181   // Register the application's attribute list
//  182   zclZEM_ResetAttributesToDefaultValues();
        ; Setup parameters for call to function zclZEM_ResetAttributesToDefaultValues
        LCALL     `??zclZEM_ResetAttributesToDefaultValues::?relay`; Banked call to: zclZEM_ResetAttributesToDefaultValues
//  183   zcl_registerAttrList( ZEM_ENDPOINT, zclZEM_NumAttributes, zclZEM_Attrs );
        ; Setup parameters for call to function zcl_registerAttrList
        MOV       R4,#zclZEM_Attrs & 0xff
        MOV       R5,#(zclZEM_Attrs >> 8) & 0xff
        MOV       DPTR,#zclZEM_NumAttributes
        CLR       A
        MOVC      A,@A+DPTR
        MOV       R2,A
        MOV       R1,#0x8
        LCALL     `??zcl_registerAttrList::?relay`; Banked call to: zcl_registerAttrList
//  184 
//  185   // Register the Application to receive the unprocessed Foundation command/response messages
//  186   zcl_registerForMsg( zclZEM_TaskID );
        ; Setup parameters for call to function zcl_registerForMsg
        MOV       DPTR,#zclZEM_TaskID
        MOVX      A,@DPTR
        MOV       R1,A
        LCALL     `??zcl_registerForMsg::?relay`; Banked call to: zcl_registerForMsg
//  187 
//  188   // Register low voltage NV memory protection application callback
//  189   RegisterVoltageWarningCB( zclSampleApp_BatteryWarningCB );
        ; Setup parameters for call to function RegisterVoltageWarningCB
        MOV       R2,#`??zclSampleApp_BatteryWarningCB::?relay` & 0xff
        MOV       R3,#(`??zclSampleApp_BatteryWarningCB::?relay` >> 8) & 0xff
        LCALL     `??RegisterVoltageWarningCB::?relay`; Banked call to: RegisterVoltageWarningCB
//  190 
//  191   // Register for all key events - This app will handle all key events
//  192   RegisterForKeys( zclZEM_TaskID );
        ; Setup parameters for call to function RegisterForKeys
        MOV       DPTR,#zclZEM_TaskID
        MOVX      A,@DPTR
        MOV       R1,A
        LCALL     `??RegisterForKeys::?relay`; Banked call to: RegisterForKeys
//  193 
//  194   bdb_RegisterCommissioningStatusCB( zclZEM_ProcessCommissioningStatus );
        ; Setup parameters for call to function bdb_RegisterCommissioningStatusCB
        MOV       R2,#`??zclZEM_ProcessCommissioningStatus::?relay` & 0xff
        MOV       R3,#(`??zclZEM_ProcessCommissioningStatus::?relay` >> 8) & 0xff
        LCALL     `??bdb_RegisterCommissioningStatusCB::?relay`; Banked call to: bdb_RegisterCommissioningStatusCB
//  195 
//  196 #ifdef ZDO_COORDINATOR
//  197   bdb_StartCommissioning( BDB_COMMISSIONING_MODE_NWK_FORMATION |
//  198                           BDB_COMMISSIONING_MODE_FINDING_BINDING );
//  199   NLME_PermitJoiningRequest(255);
//  200   // Broadcast
//  201   osal_start_timerEx(zclZEM_TaskID,
//  202                      ZEM_BROADCAST_EVT,
//  203                      ZEM_BROADCAST_PERIOD);
//  204   // groupcast
//  205   osal_start_timerEx(zclZEM_TaskID,
//  206                      ZEM_GROUPCAST_EVT,
//  207                      ZEM_GROUPCAST_PERIOD);
//  208 #else
//  209   bdb_StartCommissioning( BDB_COMMISSIONING_MODE_NWK_STEERING |
//  210                           BDB_COMMISSIONING_MODE_FINDING_BINDING );
        ; Setup parameters for call to function bdb_StartCommissioning
        MOV       R1,#0xa
        LCALL     `??bdb_StartCommissioning::?relay`; Banked call to: bdb_StartCommissioning
//  211   // Add group
//  212   aps_Group_t group = {
//  213     .ID = GROUP_ID,
//  214     .name = "",
//  215   };
        MOV       DPTR,#`?<Constant {21, ""}>`
        MOV       A,#0x3d
        LCALL     ?XSTACK_DISP102_8
        MOV       A,#0x12
        LCALL     ?MOVE_LONG8_XDATA_XDATA
//  216   aps_AddGroup(ZEM_ENDPOINT, &group);
        ; Setup parameters for call to function aps_AddGroup
        MOV       A,#0x3d
        LCALL     ?XSTACK_DISP101_8
        MOV       R1,#0x8
        LCALL     `??aps_AddGroup::?relay`; Banked call to: aps_AddGroup
//  217   // P2P
//  218   osal_start_timerEx(zclZEM_TaskID,
//  219                      ZEM_P2P_EVT,
//  220                      ZEM_P2P_PERIOD);
        ; Setup parameters for call to function osal_start_timerEx
        MOV       DPTR,#__Constant_3e8
        LCALL     ?PUSH_XSTACK8_X_FOUR
          CFI CFA_XSP16 add(XSP16, 93)
        MOV       R2,#0x0
        MOV       R3,#0x2
        MOV       DPTR,#zclZEM_TaskID
        MOVX      A,@DPTR
        MOV       R1,A
        LCALL     `??osal_start_timerEx::?relay`; Banked call to: osal_start_timerEx
        MOV       A,#0x4
        LCALL     ?DEALLOC_XSTACK8
          CFI CFA_XSP16 add(XSP16, 89)
//  221 #endif
//  222 
//  223   // Initialize UART communication
//  224   zclZEM_InitUart();
        ORL       0xf1,#0x1
        ORL       0xf4,#0x30
        ORL       0xfe,#0x10
        ANL       0xfe,#0xdf
        MOV       DPL,?XSP + 0
        MOV       DPH,?XSP + 1
        MOV       A,#0x1
        MOVX      @DPTR,A
        LCALL     ?XSTACK_DISP0_8
        MOV       A,#0x4
        MOVX      @DPTR,A
        MOV       A,#0x2
        LCALL     ?XSTACK_DISP0_8
        CLR       A
        MOVX      @DPTR,A
        MOV       A,#0x3
        LCALL     ?XSTACK_DISP0_8
        CLR       A
        MOVX      @DPTR,A
        INC       DPTR
        MOVX      @DPTR,A
        MOV       A,#0xa
        LCALL     ?XSTACK_DISP0_8
        MOV       A,#0x40
        MOVX      @DPTR,A
        INC       DPTR
        CLR       A
        MOVX      @DPTR,A
        MOV       A,#0x12
        LCALL     ?XSTACK_DISP0_8
        CLR       A
        MOVX      @DPTR,A
        INC       DPTR
        MOVX      @DPTR,A
        MOV       A,#0x5
        LCALL     ?XSTACK_DISP0_8
        MOV       A,#0x6
        MOVX      @DPTR,A
        MOV       A,#0x16
        LCALL     ?XSTACK_DISP0_8
        MOV       A,#0x1
        MOVX      @DPTR,A
        MOV       A,#0x1b
        LCALL     ?XSTACK_DISP0_8
        MOV       A,#`??zclZEM_UartCB::?relay` & 0xff
        MOVX      @DPTR,A
        INC       DPTR
        MOV       A,#(`??zclZEM_UartCB::?relay` >> 8) & 0xff
        MOVX      @DPTR,A
        ; Setup parameters for call to function HalUARTOpen
        MOV       R2,?XSP + 0
        MOV       R3,?XSP + 1
        MOV       R1,#0x0
        LCALL     `??HalUARTOpen::?relay`; Banked call to: HalUARTOpen
//  225   
//  226   // Read and send MAC address
//  227   zclZEM_ReadAndSendMAC();
        ; Setup parameters for call to function zclZEM_ReadAndSendMAC
        LCALL     `??zclZEM_ReadAndSendMAC::?relay`; Banked call to: zclZEM_ReadAndSendMAC
//  228 
//  229   //  - 
//  230   uint8 testMsg[] = "Device Type Test: ";
        MOV       DPTR,#`?<Constant "Device Type Test: ">`
        MOV       A,#0x2a
        LCALL     ?XSTACK_DISP102_8
        MOV       A,#0x13
        LCALL     ?MOVE_LONG8_XDATA_XDATA
//  231   HalUARTWrite(HAL_UART_PORT_0, testMsg, sizeof(testMsg)-1);
        ; Setup parameters for call to function HalUARTWrite
        MOV       R4,#0x12
        MOV       R5,A
        MOV       A,#0x2a
        LCALL     ?XSTACK_DISP101_8
        MOV       R1,#0x0
        LCALL     `??HalUARTWrite::?relay`; Banked call to: HalUARTWrite
//  232   
//  233   #ifdef ZDO_COORDINATOR
//  234     uint8 deviceType[] = "Coordinator Device\r\n";
//  235   #elif defined(ZDO_ROUTER)
//  236     uint8 deviceType[] = "Router Device\r\n";
//  237   #else
//  238     uint8 deviceType[] = "End Device\r\n";
        MOV       DPTR,#`?<Constant "End Device\\r\\n">`
        MOV       A,#0x1d
        LCALL     ?XSTACK_DISP102_8
        MOV       A,#0xd
        LCALL     ?MOVE_LONG8_XDATA_XDATA
//  239   #endif
//  240   HalUARTWrite(HAL_UART_PORT_0, deviceType, sizeof(deviceType)-1);
        ; Setup parameters for call to function HalUARTWrite
        MOV       R4,#0xc
        MOV       R5,A
        MOV       A,#0x1d
        LCALL     ?XSTACK_DISP101_8
        MOV       R1,#0x0
        LCALL     `??HalUARTWrite::?relay`; Banked call to: HalUARTWrite
//  241 
//  242 #ifdef BDB_REPORTING
//  243   //Adds the default configuration values for the temperature attribute of the ZCL_CLUSTER_ID_MS_TEMPERATURE_MEASUREMENT cluster, for endpoint ZEM_ENDPOINT
//  244   //Default maxReportingInterval value is 10 seconds
//  245   //Default minReportingInterval value is 3 seconds
//  246   //Default reportChange value is 300 (3 degrees)
//  247   bdb_RepAddAttrCfgRecordDefaultToList(ZEM_ENDPOINT, ZCL_CLUSTER_ID_MS_TEMPERATURE_MEASUREMENT, ATTRID_MS_TEMPERATURE_MEASURED_VALUE, 0, 10, reportableChange);
        ; Setup parameters for call to function bdb_RepAddAttrCfgRecordDefaultToList
        MOV       ?V0,#reportableChange & 0xff
        MOV       ?V1,#(reportableChange >> 8) & 0xff
        MOV       R0,#?V0
        LCALL     ?PUSH_XSTACK_I_TWO
          CFI CFA_XSP16 add(XSP16, 91)
        MOV       ?V0,#0xa
        MOV       ?V1,#0x0
        MOV       R0,#?V0
        LCALL     ?PUSH_XSTACK_I_TWO
          CFI CFA_XSP16 add(XSP16, 93)
        CLR       A
        MOV       ?V0,A
        MOV       R0,#?V0
        LCALL     ?PUSH_XSTACK_I_TWO
          CFI CFA_XSP16 add(XSP16, 95)
        MOV       R4,#0x0
        MOV       R5,#0x0
        MOV       R2,#0x2
        MOV       R3,#0x4
        MOV       R1,#0x8
        LCALL     `??bdb_RepAddAttrCfgRecordDefaultToList::?relay`; Banked call to: bdb_RepAddAttrCfgRecordDefaultToList
        MOV       A,#0x6
        LCALL     ?DEALLOC_XSTACK8
          CFI CFA_XSP16 add(XSP16, 89)
//  248 #endif
//  249   
//  250   zdpExternalStateTaskID = zclZEM_TaskID;
        MOV       DPTR,#zclZEM_TaskID
        MOVX      A,@DPTR
        MOV       DPTR,#zdpExternalStateTaskID
        MOVX      @DPTR,A
        INC       DPTR
        CLR       A
        MOVX      @DPTR,A
//  251    osal_start_timerEx(
//  252       zclZEM_TaskID,
//  253       ZEMAPP_EVT,
//  254       3000);
        ; Setup parameters for call to function osal_start_timerEx
        MOV       DPTR,#__Constant_bb8
        LCALL     ?PUSH_XSTACK8_X_FOUR
          CFI CFA_XSP16 add(XSP16, 93)
        MOV       R2,#-0x80
        MOV       R3,#0x0
        MOV       DPTR,#zclZEM_TaskID
        MOVX      A,@DPTR
        MOV       R1,A
        LCALL     `??osal_start_timerEx::?relay`; Banked call to: osal_start_timerEx
        MOV       A,#0x4
        LCALL     ?DEALLOC_XSTACK8
          CFI CFA_XSP16 add(XSP16, 89)
//  255 }
        MOV       A,#0x4f
          CFI EndBlock cfiBlock0
        REQUIRE ?Subroutine0
        REQUIRE PERCFG
        REQUIRE P1SEL
        REQUIRE P1DIR
        ; // Fall through to label ?Subroutine0

        RSEG BANKED_CODE:HUGECODE:NOROOT(0)
?Subroutine0:
          CFI Block cfiBlock1 Using cfiCommon0
          CFI NoFunction
          CFI CFA_SP SP+0
          CFI CFA_XSP16 add(XSP16, 89)
          CFI VB load(1, XDATA, add(CFA_XSP16, literal(-9)))
          CFI DPL0 load(1, XDATA, add(CFA_XSP16, literal(-2)))
          CFI DPH0 load(1, XDATA, add(CFA_XSP16, literal(-1)))
          CFI R6 load(1, XDATA, add(CFA_XSP16, literal(-10)))
          CFI R7 load(1, XDATA, add(CFA_XSP16, literal(-6)))
          CFI V0 load(1, XDATA, add(CFA_XSP16, literal(-8)))
          CFI V1 load(1, XDATA, add(CFA_XSP16, literal(-7)))
          CFI ?BRET_EXT load(1, XDATA, add(CFA_XSP16, literal(-3)))
          CFI ?RET_HIGH load(1, XDATA, add(CFA_XSP16, literal(-4)))
          CFI ?RET_LOW load(1, XDATA, add(CFA_XSP16, literal(-5)))
          CFI Invalid
        LCALL     ?DEALLOC_XSTACK8
          CFI CFA_XSP16 add(XSP16, 10)
          CFI Valid
        MOV       R7,#0x2
        LJMP      ?BANKED_LEAVE_XDATA
          CFI EndBlock cfiBlock1

        RSEG XDATA_ROM_C:CONST:REORDER:NOROOT(0)
        DATA8
`?<Constant {21, ""}>`:
        DATA16
        DW 21
        DB ""
        DB 0, 0, 0, 0, 0, 0, 0, 0
        DB 0, 0, 0, 0, 0, 0, 0
//  256 
//  257 /*********************************************************************
//  258  * @fn          zclSample_event_loop
//  259  *
//  260  * @brief       Event Loop Processor for zclGeneral.
//  261  *
//  262  * @param       none
//  263  *
//  264  * @return      none
//  265  */

        RSEG BANKED_CODE:HUGECODE:NOROOT(0)
//  266 uint16 zclZEM_event_loop( uint8 task_id, uint16 events )
zclZEM_event_loop:
          CFI Block cfiBlock2 Using cfiCommon0
          CFI Function zclZEM_event_loop
        CODE
//  267 {
        FUNCALL zclZEM_event_loop, bdb_ZedAttemptRecoverNwk
        LOCFRAME ISTACK, 0, STACK
        LOCFRAME PSTACK, 0, STACK
        LOCFRAME XSTACK, 38, STACK
        LOCFRAME IOVERLAY, 0, STATIC
        LOCFRAME DOVERLAY, 0, STATIC
        ARGFRAME ISTACK, 0, STACK
        ARGFRAME PSTACK, 0, STACK
        ARGFRAME XSTACK, 38, STACK
        ARGFRAME IOVERLAY, 0, STATIC
        ARGFRAME DOVERLAY, 0, STATIC
        FUNCALL zclZEM_event_loop, osal_msg_deallocate
        LOCFRAME ISTACK, 0, STACK
        LOCFRAME PSTACK, 0, STACK
        LOCFRAME XSTACK, 38, STACK
        LOCFRAME IOVERLAY, 0, STATIC
        LOCFRAME DOVERLAY, 0, STATIC
        ARGFRAME ISTACK, 0, STACK
        ARGFRAME PSTACK, 0, STACK
        ARGFRAME XSTACK, 38, STACK
        ARGFRAME IOVERLAY, 0, STATIC
        ARGFRAME DOVERLAY, 0, STATIC
        FUNCALL zclZEM_event_loop, osal_msg_receive
        LOCFRAME ISTACK, 0, STACK
        LOCFRAME PSTACK, 0, STACK
        LOCFRAME XSTACK, 38, STACK
        LOCFRAME IOVERLAY, 0, STATIC
        LOCFRAME DOVERLAY, 0, STATIC
        ARGFRAME ISTACK, 0, STACK
        ARGFRAME PSTACK, 0, STACK
        ARGFRAME XSTACK, 38, STACK
        ARGFRAME IOVERLAY, 0, STATIC
        ARGFRAME DOVERLAY, 0, STATIC
        FUNCALL zclZEM_event_loop, zclZEM_ProcessIncomingMsg
        LOCFRAME ISTACK, 0, STACK
        LOCFRAME PSTACK, 0, STACK
        LOCFRAME XSTACK, 38, STACK
        LOCFRAME IOVERLAY, 0, STATIC
        LOCFRAME DOVERLAY, 0, STATIC
        ARGFRAME ISTACK, 0, STACK
        ARGFRAME PSTACK, 0, STACK
        ARGFRAME XSTACK, 38, STACK
        ARGFRAME IOVERLAY, 0, STATIC
        ARGFRAME DOVERLAY, 0, STATIC
        FUNCALL zclZEM_event_loop, zclZEM_AF_RxProc
        LOCFRAME ISTACK, 0, STACK
        LOCFRAME PSTACK, 0, STACK
        LOCFRAME XSTACK, 38, STACK
        LOCFRAME IOVERLAY, 0, STATIC
        LOCFRAME DOVERLAY, 0, STATIC
        ARGFRAME ISTACK, 0, STACK
        ARGFRAME PSTACK, 0, STACK
        ARGFRAME XSTACK, 38, STACK
        ARGFRAME IOVERLAY, 0, STATIC
        ARGFRAME DOVERLAY, 0, STATIC
        FUNCALL zclZEM_event_loop, AF_DataRequest
        LOCFRAME ISTACK, 0, STACK
        LOCFRAME PSTACK, 0, STACK
        LOCFRAME XSTACK, 47, STACK
        LOCFRAME IOVERLAY, 0, STATIC
        LOCFRAME DOVERLAY, 0, STATIC
        ARGFRAME ISTACK, 0, STACK
        ARGFRAME PSTACK, 0, STACK
        ARGFRAME XSTACK, 47, STACK
        ARGFRAME IOVERLAY, 0, STATIC
        ARGFRAME DOVERLAY, 0, STATIC
        FUNCALL zclZEM_event_loop, osal_start_timerEx
        LOCFRAME ISTACK, 0, STACK
        LOCFRAME PSTACK, 0, STACK
        LOCFRAME XSTACK, 42, STACK
        LOCFRAME IOVERLAY, 0, STATIC
        LOCFRAME DOVERLAY, 0, STATIC
        ARGFRAME ISTACK, 0, STACK
        ARGFRAME PSTACK, 0, STACK
        ARGFRAME XSTACK, 42, STACK
        ARGFRAME IOVERLAY, 0, STATIC
        ARGFRAME DOVERLAY, 0, STATIC
        FUNCALL zclZEM_event_loop, AF_DataRequest
        LOCFRAME ISTACK, 0, STACK
        LOCFRAME PSTACK, 0, STACK
        LOCFRAME XSTACK, 47, STACK
        LOCFRAME IOVERLAY, 0, STATIC
        LOCFRAME DOVERLAY, 0, STATIC
        ARGFRAME ISTACK, 0, STACK
        ARGFRAME PSTACK, 0, STACK
        ARGFRAME XSTACK, 47, STACK
        ARGFRAME IOVERLAY, 0, STATIC
        ARGFRAME DOVERLAY, 0, STATIC
        FUNCALL zclZEM_event_loop, osal_start_timerEx
        LOCFRAME ISTACK, 0, STACK
        LOCFRAME PSTACK, 0, STACK
        LOCFRAME XSTACK, 42, STACK
        LOCFRAME IOVERLAY, 0, STATIC
        LOCFRAME DOVERLAY, 0, STATIC
        ARGFRAME ISTACK, 0, STACK
        ARGFRAME PSTACK, 0, STACK
        ARGFRAME XSTACK, 42, STACK
        ARGFRAME IOVERLAY, 0, STATIC
        ARGFRAME DOVERLAY, 0, STATIC
        FUNCALL zclZEM_event_loop, zclZEM_AF_P2P
        LOCFRAME ISTACK, 0, STACK
        LOCFRAME PSTACK, 0, STACK
        LOCFRAME XSTACK, 40, STACK
        LOCFRAME IOVERLAY, 0, STATIC
        LOCFRAME DOVERLAY, 0, STATIC
        ARGFRAME ISTACK, 0, STACK
        ARGFRAME PSTACK, 0, STACK
        ARGFRAME XSTACK, 40, STACK
        ARGFRAME IOVERLAY, 0, STATIC
        ARGFRAME DOVERLAY, 0, STATIC
        FUNCALL zclZEM_event_loop, osal_start_timerEx
        LOCFRAME ISTACK, 0, STACK
        LOCFRAME PSTACK, 0, STACK
        LOCFRAME XSTACK, 42, STACK
        LOCFRAME IOVERLAY, 0, STATIC
        LOCFRAME DOVERLAY, 0, STATIC
        ARGFRAME ISTACK, 0, STACK
        ARGFRAME PSTACK, 0, STACK
        ARGFRAME XSTACK, 42, STACK
        ARGFRAME IOVERLAY, 0, STATIC
        ARGFRAME DOVERLAY, 0, STATIC
        REQUIRE ?V0
        REQUIRE ?V1
        REQUIRE ?V2
        REQUIRE ?V3
        MOV       A,#-0xc
        LCALL     ?BANKED_ENTER_XDATA
          CFI DPH0 load(1, XDATA, add(CFA_XSP16, literal(-1)))
          CFI DPL0 load(1, XDATA, add(CFA_XSP16, literal(-2)))
          CFI ?BRET_EXT load(1, XDATA, add(CFA_XSP16, literal(-3)))
          CFI ?RET_HIGH load(1, XDATA, add(CFA_XSP16, literal(-4)))
          CFI ?RET_LOW load(1, XDATA, add(CFA_XSP16, literal(-5)))
          CFI R7 load(1, XDATA, add(CFA_XSP16, literal(-6)))
          CFI V3 load(1, XDATA, add(CFA_XSP16, literal(-7)))
          CFI V2 load(1, XDATA, add(CFA_XSP16, literal(-8)))
          CFI V1 load(1, XDATA, add(CFA_XSP16, literal(-9)))
          CFI V0 load(1, XDATA, add(CFA_XSP16, literal(-10)))
          CFI VB load(1, XDATA, add(CFA_XSP16, literal(-11)))
          CFI R6 load(1, XDATA, add(CFA_XSP16, literal(-12)))
          CFI CFA_SP SP+0
          CFI CFA_XSP16 add(XSP16, 12)
        ; Saved register size: 12
        ; Auto size: 26
        MOV       A,#-0x1a
        LCALL     ?ALLOC_XSTACK8
          CFI CFA_XSP16 add(XSP16, 38)
        MOV       A,R2
        MOV       R6,A
        MOV       A,R3
        MOV       R7,A
//  268   afIncomingMSGPacket_t *MSGpkt;
//  269 
//  270   (void)task_id;  // Intentionally unreferenced parameter
//  271 
//  272   if ( events & SYS_EVENT_MSG )
        ANL       A,#0x80
        JNZ       ??zclZEM_event_loop_0
//  273   {
//  274     while ( (MSGpkt = (afIncomingMSGPacket_t *)osal_msg_receive( zclZEM_TaskID )) )
//  275     {
//  276       switch ( MSGpkt->hdr.event )
//  277       {
//  278         case ZCL_INCOMING_MSG:
//  279           // Incoming ZCL Foundation command/response messages
//  280           zclZEM_ProcessIncomingMsg( (zclIncomingMsg_t *)MSGpkt );
//  281           break;
//  282 
//  283         case AF_INCOMING_MSG_CMD:
//  284           // Incoming AF data messages
//  285           zclZEM_AF_RxProc( MSGpkt );
//  286           break;
//  287 
//  288         case KEY_CHANGE:
//  289           zclZEM_HandleKeys( ((keyChange_t *)MSGpkt)->state, ((keyChange_t *)MSGpkt)->keys );
//  290           break;
//  291 
//  292         case ZDO_STATE_CHANGE:
//  293           // 
//  294           {
//  295             uint8 newState = ((uint8*)MSGpkt)[0];
//  296             zclZEM_NwkState = newState; // 
//  297             
//  298             if (newState == 5) // DEV_END_DEVICE
//  299             {
//  300               // 
//  301               uint8 successMsg[] = "Network joined successfully!\r\n";
//  302               HalUARTWrite(HAL_UART_PORT_0, successMsg, sizeof(successMsg)-1);
//  303               
//  304               // MAC
//  305               #ifndef ZDO_COORDINATOR
//  306               zclZEM_SendMACToCoordinator();
//  307               #endif
//  308             }
//  309             else if (newState == 9) // DEV_NWK_ORPHAN
//  310             {
//  311               // 
//  312               #ifndef ZDO_COORDINATOR
//  313               {
//  314                 static uint8 retryCount = 0;
//  315                 if (retryCount < 3)
//  316                 {
//  317                   retryCount++;
//  318                   osal_start_timerEx(zclZEM_TaskID, ZEM_REJOIN_EVT, 2000);
//  319                 }
//  320               }
//  321               #endif
//  322             }
//  323           }
//  324           break;
//  325 
//  326         default:
//  327           break;
//  328       }
//  329 
//  330       // Release the memory
//  331       osal_msg_deallocate( (uint8 *)MSGpkt );
//  332     }
//  333 
//  334     // return unprocessed events
//  335     return (events ^ SYS_EVENT_MSG);
//  336   }
//  337   
//  338 #if ZG_BUILD_ENDDEVICE_TYPE    
//  339   if ( events & ZEM_END_DEVICE_REJOIN_EVT )
        MOV       A,R6
        ANL       A,#0x2
        JZ        ??zclZEM_event_loop_1
//  340   {
//  341     bdb_ZedAttemptRecoverNwk();
        ; Setup parameters for call to function bdb_ZedAttemptRecoverNwk
        LCALL     `??bdb_ZedAttemptRecoverNwk::?relay`; Banked call to: bdb_ZedAttemptRecoverNwk
//  342     return ( events ^ ZEM_END_DEVICE_REJOIN_EVT );
        MOV       A,R6
        XRL       A,#0x2
        LJMP      ??zclZEM_event_loop_2 & 0xFFFF
//  343   }
??zclZEM_event_loop_3:
        MOV       DPTR,#zclZEM_NwkState
        MOV       A,#-0x2f
        MOVX      @DPTR,A
??zclZEM_event_loop_4:
        ; Setup parameters for call to function osal_msg_deallocate
        MOV       R2,?V0
        MOV       R3,?V1
        LCALL     `??osal_msg_deallocate::?relay`; Banked call to: osal_msg_deallocate
??zclZEM_event_loop_0:
        ; Setup parameters for call to function osal_msg_receive
        MOV       DPTR,#zclZEM_TaskID
        MOVX      A,@DPTR
        MOV       R1,A
        LCALL     `??osal_msg_receive::?relay`; Banked call to: osal_msg_receive
        MOV       ?V0,R2
        MOV       ?V1,R3
        MOV       A,R2
        ORL       A,?V1
        JZ        ??zclZEM_event_loop_5
        MOV       DPL,R2
        MOV       DPH,R3
        MOVX      A,@DPTR
        ADD       A,#-0x1a
        JZ        ??zclZEM_event_loop_6
        ADD       A,#-0x1a
        JZ        ??zclZEM_event_loop_7
        ADD       A,#0x63
        JZ        ??zclZEM_event_loop_3
        SJMP      ??zclZEM_event_loop_4
??zclZEM_event_loop_7:
        ; Setup parameters for call to function zclZEM_ProcessIncomingMsg
        LCALL     `??zclZEM_ProcessIncomingMsg::?relay`; Banked call to: zclZEM_ProcessIncomingMsg
        SJMP      ??zclZEM_event_loop_4
??zclZEM_event_loop_6:
        ; Setup parameters for call to function zclZEM_AF_RxProc
        LCALL     `??zclZEM_AF_RxProc::?relay`; Banked call to: zclZEM_AF_RxProc
        SJMP      ??zclZEM_event_loop_4
??zclZEM_event_loop_5:
        MOV       A,R6
        MOV       R2,A
        MOV       A,R7
        XRL       A,#0x80
        LJMP      ??zclZEM_event_loop_8 & 0xFFFF
//  344 #endif
//  345 
//  346   if ( events & ZEM_LCD_AUTO_UPDATE_EVT )
??zclZEM_event_loop_1:
        MOV       A,R6
        ANL       A,#0x10
        JZ        ??zclZEM_event_loop_9
//  347   {
//  348     return ( events ^ ZEM_LCD_AUTO_UPDATE_EVT );
        MOV       A,R6
        XRL       A,#0x10
        SJMP      ??zclZEM_event_loop_10
//  349   }
//  350 
//  351   if ( events & ZEM_KEY_AUTO_REPEAT_EVT )
??zclZEM_event_loop_9:
        MOV       A,R6
        ANL       A,#0x20
        JZ        ??zclZEM_event_loop_11
//  352   {
//  353     return ( events ^ ZEM_KEY_AUTO_REPEAT_EVT );
        MOV       A,R6
        XRL       A,#0x20
??zclZEM_event_loop_10:
        MOV       R2,A
        LJMP      ??zclZEM_event_loop_12 & 0xFFFF
//  354   }
//  355   
//  356   // Broadcast event
//  357   if ( events & ZEM_BROADCAST_EVT )
??zclZEM_event_loop_11:
        MOV       A,R6
        ANL       A,#0x80
        JNZ       $+5
        LJMP      ??zclZEM_event_loop_13 & 0xFFFF
//  358   {
//  359     uint8 broadcastData[] = "Broadcast";
        MOV       DPTR,#`?<Constant "Broadcast">`
        MOV       A,#0x10
        LCALL     ?XSTACK_DISP102_8
        MOV       A,#0xa
        LCALL     ?MOVE_LONG8_XDATA_XDATA
//  360     zclZEM_AF_Broadcast(CLUSTER_BROADCAST, 
//  361                         sizeof(broadcastData)-1, 
//  362                         broadcastData);
        MOV       A,#0x8
        LCALL     ?XSTACK_DISP0_8
        MOV       A,#0xf
        LCALL     ?Subroutine5 & 0xFFFF
??CrossCallReturnLabel_0:
        MOV       A,#-0x1
        MOVX      @DPTR,A
        INC       DPTR
        MOVX      @DPTR,A
        MOV       A,#0x9
        LCALL     ?XSTACK_DISP0_8
        MOV       A,#0x8
        MOVX      @DPTR,A
        MOV       DPTR,#??transferId_1
        LCALL     ?Subroutine6 & 0xFFFF
??CrossCallReturnLabel_3:
        LCALL     ?PUSH_XSTACK_I_ONE
          CFI CFA_XSP16 add(XSP16, 39)
        MOV       ?V0,#??transferId_1 & 0xff
        MOV       ?V1,#(??transferId_1 >> 8) & 0xff
        MOV       R0,#?V0
        LCALL     ?PUSH_XSTACK_I_TWO
          CFI CFA_XSP16 add(XSP16, 41)
        MOV       A,#0x13
        LCALL     ?XSTACK_DISP100_8
        MOV       ?V0,R0
        MOV       ?V1,R1
        MOV       R0,#?V0
        LCALL     ?PUSH_XSTACK_I_TWO
          CFI CFA_XSP16 add(XSP16, 43)
        MOV       ?V0,#0x9
        MOV       ?V1,#0x0
        MOV       R0,#?V0
        LCALL     ?PUSH_XSTACK_I_TWO
          CFI CFA_XSP16 add(XSP16, 45)
        MOV       ?V0,#0x1
        MOV       R0,#?V0
        LCALL     ?PUSH_XSTACK_I_TWO
          CFI CFA_XSP16 add(XSP16, 47)
        MOV       R1,#0x0
        MOV       R4,#ZEM_AppEp & 0xff
        MOV       R5,#(ZEM_AppEp >> 8) & 0xff
        MOV       A,#0x9
        LCALL     ?XSTACK_DISP101_8
        LCALL     `??AF_DataRequest::?relay`; Banked call to: AF_DataRequest
        MOV       A,#0x9
        LCALL     ?DEALLOC_XSTACK8
          CFI CFA_XSP16 add(XSP16, 38)
//  363     osal_start_timerEx(zclZEM_TaskID,
//  364                       ZEM_BROADCAST_EVT,
//  365                       ZEM_BROADCAST_PERIOD);
        ; Setup parameters for call to function osal_start_timerEx
        MOV       DPTR,#__Constant_3e8
        LCALL     ?PUSH_XSTACK8_X_FOUR
          CFI CFA_XSP16 add(XSP16, 42)
        MOV       R2,#-0x80
        MOV       R3,#0x0
        MOV       DPTR,#zclZEM_TaskID
        MOVX      A,@DPTR
        MOV       R1,A
        LCALL     `??osal_start_timerEx::?relay`; Banked call to: osal_start_timerEx
        MOV       A,#0x4
        LCALL     ?DEALLOC_XSTACK8
          CFI CFA_XSP16 add(XSP16, 38)
//  366     return ( events ^ ZEM_BROADCAST_EVT );
        MOV       A,R6
        XRL       A,#0x80
??zclZEM_event_loop_2:
        MOV       R2,A
        MOV       A,R7
        LJMP      ??zclZEM_event_loop_8 & 0xFFFF
//  367   }
//  368   
//  369   // Groupcast event
//  370   if ( events & ZEM_GROUPCAST_EVT )
??zclZEM_event_loop_13:
        MOV       A,R7
        ANL       A,#0x1
        JNZ       $+5
        LJMP      ??zclZEM_event_loop_14 & 0xFFFF
//  371   {
//  372     uint8 groupcastData[] = "Groupcast";
        MOV       DPTR,#`?<Constant "Groupcast">`
        MOV       A,#0x10
        LCALL     ?XSTACK_DISP102_8
        MOV       A,#0xa
        LCALL     ?MOVE_LONG8_XDATA_XDATA
//  373     zclZEM_AF_Groupcast(GROUP_ID,
//  374                         CLUSTER_GROUPCAST,
//  375                         sizeof(groupcastData)-1, 
//  376                         groupcastData);
        MOV       A,#0x8
        LCALL     ?XSTACK_DISP0_8
        MOV       A,#0x1
        LCALL     ?Subroutine5 & 0xFFFF
??CrossCallReturnLabel_1:
        MOV       A,#0x15
        MOVX      @DPTR,A
        INC       DPTR
        CLR       A
        MOVX      @DPTR,A
        MOV       A,#0x9
        LCALL     ?XSTACK_DISP0_8
        MOV       A,#0x8
        MOVX      @DPTR,A
        MOV       DPTR,#??transferId_2
        LCALL     ?Subroutine6 & 0xFFFF
??CrossCallReturnLabel_4:
        LCALL     ?PUSH_XSTACK_I_ONE
          CFI CFA_XSP16 add(XSP16, 39)
        MOV       ?V0,#??transferId_2 & 0xff
        MOV       ?V1,#(??transferId_2 >> 8) & 0xff
        MOV       R0,#?V0
        LCALL     ?PUSH_XSTACK_I_TWO
          CFI CFA_XSP16 add(XSP16, 41)
        MOV       A,#0x13
        LCALL     ?XSTACK_DISP100_8
        MOV       ?V0,R0
        MOV       ?V1,R1
        MOV       R0,#?V0
        LCALL     ?PUSH_XSTACK_I_TWO
          CFI CFA_XSP16 add(XSP16, 43)
        MOV       ?V0,#0x9
        MOV       ?V1,#0x0
        MOV       R0,#?V0
        LCALL     ?PUSH_XSTACK_I_TWO
          CFI CFA_XSP16 add(XSP16, 45)
        MOV       ?V0,#0x2
        MOV       R0,#?V0
        LCALL     ?PUSH_XSTACK_I_TWO
          CFI CFA_XSP16 add(XSP16, 47)
        MOV       R1,#0x0
        MOV       R4,#ZEM_AppEp & 0xff
        MOV       R5,#(ZEM_AppEp >> 8) & 0xff
        MOV       A,#0x9
        LCALL     ?XSTACK_DISP101_8
        LCALL     `??AF_DataRequest::?relay`; Banked call to: AF_DataRequest
        MOV       A,#0x9
        LCALL     ?DEALLOC_XSTACK8
          CFI CFA_XSP16 add(XSP16, 38)
//  377     osal_start_timerEx(zclZEM_TaskID,
//  378                       ZEM_GROUPCAST_EVT,
//  379                       ZEM_GROUPCAST_PERIOD);
        ; Setup parameters for call to function osal_start_timerEx
        MOV       DPTR,#__Constant_3e8
        LCALL     ?PUSH_XSTACK8_X_FOUR
          CFI CFA_XSP16 add(XSP16, 42)
        MOV       R2,#0x0
        MOV       R3,#0x1
        MOV       DPTR,#zclZEM_TaskID
        MOVX      A,@DPTR
        MOV       R1,A
        LCALL     `??osal_start_timerEx::?relay`; Banked call to: osal_start_timerEx
        MOV       A,#0x4
        LCALL     ?DEALLOC_XSTACK8
          CFI CFA_XSP16 add(XSP16, 38)
//  380     return ( events ^ ZEM_GROUPCAST_EVT );
        MOV       A,R6
        MOV       R2,A
        MOV       A,R7
        XRL       A,#0x1
        SJMP      ??zclZEM_event_loop_8
//  381   }
//  382   
//  383   // P2P event
//  384   if ( events & ZEM_P2P_EVT )
??zclZEM_event_loop_14:
        MOV       A,R7
        ANL       A,#0x2
        JZ        ??zclZEM_event_loop_15
//  385   {
//  386     uint8 p2pData[] = "P2P";
        MOV       DPTR,#`?<Constant "P2P">`
        MOV       A,#0xc
        LCALL     ?XSTACK_DISP102_8
        MOV       A,#0x4
        LCALL     ?MOVE_LONG8_XDATA_XDATA
//  387     zclZEM_AF_P2P(0x0000, // 0x0000
//  388                   CLUSTER_P2P,
//  389                   sizeof(p2pData)-1, 
//  390                   p2pData);
        ; Setup parameters for call to function zclZEM_AF_P2P
        MOV       A,#0xc
        LCALL     ?XSTACK_DISP100_8
        MOV       ?V0,R0
        MOV       ?V1,R1
        MOV       R0,#?V0
        LCALL     ?PUSH_XSTACK_I_TWO
          CFI CFA_XSP16 add(XSP16, 40)
        MOV       R1,#0x3
        MOV       R4,#0x0
        MOV       R5,#0x0
        MOV       R2,#0x0
        MOV       R3,#0x0
        LCALL     `??zclZEM_AF_P2P::?relay`; Banked call to: zclZEM_AF_P2P
        MOV       A,#0x2
        LCALL     ?DEALLOC_XSTACK8
          CFI CFA_XSP16 add(XSP16, 38)
//  391     osal_start_timerEx(zclZEM_TaskID,
//  392                       ZEM_P2P_EVT,
//  393                       ZEM_P2P_PERIOD);
        ; Setup parameters for call to function osal_start_timerEx
        MOV       DPTR,#__Constant_3e8
        LCALL     ?PUSH_XSTACK8_X_FOUR
          CFI CFA_XSP16 add(XSP16, 42)
        MOV       R2,#0x0
        MOV       R3,#0x2
        MOV       DPTR,#zclZEM_TaskID
        MOVX      A,@DPTR
        MOV       R1,A
        LCALL     `??osal_start_timerEx::?relay`; Banked call to: osal_start_timerEx
        MOV       A,#0x4
        LCALL     ?DEALLOC_XSTACK8
          CFI CFA_XSP16 add(XSP16, 38)
//  394     return ( events ^ ZEM_P2P_EVT );
        MOV       A,R6
        MOV       R2,A
        MOV       A,R7
        XRL       A,#0x2
??zclZEM_event_loop_8:
        MOV       R3,A
        SJMP      ??zclZEM_event_loop_12
//  395   }
//  396   
//  397   if(events & ZEMAPP_EVT)
//  398    {
//  399     HalLedBlink(
//  400         HAL_LED_1, // LED1
//  401         10, // 10
//  402         50, // 50%LED
//  403         1000); // 1000ms
//  404     return (events ^ ZEMAPP_EVT);
//  405    }
//  406   #ifdef ZDO_COORDINATOR
//  407     if ( events & ZEM_RETRY_FORMATION_EVT )//
//  408     {
//  409         // 
//  410         uint8 failMsg[] = "Network formation failed! Retrying...\r\n";
//  411         HalUARTWrite(HAL_UART_PORT_0, failMsg, sizeof(failMsg)-1);
//  412         
//  413         /*  */
//  414         bdb_StartCommissioning(BDB_COMMISSIONING_MODE_NWK_FORMATION |
//  415                                     BDB_COMMISSIONING_MODE_FINDING_BINDING );
//  416         
//  417         // 5 - 
//  418         osal_start_timerEx(zclZEM_TaskID, ZEM_RETRY_FORMATION_EVT, 5000);
//  419         
//  420       return ( events ^ ZEM_RETRY_FORMATION_EVT );
//  421     }
//  422   #else
//  423     if ( events & ZEM_REJOIN_EVT )//
//  424     {
//  425         // 
//  426         
//  427         /*  */
//  428         bdb_StartCommissioning(BDB_COMMISSIONING_MODE_NWK_STEERING |
//  429                                     BDB_COMMISSIONING_MODE_FINDING_BINDING );
//  430       return ( events ^ ZEM_REJOIN_EVT );
//  431     }
//  432   #endif
//  433 
//  434   // Discard unknown events
//  435   return 0;
??zclZEM_event_loop_15:
        MOV       R2,#0x0
        MOV       R3,#0x0
??zclZEM_event_loop_12:
        MOV       A,#0x1a
          CFI EndBlock cfiBlock2
        REQUIRE ?Subroutine1
        ; // Fall through to label ?Subroutine1
//  436 }

        RSEG BANKED_CODE:HUGECODE:NOROOT(0)
?Subroutine1:
          CFI Block cfiBlock3 Using cfiCommon0
          CFI NoFunction
          CFI CFA_SP SP+0
          CFI CFA_XSP16 add(XSP16, 38)
          CFI VB load(1, XDATA, add(CFA_XSP16, literal(-11)))
          CFI DPL0 load(1, XDATA, add(CFA_XSP16, literal(-2)))
          CFI DPH0 load(1, XDATA, add(CFA_XSP16, literal(-1)))
          CFI R6 load(1, XDATA, add(CFA_XSP16, literal(-12)))
          CFI R7 load(1, XDATA, add(CFA_XSP16, literal(-6)))
          CFI V0 load(1, XDATA, add(CFA_XSP16, literal(-10)))
          CFI V1 load(1, XDATA, add(CFA_XSP16, literal(-9)))
          CFI V2 load(1, XDATA, add(CFA_XSP16, literal(-8)))
          CFI V3 load(1, XDATA, add(CFA_XSP16, literal(-7)))
          CFI ?BRET_EXT load(1, XDATA, add(CFA_XSP16, literal(-3)))
          CFI ?RET_HIGH load(1, XDATA, add(CFA_XSP16, literal(-4)))
          CFI ?RET_LOW load(1, XDATA, add(CFA_XSP16, literal(-5)))
          CFI Invalid
        LCALL     ?DEALLOC_XSTACK8
          CFI CFA_XSP16 add(XSP16, 12)
          CFI Valid
        MOV       R7,#0x4
        LJMP      ?BANKED_LEAVE_XDATA
          CFI EndBlock cfiBlock3
//  437 
//  438 /*********************************************************************
//  439  * @fn      zclZEM_InitUart
//  440  *
//  441  * @brief   Initialize UART for communication
//  442  *
//  443  * @param   none
//  444  *
//  445  * @return  none
//  446  */
//  447 static void zclZEM_InitUart(void)
//  448 {
//  449   // UARTP1.4/P1.5
//  450   /********** 1. UART0P1.4/P1.5PERCFG **********/
//  451   // PERCFGbit0(U0CFG)1UART0Alternative 2(P1.4/P1.5)
//  452   PERCFG |= (1 << 0);  // PERCFG |= 0x01bit0
//  453 
//  454   /********** 2. P1.4/P1.5UART0P1 **********/
//  455   // P1SELbit4(P1.4)bit5(P1.5)1(UART)
//  456   P1SEL |= (1 << 4) | (1 << 5);  // P1SEL |= 0x30(00110000)
//  457   // P1DIRbit4(P1.4=TX)1bit5(P1.5=RX)0
//  458   P1DIR |= (1 << 4);   // P1.4(TX)
//  459   P1DIR &= ~(1 << 5);  // P1.5(RX)
//  460 
//  461   halUARTCfg_t uartConfig;
//  462   /* UART Configuration */
//  463   uartConfig.configured          = TRUE;      // Enable configuration
//  464   uartConfig.baudRate            = HAL_UART_BR_115200;  // Baud rate
//  465   uartConfig.flowControl         = FALSE;     // Disable hardware flow control
//  466   uartConfig.flowControlThreshold= 0;         // Flow control threshold
//  467   uartConfig.rx.maxBufSize       = ZCLZEM_UART_BUF_LEN;  // Receive buffer size
//  468   uartConfig.tx.maxBufSize       = 0;         // Transmit buffer size
//  469   uartConfig.idleTimeout         = 6;         // Default timeout
//  470   uartConfig.intEnable           = TRUE;      // Enable interrupt
//  471   uartConfig.callBackFunc        = zclZEM_UartCB;  // Set callback function
//  472   /* Start UART */
//  473   // UART0
//  474   HalUARTOpen(HAL_UART_PORT_0, &uartConfig);  // Open UART0 with configuration
//  475 }
//  476 
//  477 
//  478 void zclZEM_SendMACToCoordinator(void)
//  479 {
//  480   uint8* macAddr;
//  481   uint8 macData[10]; // MAC1 + 8MAC + 1
//  482   
//  483   // MAC
//  484   macAddr = NLME_GetExtAddr();
//  485   
//  486   // 
//  487   macData[0] = 0x01; // MAC
//  488   osal_memcpy(&macData[1], macAddr, 8); // MAC
//  489   macData[9] = 0x00; // 
//  490   
//  491   // 0x0000
//  492   zclZEM_AF_P2P(0x0000, // 
//  493                 CLUSTER_P2P, // 
//  494                 10, // 
//  495                 macData); // 
//  496   
//  497   // 
//  498   uint8 sendMsg[] = "MAC address sent to coordinator!\r\n";
//  499   HalUARTWrite(HAL_UART_PORT_0, sendMsg, sizeof(sendMsg)-1);
//  500 }
//  501 
//  502 /*********************************************************************
//  503  * @fn      zclZEM_ReadAndSendMAC
//  504  *
//  505  * @brief   Read MAC address and send it via UART
//  506  *
//  507  */

        RSEG BANKED_CODE:HUGECODE:NOROOT(0)
//  508 void zclZEM_ReadAndSendMAC(void)
zclZEM_ReadAndSendMAC:
          CFI Block cfiBlock4 Using cfiCommon0
          CFI Function zclZEM_ReadAndSendMAC
        CODE
//  509 {
        FUNCALL zclZEM_ReadAndSendMAC, NLME_GetExtAddr
        LOCFRAME ISTACK, 0, STACK
        LOCFRAME PSTACK, 0, STACK
        LOCFRAME XSTACK, 68, STACK
        LOCFRAME IOVERLAY, 0, STATIC
        LOCFRAME DOVERLAY, 0, STATIC
        ARGFRAME ISTACK, 0, STACK
        ARGFRAME PSTACK, 0, STACK
        ARGFRAME XSTACK, 68, STACK
        ARGFRAME IOVERLAY, 0, STATIC
        ARGFRAME DOVERLAY, 0, STATIC
        FUNCALL zclZEM_ReadAndSendMAC, osal_memcpy
        LOCFRAME ISTACK, 0, STACK
        LOCFRAME PSTACK, 0, STACK
        LOCFRAME XSTACK, 71, STACK
        LOCFRAME IOVERLAY, 0, STATIC
        LOCFRAME DOVERLAY, 0, STATIC
        ARGFRAME ISTACK, 0, STACK
        ARGFRAME PSTACK, 0, STACK
        ARGFRAME XSTACK, 71, STACK
        ARGFRAME IOVERLAY, 0, STATIC
        ARGFRAME DOVERLAY, 0, STATIC
        FUNCALL zclZEM_ReadAndSendMAC, HalUARTWrite
        LOCFRAME ISTACK, 0, STACK
        LOCFRAME PSTACK, 0, STACK
        LOCFRAME XSTACK, 68, STACK
        LOCFRAME IOVERLAY, 0, STATIC
        LOCFRAME DOVERLAY, 0, STATIC
        ARGFRAME ISTACK, 0, STACK
        ARGFRAME PSTACK, 0, STACK
        ARGFRAME XSTACK, 68, STACK
        ARGFRAME IOVERLAY, 0, STATIC
        ARGFRAME DOVERLAY, 0, STATIC
        REQUIRE ?V0
        REQUIRE ?V1
        REQUIRE ?V2
        REQUIRE ?V3
        MOV       A,#-0xc
        LCALL     ?BANKED_ENTER_XDATA
          CFI DPH0 load(1, XDATA, add(CFA_XSP16, literal(-1)))
          CFI DPL0 load(1, XDATA, add(CFA_XSP16, literal(-2)))
          CFI ?BRET_EXT load(1, XDATA, add(CFA_XSP16, literal(-3)))
          CFI ?RET_HIGH load(1, XDATA, add(CFA_XSP16, literal(-4)))
          CFI ?RET_LOW load(1, XDATA, add(CFA_XSP16, literal(-5)))
          CFI R7 load(1, XDATA, add(CFA_XSP16, literal(-6)))
          CFI V3 load(1, XDATA, add(CFA_XSP16, literal(-7)))
          CFI V2 load(1, XDATA, add(CFA_XSP16, literal(-8)))
          CFI V1 load(1, XDATA, add(CFA_XSP16, literal(-9)))
          CFI V0 load(1, XDATA, add(CFA_XSP16, literal(-10)))
          CFI VB load(1, XDATA, add(CFA_XSP16, literal(-11)))
          CFI R6 load(1, XDATA, add(CFA_XSP16, literal(-12)))
          CFI CFA_SP SP+0
          CFI CFA_XSP16 add(XSP16, 12)
        ; Saved register size: 12
        ; Auto size: 56
        MOV       A,#-0x38
        LCALL     ?ALLOC_XSTACK8
          CFI CFA_XSP16 add(XSP16, 68)
//  510   uint8* macAddr;
//  511   uint8 macStr[50]; // MAC
//  512   uint8 i, pos = 0;
//  513   
//  514   // Read MAC address from system
//  515   macAddr = NLME_GetExtAddr();
        ; Setup parameters for call to function NLME_GetExtAddr
        LCALL     `??NLME_GetExtAddr::?relay`; Banked call to: NLME_GetExtAddr
        MOV       ?V0,R2
        MOV       ?V1,R3
        MOV       R6,?V0
        MOV       R7,?V1
//  516   
//  517   // MAC
//  518   const uint8 header[] = "MAC: ";
        MOV       DPTR,#`?<Constant "MAC: ">`
        MOV       R4,?XSP + 0
        MOV       R5,?XSP + 1
        MOV       A,#0x6
        LCALL     ?MOVE_LONG8_XDATA_XDATA
//  519   osal_memcpy(macStr, header, 4);
        ; Setup parameters for call to function osal_memcpy
        MOV       R0,?XSP + 0
        MOV       R1,?XSP + 1
        MOV       ?V0,R0
        MOV       ?V1,R1
        MOV       ?V2,A
        MOV       R0,#?V0
        LCALL     ?PUSH_XSTACK_I_THREE
          CFI CFA_XSP16 add(XSP16, 71)
        MOV       R4,#0x4
        MOV       R5,#0x0
        MOV       A,#0x9
        LCALL     ?XSTACK_DISP101_8
        LCALL     `??osal_memcpy::?relay`; Banked call to: osal_memcpy
        MOV       A,#0x3
        LCALL     ?DEALLOC_XSTACK8
          CFI CFA_XSP16 add(XSP16, 68)
//  520   pos = 4;
        MOV       R0,#0x4
//  521   
//  522   // MAC
//  523   for (i = 0; i < 8; i++) {
        MOV       R4,#0x0
//  524     // 4
//  525     uint8 highNibble = (macAddr[i] >> 4) & 0x0F;
??zclZEM_ReadAndSendMAC_0:
        MOV       A,R4
        MOV       R2,A
        MOV       A,R6
        ADD       A,R2
        MOV       R2,A
        CLR       A
        ADDC      A,R7
        MOV       R3,A
        MOV       DPL,R2
        MOV       DPH,R3
        MOVX      A,@DPTR
        SWAP      A
        ANL       A,#0xf
        MOV       R1,A
//  526     macStr[pos++] = (highNibble < 10) ? ('0' + highNibble) : ('A' + highNibble - 10);
        MOV       ?V0,R0
        MOV       A,#0x1
        ADD       A,R0
        MOV       R0,A
        MOV       A,R1
        CLR       C
        SUBB      A,#0xa
        JNC       ??zclZEM_ReadAndSendMAC_1
        MOV       A,#0x30
        SJMP      ??zclZEM_ReadAndSendMAC_2
??zclZEM_ReadAndSendMAC_1:
        MOV       A,#0x37
??zclZEM_ReadAndSendMAC_2:
        ADD       A,R1
        PUSH      A
          CFI CFA_SP SP+-1
        MOV       A,?V0
        MOV       ?V2,A
        MOV       A,#0x6
        LCALL     ?XSTACK_DISP0_8
        MOV       A,DPL
        ADD       A,?V2
        MOV       DPL,A
        CLR       A
        ADDC      A,DPH
        MOV       DPH,A
        POP       A
          CFI CFA_SP SP+0
        MOVX      @DPTR,A
//  527     
//  528     // 4
//  529     uint8 lowNibble = macAddr[i] & 0x0F;
        MOV       DPL,R2
        MOV       DPH,R3
        MOVX      A,@DPTR
        ANL       A,#0xf
        MOV       R1,A
//  530     macStr[pos++] = (lowNibble < 10) ? ('0' + lowNibble) : ('A' + lowNibble - 10);
        MOV       ?V1,R0
        MOV       A,#0x1
        ADD       A,R0
        MOV       R0,A
        MOV       A,R1
        CLR       C
        SUBB      A,#0xa
        JNC       ??zclZEM_ReadAndSendMAC_3
        MOV       A,#0x30
        SJMP      ??zclZEM_ReadAndSendMAC_4
??zclZEM_ReadAndSendMAC_3:
        MOV       A,#0x37
??zclZEM_ReadAndSendMAC_4:
        ADD       A,R1
        MOV       R1,A
        MOV       R2,?V1
        MOV       A,#0x6
        LCALL     ?XSTACK_DISP0_8
        LCALL     ?Subroutine12 & 0xFFFF
??CrossCallReturnLabel_13:
        MOV       A,R1
        MOVX      @DPTR,A
//  531     
//  532     // 
//  533     if (i < 7) {
        MOV       A,R4
        CLR       C
        SUBB      A,#0x7
        JNC       ??zclZEM_ReadAndSendMAC_5
//  534       macStr[pos++] = ':';
        MOV       A,#0x6
        LCALL     ?XSTACK_DISP0_8
        LCALL     ?Subroutine15 & 0xFFFF
//  535     }
//  536   }
??CrossCallReturnLabel_19:
        MOV       A,#0x3a
        MOVX      @DPTR,A
        INC       R0
??zclZEM_ReadAndSendMAC_5:
        INC       R4
        MOV       A,R4
        CLR       C
        SUBB      A,#0x8
        JC        ??zclZEM_ReadAndSendMAC_0
//  537   
//  538   // 
//  539   macStr[pos++] = '\r';
        MOV       A,R0
        MOV       R2,A
        MOV       A,#0x6
        LCALL     ?XSTACK_DISP0_8
        LCALL     ?Subroutine12 & 0xFFFF
??CrossCallReturnLabel_14:
        MOV       A,#0xd
        MOVX      @DPTR,A
        INC       R0
//  540   macStr[pos++] = '\n';
        MOV       A,#0x6
        LCALL     ?XSTACK_DISP0_8
        LCALL     ?Subroutine15 & 0xFFFF
??CrossCallReturnLabel_20:
        MOV       A,#0xa
        MOVX      @DPTR,A
//  541   
//  542   // Send MAC address via UART
//  543   // UART0
//  544   HalUARTWrite(HAL_UART_PORT_0, macStr, pos);
        ; Setup parameters for call to function HalUARTWrite
        MOV       A,#0x1
        ADD       A,R0
        MOV       R4,A
        MOV       R5,#0x0
        MOV       A,#0x6
        LCALL     ?XSTACK_DISP101_8
        MOV       R1,#0x0
        LCALL     `??HalUARTWrite::?relay`; Banked call to: HalUARTWrite
//  545 }
        MOV       A,#0x38
        LJMP      ?Subroutine1 & 0xFFFF
          CFI EndBlock cfiBlock4

        RSEG BANKED_CODE:HUGECODE:NOROOT(0)
?Subroutine15:
          CFI Block cfiCond5 Using cfiCommon0
          CFI Function zclZEM_ReadAndSendMAC
          CFI Conditional ??CrossCallReturnLabel_19
          CFI R6 load(1, XDATA, add(CFA_XSP16, literal(-12)))
          CFI VB load(1, XDATA, add(CFA_XSP16, literal(-11)))
          CFI V0 load(1, XDATA, add(CFA_XSP16, literal(-10)))
          CFI V1 load(1, XDATA, add(CFA_XSP16, literal(-9)))
          CFI V2 load(1, XDATA, add(CFA_XSP16, literal(-8)))
          CFI V3 load(1, XDATA, add(CFA_XSP16, literal(-7)))
          CFI R7 load(1, XDATA, add(CFA_XSP16, literal(-6)))
          CFI ?RET_LOW load(1, XDATA, add(CFA_XSP16, literal(-5)))
          CFI ?RET_HIGH load(1, XDATA, add(CFA_XSP16, literal(-4)))
          CFI ?BRET_EXT load(1, XDATA, add(CFA_XSP16, literal(-3)))
          CFI DPL0 load(1, XDATA, add(CFA_XSP16, literal(-2)))
          CFI DPH0 load(1, XDATA, add(CFA_XSP16, literal(-1)))
          CFI CFA_SP SP+-2
          CFI CFA_XSP16 add(XSP16, 68)
          CFI Block cfiCond6 Using cfiCommon0
          CFI (cfiCond6) Function zclZEM_ReadAndSendMAC
          CFI (cfiCond6) Conditional ??CrossCallReturnLabel_20
          CFI (cfiCond6) R6 load(1, XDATA, add(CFA_XSP16, literal(-12)))
          CFI (cfiCond6) VB load(1, XDATA, add(CFA_XSP16, literal(-11)))
          CFI (cfiCond6) V0 load(1, XDATA, add(CFA_XSP16, literal(-10)))
          CFI (cfiCond6) V1 load(1, XDATA, add(CFA_XSP16, literal(-9)))
          CFI (cfiCond6) V2 load(1, XDATA, add(CFA_XSP16, literal(-8)))
          CFI (cfiCond6) V3 load(1, XDATA, add(CFA_XSP16, literal(-7)))
          CFI (cfiCond6) R7 load(1, XDATA, add(CFA_XSP16, literal(-6)))
          CFI (cfiCond6) ?RET_LOW load(1, XDATA, add(CFA_XSP16, literal(-5)))
          CFI (cfiCond6) ?RET_HIGH load(1, XDATA, add(CFA_XSP16, literal(-4)))
          CFI (cfiCond6) ?BRET_EXT load(1, XDATA, add(CFA_XSP16, literal(-3)))
          CFI (cfiCond6) DPL0 load(1, XDATA, add(CFA_XSP16, literal(-2)))
          CFI (cfiCond6) DPH0 load(1, XDATA, add(CFA_XSP16, literal(-1)))
          CFI (cfiCond6) CFA_SP SP+-2
          CFI (cfiCond6) CFA_XSP16 add(XSP16, 68)
          CFI Block cfiPicker7 Using cfiCommon1
          CFI (cfiPicker7) NoFunction
          CFI (cfiPicker7) Picker
        MOV       A,DPL
        ADD       A,R0
        MOV       DPL,A
        CLR       A
        ADDC      A,DPH
        MOV       DPH,A
        RET
          CFI EndBlock cfiCond5
          CFI EndBlock cfiCond6
          CFI EndBlock cfiPicker7

        RSEG BANKED_CODE:HUGECODE:NOROOT(0)
?Subroutine12:
          CFI Block cfiCond8 Using cfiCommon0
          CFI Function zclZEM_ReadAndSendMAC
          CFI Conditional ??CrossCallReturnLabel_13
          CFI R6 load(1, XDATA, add(CFA_XSP16, literal(-12)))
          CFI VB load(1, XDATA, add(CFA_XSP16, literal(-11)))
          CFI V0 load(1, XDATA, add(CFA_XSP16, literal(-10)))
          CFI V1 load(1, XDATA, add(CFA_XSP16, literal(-9)))
          CFI V2 load(1, XDATA, add(CFA_XSP16, literal(-8)))
          CFI V3 load(1, XDATA, add(CFA_XSP16, literal(-7)))
          CFI R7 load(1, XDATA, add(CFA_XSP16, literal(-6)))
          CFI ?RET_LOW load(1, XDATA, add(CFA_XSP16, literal(-5)))
          CFI ?RET_HIGH load(1, XDATA, add(CFA_XSP16, literal(-4)))
          CFI ?BRET_EXT load(1, XDATA, add(CFA_XSP16, literal(-3)))
          CFI DPL0 load(1, XDATA, add(CFA_XSP16, literal(-2)))
          CFI DPH0 load(1, XDATA, add(CFA_XSP16, literal(-1)))
          CFI CFA_SP SP+-2
          CFI CFA_XSP16 add(XSP16, 68)
          CFI Block cfiCond9 Using cfiCommon0
          CFI (cfiCond9) Function zclZEM_ReadAndSendMAC
          CFI (cfiCond9) Conditional ??CrossCallReturnLabel_14
          CFI (cfiCond9) R6 load(1, XDATA, add(CFA_XSP16, literal(-12)))
          CFI (cfiCond9) VB load(1, XDATA, add(CFA_XSP16, literal(-11)))
          CFI (cfiCond9) V0 load(1, XDATA, add(CFA_XSP16, literal(-10)))
          CFI (cfiCond9) V1 load(1, XDATA, add(CFA_XSP16, literal(-9)))
          CFI (cfiCond9) V2 load(1, XDATA, add(CFA_XSP16, literal(-8)))
          CFI (cfiCond9) V3 load(1, XDATA, add(CFA_XSP16, literal(-7)))
          CFI (cfiCond9) R7 load(1, XDATA, add(CFA_XSP16, literal(-6)))
          CFI (cfiCond9) ?RET_LOW load(1, XDATA, add(CFA_XSP16, literal(-5)))
          CFI (cfiCond9) ?RET_HIGH load(1, XDATA, add(CFA_XSP16, literal(-4)))
          CFI (cfiCond9) ?BRET_EXT load(1, XDATA, add(CFA_XSP16, literal(-3)))
          CFI (cfiCond9) DPL0 load(1, XDATA, add(CFA_XSP16, literal(-2)))
          CFI (cfiCond9) DPH0 load(1, XDATA, add(CFA_XSP16, literal(-1)))
          CFI (cfiCond9) CFA_SP SP+-2
          CFI (cfiCond9) CFA_XSP16 add(XSP16, 68)
          CFI Block cfiPicker10 Using cfiCommon1
          CFI (cfiPicker10) NoFunction
          CFI (cfiPicker10) Picker
        MOV       A,DPL
        ADD       A,R2
        MOV       DPL,A
        CLR       A
        ADDC      A,DPH
        MOV       DPH,A
        RET
          CFI EndBlock cfiCond8
          CFI EndBlock cfiCond9
          CFI EndBlock cfiPicker10
//  546 
//  547 /*********************************************************************
//  548  * @fn      zclZEM_UartCB
//  549  *
//  550  * @brief   UART callback function
//  551  *
//  552  * @param   port - UART port
//  553  * @param   event - UART event
//  554  *
//  555  * @return  none
//  556  */

        RSEG BANKED_CODE:HUGECODE:NOROOT(0)
//  557 static void zclZEM_UartCB(uint8 port, uint8 event)
zclZEM_UartCB:
          CFI Block cfiBlock11 Using cfiCommon0
          CFI Function zclZEM_UartCB
        CODE
//  558 {
        FUNCALL zclZEM_UartCB, Hal_UART_RxBufLen
        LOCFRAME ISTACK, 0, STACK
        LOCFRAME PSTACK, 0, STACK
        LOCFRAME XSTACK, 9, STACK
        LOCFRAME IOVERLAY, 0, STATIC
        LOCFRAME DOVERLAY, 0, STATIC
        ARGFRAME ISTACK, 0, STACK
        ARGFRAME PSTACK, 0, STACK
        ARGFRAME XSTACK, 9, STACK
        ARGFRAME IOVERLAY, 0, STATIC
        ARGFRAME DOVERLAY, 0, STATIC
        FUNCALL zclZEM_UartCB, HalUARTRead
        LOCFRAME ISTACK, 0, STACK
        LOCFRAME PSTACK, 0, STACK
        LOCFRAME XSTACK, 9, STACK
        LOCFRAME IOVERLAY, 0, STATIC
        LOCFRAME DOVERLAY, 0, STATIC
        ARGFRAME ISTACK, 0, STACK
        ARGFRAME PSTACK, 0, STACK
        ARGFRAME XSTACK, 9, STACK
        ARGFRAME IOVERLAY, 0, STATIC
        ARGFRAME DOVERLAY, 0, STATIC
        FUNCALL zclZEM_UartCB, HalUARTWrite
        LOCFRAME ISTACK, 0, STACK
        LOCFRAME PSTACK, 0, STACK
        LOCFRAME XSTACK, 9, STACK
        LOCFRAME IOVERLAY, 0, STATIC
        LOCFRAME DOVERLAY, 0, STATIC
        ARGFRAME ISTACK, 0, STACK
        ARGFRAME PSTACK, 0, STACK
        ARGFRAME XSTACK, 9, STACK
        ARGFRAME IOVERLAY, 0, STATIC
        ARGFRAME DOVERLAY, 0, STATIC
        MOV       A,#-0x9
        LCALL     ?BANKED_ENTER_XDATA
          CFI DPH0 load(1, XDATA, add(CFA_XSP16, literal(-1)))
          CFI DPL0 load(1, XDATA, add(CFA_XSP16, literal(-2)))
          CFI ?BRET_EXT load(1, XDATA, add(CFA_XSP16, literal(-3)))
          CFI ?RET_HIGH load(1, XDATA, add(CFA_XSP16, literal(-4)))
          CFI ?RET_LOW load(1, XDATA, add(CFA_XSP16, literal(-5)))
          CFI R7 load(1, XDATA, add(CFA_XSP16, literal(-6)))
          CFI V0 load(1, XDATA, add(CFA_XSP16, literal(-7)))
          CFI VB load(1, XDATA, add(CFA_XSP16, literal(-8)))
          CFI R6 load(1, XDATA, add(CFA_XSP16, literal(-9)))
          CFI CFA_SP SP+0
          CFI CFA_XSP16 add(XSP16, 9)
        ; Saved register size: 9
        ; Auto size: 0
//  559   // 
//  560   uint8 rxLen = Hal_UART_RxBufLen(HAL_UART_PORT_0); 
        ; Setup parameters for call to function Hal_UART_RxBufLen
        MOV       R1,#0x0
        LCALL     `??Hal_UART_RxBufLen::?relay`; Banked call to: Hal_UART_RxBufLen
        MOV       A,R2
//  561   if(rxLen != 0) // 0 
        JZ        ??zclZEM_UartCB_0
//  562   {
//  563     // 
//  564     HalUARTRead(HAL_UART_PORT_0, zclZEM_UartBuf, rxLen);
        MOV       R6,A
        ; Setup parameters for call to function HalUARTRead
        MOV       R4,A
        MOV       R5,#0x0
        MOV       R2,#zclZEM_UartBuf & 0xff
        MOV       R3,#(zclZEM_UartBuf >> 8) & 0xff
        MOV       R1,#0x0
        LCALL     `??HalUARTRead::?relay`; Banked call to: HalUARTRead
//  565     // 
//  566     HalUARTWrite(HAL_UART_PORT_0, zclZEM_UartBuf, rxLen);  
        ; Setup parameters for call to function HalUARTWrite
        MOV       A,R6
        MOV       R4,A
        MOV       R5,#0x0
        MOV       R2,#zclZEM_UartBuf & 0xff
        MOV       R3,#(zclZEM_UartBuf >> 8) & 0xff
        MOV       R1,#0x0
        LCALL     `??HalUARTWrite::?relay`; Banked call to: HalUARTWrite
//  567   }
//  568 }
??zclZEM_UartCB_0:
          CFI EndBlock cfiBlock11
        REQUIRE ?Subroutine2
        ; // Fall through to label ?Subroutine2

        RSEG BANKED_CODE:HUGECODE:NOROOT(0)
?Subroutine2:
          CFI Block cfiBlock12 Using cfiCommon0
          CFI NoFunction
          CFI CFA_SP SP+0
          CFI CFA_XSP16 add(XSP16, 9)
          CFI VB load(1, XDATA, add(CFA_XSP16, literal(-8)))
          CFI DPL0 load(1, XDATA, add(CFA_XSP16, literal(-2)))
          CFI DPH0 load(1, XDATA, add(CFA_XSP16, literal(-1)))
          CFI R6 load(1, XDATA, add(CFA_XSP16, literal(-9)))
          CFI R7 load(1, XDATA, add(CFA_XSP16, literal(-6)))
          CFI V0 load(1, XDATA, add(CFA_XSP16, literal(-7)))
          CFI ?BRET_EXT load(1, XDATA, add(CFA_XSP16, literal(-3)))
          CFI ?RET_HIGH load(1, XDATA, add(CFA_XSP16, literal(-4)))
          CFI ?RET_LOW load(1, XDATA, add(CFA_XSP16, literal(-5)))
        MOV       R7,#0x1
        LJMP      ?BANKED_LEAVE_XDATA
          CFI EndBlock cfiBlock12
//  569 
//  570 /*********************************************************************
//  571  * @fn      zclZEM_HandleKeys
//  572  *
//  573  * @brief   Handles all key events for this device.
//  574  *
//  575  * @param   shift - true if in shift/alt.
//  576  * @param   keys - bit field for key events. Valid entries:
//  577  *                 HAL_KEY_SW_5
//  578  *                 HAL_KEY_SW_4
//  579  *                 HAL_KEY_SW_3
//  580  *                 HAL_KEY_SW_2
//  581  *                 HAL_KEY_SW_1
//  582  *
//  583  * @return  none
//  584  */
//  585 static void zclZEM_HandleKeys( byte shift, byte keys )
//  586 {
//  587 }
//  588 
//  589 /*********************************************************************
//  590  * @fn      zclZEM_LcdDisplayMainMode
//  591  *
//  592  * @brief   Called to display the main screen on the LCD.
//  593  *
//  594  * @param   none
//  595  *
//  596  * @return  none
//  597  */

        RSEG BANKED_CODE:HUGECODE:NOROOT(0)
//  598 static void zclZEM_ProcessCommissioningStatus(bdbCommissioningModeMsg_t* bdbCommissioningModeMsg)
zclZEM_ProcessCommissioningStatus:
          CFI Block cfiBlock13 Using cfiCommon0
          CFI Function zclZEM_ProcessCommissioningStatus
        CODE
//  599 {
        FUNCALL zclZEM_ProcessCommissioningStatus, bdb_StartCommissioning
        LOCFRAME ISTACK, 2, STACK
        LOCFRAME PSTACK, 0, STACK
        LOCFRAME XSTACK, 51, STACK
        LOCFRAME IOVERLAY, 0, STATIC
        LOCFRAME DOVERLAY, 0, STATIC
        ARGFRAME ISTACK, 2, STACK
        ARGFRAME PSTACK, 0, STACK
        ARGFRAME XSTACK, 51, STACK
        ARGFRAME IOVERLAY, 0, STATIC
        ARGFRAME DOVERLAY, 0, STATIC
        FUNCALL zclZEM_ProcessCommissioningStatus, HalUARTWrite
        LOCFRAME ISTACK, 2, STACK
        LOCFRAME PSTACK, 0, STACK
        LOCFRAME XSTACK, 51, STACK
        LOCFRAME IOVERLAY, 0, STATIC
        LOCFRAME DOVERLAY, 0, STATIC
        ARGFRAME ISTACK, 2, STACK
        ARGFRAME PSTACK, 0, STACK
        ARGFRAME XSTACK, 51, STACK
        ARGFRAME IOVERLAY, 0, STATIC
        ARGFRAME DOVERLAY, 0, STATIC
        FUNCALL zclZEM_ProcessCommissioningStatus, osal_start_timerEx
        LOCFRAME ISTACK, 2, STACK
        LOCFRAME PSTACK, 0, STACK
        LOCFRAME XSTACK, 55, STACK
        LOCFRAME IOVERLAY, 0, STATIC
        LOCFRAME DOVERLAY, 0, STATIC
        ARGFRAME ISTACK, 2, STACK
        ARGFRAME PSTACK, 0, STACK
        ARGFRAME XSTACK, 55, STACK
        ARGFRAME IOVERLAY, 0, STATIC
        ARGFRAME DOVERLAY, 0, STATIC
        FUNCALL zclZEM_ProcessCommissioningStatus, osal_start_timerEx
        LOCFRAME ISTACK, 2, STACK
        LOCFRAME PSTACK, 0, STACK
        LOCFRAME XSTACK, 55, STACK
        LOCFRAME IOVERLAY, 0, STATIC
        LOCFRAME DOVERLAY, 0, STATIC
        ARGFRAME ISTACK, 2, STACK
        ARGFRAME PSTACK, 0, STACK
        ARGFRAME XSTACK, 55, STACK
        ARGFRAME IOVERLAY, 0, STATIC
        ARGFRAME DOVERLAY, 0, STATIC
        PUSH      DPL
          CFI DPL0 Frame(CFA_SP, 4)
          CFI CFA_SP SP+-4
        PUSH      DPH
          CFI DPH0 Frame(CFA_SP, 5)
          CFI CFA_SP SP+-5
        ; Saved register size: 2
        ; Auto size: 51
        MOV       A,#-0x33
        LCALL     ?ALLOC_XSTACK8
          CFI CFA_XSP16 add(XSP16, 51)
//  600     switch(bdbCommissioningModeMsg->bdbCommissioningMode)
        MOV       DPL,R2
        MOV       DPH,R3
        INC       DPTR
        MOVX      A,@DPTR
        DEC       A
        JZ        ??zclZEM_ProcessCommissioningStatus_0
        DEC       A
        JZ        ??zclZEM_ProcessCommissioningStatus_1
        ADD       A,#-0x3
        JZ        ??zclZEM_ProcessCommissioningStatus_2
        SJMP      ??zclZEM_ProcessCommissioningStatus_3
//  601     {
//  602       case BDB_COMMISSIONING_FORMATION:
//  603         if(bdbCommissioningModeMsg->bdbCommissioningStatus == BDB_COMMISSIONING_SUCCESS)
??zclZEM_ProcessCommissioningStatus_1:
        MOV       DPL,R2
        MOV       DPH,R3
        MOVX      A,@DPTR
        JNZ       ??zclZEM_ProcessCommissioningStatus_3
//  604         {
//  605           //After formation, perform nwk steering again plus the remaining commissioning modes that has not been process yet
//  606           bdb_StartCommissioning(BDB_COMMISSIONING_MODE_NWK_STEERING | bdbCommissioningModeMsg->bdbRemainingCommissioningModes);
        ; Setup parameters for call to function bdb_StartCommissioning
        INC       DPTR
        INC       DPTR
        MOVX      A,@DPTR
        ORL       A,#0x2
        MOV       R1,A
        LCALL     `??bdb_StartCommissioning::?relay`; Banked call to: bdb_StartCommissioning
        SJMP      ??zclZEM_ProcessCommissioningStatus_3
//  607           // 
//  608           #ifdef ZDO_COORDINATOR
//  609           uint8 successMsg[] = "Network formation successful!\r\n";
//  610           HalUARTWrite(HAL_UART_PORT_0, successMsg, sizeof(successMsg)-1);
//  611           #endif
//  612         }
//  613         else
//  614         {
//  615           //Want to try other channels?
//  616           //try with bdb_setChannelAttribute
//  617           // 
//  618           #ifdef ZDO_COORDINATOR
//  619           uint8 failMsg[] = "Network formation failed! Retrying in 5 seconds...\r\n";
//  620           HalUARTWrite(HAL_UART_PORT_0, failMsg, sizeof(failMsg)-1);
//  621           
//  622           //  - 
//  623           osal_start_timerEx(zclZEM_TaskID, ZEM_RETRY_FORMATION_EVT, 5000);
//  624           #endif
//  625         }
//  626       break;
//  627       case BDB_COMMISSIONING_NWK_STEERING:
//  628         if(bdbCommissioningModeMsg->bdbCommissioningStatus == BDB_COMMISSIONING_SUCCESS)
??zclZEM_ProcessCommissioningStatus_0:
        MOV       DPL,R2
        MOV       DPH,R3
        MOVX      A,@DPTR
        JZ        ??zclZEM_ProcessCommissioningStatus_3
//  629         {
//  630           //YOUR JOB:
//  631           //We are on the nwk, what now?
//  632           // 
//  633           #ifdef ZDO_COORDINATOR
//  634           uint8 deviceJoinedMsg[] = "Device joined the network!\r\n";
//  635           HalUARTWrite(HAL_UART_PORT_0, deviceJoinedMsg, sizeof(deviceJoinedMsg)-1);
//  636           #endif
//  637         }
//  638         else
//  639         {
//  640           // 
//  641           #ifdef ZDO_COORDINATOR
//  642           /*  */
//  643           #else
//  644           /*  */
//  645           uint8 failMsg[] = "Network steering failed! Retrying in 1 second...\r\n";
        MOV       DPTR,#`?<Constant "Network steering fail...">`
        MOV       R4,?XSP + 0
        MOV       R5,?XSP + 1
        MOV       A,#0x33
        LCALL     ?MOVE_LONG8_XDATA_XDATA
//  646           HalUARTWrite(HAL_UART_PORT_0, failMsg, sizeof(failMsg)-1);
        ; Setup parameters for call to function HalUARTWrite
        MOV       R4,#0x32
        MOV       R5,A
        MOV       R2,?XSP + 0
        MOV       R3,?XSP + 1
        MOV       R1,A
        LCALL     `??HalUARTWrite::?relay`; Banked call to: HalUARTWrite
//  647           
//  648           /*  */
//  649           osal_start_timerEx(zclZEM_TaskID, 
//  650                                     ZEM_REJOIN_EVT, 
//  651                                     ZEM_REJOIN_PERIOD);
        ; Setup parameters for call to function osal_start_timerEx
        SJMP      ??zclZEM_ProcessCommissioningStatus_4
//  652           #endif
//  653         }
//  654         break;
//  655       case BDB_COMMISSIONING_FINDING_BINDING:
//  656         if(bdbCommissioningModeMsg->bdbCommissioningStatus == BDB_COMMISSIONING_SUCCESS)
//  657         {
//  658           //YOUR JOB:
//  659         }
//  660         else
//  661         {
//  662           //YOUR JOB:
//  663           //retry?, wait for user interaction?
//  664         }
//  665       break;
//  666       case BDB_COMMISSIONING_INITIALIZATION:
//  667         //Initialization notification can only be successful. Failure on initialization 
//  668         //only happens for ZED and is notified as BDB_COMMISSIONING_PARENT_LOST notification
//  669         
//  670         //YOUR JOB:
//  671         //We are on a network, what now?
//  672         
//  673       break;
//  674 #if ZG_BUILD_ENDDEVICE_TYPE    
//  675     case BDB_COMMISSIONING_PARENT_LOST:
//  676       if(bdbCommissioningModeMsg->bdbCommissioningStatus == BDB_COMMISSIONING_NETWORK_RESTORED)
??zclZEM_ProcessCommissioningStatus_2:
        MOV       DPL,R2
        MOV       DPH,R3
        MOVX      A,@DPTR
        XRL       A,#0xd
        JZ        ??zclZEM_ProcessCommissioningStatus_3
//  677       {
//  678         //We did recover from losing parent
//  679       }
//  680       else
//  681       {
//  682         //Parent not found, attempt to rejoin again after a fixed delay
//  683         //osal_start_timerEx(zclZEM_TaskID, SAMPLEAPP_END_DEVICE_REJOIN_EVT, SAMPLEAPP_END_DEVICE_REJOIN_DELAY);
//  684         
//  685         /*  */
//  686 #ifdef ZDO_COORDINATOR
//  687         /*  */
//  688 #else
//  689       /*  */
//  690       osal_start_timerEx(zclZEM_TaskID, 
//  691                         ZEM_REJOIN_EVT, 
//  692                         ZEM_REJOIN_PERIOD);
        ; Setup parameters for call to function osal_start_timerEx
??zclZEM_ProcessCommissioningStatus_4:
        MOV       DPTR,#__Constant_3e8
        LCALL     ?PUSH_XSTACK8_X_FOUR
          CFI CFA_XSP16 add(XSP16, 55)
        MOV       R2,#0x0
        MOV       R3,#0x1
        MOV       DPTR,#zclZEM_TaskID
        MOVX      A,@DPTR
        MOV       R1,A
        LCALL     `??osal_start_timerEx::?relay`; Banked call to: osal_start_timerEx
        MOV       A,#0x4
        LCALL     ?DEALLOC_XSTACK8
          CFI CFA_XSP16 add(XSP16, 51)
//  693 #endif
//  694       }
//  695     break;
//  696 #endif 
//  697     }
//  698 
//  699 }
??zclZEM_ProcessCommissioningStatus_3:
        MOV       A,#0x33
        LCALL     ?DEALLOC_XSTACK8
          CFI EndBlock cfiBlock13
        REQUIRE ?Subroutine3
        ; // Fall through to label ?Subroutine3

        RSEG BANKED_CODE:HUGECODE:NOROOT(0)
?Subroutine3:
          CFI Block cfiBlock14 Using cfiCommon0
          CFI NoFunction
          CFI CFA_SP SP+-5
          CFI DPL0 Frame(CFA_SP, 4)
          CFI DPH0 Frame(CFA_SP, 5)
        POP       DPH
          CFI CFA_SP SP+-4
          CFI DPH0 SameValue
        POP       DPL
          CFI CFA_SP SP+-3
          CFI DPL0 SameValue
        LJMP      ?BRET
          CFI EndBlock cfiBlock14
//  700 
//  701 /*********************************************************************
//  702  * @fn      zclZEM_BasicResetCB
//  703  *
//  704  * @brief   Callback from the ZCL General Cluster Library
//  705  *          to set all the Basic Cluster attributes to default values.
//  706  *
//  707  * @param   none
//  708  *
//  709  * @return  none
//  710  */

        RSEG BANKED_CODE:HUGECODE:NOROOT(0)
//  711 static void zclZEM_BasicResetCB( void )
zclZEM_BasicResetCB:
          CFI Block cfiBlock15 Using cfiCommon0
          CFI Function zclZEM_BasicResetCB
        CODE
//  712 {
        FUNCALL zclZEM_BasicResetCB, zclZEM_ResetAttributesToDefaultValues
        LOCFRAME ISTACK, 2, STACK
        LOCFRAME PSTACK, 0, STACK
        LOCFRAME XSTACK, 0, STACK
        LOCFRAME IOVERLAY, 0, STATIC
        LOCFRAME DOVERLAY, 0, STATIC
        ARGFRAME ISTACK, 2, STACK
        ARGFRAME PSTACK, 0, STACK
        ARGFRAME XSTACK, 0, STACK
        ARGFRAME IOVERLAY, 0, STATIC
        ARGFRAME DOVERLAY, 0, STATIC
        PUSH      DPL
          CFI DPL0 Frame(CFA_SP, 4)
          CFI CFA_SP SP+-4
        PUSH      DPH
          CFI DPH0 Frame(CFA_SP, 5)
          CFI CFA_SP SP+-5
        ; Saved register size: 2
        ; Auto size: 0
//  713   zclZEM_ResetAttributesToDefaultValues();
        ; Setup parameters for call to function zclZEM_ResetAttributesToDefaultValues
        LCALL     `??zclZEM_ResetAttributesToDefaultValues::?relay`; Banked call to: zclZEM_ResetAttributesToDefaultValues
//  714   
//  715 }
        SJMP      ?Subroutine3
          CFI EndBlock cfiBlock15
//  716 
//  717 /*********************************************************************
//  718  * @fn      zclSampleApp_BatteryWarningCB
//  719  *
//  720  * @brief   Called to handle battery-low situation.
//  721  *
//  722  * @param   voltLevel - level of severity
//  723  *
//  724  * @return  none
//  725  */

        RSEG BANKED_CODE:HUGECODE:NOROOT(0)
//  726 void zclSampleApp_BatteryWarningCB( uint8 voltLevel )
zclSampleApp_BatteryWarningCB:
          CFI Block cfiBlock16 Using cfiCommon0
          CFI Function zclSampleApp_BatteryWarningCB
        CODE
//  727 {
        ; Saved register size: 0
        ; Auto size: 0
//  728   if ( voltLevel == VOLT_LEVEL_CAUTIOUS )
//  729   {
//  730     // Send warning message to the gateway and blink LED
//  731   }
//  732   else if ( voltLevel == VOLT_LEVEL_BAD )
//  733   {
//  734     // Shut down the system
//  735   }
//  736 }
        LJMP      ?BRET
          CFI EndBlock cfiBlock16
//  737 
//  738 /******************************************************************************
//  739  *
//  740  *  Functions for processing ZCL Foundation incoming Command/Response messages
//  741  *
//  742  *****************************************************************************/
//  743 
//  744 /*********************************************************************
//  745  * @fn      zclZEM_ProcessIncomingMsg
//  746  *
//  747  * @brief   Process ZCL Foundation incoming message
//  748  *
//  749  * @param   pInMsg - pointer to the received message
//  750  *
//  751  * @return  none
//  752  */

        RSEG BANKED_CODE:HUGECODE:NOROOT(0)
//  753 static void zclZEM_ProcessIncomingMsg( zclIncomingMsg_t *pInMsg)
zclZEM_ProcessIncomingMsg:
          CFI Block cfiBlock17 Using cfiCommon0
          CFI Function zclZEM_ProcessIncomingMsg
        CODE
//  754 {
        FUNCALL zclZEM_ProcessIncomingMsg, zclZEM_ProcessInDiscCmdsRspCmd
        LOCFRAME ISTACK, 0, STACK
        LOCFRAME PSTACK, 0, STACK
        LOCFRAME XSTACK, 9, STACK
        LOCFRAME IOVERLAY, 0, STATIC
        LOCFRAME DOVERLAY, 0, STATIC
        ARGFRAME ISTACK, 0, STACK
        ARGFRAME PSTACK, 0, STACK
        ARGFRAME XSTACK, 9, STACK
        ARGFRAME IOVERLAY, 0, STATIC
        ARGFRAME DOVERLAY, 0, STATIC
        FUNCALL zclZEM_ProcessIncomingMsg, zclZEM_ProcessInDiscCmdsRspCmd
        LOCFRAME ISTACK, 0, STACK
        LOCFRAME PSTACK, 0, STACK
        LOCFRAME XSTACK, 9, STACK
        LOCFRAME IOVERLAY, 0, STATIC
        LOCFRAME DOVERLAY, 0, STATIC
        ARGFRAME ISTACK, 0, STACK
        ARGFRAME PSTACK, 0, STACK
        ARGFRAME XSTACK, 9, STACK
        ARGFRAME IOVERLAY, 0, STATIC
        ARGFRAME DOVERLAY, 0, STATIC
        FUNCALL zclZEM_ProcessIncomingMsg, osal_mem_free
        LOCFRAME ISTACK, 0, STACK
        LOCFRAME PSTACK, 0, STACK
        LOCFRAME XSTACK, 9, STACK
        LOCFRAME IOVERLAY, 0, STATIC
        LOCFRAME DOVERLAY, 0, STATIC
        ARGFRAME ISTACK, 0, STACK
        ARGFRAME PSTACK, 0, STACK
        ARGFRAME XSTACK, 9, STACK
        ARGFRAME IOVERLAY, 0, STATIC
        ARGFRAME DOVERLAY, 0, STATIC
        MOV       A,#-0x9
        LCALL     ?BANKED_ENTER_XDATA
          CFI DPH0 load(1, XDATA, add(CFA_XSP16, literal(-1)))
          CFI DPL0 load(1, XDATA, add(CFA_XSP16, literal(-2)))
          CFI ?BRET_EXT load(1, XDATA, add(CFA_XSP16, literal(-3)))
          CFI ?RET_HIGH load(1, XDATA, add(CFA_XSP16, literal(-4)))
          CFI ?RET_LOW load(1, XDATA, add(CFA_XSP16, literal(-5)))
          CFI R7 load(1, XDATA, add(CFA_XSP16, literal(-6)))
          CFI V0 load(1, XDATA, add(CFA_XSP16, literal(-7)))
          CFI VB load(1, XDATA, add(CFA_XSP16, literal(-8)))
          CFI R6 load(1, XDATA, add(CFA_XSP16, literal(-9)))
          CFI CFA_SP SP+0
          CFI CFA_XSP16 add(XSP16, 9)
        ; Saved register size: 9
        ; Auto size: 0
//  755   switch ( pInMsg->zclHdr.commandID )
        MOV       A,R2
        ADD       A,#0x17
        LCALL     ?Subroutine13 & 0xFFFF
??CrossCallReturnLabel_15:
        INC       DPTR
        INC       DPTR
        INC       DPTR
        MOVX      A,@DPTR
        DEC       A
        JZ        ??zclZEM_ProcessIncomingMsg_0
        ADD       A,#-0x3
        JZ        ??zclZEM_ProcessIncomingMsg_1
        ADD       A,#-0x9
        JZ        ??zclZEM_ProcessIncomingMsg_2
        ADD       A,#-0x5
        JZ        ??zclZEM_ProcessIncomingMsg_3
        ADD       A,#-0x2
        JZ        ??zclZEM_ProcessIncomingMsg_3
        ADD       A,#-0x2
        JZ        ??zclZEM_ProcessIncomingMsg_4
        SJMP      ??zclZEM_ProcessIncomingMsg_5
//  756   {
//  757 #ifdef ZCL_READ
//  758     case ZCL_CMD_READ_RSP:
//  759       zclZEM_ProcessInReadRspCmd( pInMsg );
??zclZEM_ProcessIncomingMsg_0:
        LCALL     ?Subroutine10 & 0xFFFF
??CrossCallReturnLabel_11:
        MOVX      A,@DPTR
        MOV       R1,A
        MOV       A,R0
        CLR       C
        SUBB      A,R1
        JNC       ??zclZEM_ProcessIncomingMsg_5
        INC       R0
        SJMP      ??CrossCallReturnLabel_11
//  760       break;
//  761 #endif
//  762 #ifdef ZCL_WRITE
//  763     case ZCL_CMD_WRITE_RSP:
//  764       zclZEM_ProcessInWriteRspCmd( pInMsg );
??zclZEM_ProcessIncomingMsg_1:
        LCALL     ?Subroutine10 & 0xFFFF
??CrossCallReturnLabel_12:
        MOVX      A,@DPTR
        MOV       R1,A
        MOV       A,R0
        CLR       C
        SUBB      A,R1
        JNC       ??zclZEM_ProcessIncomingMsg_5
        INC       R0
        SJMP      ??CrossCallReturnLabel_12
//  765       break;
//  766 #endif
//  767 #ifdef ZCL_REPORT
//  768     // See ZCL Test Applicaiton (zcl_testapp.c) for sample code on Attribute Reporting
//  769     case ZCL_CMD_CONFIG_REPORT:
//  770       //zclZEM_ProcessInConfigReportCmd( pInMsg );
//  771       break;
//  772       case ZCL_CMD_READ_REPORT_CFG:
//  773       //zclZEM_ProcessInReadReportCfgCmd( pInMsg );
//  774       break;
//  775     case ZCL_CMD_CONFIG_REPORT_RSP:
//  776       //zclZEM_ProcessInConfigReportRspCmd( pInMsg );
//  777       break;
//  778     case ZCL_CMD_READ_REPORT_CFG_RSP:
//  779       //zclZEM_ProcessInReadReportCfgRspCmd( pInMsg );
//  780       break;
//  781 
//  782     case ZCL_CMD_REPORT:
//  783       //zclZEM_ProcessInReportCmd( pInMsg );
//  784       break;
//  785 #endif
//  786     case ZCL_CMD_DEFAULT_RSP:
//  787       zclZEM_ProcessInDefaultRspCmd( pInMsg );
//  788       break;
//  789 #ifdef ZCL_DISCOVER
//  790     case ZCL_CMD_DISCOVER_CMDS_RECEIVED_RSP:
//  791       zclZEM_ProcessInDiscCmdsRspCmd( pInMsg );
??zclZEM_ProcessIncomingMsg_3:
        ; Setup parameters for call to function zclZEM_ProcessInDiscCmdsRspCmd
//  792       break;
//  793 
//  794     case ZCL_CMD_DISCOVER_CMDS_GEN_RSP:
//  795       zclZEM_ProcessInDiscCmdsRspCmd( pInMsg );
        ; Setup parameters for call to function zclZEM_ProcessInDiscCmdsRspCmd
        LCALL     `??zclZEM_ProcessInDiscCmdsRspCmd::?relay`; Banked call to: zclZEM_ProcessInDiscCmdsRspCmd
//  796       break;
        SJMP      ??zclZEM_ProcessIncomingMsg_5
//  797 
//  798     case ZCL_CMD_DISCOVER_ATTRS_RSP:
//  799       zclZEM_ProcessInDiscAttrsRspCmd( pInMsg );
??zclZEM_ProcessIncomingMsg_2:
        LCALL     ?Subroutine11 & 0xFFFF
??CrossCallReturnLabel_22:
        MOV       DPL,R0
        MOV       DPH,R1
        INC       DPTR
        MOVX      A,@DPTR
        MOV       R3,A
        MOV       A,R2
        CLR       C
        SUBB      A,R3
        JNC       ??zclZEM_ProcessIncomingMsg_5
        INC       R2
        SJMP      ??CrossCallReturnLabel_22
//  800       break;
//  801 
//  802     case ZCL_CMD_DISCOVER_ATTRS_EXT_RSP:
//  803       zclZEM_ProcessInDiscAttrsExtRspCmd( pInMsg );
??zclZEM_ProcessIncomingMsg_4:
        LCALL     ?Subroutine11 & 0xFFFF
//  804       break;
//  805 #endif
//  806     default:
//  807       break;
//  808   }
??CrossCallReturnLabel_23:
        SJMP      ??zclZEM_ProcessIncomingMsg_6
??zclZEM_ProcessIncomingMsg_7:
        INC       R2
??zclZEM_ProcessIncomingMsg_6:
        MOV       DPL,R0
        MOV       DPH,R1
        INC       DPTR
        MOVX      A,@DPTR
        MOV       R3,A
        MOV       A,R2
        CLR       C
        SUBB      A,R3
        JC        ??zclZEM_ProcessIncomingMsg_7
//  809 
//  810   if ( pInMsg->attrCmd )
??zclZEM_ProcessIncomingMsg_5:
        MOV       DPL,R6
        MOV       DPH,R7
        MOVX      A,@DPTR
        MOV       R2,A
        INC       DPTR
        MOVX      A,@DPTR
        MOV       R3,A
        MOV       A,R2
        ORL       A,R3
        JZ        ??zclZEM_ProcessIncomingMsg_8
//  811   {
//  812     osal_mem_free( pInMsg->attrCmd );
        ; Setup parameters for call to function osal_mem_free
        LCALL     `??osal_mem_free::?relay`; Banked call to: osal_mem_free
//  813   }
//  814 }
??zclZEM_ProcessIncomingMsg_8:
        LJMP      ?Subroutine2 & 0xFFFF
          CFI EndBlock cfiBlock17

        RSEG BANKED_CODE:HUGECODE:NOROOT(0)
?Subroutine11:
          CFI Block cfiCond18 Using cfiCommon0
          CFI Function zclZEM_ProcessIncomingMsg
          CFI Conditional ??CrossCallReturnLabel_22
          CFI R6 load(1, XDATA, add(CFA_XSP16, literal(-9)))
          CFI VB load(1, XDATA, add(CFA_XSP16, literal(-8)))
          CFI V0 load(1, XDATA, add(CFA_XSP16, literal(-7)))
          CFI R7 load(1, XDATA, add(CFA_XSP16, literal(-6)))
          CFI ?RET_LOW load(1, XDATA, add(CFA_XSP16, literal(-5)))
          CFI ?RET_HIGH load(1, XDATA, add(CFA_XSP16, literal(-4)))
          CFI ?BRET_EXT load(1, XDATA, add(CFA_XSP16, literal(-3)))
          CFI DPL0 load(1, XDATA, add(CFA_XSP16, literal(-2)))
          CFI DPH0 load(1, XDATA, add(CFA_XSP16, literal(-1)))
          CFI CFA_SP SP+-2
          CFI CFA_XSP16 add(XSP16, 9)
          CFI Block cfiCond19 Using cfiCommon0
          CFI (cfiCond19) Function zclZEM_ProcessIncomingMsg
          CFI (cfiCond19) Conditional ??CrossCallReturnLabel_23
          CFI (cfiCond19) R6 load(1, XDATA, add(CFA_XSP16, literal(-9)))
          CFI (cfiCond19) VB load(1, XDATA, add(CFA_XSP16, literal(-8)))
          CFI (cfiCond19) V0 load(1, XDATA, add(CFA_XSP16, literal(-7)))
          CFI (cfiCond19) R7 load(1, XDATA, add(CFA_XSP16, literal(-6)))
          CFI (cfiCond19) ?RET_LOW load(1, XDATA, add(CFA_XSP16, literal(-5)))
          CFI (cfiCond19) ?RET_HIGH load(1, XDATA, add(CFA_XSP16, literal(-4)))
          CFI (cfiCond19) ?BRET_EXT load(1, XDATA, add(CFA_XSP16, literal(-3)))
          CFI (cfiCond19) DPL0 load(1, XDATA, add(CFA_XSP16, literal(-2)))
          CFI (cfiCond19) DPH0 load(1, XDATA, add(CFA_XSP16, literal(-1)))
          CFI (cfiCond19) CFA_SP SP+-2
          CFI (cfiCond19) CFA_XSP16 add(XSP16, 9)
          CFI Block cfiPicker20 Using cfiCommon1
          CFI (cfiPicker20) NoFunction
          CFI (cfiPicker20) Picker
        MOV       DPL,R6
        MOV       DPH,R7
          CFI EndBlock cfiCond18
          CFI EndBlock cfiCond19
          CFI EndBlock cfiPicker20
        REQUIRE ??Subroutine17_0
        ; // Fall through to label ??Subroutine17_0

        RSEG BANKED_CODE:HUGECODE:NOROOT(0)
??Subroutine17_0:
          CFI Block cfiCond21 Using cfiCommon0
          CFI Function zclZEM_ProcessInDiscCmdsRspCmd
          CFI Conditional ??CrossCallReturnLabel_21
          CFI DPL0 Frame(CFA_SP, 4)
          CFI DPH0 Frame(CFA_SP, 5)
          CFI CFA_SP SP+-7
          CFI Block cfiCond22 Using cfiCommon0
          CFI (cfiCond22) Function zclZEM_ProcessIncomingMsg
          CFI (cfiCond22) Conditional ??CrossCallReturnLabel_22
          CFI (cfiCond22) R6 load(1, XDATA, add(CFA_XSP16, literal(-9)))
          CFI (cfiCond22) VB load(1, XDATA, add(CFA_XSP16, literal(-8)))
          CFI (cfiCond22) V0 load(1, XDATA, add(CFA_XSP16, literal(-7)))
          CFI (cfiCond22) R7 load(1, XDATA, add(CFA_XSP16, literal(-6)))
          CFI (cfiCond22) ?RET_LOW load(1, XDATA, add(CFA_XSP16, literal(-5)))
          CFI (cfiCond22) ?RET_HIGH load(1, XDATA, add(CFA_XSP16, literal(-4)))
          CFI (cfiCond22) ?BRET_EXT load(1, XDATA, add(CFA_XSP16, literal(-3)))
          CFI (cfiCond22) DPL0 load(1, XDATA, add(CFA_XSP16, literal(-2)))
          CFI (cfiCond22) DPH0 load(1, XDATA, add(CFA_XSP16, literal(-1)))
          CFI (cfiCond22) CFA_SP SP+-2
          CFI (cfiCond22) CFA_XSP16 add(XSP16, 9)
          CFI Block cfiCond23 Using cfiCommon0
          CFI (cfiCond23) Function zclZEM_ProcessIncomingMsg
          CFI (cfiCond23) Conditional ??CrossCallReturnLabel_23
          CFI (cfiCond23) R6 load(1, XDATA, add(CFA_XSP16, literal(-9)))
          CFI (cfiCond23) VB load(1, XDATA, add(CFA_XSP16, literal(-8)))
          CFI (cfiCond23) V0 load(1, XDATA, add(CFA_XSP16, literal(-7)))
          CFI (cfiCond23) R7 load(1, XDATA, add(CFA_XSP16, literal(-6)))
          CFI (cfiCond23) ?RET_LOW load(1, XDATA, add(CFA_XSP16, literal(-5)))
          CFI (cfiCond23) ?RET_HIGH load(1, XDATA, add(CFA_XSP16, literal(-4)))
          CFI (cfiCond23) ?BRET_EXT load(1, XDATA, add(CFA_XSP16, literal(-3)))
          CFI (cfiCond23) DPL0 load(1, XDATA, add(CFA_XSP16, literal(-2)))
          CFI (cfiCond23) DPH0 load(1, XDATA, add(CFA_XSP16, literal(-1)))
          CFI (cfiCond23) CFA_SP SP+-2
          CFI (cfiCond23) CFA_XSP16 add(XSP16, 9)
          CFI Block cfiPicker24 Using cfiCommon1
          CFI (cfiPicker24) NoFunction
          CFI (cfiPicker24) Picker
        MOVX      A,@DPTR
        MOV       R0,A
        INC       DPTR
        MOVX      A,@DPTR
        MOV       R1,A
        MOV       R2,#0x0
        RET
          CFI EndBlock cfiCond21
          CFI EndBlock cfiCond22
          CFI EndBlock cfiCond23
          CFI EndBlock cfiPicker24

        RSEG BANKED_CODE:HUGECODE:NOROOT(0)
?Subroutine10:
          CFI Block cfiCond25 Using cfiCommon0
          CFI Function zclZEM_ProcessIncomingMsg
          CFI Conditional ??CrossCallReturnLabel_11
          CFI R6 load(1, XDATA, add(CFA_XSP16, literal(-9)))
          CFI VB load(1, XDATA, add(CFA_XSP16, literal(-8)))
          CFI V0 load(1, XDATA, add(CFA_XSP16, literal(-7)))
          CFI R7 load(1, XDATA, add(CFA_XSP16, literal(-6)))
          CFI ?RET_LOW load(1, XDATA, add(CFA_XSP16, literal(-5)))
          CFI ?RET_HIGH load(1, XDATA, add(CFA_XSP16, literal(-4)))
          CFI ?BRET_EXT load(1, XDATA, add(CFA_XSP16, literal(-3)))
          CFI DPL0 load(1, XDATA, add(CFA_XSP16, literal(-2)))
          CFI DPH0 load(1, XDATA, add(CFA_XSP16, literal(-1)))
          CFI CFA_SP SP+-2
          CFI CFA_XSP16 add(XSP16, 9)
          CFI Block cfiCond26 Using cfiCommon0
          CFI (cfiCond26) Function zclZEM_ProcessIncomingMsg
          CFI (cfiCond26) Conditional ??CrossCallReturnLabel_12
          CFI (cfiCond26) R6 load(1, XDATA, add(CFA_XSP16, literal(-9)))
          CFI (cfiCond26) VB load(1, XDATA, add(CFA_XSP16, literal(-8)))
          CFI (cfiCond26) V0 load(1, XDATA, add(CFA_XSP16, literal(-7)))
          CFI (cfiCond26) R7 load(1, XDATA, add(CFA_XSP16, literal(-6)))
          CFI (cfiCond26) ?RET_LOW load(1, XDATA, add(CFA_XSP16, literal(-5)))
          CFI (cfiCond26) ?RET_HIGH load(1, XDATA, add(CFA_XSP16, literal(-4)))
          CFI (cfiCond26) ?BRET_EXT load(1, XDATA, add(CFA_XSP16, literal(-3)))
          CFI (cfiCond26) DPL0 load(1, XDATA, add(CFA_XSP16, literal(-2)))
          CFI (cfiCond26) DPH0 load(1, XDATA, add(CFA_XSP16, literal(-1)))
          CFI (cfiCond26) CFA_SP SP+-2
          CFI (cfiCond26) CFA_XSP16 add(XSP16, 9)
          CFI Block cfiPicker27 Using cfiCommon1
          CFI (cfiPicker27) NoFunction
          CFI (cfiPicker27) Picker
        MOV       DPL,R6
        MOV       DPH,R7
        MOVX      A,@DPTR
        MOV       R0,A
        INC       DPTR
        MOVX      A,@DPTR
        MOV       R1,A
        MOV       DPL,R0
        MOV       DPH,R1
        MOV       R0,#0x0
        RET
          CFI EndBlock cfiCond25
          CFI EndBlock cfiCond26
          CFI EndBlock cfiPicker27
//  815 
//  816 #ifdef ZCL_READ
//  817 /*********************************************************************
//  818  * @fn      zclZEM_ProcessInReadRspCmd
//  819  *
//  820  * @brief   Process the "Profile" Read Response Command
//  821  *
//  822  * @param   pInMsg - incoming message to process
//  823  *
//  824  * @return  none
//  825  */
//  826 static uint8 zclZEM_ProcessInReadRspCmd( zclIncomingMsg_t *pInMsg )
//  827 {
//  828   zclReadRspCmd_t *readRspCmd;
//  829   uint8 i;
//  830 
//  831   readRspCmd = (zclReadRspCmd_t *)pInMsg->attrCmd;
//  832   for ( i = 0; i < readRspCmd->numAttr; i++ )
//  833   {
//  834     // Notify the originator of the results of the original read attributes
//  835     // attempt and, for each successfull request, the value of the requested
//  836     // attribute
//  837   }
//  838 
//  839   return ( TRUE );
//  840 }
//  841 #endif // ZCL_READ
//  842 
//  843 #ifdef ZCL_WRITE
//  844 /*********************************************************************
//  845  * @fn      zclZEM_ProcessInWriteRspCmd
//  846  *
//  847  * @brief   Process the "Profile" Write Response Command
//  848  *
//  849  * @param   pInMsg - incoming message to process
//  850  *
//  851  * @return  none
//  852  */
//  853 static uint8 zclZEM_ProcessInWriteRspCmd( zclIncomingMsg_t *pInMsg )
//  854 {
//  855   zclWriteRspCmd_t *writeRspCmd;
//  856   uint8 i;
//  857 
//  858   writeRspCmd = (zclWriteRspCmd_t *)pInMsg->attrCmd;
//  859   for ( i = 0; i < writeRspCmd->numAttr; i++ )
//  860   {
//  861     // Notify the device of the results of the its original write attributes
//  862     // command.
//  863   }
//  864 
//  865   return ( TRUE );
//  866 }
//  867 #endif // ZCL_WRITE
//  868 
//  869 /*********************************************************************
//  870  * @fn      zclZEM_ProcessInDefaultRspCmd
//  871  *
//  872  * @brief   Process the "Profile" Default Response Command
//  873  *
//  874  * @param   pInMsg - incoming message to process
//  875  *
//  876  * @return  none
//  877  */
//  878 static uint8 zclZEM_ProcessInDefaultRspCmd( zclIncomingMsg_t *pInMsg )
//  879 {
//  880   // zclDefaultRspCmd_t *defaultRspCmd = (zclDefaultRspCmd_t *)pInMsg->attrCmd;
//  881 
//  882   // Device is notified of the Default Response command.
//  883   (void)pInMsg;
//  884 
//  885   return ( TRUE );
//  886 }
//  887 
//  888 #ifdef ZCL_DISCOVER
//  889 /*********************************************************************
//  890  * @fn      zclZEM_ProcessInDiscCmdsRspCmd
//  891  *
//  892  * @brief   Process the Discover Commands Response Command
//  893  *
//  894  * @param   pInMsg - incoming message to process
//  895  *
//  896  * @return  none
//  897  */

        RSEG BANKED_CODE:HUGECODE:NOROOT(0)
//  898 static uint8 zclZEM_ProcessInDiscCmdsRspCmd( zclIncomingMsg_t *pInMsg )
zclZEM_ProcessInDiscCmdsRspCmd:
          CFI Block cfiBlock28 Using cfiCommon0
          CFI Function zclZEM_ProcessInDiscCmdsRspCmd
        CODE
//  899 {
        PUSH      DPL
          CFI DPL0 Frame(CFA_SP, 4)
          CFI CFA_SP SP+-4
        PUSH      DPH
          CFI DPH0 Frame(CFA_SP, 5)
          CFI CFA_SP SP+-5
        ; Saved register size: 2
        ; Auto size: 0
//  900   zclDiscoverCmdsCmdRsp_t *discoverRspCmd;
//  901   uint8 i;
//  902 
//  903   discoverRspCmd = (zclDiscoverCmdsCmdRsp_t *)pInMsg->attrCmd;
        MOV       A,R2
        ADD       A,#0x17
        MOV       DPL,A
        CLR       A
        ADDC      A,R3
        MOV       DPH,A
        LCALL     ??Subroutine17_0 & 0xFFFF
//  904   for ( i = 0; i < discoverRspCmd->numCmd; i++ )
??CrossCallReturnLabel_21:
        SJMP      ??zclZEM_ProcessInDiscCmdsRspCmd_0
??zclZEM_ProcessInDiscCmdsRspCmd_1:
        INC       R2
??zclZEM_ProcessInDiscCmdsRspCmd_0:
        MOV       DPL,R0
        MOV       DPH,R1
        INC       DPTR
        INC       DPTR
        MOVX      A,@DPTR
        MOV       R3,A
        MOV       A,R2
        CLR       C
        SUBB      A,R3
        JC        ??zclZEM_ProcessInDiscCmdsRspCmd_1
//  905   {
//  906     // Device is notified of the result of its attribute discovery command.
//  907   }
//  908 
//  909   return ( TRUE );
        MOV       R1,#0x1
        LJMP      ?Subroutine3 & 0xFFFF
//  910 }
          CFI EndBlock cfiBlock28
//  911 
//  912 /*********************************************************************
//  913  * @fn      zclZEM_ProcessInDiscAttrsRspCmd
//  914  *
//  915  * @brief   Process the "Profile" Discover Attributes Response Command
//  916  *
//  917  * @param   pInMsg - incoming message to process
//  918  *
//  919  * @return  none
//  920  */
//  921 static uint8 zclZEM_ProcessInDiscAttrsRspCmd( zclIncomingMsg_t *pInMsg )
//  922 {
//  923   zclDiscoverAttrsRspCmd_t *discoverRspCmd;
//  924   uint8 i;
//  925 
//  926   discoverRspCmd = (zclDiscoverAttrsRspCmd_t *)pInMsg->attrCmd;
//  927   for ( i = 0; i < discoverRspCmd->numAttr; i++ )
//  928   {
//  929     // Device is notified of the result of its attribute discovery command.
//  930   }
//  931 
//  932   return ( TRUE );
//  933 }
//  934 
//  935 /*********************************************************************
//  936  * @fn      zclZEM_ProcessInDiscAttrsExtRspCmd
//  937  *
//  938  * @brief   Process the "Profile" Discover Attributes Extended Response Command
//  939  *
//  940  * @param   pInMsg - incoming message to process
//  941  *
//  942  * @return  none
//  943  */
//  944 static uint8 zclZEM_ProcessInDiscAttrsExtRspCmd( zclIncomingMsg_t *pInMsg )
//  945 {
//  946   zclDiscoverAttrsExtRsp_t *discoverRspCmd;
//  947   uint8 i;
//  948 
//  949   discoverRspCmd = (zclDiscoverAttrsExtRsp_t *)pInMsg->attrCmd;
//  950   for ( i = 0; i < discoverRspCmd->numAttr; i++ )
//  951   {
//  952     // Device is notified of the result of its attribute discovery command.
//  953   }
//  954 
//  955   return ( TRUE );
//  956 }
//  957 #endif // ZCL_DISCOVER
//  958 
//  959 
//  960 
//  961 
//  962 /*********************************************************************
//  963  * @fn      zclZEM_AF_P2P
//  964  *
//  965  * @brief   
//  966  *
//  967  * @param   destNwkAddr - 
//  968  * @param   cid - Cluster ID
//  969  * @param   len - 
//  970  * @param   data - 
//  971  *
//  972  * @return  none
//  973  */

        RSEG BANKED_CODE:HUGECODE:NOROOT(0)
//  974 static void zclZEM_AF_P2P(
zclZEM_AF_P2P:
          CFI Block cfiBlock29 Using cfiCommon0
          CFI Function zclZEM_AF_P2P
        CODE
//  975     uint16 destNwkAddr,
//  976     uint16 cid,
//  977     uint8 len,
//  978     uint8 *data)
//  979 {
        FUNCALL zclZEM_AF_P2P, AF_DataRequest
        LOCFRAME ISTACK, 0, STACK
        LOCFRAME PSTACK, 0, STACK
        LOCFRAME XSTACK, 31, STACK
        LOCFRAME IOVERLAY, 0, STATIC
        LOCFRAME DOVERLAY, 0, STATIC
        ARGFRAME ISTACK, 0, STACK
        ARGFRAME PSTACK, 0, STACK
        ARGFRAME XSTACK, 31, STACK
        ARGFRAME IOVERLAY, 0, STATIC
        ARGFRAME DOVERLAY, 0, STATIC
        REQUIRE ?V0
        REQUIRE ?V1
        MOV       A,#-0xa
        LCALL     ?BANKED_ENTER_XDATA
          CFI DPH0 load(1, XDATA, add(CFA_XSP16, literal(-1)))
          CFI DPL0 load(1, XDATA, add(CFA_XSP16, literal(-2)))
          CFI ?BRET_EXT load(1, XDATA, add(CFA_XSP16, literal(-3)))
          CFI ?RET_HIGH load(1, XDATA, add(CFA_XSP16, literal(-4)))
          CFI ?RET_LOW load(1, XDATA, add(CFA_XSP16, literal(-5)))
          CFI R7 load(1, XDATA, add(CFA_XSP16, literal(-6)))
          CFI V1 load(1, XDATA, add(CFA_XSP16, literal(-7)))
          CFI V0 load(1, XDATA, add(CFA_XSP16, literal(-8)))
          CFI VB load(1, XDATA, add(CFA_XSP16, literal(-9)))
          CFI R6 load(1, XDATA, add(CFA_XSP16, literal(-10)))
          CFI CFA_SP SP+0
          CFI CFA_XSP16 add(XSP16, 10)
        ; Saved register size: 10
        ; Auto size: 12
        MOV       A,#-0xc
        LCALL     ?ALLOC_XSTACK8
          CFI CFA_XSP16 add(XSP16, 22)
        MOV       A,R1
        MOV       R6,A
//  980     afAddrType_t dstAddr; //
//  981     static uint8 transferId = 0;//ID
//  982     
//  983     /* Destination */
//  984     dstAddr.addrMode = afAddr16Bit;// 16P2P
        MOV       A,#0x8
        LCALL     ?XSTACK_DISP0_8
        MOV       A,#0x2
        LCALL     ?Subroutine5 & 0xFFFF
//  985     dstAddr.addr.shortAddr = destNwkAddr;//
??CrossCallReturnLabel_2:
        MOV       A,R2
        MOVX      @DPTR,A
        INC       DPTR
        MOV       A,R3
        MOVX      @DPTR,A
//  986     dstAddr.endPoint = ZEM_ENDPOINT;//
        MOV       A,#0x9
        LCALL     ?XSTACK_DISP0_8
        MOV       A,#0x8
        MOVX      @DPTR,A
//  987     
//  988     transferId++;
        MOV       DPTR,#??transferId
        LCALL     ?Subroutine6 & 0xFFFF
//  989     
//  990     AF_DataRequest(&dstAddr,
//  991         &ZEM_AppEp,//
//  992         cid,
//  993         len,
//  994         data,
//  995         &transferId,
//  996         AF_DISCV_ROUTE,//
//  997         AF_DEFAULT_RADIUS);//
??CrossCallReturnLabel_5:
        LCALL     ?PUSH_XSTACK_I_ONE
          CFI CFA_XSP16 add(XSP16, 23)
        MOV       ?V0,#??transferId & 0xff
        MOV       ?V1,#(??transferId >> 8) & 0xff
        MOV       R0,#?V0
        LCALL     ?PUSH_XSTACK_I_TWO
          CFI CFA_XSP16 add(XSP16, 25)
        MOV       A,#0x19
        LCALL     ?XSTACK_DISP0_8
        LCALL     ?PUSH_XSTACK8_X_TWO
          CFI CFA_XSP16 add(XSP16, 27)
        MOV       A,R6
        MOV       ?V0,A
        MOV       ?V1,#0x0
        MOV       R0,#?V0
        LCALL     ?PUSH_XSTACK_I_TWO
          CFI CFA_XSP16 add(XSP16, 29)
        MOV       ?V0,R4
        MOV       ?V1,R5
        MOV       R0,#?V0
        LCALL     ?PUSH_XSTACK_I_TWO
          CFI CFA_XSP16 add(XSP16, 31)
        MOV       R1,#0x0
        MOV       R4,#ZEM_AppEp & 0xff
        MOV       R5,#(ZEM_AppEp >> 8) & 0xff
        MOV       A,#0x9
        LCALL     ?XSTACK_DISP101_8
        LCALL     `??AF_DataRequest::?relay`; Banked call to: AF_DataRequest
        MOV       A,#0x9
        LCALL     ?DEALLOC_XSTACK8
          CFI CFA_XSP16 add(XSP16, 22)
//  998 }
        MOV       A,#0xc
        LJMP      ?Subroutine0 & 0xFFFF
          CFI EndBlock cfiBlock29

        RSEG BANKED_CODE:HUGECODE:NOROOT(0)
?Subroutine6:
          CFI Block cfiCond30 Using cfiCommon0
          CFI Function zclZEM_event_loop
          CFI Conditional ??CrossCallReturnLabel_3
          CFI R6 load(1, XDATA, add(CFA_XSP16, literal(-12)))
          CFI VB load(1, XDATA, add(CFA_XSP16, literal(-11)))
          CFI V0 load(1, XDATA, add(CFA_XSP16, literal(-10)))
          CFI V1 load(1, XDATA, add(CFA_XSP16, literal(-9)))
          CFI V2 load(1, XDATA, add(CFA_XSP16, literal(-8)))
          CFI V3 load(1, XDATA, add(CFA_XSP16, literal(-7)))
          CFI R7 load(1, XDATA, add(CFA_XSP16, literal(-6)))
          CFI ?RET_LOW load(1, XDATA, add(CFA_XSP16, literal(-5)))
          CFI ?RET_HIGH load(1, XDATA, add(CFA_XSP16, literal(-4)))
          CFI ?BRET_EXT load(1, XDATA, add(CFA_XSP16, literal(-3)))
          CFI DPL0 load(1, XDATA, add(CFA_XSP16, literal(-2)))
          CFI DPH0 load(1, XDATA, add(CFA_XSP16, literal(-1)))
          CFI CFA_SP SP+-2
          CFI CFA_XSP16 add(XSP16, 38)
          CFI Block cfiCond31 Using cfiCommon0
          CFI (cfiCond31) Function zclZEM_event_loop
          CFI (cfiCond31) Conditional ??CrossCallReturnLabel_4
          CFI (cfiCond31) R6 load(1, XDATA, add(CFA_XSP16, literal(-12)))
          CFI (cfiCond31) VB load(1, XDATA, add(CFA_XSP16, literal(-11)))
          CFI (cfiCond31) V0 load(1, XDATA, add(CFA_XSP16, literal(-10)))
          CFI (cfiCond31) V1 load(1, XDATA, add(CFA_XSP16, literal(-9)))
          CFI (cfiCond31) V2 load(1, XDATA, add(CFA_XSP16, literal(-8)))
          CFI (cfiCond31) V3 load(1, XDATA, add(CFA_XSP16, literal(-7)))
          CFI (cfiCond31) R7 load(1, XDATA, add(CFA_XSP16, literal(-6)))
          CFI (cfiCond31) ?RET_LOW load(1, XDATA, add(CFA_XSP16, literal(-5)))
          CFI (cfiCond31) ?RET_HIGH load(1, XDATA, add(CFA_XSP16, literal(-4)))
          CFI (cfiCond31) ?BRET_EXT load(1, XDATA, add(CFA_XSP16, literal(-3)))
          CFI (cfiCond31) DPL0 load(1, XDATA, add(CFA_XSP16, literal(-2)))
          CFI (cfiCond31) DPH0 load(1, XDATA, add(CFA_XSP16, literal(-1)))
          CFI (cfiCond31) CFA_SP SP+-2
          CFI (cfiCond31) CFA_XSP16 add(XSP16, 38)
          CFI Block cfiCond32 Using cfiCommon0
          CFI (cfiCond32) Function zclZEM_AF_P2P
          CFI (cfiCond32) Conditional ??CrossCallReturnLabel_5
          CFI (cfiCond32) R6 load(1, XDATA, add(CFA_XSP16, literal(-10)))
          CFI (cfiCond32) VB load(1, XDATA, add(CFA_XSP16, literal(-9)))
          CFI (cfiCond32) V0 load(1, XDATA, add(CFA_XSP16, literal(-8)))
          CFI (cfiCond32) V1 load(1, XDATA, add(CFA_XSP16, literal(-7)))
          CFI (cfiCond32) R7 load(1, XDATA, add(CFA_XSP16, literal(-6)))
          CFI (cfiCond32) ?RET_LOW load(1, XDATA, add(CFA_XSP16, literal(-5)))
          CFI (cfiCond32) ?RET_HIGH load(1, XDATA, add(CFA_XSP16, literal(-4)))
          CFI (cfiCond32) ?BRET_EXT load(1, XDATA, add(CFA_XSP16, literal(-3)))
          CFI (cfiCond32) DPL0 load(1, XDATA, add(CFA_XSP16, literal(-2)))
          CFI (cfiCond32) DPH0 load(1, XDATA, add(CFA_XSP16, literal(-1)))
          CFI (cfiCond32) CFA_SP SP+-2
          CFI (cfiCond32) CFA_XSP16 add(XSP16, 22)
          CFI Block cfiPicker33 Using cfiCommon1
          CFI (cfiPicker33) NoFunction
          CFI (cfiPicker33) Picker
        MOVX      A,@DPTR
        INC       A
        MOVX      @DPTR,A
        ; Setup parameters for call to function AF_DataRequest
        ; Setup parameters for call to function AF_DataRequest
        ; Setup parameters for call to function AF_DataRequest
        MOV       ?V0,#0x1e
        MOV       R0,#?V0
        RET
          CFI EndBlock cfiCond30
          CFI EndBlock cfiCond31
          CFI EndBlock cfiCond32
          CFI EndBlock cfiPicker33

        RSEG BANKED_CODE:HUGECODE:NOROOT(0)
?Subroutine5:
          CFI Block cfiCond34 Using cfiCommon0
          CFI Function zclZEM_event_loop
          CFI Conditional ??CrossCallReturnLabel_0
          CFI R6 load(1, XDATA, add(CFA_XSP16, literal(-12)))
          CFI VB load(1, XDATA, add(CFA_XSP16, literal(-11)))
          CFI V0 load(1, XDATA, add(CFA_XSP16, literal(-10)))
          CFI V1 load(1, XDATA, add(CFA_XSP16, literal(-9)))
          CFI V2 load(1, XDATA, add(CFA_XSP16, literal(-8)))
          CFI V3 load(1, XDATA, add(CFA_XSP16, literal(-7)))
          CFI R7 load(1, XDATA, add(CFA_XSP16, literal(-6)))
          CFI ?RET_LOW load(1, XDATA, add(CFA_XSP16, literal(-5)))
          CFI ?RET_HIGH load(1, XDATA, add(CFA_XSP16, literal(-4)))
          CFI ?BRET_EXT load(1, XDATA, add(CFA_XSP16, literal(-3)))
          CFI DPL0 load(1, XDATA, add(CFA_XSP16, literal(-2)))
          CFI DPH0 load(1, XDATA, add(CFA_XSP16, literal(-1)))
          CFI CFA_SP SP+-2
          CFI CFA_XSP16 add(XSP16, 38)
          CFI Block cfiCond35 Using cfiCommon0
          CFI (cfiCond35) Function zclZEM_event_loop
          CFI (cfiCond35) Conditional ??CrossCallReturnLabel_1
          CFI (cfiCond35) R6 load(1, XDATA, add(CFA_XSP16, literal(-12)))
          CFI (cfiCond35) VB load(1, XDATA, add(CFA_XSP16, literal(-11)))
          CFI (cfiCond35) V0 load(1, XDATA, add(CFA_XSP16, literal(-10)))
          CFI (cfiCond35) V1 load(1, XDATA, add(CFA_XSP16, literal(-9)))
          CFI (cfiCond35) V2 load(1, XDATA, add(CFA_XSP16, literal(-8)))
          CFI (cfiCond35) V3 load(1, XDATA, add(CFA_XSP16, literal(-7)))
          CFI (cfiCond35) R7 load(1, XDATA, add(CFA_XSP16, literal(-6)))
          CFI (cfiCond35) ?RET_LOW load(1, XDATA, add(CFA_XSP16, literal(-5)))
          CFI (cfiCond35) ?RET_HIGH load(1, XDATA, add(CFA_XSP16, literal(-4)))
          CFI (cfiCond35) ?BRET_EXT load(1, XDATA, add(CFA_XSP16, literal(-3)))
          CFI (cfiCond35) DPL0 load(1, XDATA, add(CFA_XSP16, literal(-2)))
          CFI (cfiCond35) DPH0 load(1, XDATA, add(CFA_XSP16, literal(-1)))
          CFI (cfiCond35) CFA_SP SP+-2
          CFI (cfiCond35) CFA_XSP16 add(XSP16, 38)
          CFI Block cfiCond36 Using cfiCommon0
          CFI (cfiCond36) Function zclZEM_AF_P2P
          CFI (cfiCond36) Conditional ??CrossCallReturnLabel_2
          CFI (cfiCond36) R6 load(1, XDATA, add(CFA_XSP16, literal(-10)))
          CFI (cfiCond36) VB load(1, XDATA, add(CFA_XSP16, literal(-9)))
          CFI (cfiCond36) V0 load(1, XDATA, add(CFA_XSP16, literal(-8)))
          CFI (cfiCond36) V1 load(1, XDATA, add(CFA_XSP16, literal(-7)))
          CFI (cfiCond36) R7 load(1, XDATA, add(CFA_XSP16, literal(-6)))
          CFI (cfiCond36) ?RET_LOW load(1, XDATA, add(CFA_XSP16, literal(-5)))
          CFI (cfiCond36) ?RET_HIGH load(1, XDATA, add(CFA_XSP16, literal(-4)))
          CFI (cfiCond36) ?BRET_EXT load(1, XDATA, add(CFA_XSP16, literal(-3)))
          CFI (cfiCond36) DPL0 load(1, XDATA, add(CFA_XSP16, literal(-2)))
          CFI (cfiCond36) DPH0 load(1, XDATA, add(CFA_XSP16, literal(-1)))
          CFI (cfiCond36) CFA_SP SP+-2
          CFI (cfiCond36) CFA_XSP16 add(XSP16, 22)
          CFI Block cfiPicker37 Using cfiCommon1
          CFI (cfiPicker37) NoFunction
          CFI (cfiPicker37) Picker
        MOVX      @DPTR,A
        MOV       DPL,?XSP + 0
        MOV       DPH,?XSP + 1
        RET
          CFI EndBlock cfiCond34
          CFI EndBlock cfiCond35
          CFI EndBlock cfiCond36
          CFI EndBlock cfiPicker37

        RSEG XDATA_Z:XDATA:NOROOT(0)
        DATA8
??transferId:
        DS 1
        REQUIRE __INIT_XDATA_Z
//  999 
// 1000 /*********************************************************************
// 1001  * @fn      zclZEM_AF_Broadcast
// 1002  *
// 1003  * @brief   
// 1004  *
// 1005  * @param   cid - Cluster ID
// 1006  * @param   len - 
// 1007  * @param   data - 
// 1008  *
// 1009  * @return  none
// 1010  */
// 1011 static void zclZEM_AF_Broadcast(
// 1012     uint16 cid,
// 1013     uint8 len,
// 1014     uint8 *data)
// 1015 {
// 1016     afAddrType_t dstAddr;

        RSEG XDATA_Z:XDATA:NOROOT(0)
        DATA8
// 1017     static uint8 transferId = 0;
??transferId_1:
        DS 1
        REQUIRE __INIT_XDATA_Z
// 1018     
// 1019     /* Destination */
// 1020     dstAddr.addrMode = afAddrBroadcast;   // 
// 1021     dstAddr.addr.shortAddr = 0xFFFF; // 
// 1022     dstAddr.endPoint = ZEM_ENDPOINT; // 
// 1023     
// 1024     /* Transfer id */
// 1025     transferId++;
// 1026     
// 1027     /* Send */
// 1028     AF_DataRequest(&dstAddr,
// 1029         &ZEM_AppEp,//
// 1030         cid,
// 1031         len,
// 1032         data,
// 1033         &transferId,
// 1034         AF_TX_OPTIONS_NONE,
// 1035         AF_DEFAULT_RADIUS );//
// 1036 }
// 1037 
// 1038 /*********************************************************************
// 1039  * @fn      zclZEM_AF_Groupcast
// 1040  *
// 1041  * @brief   
// 1042  *
// 1043  * @param   groupId - ID
// 1044  * @param   cid - ClusterID
// 1045  * @param   len - 
// 1046  * @param   data - 
// 1047  *
// 1048  * @return  none
// 1049  */
// 1050 static void zclZEM_AF_Groupcast(
// 1051     uint16 groupId,
// 1052     uint16 cid,
// 1053     uint8 len,
// 1054     uint8 *data)
// 1055 {
// 1056     afAddrType_t dstAddr;

        RSEG XDATA_Z:XDATA:NOROOT(0)
        DATA8
// 1057     static uint8 transferId = 0;
??transferId_2:
        DS 1
        REQUIRE __INIT_XDATA_Z
// 1058     
// 1059     /* Destination */
// 1060     dstAddr.addrMode = afAddrGroup;//
// 1061     dstAddr.addr.shortAddr = groupId;
// 1062     dstAddr.endPoint = ZEM_ENDPOINT;//
// 1063     
// 1064     /* Transfer id */
// 1065     transferId++;
// 1066     
// 1067     /* Send */
// 1068     AF_DataRequest(&dstAddr,
// 1069         &ZEM_AppEp,//
// 1070         cid,
// 1071         len,
// 1072         data,
// 1073         &transferId,
// 1074         AF_TX_OPTIONS_NONE,
// 1075         AF_DEFAULT_RADIUS );//
// 1076 }
// 1077 
// 1078 /*********************************************************************
// 1079  * @fn      zclZEM_AF_RxProc
// 1080  *
// 1081  * @brief   
// 1082  *
// 1083  * @param   MSGpkt - 
// 1084  *
// 1085  * @return  none
// 1086  */

        RSEG BANKED_CODE:HUGECODE:NOROOT(0)
// 1087 static void zclZEM_AF_RxProc(afIncomingMSGPacket_t *MSGpkt)
zclZEM_AF_RxProc:
          CFI Block cfiBlock38 Using cfiCommon0
          CFI Function zclZEM_AF_RxProc
        CODE
// 1088 {
        FUNCALL zclZEM_AF_RxProc, osal_memcpy
        LOCFRAME ISTACK, 0, STACK
        LOCFRAME PSTACK, 0, STACK
        LOCFRAME XSTACK, 86, STACK
        LOCFRAME IOVERLAY, 0, STATIC
        LOCFRAME DOVERLAY, 0, STATIC
        ARGFRAME ISTACK, 0, STACK
        ARGFRAME PSTACK, 0, STACK
        ARGFRAME XSTACK, 86, STACK
        ARGFRAME IOVERLAY, 0, STATIC
        ARGFRAME DOVERLAY, 0, STATIC
        FUNCALL zclZEM_AF_RxProc, osal_memcpy
        LOCFRAME ISTACK, 0, STACK
        LOCFRAME PSTACK, 0, STACK
        LOCFRAME XSTACK, 86, STACK
        LOCFRAME IOVERLAY, 0, STATIC
        LOCFRAME DOVERLAY, 0, STATIC
        ARGFRAME ISTACK, 0, STACK
        ARGFRAME PSTACK, 0, STACK
        ARGFRAME XSTACK, 86, STACK
        ARGFRAME IOVERLAY, 0, STATIC
        ARGFRAME DOVERLAY, 0, STATIC
        FUNCALL zclZEM_AF_RxProc, osal_memcpy
        LOCFRAME ISTACK, 0, STACK
        LOCFRAME PSTACK, 0, STACK
        LOCFRAME XSTACK, 86, STACK
        LOCFRAME IOVERLAY, 0, STATIC
        LOCFRAME DOVERLAY, 0, STATIC
        ARGFRAME ISTACK, 0, STACK
        ARGFRAME PSTACK, 0, STACK
        ARGFRAME XSTACK, 86, STACK
        ARGFRAME IOVERLAY, 0, STATIC
        ARGFRAME DOVERLAY, 0, STATIC
        FUNCALL zclZEM_AF_RxProc, HalUARTWrite
        LOCFRAME ISTACK, 0, STACK
        LOCFRAME PSTACK, 0, STACK
        LOCFRAME XSTACK, 83, STACK
        LOCFRAME IOVERLAY, 0, STATIC
        LOCFRAME DOVERLAY, 0, STATIC
        ARGFRAME ISTACK, 0, STACK
        ARGFRAME PSTACK, 0, STACK
        ARGFRAME XSTACK, 83, STACK
        ARGFRAME IOVERLAY, 0, STATIC
        ARGFRAME DOVERLAY, 0, STATIC
        FUNCALL zclZEM_AF_RxProc, osal_memcpy
        LOCFRAME ISTACK, 0, STACK
        LOCFRAME PSTACK, 0, STACK
        LOCFRAME XSTACK, 86, STACK
        LOCFRAME IOVERLAY, 0, STATIC
        LOCFRAME DOVERLAY, 0, STATIC
        ARGFRAME ISTACK, 0, STACK
        ARGFRAME PSTACK, 0, STACK
        ARGFRAME XSTACK, 86, STACK
        ARGFRAME IOVERLAY, 0, STATIC
        ARGFRAME DOVERLAY, 0, STATIC
        FUNCALL zclZEM_AF_RxProc, osal_memcpy
        LOCFRAME ISTACK, 0, STACK
        LOCFRAME PSTACK, 0, STACK
        LOCFRAME XSTACK, 86, STACK
        LOCFRAME IOVERLAY, 0, STATIC
        LOCFRAME DOVERLAY, 0, STATIC
        ARGFRAME ISTACK, 0, STACK
        ARGFRAME PSTACK, 0, STACK
        ARGFRAME XSTACK, 86, STACK
        ARGFRAME IOVERLAY, 0, STATIC
        ARGFRAME DOVERLAY, 0, STATIC
        FUNCALL zclZEM_AF_RxProc, osal_memcpy
        LOCFRAME ISTACK, 0, STACK
        LOCFRAME PSTACK, 0, STACK
        LOCFRAME XSTACK, 86, STACK
        LOCFRAME IOVERLAY, 0, STATIC
        LOCFRAME DOVERLAY, 0, STATIC
        ARGFRAME ISTACK, 0, STACK
        ARGFRAME PSTACK, 0, STACK
        ARGFRAME XSTACK, 86, STACK
        ARGFRAME IOVERLAY, 0, STATIC
        ARGFRAME DOVERLAY, 0, STATIC
        FUNCALL zclZEM_AF_RxProc, HalUARTWrite
        LOCFRAME ISTACK, 0, STACK
        LOCFRAME PSTACK, 0, STACK
        LOCFRAME XSTACK, 83, STACK
        LOCFRAME IOVERLAY, 0, STATIC
        LOCFRAME DOVERLAY, 0, STATIC
        ARGFRAME ISTACK, 0, STACK
        ARGFRAME PSTACK, 0, STACK
        ARGFRAME XSTACK, 83, STACK
        ARGFRAME IOVERLAY, 0, STATIC
        ARGFRAME DOVERLAY, 0, STATIC
        FUNCALL zclZEM_AF_RxProc, osal_memcpy
        LOCFRAME ISTACK, 0, STACK
        LOCFRAME PSTACK, 0, STACK
        LOCFRAME XSTACK, 86, STACK
        LOCFRAME IOVERLAY, 0, STATIC
        LOCFRAME DOVERLAY, 0, STATIC
        ARGFRAME ISTACK, 0, STACK
        ARGFRAME PSTACK, 0, STACK
        ARGFRAME XSTACK, 86, STACK
        ARGFRAME IOVERLAY, 0, STATIC
        ARGFRAME DOVERLAY, 0, STATIC
        FUNCALL zclZEM_AF_RxProc, osal_memcpy
        LOCFRAME ISTACK, 0, STACK
        LOCFRAME PSTACK, 0, STACK
        LOCFRAME XSTACK, 86, STACK
        LOCFRAME IOVERLAY, 0, STATIC
        LOCFRAME DOVERLAY, 0, STATIC
        ARGFRAME ISTACK, 0, STACK
        ARGFRAME PSTACK, 0, STACK
        ARGFRAME XSTACK, 86, STACK
        ARGFRAME IOVERLAY, 0, STATIC
        ARGFRAME DOVERLAY, 0, STATIC
        FUNCALL zclZEM_AF_RxProc, osal_memcpy
        LOCFRAME ISTACK, 0, STACK
        LOCFRAME PSTACK, 0, STACK
        LOCFRAME XSTACK, 86, STACK
        LOCFRAME IOVERLAY, 0, STATIC
        LOCFRAME DOVERLAY, 0, STATIC
        ARGFRAME ISTACK, 0, STACK
        ARGFRAME PSTACK, 0, STACK
        ARGFRAME XSTACK, 86, STACK
        ARGFRAME IOVERLAY, 0, STATIC
        ARGFRAME DOVERLAY, 0, STATIC
        FUNCALL zclZEM_AF_RxProc, HalUARTWrite
        LOCFRAME ISTACK, 0, STACK
        LOCFRAME PSTACK, 0, STACK
        LOCFRAME XSTACK, 83, STACK
        LOCFRAME IOVERLAY, 0, STATIC
        LOCFRAME DOVERLAY, 0, STATIC
        ARGFRAME ISTACK, 0, STACK
        ARGFRAME PSTACK, 0, STACK
        ARGFRAME XSTACK, 83, STACK
        ARGFRAME IOVERLAY, 0, STATIC
        ARGFRAME DOVERLAY, 0, STATIC
        REQUIRE ?V0
        REQUIRE ?V1
        REQUIRE ?V2
        REQUIRE ?V3
        REQUIRE ?V4
        REQUIRE ?V5
        REQUIRE ?V6
        REQUIRE ?V8
        REQUIRE ?V9
        REQUIRE ?V10
        MOV       A,#-0x13
        LCALL     ?BANKED_ENTER_XDATA
          CFI DPH0 load(1, XDATA, add(CFA_XSP16, literal(-1)))
          CFI DPL0 load(1, XDATA, add(CFA_XSP16, literal(-2)))
          CFI ?BRET_EXT load(1, XDATA, add(CFA_XSP16, literal(-3)))
          CFI ?RET_HIGH load(1, XDATA, add(CFA_XSP16, literal(-4)))
          CFI ?RET_LOW load(1, XDATA, add(CFA_XSP16, literal(-5)))
          CFI R7 load(1, XDATA, add(CFA_XSP16, literal(-6)))
          CFI V10 load(1, XDATA, add(CFA_XSP16, literal(-7)))
          CFI V9 load(1, XDATA, add(CFA_XSP16, literal(-8)))
          CFI V8 load(1, XDATA, add(CFA_XSP16, literal(-9)))
          CFI V7 load(1, XDATA, add(CFA_XSP16, literal(-10)))
          CFI V6 load(1, XDATA, add(CFA_XSP16, literal(-11)))
          CFI V5 load(1, XDATA, add(CFA_XSP16, literal(-12)))
          CFI V4 load(1, XDATA, add(CFA_XSP16, literal(-13)))
          CFI V3 load(1, XDATA, add(CFA_XSP16, literal(-14)))
          CFI V2 load(1, XDATA, add(CFA_XSP16, literal(-15)))
          CFI V1 load(1, XDATA, add(CFA_XSP16, literal(-16)))
          CFI V0 load(1, XDATA, add(CFA_XSP16, literal(-17)))
          CFI VB load(1, XDATA, add(CFA_XSP16, literal(-18)))
          CFI R6 load(1, XDATA, add(CFA_XSP16, literal(-19)))
          CFI CFA_SP SP+0
          CFI CFA_XSP16 add(XSP16, 19)
        ; Saved register size: 19
        ; Auto size: 64
        MOV       A,#-0x40
        LCALL     ?ALLOC_XSTACK8
          CFI CFA_XSP16 add(XSP16, 83)
// 1089     /**/
// 1090     static uint8 p2pCnt = 0;
// 1091     /**/
// 1092     static uint8 bcCnt = 0;
// 1093     /**/
// 1094     static uint8 gcCnt = 0;
// 1095     
// 1096     switch( MSGpkt->clusterId )  // Cluster ID
        MOV       ?V4,#`?<Constant " Count: ">` & 0xff
        MOV       ?V5,#(`?<Constant " Count: ">` >> 8) & 0xff
        MOV       ?V6,#0x0
        MOV       A,R2
        ADD       A,#0x22
        MOV       ?V0,A
        CLR       A
        ADDC      A,R3
        MOV       ?V1,A
        MOV       A,R2
        ADD       A,#0x20
        LCALL     ?Subroutine13 & 0xFFFF
??CrossCallReturnLabel_16:
        MOVX      A,@DPTR
        MOV       ?V2,A
        INC       DPTR
        MOVX      A,@DPTR
        MOV       ?V3,A
        MOV       R0,#?V2
        LCALL     ?US_SWITCH_DENSE
`?<Jumptable for zclZEM_AF_RxProc>_0`:
        DATA
        DATA16
        DATA
        DATA16
        DW        0
        DATA
        DATA8
        DATA
        DATA8
        DB        2
        DATA
        DATA16
        DATA
        DATA16
        DW        ??zclZEM_AF_RxProc_0
        DATA
        DATA16
        DATA
        DATA16
        DW        ??zclZEM_AF_RxProc_1
        DATA
        DATA16
        DATA
        DATA16
        DW        ??zclZEM_AF_RxProc_2
        DATA
        DATA16
        DATA
        DATA16
        DW        ??zclZEM_AF_RxProc_3
        CODE
// 1097     {
// 1098         case CLUSTER_P2P:
// 1099             p2pCnt++;  // P2P
??zclZEM_AF_RxProc_1:
        MOV       DPTR,#??p2pCnt
        MOVX      A,@DPTR
        INC       A
        MOVX      @DPTR,A
// 1100             // 
// 1101             {
// 1102                 uint8 p2pMsg[64];
// 1103                 osal_memcpy(p2pMsg, "P2P Data: ", 10);
        ; Setup parameters for call to function osal_memcpy
        MOV       ?V8,#`?<Constant "P2P Data: ">` & 0xff
        MOV       ?V9,#(`?<Constant "P2P Data: ">` >> 8) & 0xff
        MOV       ?V10,#0x0
        MOV       R0,#?V8
        LCALL     ?PUSH_XSTACK_I_THREE
          CFI CFA_XSP16 add(XSP16, 86)
        MOV       R4,#0xa
        MOV       R5,#0x0
        MOV       A,#0x3
        LCALL     ?XSTACK_DISP101_8
        LCALL     `??osal_memcpy::?relay`; Banked call to: osal_memcpy
        MOV       A,#0x3
        LCALL     ?DEALLOC_XSTACK8
          CFI CFA_XSP16 add(XSP16, 83)
// 1104                 osal_memcpy(p2pMsg + 10, MSGpkt->cmd.Data, MSGpkt->cmd.DataLength);
        ; Setup parameters for call to function osal_memcpy
        LCALL     ?Subroutine7 & 0xFFFF
??CrossCallReturnLabel_6:
        LCALL     ?PUSH_XSTACK_I_THREE
          CFI CFA_XSP16 add(XSP16, 86)
        MOV       DPL,R6
        MOV       DPH,R7
        MOVX      A,@DPTR
        MOV       R4,A
        INC       DPTR
        MOVX      A,@DPTR
        MOV       R5,A
        MOV       A,#0xd
        LCALL     ?XSTACK_DISP0_8
        MOV       R2,DPL
        MOV       R3,DPH
        LCALL     `??osal_memcpy::?relay`; Banked call to: osal_memcpy
        MOV       A,#0x3
        LCALL     ?DEALLOC_XSTACK8
          CFI CFA_XSP16 add(XSP16, 83)
// 1105                 osal_memcpy(p2pMsg + 10 + MSGpkt->cmd.DataLength, " Count: ", 8);
        ; Setup parameters for call to function osal_memcpy
        MOV       R0,#?V4
        LCALL     ?PUSH_XSTACK_I_THREE
          CFI CFA_XSP16 add(XSP16, 86)
        MOV       R4,#0x8
        MOV       R5,#0x0
        MOV       DPL,R6
        MOV       DPH,R7
        MOV       A,#0x3
        LCALL     ?XSTACK_DISP100_8
        MOV       ?V1,R1
        LCALL     ??Subroutine18_0 & 0xFFFF
??CrossCallReturnLabel_24:
        ADD       A,#0xa
        MOV       R2,A
        CLR       A
        ADDC      A,R1
        MOV       R3,A
        LCALL     `??osal_memcpy::?relay`; Banked call to: osal_memcpy
        MOV       A,#0x3
        LCALL     ?DEALLOC_XSTACK8
          CFI CFA_XSP16 add(XSP16, 83)
// 1106                 p2pMsg[18 + MSGpkt->cmd.DataLength] = '0' + p2pCnt;
        MOV       DPTR,#??p2pCnt
        MOVX      A,@DPTR
        ADD       A,#0x30
        PUSH      A
          CFI CFA_SP SP+-1
        LCALL     ?Subroutine9 & 0xFFFF
// 1107                 p2pMsg[19 + MSGpkt->cmd.DataLength] = '\r';
// 1108                 p2pMsg[20 + MSGpkt->cmd.DataLength] = '\n';
// 1109                 HalUARTWrite(HAL_UART_PORT_0, p2pMsg, 21 + MSGpkt->cmd.DataLength);
// 1110             }
??CrossCallReturnLabel_25:
        ADD       A,#0x12
        MOV       DPL,A
        CLR       A
        ADDC      A,R1
        MOV       DPH,A
        POP       A
          CFI CFA_SP SP+0
        LCALL     ??Subroutine19_0 & 0xFFFF
??CrossCallReturnLabel_31:
        ADD       A,#0x13
        LCALL     ?Subroutine4 & 0xFFFF
??CrossCallReturnLabel_29:
        ADD       A,#0x14
        LCALL     ?Subroutine14 & 0xFFFF
??CrossCallReturnLabel_17:
        ADD       A,#0x15
        LJMP      ??zclZEM_AF_RxProc_4 & 0xFFFF
// 1111             break;
// 1112         case CLUSTER_BROADCAST:
// 1113             bcCnt++;  // 
??zclZEM_AF_RxProc_2:
        MOV       DPTR,#??bcCnt
        MOVX      A,@DPTR
        INC       A
        MOVX      @DPTR,A
// 1114             // 
// 1115             {
// 1116                 uint8 bcMsg[64];
// 1117                 osal_memcpy(bcMsg, "Broadcast Data: ", 16);
        ; Setup parameters for call to function osal_memcpy
        MOV       ?V8,#`?<Constant "Broadcast Data: ">` & 0xff
        MOV       ?V9,#(`?<Constant "Broadcast Data: ">` >> 8) & 0xff
        MOV       ?V10,#0x0
        MOV       R0,#?V8
        LCALL     ?PUSH_XSTACK_I_THREE
          CFI CFA_XSP16 add(XSP16, 86)
        MOV       R4,#0x10
        MOV       R5,#0x0
        MOV       A,#0x3
        LCALL     ?XSTACK_DISP101_8
        LCALL     `??osal_memcpy::?relay`; Banked call to: osal_memcpy
        MOV       A,#0x3
        LCALL     ?DEALLOC_XSTACK8
          CFI CFA_XSP16 add(XSP16, 83)
// 1118                 osal_memcpy(bcMsg + 16, MSGpkt->cmd.Data, MSGpkt->cmd.DataLength);
        ; Setup parameters for call to function osal_memcpy
        LCALL     ?Subroutine7 & 0xFFFF
??CrossCallReturnLabel_7:
        LCALL     ?PUSH_XSTACK_I_THREE
          CFI CFA_XSP16 add(XSP16, 86)
        MOV       DPL,R6
        MOV       DPH,R7
        MOVX      A,@DPTR
        MOV       R4,A
        INC       DPTR
        MOVX      A,@DPTR
        MOV       R5,A
        MOV       A,#0x13
        LCALL     ?XSTACK_DISP0_8
        MOV       R2,DPL
        MOV       R3,DPH
        LCALL     `??osal_memcpy::?relay`; Banked call to: osal_memcpy
        MOV       A,#0x3
        LCALL     ?DEALLOC_XSTACK8
          CFI CFA_XSP16 add(XSP16, 83)
// 1119                 osal_memcpy(bcMsg + 16 + MSGpkt->cmd.DataLength, " Count: ", 8);
        ; Setup parameters for call to function osal_memcpy
        MOV       R0,#?V4
        LCALL     ?PUSH_XSTACK_I_THREE
          CFI CFA_XSP16 add(XSP16, 86)
        MOV       R4,#0x8
        MOV       R5,#0x0
        MOV       DPL,R6
        MOV       DPH,R7
        MOV       A,#0x3
        LCALL     ?XSTACK_DISP100_8
        LCALL     ?Subroutine8 & 0xFFFF
??CrossCallReturnLabel_9:
        LCALL     `??osal_memcpy::?relay`; Banked call to: osal_memcpy
        MOV       A,#0x3
        LCALL     ?DEALLOC_XSTACK8
          CFI CFA_XSP16 add(XSP16, 83)
// 1120                 bcMsg[24 + MSGpkt->cmd.DataLength] = '0' + bcCnt;
        MOV       DPTR,#??bcCnt
        SJMP      ??zclZEM_AF_RxProc_5
// 1121                 bcMsg[25 + MSGpkt->cmd.DataLength] = '\r';
// 1122                 bcMsg[26 + MSGpkt->cmd.DataLength] = '\n';
// 1123                 HalUARTWrite(HAL_UART_PORT_0, bcMsg, 27 + MSGpkt->cmd.DataLength);
// 1124             }
// 1125             break;
// 1126         case CLUSTER_GROUPCAST:
// 1127             gcCnt++;  // 
??zclZEM_AF_RxProc_3:
        MOV       DPTR,#??gcCnt
        MOVX      A,@DPTR
        INC       A
        MOVX      @DPTR,A
// 1128             // 
// 1129             {
// 1130                 uint8 gcMsg[64];
// 1131                 osal_memcpy(gcMsg, "Groupcast Data: ", 16);
        ; Setup parameters for call to function osal_memcpy
        MOV       ?V8,#`?<Constant "Groupcast Data: ">` & 0xff
        MOV       ?V9,#(`?<Constant "Groupcast Data: ">` >> 8) & 0xff
        MOV       ?V10,#0x0
        MOV       R0,#?V8
        LCALL     ?PUSH_XSTACK_I_THREE
          CFI CFA_XSP16 add(XSP16, 86)
        MOV       R4,#0x10
        MOV       R5,#0x0
        MOV       A,#0x3
        LCALL     ?XSTACK_DISP101_8
        LCALL     `??osal_memcpy::?relay`; Banked call to: osal_memcpy
        MOV       A,#0x3
        LCALL     ?DEALLOC_XSTACK8
          CFI CFA_XSP16 add(XSP16, 83)
// 1132                 osal_memcpy(gcMsg + 16, MSGpkt->cmd.Data, MSGpkt->cmd.DataLength);
        ; Setup parameters for call to function osal_memcpy
        LCALL     ?Subroutine7 & 0xFFFF
??CrossCallReturnLabel_8:
        LCALL     ?PUSH_XSTACK_I_THREE
          CFI CFA_XSP16 add(XSP16, 86)
        MOV       DPL,R6
        MOV       DPH,R7
        MOVX      A,@DPTR
        MOV       R4,A
        INC       DPTR
        MOVX      A,@DPTR
        MOV       R5,A
        MOV       A,#0x13
        LCALL     ?XSTACK_DISP0_8
        MOV       R2,DPL
        MOV       R3,DPH
        LCALL     `??osal_memcpy::?relay`; Banked call to: osal_memcpy
        MOV       A,#0x3
        LCALL     ?DEALLOC_XSTACK8
          CFI CFA_XSP16 add(XSP16, 83)
// 1133                 osal_memcpy(gcMsg + 16 + MSGpkt->cmd.DataLength, " Count: ", 8);
        ; Setup parameters for call to function osal_memcpy
        MOV       R0,#?V4
        LCALL     ?PUSH_XSTACK_I_THREE
          CFI CFA_XSP16 add(XSP16, 86)
        MOV       R4,#0x8
        MOV       R5,#0x0
        MOV       DPL,R6
        MOV       DPH,R7
        MOV       A,#0x3
        LCALL     ?XSTACK_DISP100_8
        LCALL     ?Subroutine8 & 0xFFFF
??CrossCallReturnLabel_10:
        LCALL     `??osal_memcpy::?relay`; Banked call to: osal_memcpy
        MOV       A,#0x3
        LCALL     ?DEALLOC_XSTACK8
          CFI CFA_XSP16 add(XSP16, 83)
// 1134                 gcMsg[24 + MSGpkt->cmd.DataLength] = '0' + gcCnt;
        MOV       DPTR,#??gcCnt
??zclZEM_AF_RxProc_5:
        MOVX      A,@DPTR
        ADD       A,#0x30
        PUSH      A
          CFI CFA_SP SP+-1
// 1135                 gcMsg[25 + MSGpkt->cmd.DataLength] = '\r';
// 1136                 gcMsg[26 + MSGpkt->cmd.DataLength] = '\n';
// 1137                 HalUARTWrite(HAL_UART_PORT_0, gcMsg, 27 + MSGpkt->cmd.DataLength);
// 1138             }
        LCALL     ?Subroutine9 & 0xFFFF
??CrossCallReturnLabel_26:
        ADD       A,#0x18
        MOV       DPL,A
        CLR       A
        ADDC      A,R1
        MOV       DPH,A
        POP       A
          CFI CFA_SP SP+0
        LCALL     ??Subroutine19_0 & 0xFFFF
??CrossCallReturnLabel_32:
        ADD       A,#0x19
        LCALL     ?Subroutine4 & 0xFFFF
??CrossCallReturnLabel_30:
        ADD       A,#0x1a
        LCALL     ?Subroutine14 & 0xFFFF
??CrossCallReturnLabel_18:
        ADD       A,#0x1b
??zclZEM_AF_RxProc_4:
        MOV       R4,A
        INC       DPTR
        MOVX      A,@DPTR
        ADDC      A,#0x0
        MOV       R5,A
        MOV       R2,?XSP + 0
        MOV       R3,?XSP + 1
        MOV       R1,#0x0
        LCALL     `??HalUARTWrite::?relay`; Banked call to: HalUARTWrite
// 1139             break;
// 1140         default:
// 1141             break;
// 1142     }
// 1143 }
??zclZEM_AF_RxProc_0:
        MOV       A,#0x40
        LCALL     ?DEALLOC_XSTACK8
          CFI CFA_XSP16 add(XSP16, 19)
        MOV       R7,#0xb
        LJMP      ?BANKED_LEAVE_XDATA
          CFI EndBlock cfiBlock38

        RSEG BANKED_CODE:HUGECODE:NOROOT(0)
?Subroutine14:
          CFI Block cfiCond39 Using cfiCommon0
          CFI Function zclZEM_AF_RxProc
          CFI Conditional ??CrossCallReturnLabel_17
          CFI R6 load(1, XDATA, add(CFA_XSP16, literal(-19)))
          CFI VB load(1, XDATA, add(CFA_XSP16, literal(-18)))
          CFI V0 load(1, XDATA, add(CFA_XSP16, literal(-17)))
          CFI V1 load(1, XDATA, add(CFA_XSP16, literal(-16)))
          CFI V2 load(1, XDATA, add(CFA_XSP16, literal(-15)))
          CFI V3 load(1, XDATA, add(CFA_XSP16, literal(-14)))
          CFI V4 load(1, XDATA, add(CFA_XSP16, literal(-13)))
          CFI V5 load(1, XDATA, add(CFA_XSP16, literal(-12)))
          CFI V6 load(1, XDATA, add(CFA_XSP16, literal(-11)))
          CFI V7 load(1, XDATA, add(CFA_XSP16, literal(-10)))
          CFI V8 load(1, XDATA, add(CFA_XSP16, literal(-9)))
          CFI V9 load(1, XDATA, add(CFA_XSP16, literal(-8)))
          CFI V10 load(1, XDATA, add(CFA_XSP16, literal(-7)))
          CFI R7 load(1, XDATA, add(CFA_XSP16, literal(-6)))
          CFI ?RET_LOW load(1, XDATA, add(CFA_XSP16, literal(-5)))
          CFI ?RET_HIGH load(1, XDATA, add(CFA_XSP16, literal(-4)))
          CFI ?BRET_EXT load(1, XDATA, add(CFA_XSP16, literal(-3)))
          CFI DPL0 load(1, XDATA, add(CFA_XSP16, literal(-2)))
          CFI DPH0 load(1, XDATA, add(CFA_XSP16, literal(-1)))
          CFI CFA_SP SP+-2
          CFI CFA_XSP16 add(XSP16, 83)
          CFI Block cfiCond40 Using cfiCommon0
          CFI (cfiCond40) Function zclZEM_AF_RxProc
          CFI (cfiCond40) Conditional ??CrossCallReturnLabel_18
          CFI (cfiCond40) R6 load(1, XDATA, add(CFA_XSP16, literal(-19)))
          CFI (cfiCond40) VB load(1, XDATA, add(CFA_XSP16, literal(-18)))
          CFI (cfiCond40) V0 load(1, XDATA, add(CFA_XSP16, literal(-17)))
          CFI (cfiCond40) V1 load(1, XDATA, add(CFA_XSP16, literal(-16)))
          CFI (cfiCond40) V2 load(1, XDATA, add(CFA_XSP16, literal(-15)))
          CFI (cfiCond40) V3 load(1, XDATA, add(CFA_XSP16, literal(-14)))
          CFI (cfiCond40) V4 load(1, XDATA, add(CFA_XSP16, literal(-13)))
          CFI (cfiCond40) V5 load(1, XDATA, add(CFA_XSP16, literal(-12)))
          CFI (cfiCond40) V6 load(1, XDATA, add(CFA_XSP16, literal(-11)))
          CFI (cfiCond40) V7 load(1, XDATA, add(CFA_XSP16, literal(-10)))
          CFI (cfiCond40) V8 load(1, XDATA, add(CFA_XSP16, literal(-9)))
          CFI (cfiCond40) V9 load(1, XDATA, add(CFA_XSP16, literal(-8)))
          CFI (cfiCond40) V10 load(1, XDATA, add(CFA_XSP16, literal(-7)))
          CFI (cfiCond40) R7 load(1, XDATA, add(CFA_XSP16, literal(-6)))
          CFI (cfiCond40) ?RET_LOW load(1, XDATA, add(CFA_XSP16, literal(-5)))
          CFI (cfiCond40) ?RET_HIGH load(1, XDATA, add(CFA_XSP16, literal(-4)))
          CFI (cfiCond40) ?BRET_EXT load(1, XDATA, add(CFA_XSP16, literal(-3)))
          CFI (cfiCond40) DPL0 load(1, XDATA, add(CFA_XSP16, literal(-2)))
          CFI (cfiCond40) DPH0 load(1, XDATA, add(CFA_XSP16, literal(-1)))
          CFI (cfiCond40) CFA_SP SP+-2
          CFI (cfiCond40) CFA_XSP16 add(XSP16, 83)
          CFI Block cfiPicker41 Using cfiCommon1
          CFI (cfiPicker41) NoFunction
          CFI (cfiPicker41) Picker
        MOV       DPL,A
        CLR       A
        ADDC      A,R1
        MOV       DPH,A
        MOV       A,#0xa
        MOVX      @DPTR,A
        ; Setup parameters for call to function HalUARTWrite
        ; Setup parameters for call to function HalUARTWrite
        MOV       DPL,R6
        MOV       DPH,R7
        MOVX      A,@DPTR
        RET
          CFI EndBlock cfiCond39
          CFI EndBlock cfiCond40
          CFI EndBlock cfiPicker41

        RSEG BANKED_CODE:HUGECODE:NOROOT(0)
?Subroutine13:
          CFI Block cfiCond42 Using cfiCommon0
          CFI Function zclZEM_ProcessIncomingMsg
          CFI Conditional ??CrossCallReturnLabel_15
          CFI R6 load(1, XDATA, add(CFA_XSP16, literal(-9)))
          CFI VB load(1, XDATA, add(CFA_XSP16, literal(-8)))
          CFI V0 load(1, XDATA, add(CFA_XSP16, literal(-7)))
          CFI R7 load(1, XDATA, add(CFA_XSP16, literal(-6)))
          CFI ?RET_LOW load(1, XDATA, add(CFA_XSP16, literal(-5)))
          CFI ?RET_HIGH load(1, XDATA, add(CFA_XSP16, literal(-4)))
          CFI ?BRET_EXT load(1, XDATA, add(CFA_XSP16, literal(-3)))
          CFI DPL0 load(1, XDATA, add(CFA_XSP16, literal(-2)))
          CFI DPH0 load(1, XDATA, add(CFA_XSP16, literal(-1)))
          CFI CFA_SP SP+-2
          CFI CFA_XSP16 add(XSP16, 9)
          CFI Block cfiCond43 Using cfiCommon0
          CFI (cfiCond43) Function zclZEM_AF_RxProc
          CFI (cfiCond43) Conditional ??CrossCallReturnLabel_16
          CFI (cfiCond43) R6 load(1, XDATA, add(CFA_XSP16, literal(-19)))
          CFI (cfiCond43) VB load(1, XDATA, add(CFA_XSP16, literal(-18)))
          CFI (cfiCond43) V0 load(1, XDATA, add(CFA_XSP16, literal(-17)))
          CFI (cfiCond43) V1 load(1, XDATA, add(CFA_XSP16, literal(-16)))
          CFI (cfiCond43) V2 load(1, XDATA, add(CFA_XSP16, literal(-15)))
          CFI (cfiCond43) V3 load(1, XDATA, add(CFA_XSP16, literal(-14)))
          CFI (cfiCond43) V4 load(1, XDATA, add(CFA_XSP16, literal(-13)))
          CFI (cfiCond43) V5 load(1, XDATA, add(CFA_XSP16, literal(-12)))
          CFI (cfiCond43) V6 load(1, XDATA, add(CFA_XSP16, literal(-11)))
          CFI (cfiCond43) V7 load(1, XDATA, add(CFA_XSP16, literal(-10)))
          CFI (cfiCond43) V8 load(1, XDATA, add(CFA_XSP16, literal(-9)))
          CFI (cfiCond43) V9 load(1, XDATA, add(CFA_XSP16, literal(-8)))
          CFI (cfiCond43) V10 load(1, XDATA, add(CFA_XSP16, literal(-7)))
          CFI (cfiCond43) R7 load(1, XDATA, add(CFA_XSP16, literal(-6)))
          CFI (cfiCond43) ?RET_LOW load(1, XDATA, add(CFA_XSP16, literal(-5)))
          CFI (cfiCond43) ?RET_HIGH load(1, XDATA, add(CFA_XSP16, literal(-4)))
          CFI (cfiCond43) ?BRET_EXT load(1, XDATA, add(CFA_XSP16, literal(-3)))
          CFI (cfiCond43) DPL0 load(1, XDATA, add(CFA_XSP16, literal(-2)))
          CFI (cfiCond43) DPH0 load(1, XDATA, add(CFA_XSP16, literal(-1)))
          CFI (cfiCond43) CFA_SP SP+-2
          CFI (cfiCond43) CFA_XSP16 add(XSP16, 83)
          CFI Block cfiPicker44 Using cfiCommon1
          CFI (cfiPicker44) NoFunction
          CFI (cfiPicker44) Picker
        MOV       R0,A
        CLR       A
        ADDC      A,R3
        MOV       R1,A
        MOV       A,R0
        MOV       R6,A
        MOV       A,R1
        MOV       R7,A
        MOV       DPL,R2
        MOV       DPH,R3
        INC       DPTR
        INC       DPTR
        INC       DPTR
        INC       DPTR
        RET
          CFI EndBlock cfiCond42
          CFI EndBlock cfiCond43
          CFI EndBlock cfiPicker44

        RSEG BANKED_CODE:HUGECODE:NOROOT(0)
?Subroutine9:
          CFI Block cfiCond45 Using cfiCommon0
          CFI Function zclZEM_AF_RxProc
          CFI Conditional ??CrossCallReturnLabel_25
          CFI R6 load(1, XDATA, add(CFA_XSP16, literal(-19)))
          CFI VB load(1, XDATA, add(CFA_XSP16, literal(-18)))
          CFI V0 load(1, XDATA, add(CFA_XSP16, literal(-17)))
          CFI V1 load(1, XDATA, add(CFA_XSP16, literal(-16)))
          CFI V2 load(1, XDATA, add(CFA_XSP16, literal(-15)))
          CFI V3 load(1, XDATA, add(CFA_XSP16, literal(-14)))
          CFI V4 load(1, XDATA, add(CFA_XSP16, literal(-13)))
          CFI V5 load(1, XDATA, add(CFA_XSP16, literal(-12)))
          CFI V6 load(1, XDATA, add(CFA_XSP16, literal(-11)))
          CFI V7 load(1, XDATA, add(CFA_XSP16, literal(-10)))
          CFI V8 load(1, XDATA, add(CFA_XSP16, literal(-9)))
          CFI V9 load(1, XDATA, add(CFA_XSP16, literal(-8)))
          CFI V10 load(1, XDATA, add(CFA_XSP16, literal(-7)))
          CFI R7 load(1, XDATA, add(CFA_XSP16, literal(-6)))
          CFI ?RET_LOW load(1, XDATA, add(CFA_XSP16, literal(-5)))
          CFI ?RET_HIGH load(1, XDATA, add(CFA_XSP16, literal(-4)))
          CFI ?BRET_EXT load(1, XDATA, add(CFA_XSP16, literal(-3)))
          CFI DPL0 load(1, XDATA, add(CFA_XSP16, literal(-2)))
          CFI DPH0 load(1, XDATA, add(CFA_XSP16, literal(-1)))
          CFI CFA_XSP16 add(XSP16, 83)
          CFI Block cfiCond46 Using cfiCommon0
          CFI (cfiCond46) Function zclZEM_AF_RxProc
          CFI (cfiCond46) Conditional ??CrossCallReturnLabel_26
          CFI (cfiCond46) R6 load(1, XDATA, add(CFA_XSP16, literal(-19)))
          CFI (cfiCond46) VB load(1, XDATA, add(CFA_XSP16, literal(-18)))
          CFI (cfiCond46) V0 load(1, XDATA, add(CFA_XSP16, literal(-17)))
          CFI (cfiCond46) V1 load(1, XDATA, add(CFA_XSP16, literal(-16)))
          CFI (cfiCond46) V2 load(1, XDATA, add(CFA_XSP16, literal(-15)))
          CFI (cfiCond46) V3 load(1, XDATA, add(CFA_XSP16, literal(-14)))
          CFI (cfiCond46) V4 load(1, XDATA, add(CFA_XSP16, literal(-13)))
          CFI (cfiCond46) V5 load(1, XDATA, add(CFA_XSP16, literal(-12)))
          CFI (cfiCond46) V6 load(1, XDATA, add(CFA_XSP16, literal(-11)))
          CFI (cfiCond46) V7 load(1, XDATA, add(CFA_XSP16, literal(-10)))
          CFI (cfiCond46) V8 load(1, XDATA, add(CFA_XSP16, literal(-9)))
          CFI (cfiCond46) V9 load(1, XDATA, add(CFA_XSP16, literal(-8)))
          CFI (cfiCond46) V10 load(1, XDATA, add(CFA_XSP16, literal(-7)))
          CFI (cfiCond46) R7 load(1, XDATA, add(CFA_XSP16, literal(-6)))
          CFI (cfiCond46) ?RET_LOW load(1, XDATA, add(CFA_XSP16, literal(-5)))
          CFI (cfiCond46) ?RET_HIGH load(1, XDATA, add(CFA_XSP16, literal(-4)))
          CFI (cfiCond46) ?BRET_EXT load(1, XDATA, add(CFA_XSP16, literal(-3)))
          CFI (cfiCond46) DPL0 load(1, XDATA, add(CFA_XSP16, literal(-2)))
          CFI (cfiCond46) DPH0 load(1, XDATA, add(CFA_XSP16, literal(-1)))
          CFI (cfiCond46) CFA_XSP16 add(XSP16, 83)
          CFI Block cfiPicker47 Using cfiCommon1
          CFI (cfiPicker47) NoFunction
          CFI (cfiPicker47) Picker
        MOV       DPL,R6
        MOV       DPH,R7
        MOV       R0,?XSP + 0
        MOV       ?V0,R0
          CFI EndBlock cfiCond45
          CFI EndBlock cfiCond46
          CFI EndBlock cfiPicker47
        REQUIRE ??Subroutine18_0
        ; // Fall through to label ??Subroutine18_0

        RSEG BANKED_CODE:HUGECODE:NOROOT(0)
??Subroutine18_0:
          CFI Block cfiCond48 Using cfiCommon0
          CFI Function zclZEM_AF_RxProc
          CFI Conditional ??CrossCallReturnLabel_24
          CFI R6 load(1, XDATA, add(CFA_XSP16, literal(-19)))
          CFI VB load(1, XDATA, add(CFA_XSP16, literal(-18)))
          CFI V0 load(1, XDATA, add(CFA_XSP16, literal(-17)))
          CFI V1 load(1, XDATA, add(CFA_XSP16, literal(-16)))
          CFI V2 load(1, XDATA, add(CFA_XSP16, literal(-15)))
          CFI V3 load(1, XDATA, add(CFA_XSP16, literal(-14)))
          CFI V4 load(1, XDATA, add(CFA_XSP16, literal(-13)))
          CFI V5 load(1, XDATA, add(CFA_XSP16, literal(-12)))
          CFI V6 load(1, XDATA, add(CFA_XSP16, literal(-11)))
          CFI V7 load(1, XDATA, add(CFA_XSP16, literal(-10)))
          CFI V8 load(1, XDATA, add(CFA_XSP16, literal(-9)))
          CFI V9 load(1, XDATA, add(CFA_XSP16, literal(-8)))
          CFI V10 load(1, XDATA, add(CFA_XSP16, literal(-7)))
          CFI R7 load(1, XDATA, add(CFA_XSP16, literal(-6)))
          CFI ?RET_LOW load(1, XDATA, add(CFA_XSP16, literal(-5)))
          CFI ?RET_HIGH load(1, XDATA, add(CFA_XSP16, literal(-4)))
          CFI ?BRET_EXT load(1, XDATA, add(CFA_XSP16, literal(-3)))
          CFI DPL0 load(1, XDATA, add(CFA_XSP16, literal(-2)))
          CFI DPH0 load(1, XDATA, add(CFA_XSP16, literal(-1)))
          CFI CFA_SP SP+-2
          CFI CFA_XSP16 add(XSP16, 86)
          CFI Block cfiCond49 Using cfiCommon0
          CFI (cfiCond49) Function zclZEM_AF_RxProc
          CFI (cfiCond49) Conditional ??CrossCallReturnLabel_25
          CFI (cfiCond49) R6 load(1, XDATA, add(CFA_XSP16, literal(-19)))
          CFI (cfiCond49) VB load(1, XDATA, add(CFA_XSP16, literal(-18)))
          CFI (cfiCond49) V0 load(1, XDATA, add(CFA_XSP16, literal(-17)))
          CFI (cfiCond49) V1 load(1, XDATA, add(CFA_XSP16, literal(-16)))
          CFI (cfiCond49) V2 load(1, XDATA, add(CFA_XSP16, literal(-15)))
          CFI (cfiCond49) V3 load(1, XDATA, add(CFA_XSP16, literal(-14)))
          CFI (cfiCond49) V4 load(1, XDATA, add(CFA_XSP16, literal(-13)))
          CFI (cfiCond49) V5 load(1, XDATA, add(CFA_XSP16, literal(-12)))
          CFI (cfiCond49) V6 load(1, XDATA, add(CFA_XSP16, literal(-11)))
          CFI (cfiCond49) V7 load(1, XDATA, add(CFA_XSP16, literal(-10)))
          CFI (cfiCond49) V8 load(1, XDATA, add(CFA_XSP16, literal(-9)))
          CFI (cfiCond49) V9 load(1, XDATA, add(CFA_XSP16, literal(-8)))
          CFI (cfiCond49) V10 load(1, XDATA, add(CFA_XSP16, literal(-7)))
          CFI (cfiCond49) R7 load(1, XDATA, add(CFA_XSP16, literal(-6)))
          CFI (cfiCond49) ?RET_LOW load(1, XDATA, add(CFA_XSP16, literal(-5)))
          CFI (cfiCond49) ?RET_HIGH load(1, XDATA, add(CFA_XSP16, literal(-4)))
          CFI (cfiCond49) ?BRET_EXT load(1, XDATA, add(CFA_XSP16, literal(-3)))
          CFI (cfiCond49) DPL0 load(1, XDATA, add(CFA_XSP16, literal(-2)))
          CFI (cfiCond49) DPH0 load(1, XDATA, add(CFA_XSP16, literal(-1)))
          CFI (cfiCond49) CFA_XSP16 add(XSP16, 83)
          CFI Block cfiCond50 Using cfiCommon0
          CFI (cfiCond50) Function zclZEM_AF_RxProc
          CFI (cfiCond50) Conditional ??CrossCallReturnLabel_26
          CFI (cfiCond50) R6 load(1, XDATA, add(CFA_XSP16, literal(-19)))
          CFI (cfiCond50) VB load(1, XDATA, add(CFA_XSP16, literal(-18)))
          CFI (cfiCond50) V0 load(1, XDATA, add(CFA_XSP16, literal(-17)))
          CFI (cfiCond50) V1 load(1, XDATA, add(CFA_XSP16, literal(-16)))
          CFI (cfiCond50) V2 load(1, XDATA, add(CFA_XSP16, literal(-15)))
          CFI (cfiCond50) V3 load(1, XDATA, add(CFA_XSP16, literal(-14)))
          CFI (cfiCond50) V4 load(1, XDATA, add(CFA_XSP16, literal(-13)))
          CFI (cfiCond50) V5 load(1, XDATA, add(CFA_XSP16, literal(-12)))
          CFI (cfiCond50) V6 load(1, XDATA, add(CFA_XSP16, literal(-11)))
          CFI (cfiCond50) V7 load(1, XDATA, add(CFA_XSP16, literal(-10)))
          CFI (cfiCond50) V8 load(1, XDATA, add(CFA_XSP16, literal(-9)))
          CFI (cfiCond50) V9 load(1, XDATA, add(CFA_XSP16, literal(-8)))
          CFI (cfiCond50) V10 load(1, XDATA, add(CFA_XSP16, literal(-7)))
          CFI (cfiCond50) R7 load(1, XDATA, add(CFA_XSP16, literal(-6)))
          CFI (cfiCond50) ?RET_LOW load(1, XDATA, add(CFA_XSP16, literal(-5)))
          CFI (cfiCond50) ?RET_HIGH load(1, XDATA, add(CFA_XSP16, literal(-4)))
          CFI (cfiCond50) ?BRET_EXT load(1, XDATA, add(CFA_XSP16, literal(-3)))
          CFI (cfiCond50) DPL0 load(1, XDATA, add(CFA_XSP16, literal(-2)))
          CFI (cfiCond50) DPH0 load(1, XDATA, add(CFA_XSP16, literal(-1)))
          CFI (cfiCond50) CFA_XSP16 add(XSP16, 83)
          CFI Block cfiPicker51 Using cfiCommon1
          CFI (cfiPicker51) NoFunction
          CFI (cfiPicker51) Picker
        LCALL     ?Subroutine16 & 0xFFFF
??CrossCallReturnLabel_28:
        RET
          CFI EndBlock cfiCond48
          CFI EndBlock cfiCond49
          CFI EndBlock cfiCond50
          CFI EndBlock cfiPicker51

        RSEG BANKED_CODE:HUGECODE:NOROOT(0)
?Subroutine16:
          CFI Block cfiCond52 Using cfiCommon0
          CFI Function zclZEM_AF_RxProc
          CFI Conditional ??CrossCallReturnLabel_28, ??CrossCallReturnLabel_25
          CFI R6 load(1, XDATA, add(CFA_XSP16, literal(-19)))
          CFI VB load(1, XDATA, add(CFA_XSP16, literal(-18)))
          CFI V0 load(1, XDATA, add(CFA_XSP16, literal(-17)))
          CFI V1 load(1, XDATA, add(CFA_XSP16, literal(-16)))
          CFI V2 load(1, XDATA, add(CFA_XSP16, literal(-15)))
          CFI V3 load(1, XDATA, add(CFA_XSP16, literal(-14)))
          CFI V4 load(1, XDATA, add(CFA_XSP16, literal(-13)))
          CFI V5 load(1, XDATA, add(CFA_XSP16, literal(-12)))
          CFI V6 load(1, XDATA, add(CFA_XSP16, literal(-11)))
          CFI V7 load(1, XDATA, add(CFA_XSP16, literal(-10)))
          CFI V8 load(1, XDATA, add(CFA_XSP16, literal(-9)))
          CFI V9 load(1, XDATA, add(CFA_XSP16, literal(-8)))
          CFI V10 load(1, XDATA, add(CFA_XSP16, literal(-7)))
          CFI R7 load(1, XDATA, add(CFA_XSP16, literal(-6)))
          CFI ?RET_LOW load(1, XDATA, add(CFA_XSP16, literal(-5)))
          CFI ?RET_HIGH load(1, XDATA, add(CFA_XSP16, literal(-4)))
          CFI ?BRET_EXT load(1, XDATA, add(CFA_XSP16, literal(-3)))
          CFI DPL0 load(1, XDATA, add(CFA_XSP16, literal(-2)))
          CFI DPH0 load(1, XDATA, add(CFA_XSP16, literal(-1)))
          CFI CFA_SP SP+-5
          CFI CFA_XSP16 add(XSP16, 83)
          CFI Block cfiCond53 Using cfiCommon0
          CFI (cfiCond53) Function zclZEM_AF_RxProc
          CFI (cfiCond53) Conditional ??CrossCallReturnLabel_28, ??CrossCallReturnLabel_26
          CFI (cfiCond53) R6 load(1, XDATA, add(CFA_XSP16, literal(-19)))
          CFI (cfiCond53) VB load(1, XDATA, add(CFA_XSP16, literal(-18)))
          CFI (cfiCond53) V0 load(1, XDATA, add(CFA_XSP16, literal(-17)))
          CFI (cfiCond53) V1 load(1, XDATA, add(CFA_XSP16, literal(-16)))
          CFI (cfiCond53) V2 load(1, XDATA, add(CFA_XSP16, literal(-15)))
          CFI (cfiCond53) V3 load(1, XDATA, add(CFA_XSP16, literal(-14)))
          CFI (cfiCond53) V4 load(1, XDATA, add(CFA_XSP16, literal(-13)))
          CFI (cfiCond53) V5 load(1, XDATA, add(CFA_XSP16, literal(-12)))
          CFI (cfiCond53) V6 load(1, XDATA, add(CFA_XSP16, literal(-11)))
          CFI (cfiCond53) V7 load(1, XDATA, add(CFA_XSP16, literal(-10)))
          CFI (cfiCond53) V8 load(1, XDATA, add(CFA_XSP16, literal(-9)))
          CFI (cfiCond53) V9 load(1, XDATA, add(CFA_XSP16, literal(-8)))
          CFI (cfiCond53) V10 load(1, XDATA, add(CFA_XSP16, literal(-7)))
          CFI (cfiCond53) R7 load(1, XDATA, add(CFA_XSP16, literal(-6)))
          CFI (cfiCond53) ?RET_LOW load(1, XDATA, add(CFA_XSP16, literal(-5)))
          CFI (cfiCond53) ?RET_HIGH load(1, XDATA, add(CFA_XSP16, literal(-4)))
          CFI (cfiCond53) ?BRET_EXT load(1, XDATA, add(CFA_XSP16, literal(-3)))
          CFI (cfiCond53) DPL0 load(1, XDATA, add(CFA_XSP16, literal(-2)))
          CFI (cfiCond53) DPH0 load(1, XDATA, add(CFA_XSP16, literal(-1)))
          CFI (cfiCond53) CFA_SP SP+-5
          CFI (cfiCond53) CFA_XSP16 add(XSP16, 83)
          CFI Block cfiCond54 Using cfiCommon0
          CFI (cfiCond54) Function zclZEM_AF_RxProc
          CFI (cfiCond54) Conditional ??CrossCallReturnLabel_28, ??CrossCallReturnLabel_24
          CFI (cfiCond54) R6 load(1, XDATA, add(CFA_XSP16, literal(-19)))
          CFI (cfiCond54) VB load(1, XDATA, add(CFA_XSP16, literal(-18)))
          CFI (cfiCond54) V0 load(1, XDATA, add(CFA_XSP16, literal(-17)))
          CFI (cfiCond54) V1 load(1, XDATA, add(CFA_XSP16, literal(-16)))
          CFI (cfiCond54) V2 load(1, XDATA, add(CFA_XSP16, literal(-15)))
          CFI (cfiCond54) V3 load(1, XDATA, add(CFA_XSP16, literal(-14)))
          CFI (cfiCond54) V4 load(1, XDATA, add(CFA_XSP16, literal(-13)))
          CFI (cfiCond54) V5 load(1, XDATA, add(CFA_XSP16, literal(-12)))
          CFI (cfiCond54) V6 load(1, XDATA, add(CFA_XSP16, literal(-11)))
          CFI (cfiCond54) V7 load(1, XDATA, add(CFA_XSP16, literal(-10)))
          CFI (cfiCond54) V8 load(1, XDATA, add(CFA_XSP16, literal(-9)))
          CFI (cfiCond54) V9 load(1, XDATA, add(CFA_XSP16, literal(-8)))
          CFI (cfiCond54) V10 load(1, XDATA, add(CFA_XSP16, literal(-7)))
          CFI (cfiCond54) R7 load(1, XDATA, add(CFA_XSP16, literal(-6)))
          CFI (cfiCond54) ?RET_LOW load(1, XDATA, add(CFA_XSP16, literal(-5)))
          CFI (cfiCond54) ?RET_HIGH load(1, XDATA, add(CFA_XSP16, literal(-4)))
          CFI (cfiCond54) ?BRET_EXT load(1, XDATA, add(CFA_XSP16, literal(-3)))
          CFI (cfiCond54) DPL0 load(1, XDATA, add(CFA_XSP16, literal(-2)))
          CFI (cfiCond54) DPH0 load(1, XDATA, add(CFA_XSP16, literal(-1)))
          CFI (cfiCond54) CFA_SP SP+-4
          CFI (cfiCond54) CFA_XSP16 add(XSP16, 86)
          CFI Block cfiCond55 Using cfiCommon0
          CFI (cfiCond55) Function zclZEM_AF_RxProc
          CFI (cfiCond55) Conditional ??CrossCallReturnLabel_27, ??CrossCallReturnLabel_9
          CFI (cfiCond55) R6 load(1, XDATA, add(CFA_XSP16, literal(-19)))
          CFI (cfiCond55) VB load(1, XDATA, add(CFA_XSP16, literal(-18)))
          CFI (cfiCond55) V0 load(1, XDATA, add(CFA_XSP16, literal(-17)))
          CFI (cfiCond55) V1 load(1, XDATA, add(CFA_XSP16, literal(-16)))
          CFI (cfiCond55) V2 load(1, XDATA, add(CFA_XSP16, literal(-15)))
          CFI (cfiCond55) V3 load(1, XDATA, add(CFA_XSP16, literal(-14)))
          CFI (cfiCond55) V4 load(1, XDATA, add(CFA_XSP16, literal(-13)))
          CFI (cfiCond55) V5 load(1, XDATA, add(CFA_XSP16, literal(-12)))
          CFI (cfiCond55) V6 load(1, XDATA, add(CFA_XSP16, literal(-11)))
          CFI (cfiCond55) V7 load(1, XDATA, add(CFA_XSP16, literal(-10)))
          CFI (cfiCond55) V8 load(1, XDATA, add(CFA_XSP16, literal(-9)))
          CFI (cfiCond55) V9 load(1, XDATA, add(CFA_XSP16, literal(-8)))
          CFI (cfiCond55) V10 load(1, XDATA, add(CFA_XSP16, literal(-7)))
          CFI (cfiCond55) R7 load(1, XDATA, add(CFA_XSP16, literal(-6)))
          CFI (cfiCond55) ?RET_LOW load(1, XDATA, add(CFA_XSP16, literal(-5)))
          CFI (cfiCond55) ?RET_HIGH load(1, XDATA, add(CFA_XSP16, literal(-4)))
          CFI (cfiCond55) ?BRET_EXT load(1, XDATA, add(CFA_XSP16, literal(-3)))
          CFI (cfiCond55) DPL0 load(1, XDATA, add(CFA_XSP16, literal(-2)))
          CFI (cfiCond55) DPH0 load(1, XDATA, add(CFA_XSP16, literal(-1)))
          CFI (cfiCond55) CFA_SP SP+-4
          CFI (cfiCond55) CFA_XSP16 add(XSP16, 86)
          CFI Block cfiCond56 Using cfiCommon0
          CFI (cfiCond56) Function zclZEM_AF_RxProc
          CFI (cfiCond56) Conditional ??CrossCallReturnLabel_27, ??CrossCallReturnLabel_10
          CFI (cfiCond56) R6 load(1, XDATA, add(CFA_XSP16, literal(-19)))
          CFI (cfiCond56) VB load(1, XDATA, add(CFA_XSP16, literal(-18)))
          CFI (cfiCond56) V0 load(1, XDATA, add(CFA_XSP16, literal(-17)))
          CFI (cfiCond56) V1 load(1, XDATA, add(CFA_XSP16, literal(-16)))
          CFI (cfiCond56) V2 load(1, XDATA, add(CFA_XSP16, literal(-15)))
          CFI (cfiCond56) V3 load(1, XDATA, add(CFA_XSP16, literal(-14)))
          CFI (cfiCond56) V4 load(1, XDATA, add(CFA_XSP16, literal(-13)))
          CFI (cfiCond56) V5 load(1, XDATA, add(CFA_XSP16, literal(-12)))
          CFI (cfiCond56) V6 load(1, XDATA, add(CFA_XSP16, literal(-11)))
          CFI (cfiCond56) V7 load(1, XDATA, add(CFA_XSP16, literal(-10)))
          CFI (cfiCond56) V8 load(1, XDATA, add(CFA_XSP16, literal(-9)))
          CFI (cfiCond56) V9 load(1, XDATA, add(CFA_XSP16, literal(-8)))
          CFI (cfiCond56) V10 load(1, XDATA, add(CFA_XSP16, literal(-7)))
          CFI (cfiCond56) R7 load(1, XDATA, add(CFA_XSP16, literal(-6)))
          CFI (cfiCond56) ?RET_LOW load(1, XDATA, add(CFA_XSP16, literal(-5)))
          CFI (cfiCond56) ?RET_HIGH load(1, XDATA, add(CFA_XSP16, literal(-4)))
          CFI (cfiCond56) ?BRET_EXT load(1, XDATA, add(CFA_XSP16, literal(-3)))
          CFI (cfiCond56) DPL0 load(1, XDATA, add(CFA_XSP16, literal(-2)))
          CFI (cfiCond56) DPH0 load(1, XDATA, add(CFA_XSP16, literal(-1)))
          CFI (cfiCond56) CFA_SP SP+-4
          CFI (cfiCond56) CFA_XSP16 add(XSP16, 86)
          CFI Block cfiPicker57 Using cfiCommon1
          CFI (cfiPicker57) NoFunction
          CFI (cfiPicker57) Picker
        MOVX      A,@DPTR
        ADD       A,R0
        MOV       R0,A
        INC       DPTR
        MOVX      A,@DPTR
        ADDC      A,?V1
        MOV       R1,A
        MOV       A,R0
        RET
          CFI EndBlock cfiCond52
          CFI EndBlock cfiCond53
          CFI EndBlock cfiCond54
          CFI EndBlock cfiCond55
          CFI EndBlock cfiCond56
          CFI EndBlock cfiPicker57

        RSEG BANKED_CODE:HUGECODE:NOROOT(0)
?Subroutine8:
          CFI Block cfiCond58 Using cfiCommon0
          CFI Function zclZEM_AF_RxProc
          CFI Conditional ??CrossCallReturnLabel_9
          CFI R6 load(1, XDATA, add(CFA_XSP16, literal(-19)))
          CFI VB load(1, XDATA, add(CFA_XSP16, literal(-18)))
          CFI V0 load(1, XDATA, add(CFA_XSP16, literal(-17)))
          CFI V1 load(1, XDATA, add(CFA_XSP16, literal(-16)))
          CFI V2 load(1, XDATA, add(CFA_XSP16, literal(-15)))
          CFI V3 load(1, XDATA, add(CFA_XSP16, literal(-14)))
          CFI V4 load(1, XDATA, add(CFA_XSP16, literal(-13)))
          CFI V5 load(1, XDATA, add(CFA_XSP16, literal(-12)))
          CFI V6 load(1, XDATA, add(CFA_XSP16, literal(-11)))
          CFI V7 load(1, XDATA, add(CFA_XSP16, literal(-10)))
          CFI V8 load(1, XDATA, add(CFA_XSP16, literal(-9)))
          CFI V9 load(1, XDATA, add(CFA_XSP16, literal(-8)))
          CFI V10 load(1, XDATA, add(CFA_XSP16, literal(-7)))
          CFI R7 load(1, XDATA, add(CFA_XSP16, literal(-6)))
          CFI ?RET_LOW load(1, XDATA, add(CFA_XSP16, literal(-5)))
          CFI ?RET_HIGH load(1, XDATA, add(CFA_XSP16, literal(-4)))
          CFI ?BRET_EXT load(1, XDATA, add(CFA_XSP16, literal(-3)))
          CFI DPL0 load(1, XDATA, add(CFA_XSP16, literal(-2)))
          CFI DPH0 load(1, XDATA, add(CFA_XSP16, literal(-1)))
          CFI CFA_SP SP+-2
          CFI CFA_XSP16 add(XSP16, 86)
          CFI Block cfiCond59 Using cfiCommon0
          CFI (cfiCond59) Function zclZEM_AF_RxProc
          CFI (cfiCond59) Conditional ??CrossCallReturnLabel_10
          CFI (cfiCond59) R6 load(1, XDATA, add(CFA_XSP16, literal(-19)))
          CFI (cfiCond59) VB load(1, XDATA, add(CFA_XSP16, literal(-18)))
          CFI (cfiCond59) V0 load(1, XDATA, add(CFA_XSP16, literal(-17)))
          CFI (cfiCond59) V1 load(1, XDATA, add(CFA_XSP16, literal(-16)))
          CFI (cfiCond59) V2 load(1, XDATA, add(CFA_XSP16, literal(-15)))
          CFI (cfiCond59) V3 load(1, XDATA, add(CFA_XSP16, literal(-14)))
          CFI (cfiCond59) V4 load(1, XDATA, add(CFA_XSP16, literal(-13)))
          CFI (cfiCond59) V5 load(1, XDATA, add(CFA_XSP16, literal(-12)))
          CFI (cfiCond59) V6 load(1, XDATA, add(CFA_XSP16, literal(-11)))
          CFI (cfiCond59) V7 load(1, XDATA, add(CFA_XSP16, literal(-10)))
          CFI (cfiCond59) V8 load(1, XDATA, add(CFA_XSP16, literal(-9)))
          CFI (cfiCond59) V9 load(1, XDATA, add(CFA_XSP16, literal(-8)))
          CFI (cfiCond59) V10 load(1, XDATA, add(CFA_XSP16, literal(-7)))
          CFI (cfiCond59) R7 load(1, XDATA, add(CFA_XSP16, literal(-6)))
          CFI (cfiCond59) ?RET_LOW load(1, XDATA, add(CFA_XSP16, literal(-5)))
          CFI (cfiCond59) ?RET_HIGH load(1, XDATA, add(CFA_XSP16, literal(-4)))
          CFI (cfiCond59) ?BRET_EXT load(1, XDATA, add(CFA_XSP16, literal(-3)))
          CFI (cfiCond59) DPL0 load(1, XDATA, add(CFA_XSP16, literal(-2)))
          CFI (cfiCond59) DPH0 load(1, XDATA, add(CFA_XSP16, literal(-1)))
          CFI (cfiCond59) CFA_SP SP+-2
          CFI (cfiCond59) CFA_XSP16 add(XSP16, 86)
          CFI Block cfiPicker60 Using cfiCommon1
          CFI (cfiPicker60) NoFunction
          CFI (cfiPicker60) Picker
        MOV       ?V1,R1
        LCALL     ?Subroutine16 & 0xFFFF
??CrossCallReturnLabel_27:
        ADD       A,#0x10
        MOV       R2,A
        CLR       A
        ADDC      A,R1
        MOV       R3,A
        RET
          CFI EndBlock cfiCond58
          CFI EndBlock cfiCond59
          CFI EndBlock cfiPicker60

        RSEG BANKED_CODE:HUGECODE:NOROOT(0)
?Subroutine7:
          CFI Block cfiCond61 Using cfiCommon0
          CFI Function zclZEM_AF_RxProc
          CFI Conditional ??CrossCallReturnLabel_6
          CFI R6 load(1, XDATA, add(CFA_XSP16, literal(-19)))
          CFI VB load(1, XDATA, add(CFA_XSP16, literal(-18)))
          CFI V0 load(1, XDATA, add(CFA_XSP16, literal(-17)))
          CFI V1 load(1, XDATA, add(CFA_XSP16, literal(-16)))
          CFI V2 load(1, XDATA, add(CFA_XSP16, literal(-15)))
          CFI V3 load(1, XDATA, add(CFA_XSP16, literal(-14)))
          CFI V4 load(1, XDATA, add(CFA_XSP16, literal(-13)))
          CFI V5 load(1, XDATA, add(CFA_XSP16, literal(-12)))
          CFI V6 load(1, XDATA, add(CFA_XSP16, literal(-11)))
          CFI V7 load(1, XDATA, add(CFA_XSP16, literal(-10)))
          CFI V8 load(1, XDATA, add(CFA_XSP16, literal(-9)))
          CFI V9 load(1, XDATA, add(CFA_XSP16, literal(-8)))
          CFI V10 load(1, XDATA, add(CFA_XSP16, literal(-7)))
          CFI R7 load(1, XDATA, add(CFA_XSP16, literal(-6)))
          CFI ?RET_LOW load(1, XDATA, add(CFA_XSP16, literal(-5)))
          CFI ?RET_HIGH load(1, XDATA, add(CFA_XSP16, literal(-4)))
          CFI ?BRET_EXT load(1, XDATA, add(CFA_XSP16, literal(-3)))
          CFI DPL0 load(1, XDATA, add(CFA_XSP16, literal(-2)))
          CFI DPH0 load(1, XDATA, add(CFA_XSP16, literal(-1)))
          CFI CFA_SP SP+-2
          CFI CFA_XSP16 add(XSP16, 83)
          CFI Block cfiCond62 Using cfiCommon0
          CFI (cfiCond62) Function zclZEM_AF_RxProc
          CFI (cfiCond62) Conditional ??CrossCallReturnLabel_7
          CFI (cfiCond62) R6 load(1, XDATA, add(CFA_XSP16, literal(-19)))
          CFI (cfiCond62) VB load(1, XDATA, add(CFA_XSP16, literal(-18)))
          CFI (cfiCond62) V0 load(1, XDATA, add(CFA_XSP16, literal(-17)))
          CFI (cfiCond62) V1 load(1, XDATA, add(CFA_XSP16, literal(-16)))
          CFI (cfiCond62) V2 load(1, XDATA, add(CFA_XSP16, literal(-15)))
          CFI (cfiCond62) V3 load(1, XDATA, add(CFA_XSP16, literal(-14)))
          CFI (cfiCond62) V4 load(1, XDATA, add(CFA_XSP16, literal(-13)))
          CFI (cfiCond62) V5 load(1, XDATA, add(CFA_XSP16, literal(-12)))
          CFI (cfiCond62) V6 load(1, XDATA, add(CFA_XSP16, literal(-11)))
          CFI (cfiCond62) V7 load(1, XDATA, add(CFA_XSP16, literal(-10)))
          CFI (cfiCond62) V8 load(1, XDATA, add(CFA_XSP16, literal(-9)))
          CFI (cfiCond62) V9 load(1, XDATA, add(CFA_XSP16, literal(-8)))
          CFI (cfiCond62) V10 load(1, XDATA, add(CFA_XSP16, literal(-7)))
          CFI (cfiCond62) R7 load(1, XDATA, add(CFA_XSP16, literal(-6)))
          CFI (cfiCond62) ?RET_LOW load(1, XDATA, add(CFA_XSP16, literal(-5)))
          CFI (cfiCond62) ?RET_HIGH load(1, XDATA, add(CFA_XSP16, literal(-4)))
          CFI (cfiCond62) ?BRET_EXT load(1, XDATA, add(CFA_XSP16, literal(-3)))
          CFI (cfiCond62) DPL0 load(1, XDATA, add(CFA_XSP16, literal(-2)))
          CFI (cfiCond62) DPH0 load(1, XDATA, add(CFA_XSP16, literal(-1)))
          CFI (cfiCond62) CFA_SP SP+-2
          CFI (cfiCond62) CFA_XSP16 add(XSP16, 83)
          CFI Block cfiCond63 Using cfiCommon0
          CFI (cfiCond63) Function zclZEM_AF_RxProc
          CFI (cfiCond63) Conditional ??CrossCallReturnLabel_8
          CFI (cfiCond63) R6 load(1, XDATA, add(CFA_XSP16, literal(-19)))
          CFI (cfiCond63) VB load(1, XDATA, add(CFA_XSP16, literal(-18)))
          CFI (cfiCond63) V0 load(1, XDATA, add(CFA_XSP16, literal(-17)))
          CFI (cfiCond63) V1 load(1, XDATA, add(CFA_XSP16, literal(-16)))
          CFI (cfiCond63) V2 load(1, XDATA, add(CFA_XSP16, literal(-15)))
          CFI (cfiCond63) V3 load(1, XDATA, add(CFA_XSP16, literal(-14)))
          CFI (cfiCond63) V4 load(1, XDATA, add(CFA_XSP16, literal(-13)))
          CFI (cfiCond63) V5 load(1, XDATA, add(CFA_XSP16, literal(-12)))
          CFI (cfiCond63) V6 load(1, XDATA, add(CFA_XSP16, literal(-11)))
          CFI (cfiCond63) V7 load(1, XDATA, add(CFA_XSP16, literal(-10)))
          CFI (cfiCond63) V8 load(1, XDATA, add(CFA_XSP16, literal(-9)))
          CFI (cfiCond63) V9 load(1, XDATA, add(CFA_XSP16, literal(-8)))
          CFI (cfiCond63) V10 load(1, XDATA, add(CFA_XSP16, literal(-7)))
          CFI (cfiCond63) R7 load(1, XDATA, add(CFA_XSP16, literal(-6)))
          CFI (cfiCond63) ?RET_LOW load(1, XDATA, add(CFA_XSP16, literal(-5)))
          CFI (cfiCond63) ?RET_HIGH load(1, XDATA, add(CFA_XSP16, literal(-4)))
          CFI (cfiCond63) ?BRET_EXT load(1, XDATA, add(CFA_XSP16, literal(-3)))
          CFI (cfiCond63) DPL0 load(1, XDATA, add(CFA_XSP16, literal(-2)))
          CFI (cfiCond63) DPH0 load(1, XDATA, add(CFA_XSP16, literal(-1)))
          CFI (cfiCond63) CFA_SP SP+-2
          CFI (cfiCond63) CFA_XSP16 add(XSP16, 83)
          CFI Block cfiPicker64 Using cfiCommon1
          CFI (cfiPicker64) NoFunction
          CFI (cfiPicker64) Picker
        MOV       DPL,?V0
        MOV       DPH,?V1
        MOVX      A,@DPTR
        MOV       ?V0,A
        INC       DPTR
        MOVX      A,@DPTR
        MOV       ?V1,A
        MOV       ?V2,#0x0
        MOV       R0,#?V0
        RET
          CFI EndBlock cfiCond61
          CFI EndBlock cfiCond62
          CFI EndBlock cfiCond63
          CFI EndBlock cfiPicker64

        RSEG BANKED_CODE:HUGECODE:NOROOT(0)
?Subroutine4:
          CFI Block cfiCond65 Using cfiCommon0
          CFI Function zclZEM_AF_RxProc
          CFI Conditional ??CrossCallReturnLabel_29
          CFI R6 load(1, XDATA, add(CFA_XSP16, literal(-19)))
          CFI VB load(1, XDATA, add(CFA_XSP16, literal(-18)))
          CFI V0 load(1, XDATA, add(CFA_XSP16, literal(-17)))
          CFI V1 load(1, XDATA, add(CFA_XSP16, literal(-16)))
          CFI V2 load(1, XDATA, add(CFA_XSP16, literal(-15)))
          CFI V3 load(1, XDATA, add(CFA_XSP16, literal(-14)))
          CFI V4 load(1, XDATA, add(CFA_XSP16, literal(-13)))
          CFI V5 load(1, XDATA, add(CFA_XSP16, literal(-12)))
          CFI V6 load(1, XDATA, add(CFA_XSP16, literal(-11)))
          CFI V7 load(1, XDATA, add(CFA_XSP16, literal(-10)))
          CFI V8 load(1, XDATA, add(CFA_XSP16, literal(-9)))
          CFI V9 load(1, XDATA, add(CFA_XSP16, literal(-8)))
          CFI V10 load(1, XDATA, add(CFA_XSP16, literal(-7)))
          CFI R7 load(1, XDATA, add(CFA_XSP16, literal(-6)))
          CFI ?RET_LOW load(1, XDATA, add(CFA_XSP16, literal(-5)))
          CFI ?RET_HIGH load(1, XDATA, add(CFA_XSP16, literal(-4)))
          CFI ?BRET_EXT load(1, XDATA, add(CFA_XSP16, literal(-3)))
          CFI DPL0 load(1, XDATA, add(CFA_XSP16, literal(-2)))
          CFI DPH0 load(1, XDATA, add(CFA_XSP16, literal(-1)))
          CFI CFA_SP SP+-2
          CFI CFA_XSP16 add(XSP16, 83)
          CFI Block cfiCond66 Using cfiCommon0
          CFI (cfiCond66) Function zclZEM_AF_RxProc
          CFI (cfiCond66) Conditional ??CrossCallReturnLabel_30
          CFI (cfiCond66) R6 load(1, XDATA, add(CFA_XSP16, literal(-19)))
          CFI (cfiCond66) VB load(1, XDATA, add(CFA_XSP16, literal(-18)))
          CFI (cfiCond66) V0 load(1, XDATA, add(CFA_XSP16, literal(-17)))
          CFI (cfiCond66) V1 load(1, XDATA, add(CFA_XSP16, literal(-16)))
          CFI (cfiCond66) V2 load(1, XDATA, add(CFA_XSP16, literal(-15)))
          CFI (cfiCond66) V3 load(1, XDATA, add(CFA_XSP16, literal(-14)))
          CFI (cfiCond66) V4 load(1, XDATA, add(CFA_XSP16, literal(-13)))
          CFI (cfiCond66) V5 load(1, XDATA, add(CFA_XSP16, literal(-12)))
          CFI (cfiCond66) V6 load(1, XDATA, add(CFA_XSP16, literal(-11)))
          CFI (cfiCond66) V7 load(1, XDATA, add(CFA_XSP16, literal(-10)))
          CFI (cfiCond66) V8 load(1, XDATA, add(CFA_XSP16, literal(-9)))
          CFI (cfiCond66) V9 load(1, XDATA, add(CFA_XSP16, literal(-8)))
          CFI (cfiCond66) V10 load(1, XDATA, add(CFA_XSP16, literal(-7)))
          CFI (cfiCond66) R7 load(1, XDATA, add(CFA_XSP16, literal(-6)))
          CFI (cfiCond66) ?RET_LOW load(1, XDATA, add(CFA_XSP16, literal(-5)))
          CFI (cfiCond66) ?RET_HIGH load(1, XDATA, add(CFA_XSP16, literal(-4)))
          CFI (cfiCond66) ?BRET_EXT load(1, XDATA, add(CFA_XSP16, literal(-3)))
          CFI (cfiCond66) DPL0 load(1, XDATA, add(CFA_XSP16, literal(-2)))
          CFI (cfiCond66) DPH0 load(1, XDATA, add(CFA_XSP16, literal(-1)))
          CFI (cfiCond66) CFA_SP SP+-2
          CFI (cfiCond66) CFA_XSP16 add(XSP16, 83)
          CFI Block cfiPicker67 Using cfiCommon1
          CFI (cfiPicker67) NoFunction
          CFI (cfiPicker67) Picker
        MOV       DPL,A
        CLR       A
        ADDC      A,R1
        MOV       DPH,A
        MOV       A,#0xd
          CFI EndBlock cfiCond65
          CFI EndBlock cfiCond66
          CFI EndBlock cfiPicker67
        REQUIRE ??Subroutine19_0
        ; // Fall through to label ??Subroutine19_0

        RSEG BANKED_CODE:HUGECODE:NOROOT(0)
??Subroutine19_0:
          CFI Block cfiCond68 Using cfiCommon0
          CFI Function zclZEM_AF_RxProc
          CFI Conditional ??CrossCallReturnLabel_31
          CFI R6 load(1, XDATA, add(CFA_XSP16, literal(-19)))
          CFI VB load(1, XDATA, add(CFA_XSP16, literal(-18)))
          CFI V0 load(1, XDATA, add(CFA_XSP16, literal(-17)))
          CFI V1 load(1, XDATA, add(CFA_XSP16, literal(-16)))
          CFI V2 load(1, XDATA, add(CFA_XSP16, literal(-15)))
          CFI V3 load(1, XDATA, add(CFA_XSP16, literal(-14)))
          CFI V4 load(1, XDATA, add(CFA_XSP16, literal(-13)))
          CFI V5 load(1, XDATA, add(CFA_XSP16, literal(-12)))
          CFI V6 load(1, XDATA, add(CFA_XSP16, literal(-11)))
          CFI V7 load(1, XDATA, add(CFA_XSP16, literal(-10)))
          CFI V8 load(1, XDATA, add(CFA_XSP16, literal(-9)))
          CFI V9 load(1, XDATA, add(CFA_XSP16, literal(-8)))
          CFI V10 load(1, XDATA, add(CFA_XSP16, literal(-7)))
          CFI R7 load(1, XDATA, add(CFA_XSP16, literal(-6)))
          CFI ?RET_LOW load(1, XDATA, add(CFA_XSP16, literal(-5)))
          CFI ?RET_HIGH load(1, XDATA, add(CFA_XSP16, literal(-4)))
          CFI ?BRET_EXT load(1, XDATA, add(CFA_XSP16, literal(-3)))
          CFI DPL0 load(1, XDATA, add(CFA_XSP16, literal(-2)))
          CFI DPH0 load(1, XDATA, add(CFA_XSP16, literal(-1)))
          CFI CFA_SP SP+-2
          CFI CFA_XSP16 add(XSP16, 83)
          CFI Block cfiCond69 Using cfiCommon0
          CFI (cfiCond69) Function zclZEM_AF_RxProc
          CFI (cfiCond69) Conditional ??CrossCallReturnLabel_32
          CFI (cfiCond69) R6 load(1, XDATA, add(CFA_XSP16, literal(-19)))
          CFI (cfiCond69) VB load(1, XDATA, add(CFA_XSP16, literal(-18)))
          CFI (cfiCond69) V0 load(1, XDATA, add(CFA_XSP16, literal(-17)))
          CFI (cfiCond69) V1 load(1, XDATA, add(CFA_XSP16, literal(-16)))
          CFI (cfiCond69) V2 load(1, XDATA, add(CFA_XSP16, literal(-15)))
          CFI (cfiCond69) V3 load(1, XDATA, add(CFA_XSP16, literal(-14)))
          CFI (cfiCond69) V4 load(1, XDATA, add(CFA_XSP16, literal(-13)))
          CFI (cfiCond69) V5 load(1, XDATA, add(CFA_XSP16, literal(-12)))
          CFI (cfiCond69) V6 load(1, XDATA, add(CFA_XSP16, literal(-11)))
          CFI (cfiCond69) V7 load(1, XDATA, add(CFA_XSP16, literal(-10)))
          CFI (cfiCond69) V8 load(1, XDATA, add(CFA_XSP16, literal(-9)))
          CFI (cfiCond69) V9 load(1, XDATA, add(CFA_XSP16, literal(-8)))
          CFI (cfiCond69) V10 load(1, XDATA, add(CFA_XSP16, literal(-7)))
          CFI (cfiCond69) R7 load(1, XDATA, add(CFA_XSP16, literal(-6)))
          CFI (cfiCond69) ?RET_LOW load(1, XDATA, add(CFA_XSP16, literal(-5)))
          CFI (cfiCond69) ?RET_HIGH load(1, XDATA, add(CFA_XSP16, literal(-4)))
          CFI (cfiCond69) ?BRET_EXT load(1, XDATA, add(CFA_XSP16, literal(-3)))
          CFI (cfiCond69) DPL0 load(1, XDATA, add(CFA_XSP16, literal(-2)))
          CFI (cfiCond69) DPH0 load(1, XDATA, add(CFA_XSP16, literal(-1)))
          CFI (cfiCond69) CFA_SP SP+-2
          CFI (cfiCond69) CFA_XSP16 add(XSP16, 83)
          CFI Block cfiCond70 Using cfiCommon0
          CFI (cfiCond70) Function zclZEM_AF_RxProc
          CFI (cfiCond70) Conditional ??CrossCallReturnLabel_29
          CFI (cfiCond70) R6 load(1, XDATA, add(CFA_XSP16, literal(-19)))
          CFI (cfiCond70) VB load(1, XDATA, add(CFA_XSP16, literal(-18)))
          CFI (cfiCond70) V0 load(1, XDATA, add(CFA_XSP16, literal(-17)))
          CFI (cfiCond70) V1 load(1, XDATA, add(CFA_XSP16, literal(-16)))
          CFI (cfiCond70) V2 load(1, XDATA, add(CFA_XSP16, literal(-15)))
          CFI (cfiCond70) V3 load(1, XDATA, add(CFA_XSP16, literal(-14)))
          CFI (cfiCond70) V4 load(1, XDATA, add(CFA_XSP16, literal(-13)))
          CFI (cfiCond70) V5 load(1, XDATA, add(CFA_XSP16, literal(-12)))
          CFI (cfiCond70) V6 load(1, XDATA, add(CFA_XSP16, literal(-11)))
          CFI (cfiCond70) V7 load(1, XDATA, add(CFA_XSP16, literal(-10)))
          CFI (cfiCond70) V8 load(1, XDATA, add(CFA_XSP16, literal(-9)))
          CFI (cfiCond70) V9 load(1, XDATA, add(CFA_XSP16, literal(-8)))
          CFI (cfiCond70) V10 load(1, XDATA, add(CFA_XSP16, literal(-7)))
          CFI (cfiCond70) R7 load(1, XDATA, add(CFA_XSP16, literal(-6)))
          CFI (cfiCond70) ?RET_LOW load(1, XDATA, add(CFA_XSP16, literal(-5)))
          CFI (cfiCond70) ?RET_HIGH load(1, XDATA, add(CFA_XSP16, literal(-4)))
          CFI (cfiCond70) ?BRET_EXT load(1, XDATA, add(CFA_XSP16, literal(-3)))
          CFI (cfiCond70) DPL0 load(1, XDATA, add(CFA_XSP16, literal(-2)))
          CFI (cfiCond70) DPH0 load(1, XDATA, add(CFA_XSP16, literal(-1)))
          CFI (cfiCond70) CFA_SP SP+-2
          CFI (cfiCond70) CFA_XSP16 add(XSP16, 83)
          CFI Block cfiCond71 Using cfiCommon0
          CFI (cfiCond71) Function zclZEM_AF_RxProc
          CFI (cfiCond71) Conditional ??CrossCallReturnLabel_30
          CFI (cfiCond71) R6 load(1, XDATA, add(CFA_XSP16, literal(-19)))
          CFI (cfiCond71) VB load(1, XDATA, add(CFA_XSP16, literal(-18)))
          CFI (cfiCond71) V0 load(1, XDATA, add(CFA_XSP16, literal(-17)))
          CFI (cfiCond71) V1 load(1, XDATA, add(CFA_XSP16, literal(-16)))
          CFI (cfiCond71) V2 load(1, XDATA, add(CFA_XSP16, literal(-15)))
          CFI (cfiCond71) V3 load(1, XDATA, add(CFA_XSP16, literal(-14)))
          CFI (cfiCond71) V4 load(1, XDATA, add(CFA_XSP16, literal(-13)))
          CFI (cfiCond71) V5 load(1, XDATA, add(CFA_XSP16, literal(-12)))
          CFI (cfiCond71) V6 load(1, XDATA, add(CFA_XSP16, literal(-11)))
          CFI (cfiCond71) V7 load(1, XDATA, add(CFA_XSP16, literal(-10)))
          CFI (cfiCond71) V8 load(1, XDATA, add(CFA_XSP16, literal(-9)))
          CFI (cfiCond71) V9 load(1, XDATA, add(CFA_XSP16, literal(-8)))
          CFI (cfiCond71) V10 load(1, XDATA, add(CFA_XSP16, literal(-7)))
          CFI (cfiCond71) R7 load(1, XDATA, add(CFA_XSP16, literal(-6)))
          CFI (cfiCond71) ?RET_LOW load(1, XDATA, add(CFA_XSP16, literal(-5)))
          CFI (cfiCond71) ?RET_HIGH load(1, XDATA, add(CFA_XSP16, literal(-4)))
          CFI (cfiCond71) ?BRET_EXT load(1, XDATA, add(CFA_XSP16, literal(-3)))
          CFI (cfiCond71) DPL0 load(1, XDATA, add(CFA_XSP16, literal(-2)))
          CFI (cfiCond71) DPH0 load(1, XDATA, add(CFA_XSP16, literal(-1)))
          CFI (cfiCond71) CFA_SP SP+-2
          CFI (cfiCond71) CFA_XSP16 add(XSP16, 83)
          CFI Block cfiPicker72 Using cfiCommon1
          CFI (cfiPicker72) NoFunction
          CFI (cfiPicker72) Picker
        MOVX      @DPTR,A
        MOV       DPL,R6
        MOV       DPH,R7
        MOVX      A,@DPTR
        ADD       A,?V0
        MOV       R0,A
        INC       DPTR
        MOVX      A,@DPTR
        ADDC      A,?V1
        MOV       R1,A
        MOV       A,R0
        RET
          CFI EndBlock cfiCond68
          CFI EndBlock cfiCond69
          CFI EndBlock cfiCond70
          CFI EndBlock cfiCond71
          CFI EndBlock cfiPicker72

        RSEG XDATA_Z:XDATA:NOROOT(0)
        DATA8
??p2pCnt:
        DS 1
        REQUIRE __INIT_XDATA_Z

        RSEG XDATA_Z:XDATA:NOROOT(0)
        DATA8
??bcCnt:
        DS 1
        REQUIRE __INIT_XDATA_Z

        RSEG XDATA_Z:XDATA:NOROOT(0)
        DATA8
??gcCnt:
        DS 1
        REQUIRE __INIT_XDATA_Z

        RSEG XDATA_ID:CODE:NOROOT(0)
`?<Initializer for ZEM_AppEp>`:
        DATA8
        DB 8
        DB 0
        DATA16
        DW zclZEM_TaskID
        DW zclZEM_SimpleDesc
        DATA8
        DB 0

        RSEG XDATA_ID:CODE:NOROOT(0)
`?<Initializer for reportableChange>`:
        DATA8
        DB 44
        DB 1
        DB 0
        DB 0

        RSEG XDATA_ID:CODE:NOROOT(0)
`?<Initializer for zclZEM_CmdCallbacks>`:
        DATA16
        DW `??zclZEM_BasicResetCB::?relay`
        DW 0H
        DW 0H
        DW 0H
        DW 0H
        DW 0H
        DW 0H
        DW 0H
        DW 0H

        RSEG BANK_RELAYS:CODE:REORDER:NOROOT(0)
`??zclZEM_Init::?relay`:
        CODE
        LCALL   ?BDISPATCH
        DATA24
        DC24    zclZEM_Init

        RSEG BANK_RELAYS:CODE:REORDER:NOROOT(0)
`??zclZEM_event_loop::?relay`:
        CODE
        LCALL   ?BDISPATCH
        DATA24
        DC24    zclZEM_event_loop

        RSEG BANK_RELAYS:CODE:REORDER:NOROOT(0)
`??zclZEM_ReadAndSendMAC::?relay`:
        CODE
        LCALL   ?BDISPATCH
        DATA24
        DC24    zclZEM_ReadAndSendMAC

        RSEG BANK_RELAYS:CODE:REORDER:NOROOT(0)
`??zclZEM_UartCB::?relay`:
        CODE
        LCALL   ?BDISPATCH
        DATA24
        DC24    zclZEM_UartCB

        RSEG BANK_RELAYS:CODE:REORDER:NOROOT(0)
`??zclZEM_ProcessCommissioningStatus::?relay`:
        CODE
        LCALL   ?BDISPATCH
        DATA24
        DC24    zclZEM_ProcessCommissioningStatus

        RSEG BANK_RELAYS:CODE:REORDER:NOROOT(0)
`??zclZEM_BasicResetCB::?relay`:
        CODE
        LCALL   ?BDISPATCH
        DATA24
        DC24    zclZEM_BasicResetCB

        RSEG BANK_RELAYS:CODE:REORDER:NOROOT(0)
`??zclSampleApp_BatteryWarningCB::?relay`:
        CODE
        LCALL   ?BDISPATCH
        DATA24
        DC24    zclSampleApp_BatteryWarningCB

        RSEG BANK_RELAYS:CODE:REORDER:NOROOT(0)
`??zclZEM_ProcessIncomingMsg::?relay`:
        CODE
        LCALL   ?BDISPATCH
        DATA24
        DC24    zclZEM_ProcessIncomingMsg

        RSEG BANK_RELAYS:CODE:REORDER:NOROOT(0)
`??zclZEM_ProcessInDiscCmdsRspCmd::?relay`:
        CODE
        LCALL   ?BDISPATCH
        DATA24
        DC24    zclZEM_ProcessInDiscCmdsRspCmd

        RSEG BANK_RELAYS:CODE:REORDER:NOROOT(0)
`??zclZEM_AF_P2P::?relay`:
        CODE
        LCALL   ?BDISPATCH
        DATA24
        DC24    zclZEM_AF_P2P

        RSEG BANK_RELAYS:CODE:REORDER:NOROOT(0)
`??zclZEM_AF_RxProc::?relay`:
        CODE
        LCALL   ?BDISPATCH
        DATA24
        DC24    zclZEM_AF_RxProc

        RSEG XDATA_ROM_C:CONST:REORDER:NOROOT(0)
        DATA8
`?<Constant "Device Type Test: ">`:
        DB "Device Type Test: "

        RSEG XDATA_ROM_C:CONST:REORDER:NOROOT(0)
        DATA8
`?<Constant "End Device\\r\\n">`:
        DB "End Device\015\012"

        RSEG XDATA_ROM_C:CONST:REORDER:NOROOT(0)
        DATA8
`?<Constant "Broadcast">`:
        DB "Broadcast"

        RSEG XDATA_ROM_C:CONST:REORDER:NOROOT(0)
        DATA8
`?<Constant "Groupcast">`:
        DB "Groupcast"

        RSEG XDATA_ROM_C:CONST:REORDER:NOROOT(0)
        DATA32
`?<Constant "P2P">`:
        DB "P2P"

        RSEG XDATA_ROM_C:CONST:REORDER:NOROOT(0)
        DATA8
`?<Constant "MAC: ">`:
        DB "MAC: "

        RSEG XDATA_ROM_C:CONST:REORDER:NOROOT(0)
        DATA8
`?<Constant "Network steering fail...">`:
        DB 4EH, 65H, 74H, 77H, 6FH, 72H, 6BH, 20H
        DB 73H, 74H, 65H, 65H, 72H, 69H, 6EH, 67H
        DB 20H, 66H, 61H, 69H, 6CH, 65H, 64H, 21H
        DB 20H, 52H, 65H, 74H, 72H, 79H, 69H, 6EH
        DB 67H, 20H, 69H, 6EH, 20H, 31H, 20H, 73H
        DB 65H, 63H, 6FH, 6EH, 64H, 2EH, 2EH, 2EH
        DB 0DH, 0AH, 0

        RSEG XDATA_ROM_C:CONST:REORDER:NOROOT(0)
        DATA8
`?<Constant "P2P Data: ">`:
        DB "P2P Data: "

        RSEG XDATA_ROM_C:CONST:REORDER:NOROOT(0)
        DATA8
`?<Constant " Count: ">`:
        DB " Count: "

        RSEG XDATA_ROM_C:CONST:REORDER:NOROOT(0)
        DATA8
`?<Constant "Broadcast Data: ">`:
        DB "Broadcast Data: "

        RSEG XDATA_ROM_C:CONST:REORDER:NOROOT(0)
        DATA8
`?<Constant "Groupcast Data: ">`:
        DB "Groupcast Data: "

        RSEG XDATA_ROM_C:CONST:REORDER:NOROOT(0)
        DATA32
__Constant_3e8:
        DD 1000

        RSEG XDATA_ROM_C:CONST:REORDER:NOROOT(0)
        DATA32
__Constant_bb8:
        DD 3000

        END
// 1144 
// 1145 /****************************************************************************
// 1146 ****************************************************************************/
// 1147 
// 1148 
// 
// 2 215 bytes in segment BANKED_CODE
//    66 bytes in segment BANK_RELAYS
//     3 bytes in segment SFR_AN
//    29 bytes in segment XDATA_I
//    29 bytes in segment XDATA_ID
//   193 bytes in segment XDATA_ROM_C
//    72 bytes in segment XDATA_Z
// 
//    95 bytes of CODE     memory
//   185 bytes of CONST    memory (+ 8 bytes shared)
//     0 bytes of DATA     memory (+ 3 bytes shared)
// 2 215 bytes of HUGECODE memory
//   101 bytes of XDATA    memory
//
//Errors: none
//Warnings: none
