///////////////////////////////////////////////////////////////////////////////
//
// IAR C/C++ Compiler V10.10.1.4655 for 8051              06/Feb/2026  13:38:05
// Copyright 2004-2017 IAR Systems AB.
// Standalone license - IAR Embedded Workbench for 8051
//
//    Core               =  plain
//    Code model         =  banked
//    Data model         =  large
//    Calling convention =  xdata reentrant
//    Constant location  =  data_rom
//    Dptr setup         =  1,16
//                          
//    Source file        =  
//        D:\project\Z-Stack
//        3.0.2\Projects\zstack\HomeAutomation\ZEM\Source\zcl_ZEM.c
//    Command line       =  
//        -f C:\Users\KLF\AppData\Local\Temp\EWEE32.tmp ("D:\project\Z-Stack
//        3.0.2\Projects\zstack\HomeAutomation\ZEM\Source\zcl_ZEM.c" -D
//        BDB_REPORTING -D xPOWER_SAVING -D NWK_AUTO_POLL -D xZTOOL_P1 -D
//        xMT_TASK -D xMT_APP_FUNC -D xMT_SYS_FUNC -D xMT_ZDO_FUNC -D
//        xMT_APP_CNF_FUNC -D LCD_SUPPORTED=DEBUG -D MULTICAST_ENABLED=FALSE -D
//        ZCL_READ -D ZCL_DISCOVER -D ZCL_WRITE -D ZCL_BASIC -D ZCL_IDENTIFY -D
//        ZCL_TEMPERATURE_MEASUREMENT -D ZCL_GROUPS -D HAL_UART=TRUE -D
//        INT_HEAP_LEN=2048 -lC "D:\project\Z-Stack
//        3.0.2\Projects\zstack\HomeAutomation\ZEM\CC2530DB\EndDeviceEB\List"
//        -lA "D:\project\Z-Stack
//        3.0.2\Projects\zstack\HomeAutomation\ZEM\CC2530DB\EndDeviceEB\List"
//        --diag_suppress Pe001,Pa010 -o "D:\project\Z-Stack
//        3.0.2\Projects\zstack\HomeAutomation\ZEM\CC2530DB\EndDeviceEB\Obj" -e
//        --debug --core=plain --dptr=16,1 --data_model=large
//        --code_model=banked --calling_convention=xdata_reentrant
//        --place_constants=data_rom --nr_virtual_regs 16 -f
//        "D:\project\Z-Stack
//        3.0.2\Projects\zstack\HomeAutomation\ZEM\CC2530DB\..\..\..\Tools\CC2530DB\f8wEndev.cfg"
//        (-DCPU32MHZ -DROOT=__near_func -DMAC_CFG_TX_DATA_MAX=3
//        -DMAC_CFG_TX_MAX=6 -DMAC_CFG_RX_MAX=3) -f "D:\project\Z-Stack
//        3.0.2\Projects\zstack\HomeAutomation\ZEM\CC2530DB\..\..\..\Tools\CC2530DB\f8wConfig.cfg"
//        (-DZIGBEEPRO -DSECURE=1 -DZG_SECURE_DYNAMIC=0 -DREFLECTOR
//        -DDEFAULT_CHANLIST=0x00100000 -DZDAPP_CONFIG_PAN_ID=0x1234
//        -DNWK_START_DELAY=100 -DEXTENDED_JOINING_RANDOM_MASK=0x007F
//        -DBEACON_REQUEST_DELAY=100 -DBEACON_REQ_DELAY_MASK=0x00FF
//        -DLINK_STATUS_JITTER_MASK=0x007F -DROUTE_EXPIRY_TIME=30
//        -DAPSC_ACK_WAIT_DURATION_POLLED=3000 -DNWK_INDIRECT_MSG_TIMEOUT=7
//        -DMAX_RREQ_ENTRIES=8 -DAPSC_MAX_FRAME_RETRIES=3
//        -DNWK_MAX_DATA_RETRIES=2 -DMAX_POLL_FAILURE_RETRIES=2 -DMAX_BCAST=9
//        -DAPS_MAX_GROUPS=16 -DMAX_RTG_ENTRIES=40 -DNWK_MAX_BINDING_ENTRIES=4
//        -DMAX_BINDING_CLUSTER_IDS=4 -DDEFAULT_KEY={0}
//        -DMAC_MAX_FRAME_SIZE=116 -DZDNWKMGR_MIN_TRANSMISSIONS=20
//        "-DCONST=const __code" -DGENERIC=__generic -DRFD_RCVC_ALWAYS_ON=FALSE
//        -DPOLL_RATE=1000 -DQUEUED_POLL_RATE=100 -DRESPONSE_POLL_RATE=100
//        -DREJOIN_POLL_RATE=440 -DREJOIN_BACKOFF=900000 -DREJOIN_SCAN=900000
//        -DENABLE_LED4_DISABLE_S1) -f "D:\project\Z-Stack
//        3.0.2\Projects\zstack\HomeAutomation\ZEM\CC2530DB\..\..\..\Tools\CC2530DB\f8wZCL.cfg"
//        -I "D:\project\Z-Stack
//        3.0.2\Projects\zstack\HomeAutomation\ZEM\CC2530DB\" -I
//        "D:\project\Z-Stack
//        3.0.2\Projects\zstack\HomeAutomation\ZEM\CC2530DB\..\Source\" -I
//        "D:\project\Z-Stack
//        3.0.2\Projects\zstack\HomeAutomation\ZEM\CC2530DB\..\..\Source\" -I
//        "D:\project\Z-Stack
//        3.0.2\Projects\zstack\HomeAutomation\ZEM\CC2530DB\..\..\..\ZMain\TI2530DB\"
//        -I "D:\project\Z-Stack
//        3.0.2\Projects\zstack\HomeAutomation\ZEM\CC2530DB\..\..\..\..\..\Components\hal\include\"
//        -I "D:\project\Z-Stack
//        3.0.2\Projects\zstack\HomeAutomation\ZEM\CC2530DB\..\..\..\..\..\Components\hal\target\CC2530EB\"
//        -I "D:\project\Z-Stack
//        3.0.2\Projects\zstack\HomeAutomation\ZEM\CC2530DB\..\..\..\..\..\Components\mac\include\"
//        -I "D:\project\Z-Stack
//        3.0.2\Projects\zstack\HomeAutomation\ZEM\CC2530DB\..\..\..\..\..\Components\mac\high_level\"
//        -I "D:\project\Z-Stack
//        3.0.2\Projects\zstack\HomeAutomation\ZEM\CC2530DB\..\..\..\..\..\Components\mac\low_level\srf04\"
//        -I "D:\project\Z-Stack
//        3.0.2\Projects\zstack\HomeAutomation\ZEM\CC2530DB\..\..\..\..\..\Components\mac\low_level\srf04\single_chip\"
//        -I "D:\project\Z-Stack
//        3.0.2\Projects\zstack\HomeAutomation\ZEM\CC2530DB\..\..\..\..\..\Components\mt\"
//        -I "D:\project\Z-Stack
//        3.0.2\Projects\zstack\HomeAutomation\ZEM\CC2530DB\..\..\..\..\..\Components\osal\include\"
//        -I "D:\project\Z-Stack
//        3.0.2\Projects\zstack\HomeAutomation\ZEM\CC2530DB\..\..\..\..\..\Components\services\saddr\"
//        -I "D:\project\Z-Stack
//        3.0.2\Projects\zstack\HomeAutomation\ZEM\CC2530DB\..\..\..\..\..\Components\services\sdata\"
//        -I "D:\project\Z-Stack
//        3.0.2\Projects\zstack\HomeAutomation\ZEM\CC2530DB\..\..\..\..\..\Components\stack\af\"
//        -I "D:\project\Z-Stack
//        3.0.2\Projects\zstack\HomeAutomation\ZEM\CC2530DB\..\..\..\..\..\Components\stack\bdb\"
//        -I "D:\project\Z-Stack
//        3.0.2\Projects\zstack\HomeAutomation\ZEM\CC2530DB\..\..\..\..\..\Components\stack\gp\"
//        -I "D:\project\Z-Stack
//        3.0.2\Projects\zstack\HomeAutomation\ZEM\CC2530DB\..\..\..\..\..\Components\stack\nwk\"
//        -I "D:\project\Z-Stack
//        3.0.2\Projects\zstack\HomeAutomation\ZEM\CC2530DB\..\..\..\..\..\Components\stack\sapi\"
//        -I "D:\project\Z-Stack
//        3.0.2\Projects\zstack\HomeAutomation\ZEM\CC2530DB\..\..\..\..\..\Components\stack\sec\"
//        -I "D:\project\Z-Stack
//        3.0.2\Projects\zstack\HomeAutomation\ZEM\CC2530DB\..\..\..\..\..\Components\stack\sys\"
//        -I "D:\project\Z-Stack
//        3.0.2\Projects\zstack\HomeAutomation\ZEM\CC2530DB\..\..\..\..\..\Components\stack\zcl\"
//        -I "D:\project\Z-Stack
//        3.0.2\Projects\zstack\HomeAutomation\ZEM\CC2530DB\..\..\..\..\..\Components\stack\zdo\"
//        -I "D:\project\Z-Stack
//        3.0.2\Projects\zstack\HomeAutomation\ZEM\CC2530DB\..\..\..\..\..\Components\zmac\"
//        -I "D:\project\Z-Stack
//        3.0.2\Projects\zstack\HomeAutomation\ZEM\CC2530DB\..\..\..\..\..\Components\zmac\f8w\"
//        -Ohz --require_prototypes)
//    Locale             =  Chinese (Simplified)_China.936
//    List file          =  
//        D:\project\Z-Stack
//        3.0.2\Projects\zstack\HomeAutomation\ZEM\CC2530DB\EndDeviceEB\List\zcl_ZEM.s51
//
///////////////////////////////////////////////////////////////////////////////

        NAME zcl_ZEM

        RTMODEL "__SystemLibrary", "CLib"
        RTMODEL "__calling_convention", "xdata_reentrant"
        RTMODEL "__code_model", "banked"
        RTMODEL "__core", "plain"
        RTMODEL "__data_model", "large"
        RTMODEL "__dptr_size", "16"
        RTMODEL "__extended_stack", "disabled"
        RTMODEL "__location_for_constants", "data"
        RTMODEL "__number_of_dptrs", "1"
        RTMODEL "__register_banks", "*"
        RTMODEL "__rt_version", "1"

        RSEG DOVERLAY:DATA:NOROOT(0)
        RSEG IOVERLAY:IDATA:NOROOT(0)
        RSEG ISTACK:IDATA:NOROOT(0)
        RSEG PSTACK:XDATA:NOROOT(0)
        RSEG XSTACK:XDATA:NOROOT(0)

        EXTERN ?V0
        EXTERN ?V1
        EXTERN ?V2
        EXTERN ?V3
        EXTERN ?V4
        EXTERN ?V5
        EXTERN ?V6
        EXTERN ?V8
        EXTERN ?V9
        EXTERN ?V10
        EXTERN ?ALLOC_XSTACK8
        EXTERN ?BANKED_ENTER_XDATA
        EXTERN ?BANKED_LEAVE_XDATA
        EXTERN ?BDISPATCH
        EXTERN ?BRET
        EXTERN ?DEALLOC_XSTACK8
        EXTERN ?MOVE_LONG8_XDATA_XDATA
        EXTERN ?PUSH_XSTACK8_X_FOUR
        EXTERN ?PUSH_XSTACK_I_ONE
        EXTERN ?PUSH_XSTACK_I_THREE
        EXTERN ?PUSH_XSTACK_I_TWO
        EXTERN ?US_SWITCH_DENSE
        EXTERN ?XSP
        EXTERN ?XSTACK_DISP0_8
        EXTERN ?XSTACK_DISP100_8
        EXTERN ?XSTACK_DISP101_8
        EXTERN ?XSTACK_DISP102_8
        EXTERN __INIT_XDATA_I
        EXTERN __INIT_XDATA_Z

        FUNCTION `??zclSampleApp_BatteryWarningCB::?relay`,0203H
        FUNCTION `??zclZEM_AF_RxProc::?relay`,0203H
        FUNCTION `??zclZEM_BasicResetCB::?relay`,0203H
        PUBLIC `??zclZEM_Init::?relay`
        FUNCTION `??zclZEM_Init::?relay`,0203H
        FUNCTION `??zclZEM_ProcessCommissioningStatus::?relay`,0203H
        FUNCTION `??zclZEM_ProcessInDiscCmdsRspCmd::?relay`,0203H
        FUNCTION `??zclZEM_ProcessIncomingMsg::?relay`,0203H
        FUNCTION `??zclZEM_ReadAndSendMAC::?relay`,0203H
        FUNCTION `??zclZEM_SendMACToCoordinator::?relay`,0203H
        FUNCTION `??zclZEM_UartCB::?relay`,0203H
        PUBLIC `??zclZEM_event_loop::?relay`
        FUNCTION `??zclZEM_event_loop::?relay`,0203H
        PUBWEAK P1DIR
        PUBWEAK P1SEL
        PUBWEAK PERCFG
        PUBWEAK __Constant_2710
        PUBWEAK __Constant_3e8
        PUBWEAK __Constant_ea60
        PUBLIC reportableChange
        FUNCTION zclSampleApp_BatteryWarningCB,0603H
        ARGFRAME XSTACK, 0, STACK
        FUNCTION zclZEM_AF_RxProc,0a1203H
        ARGFRAME XSTACK, 192, STACK
        ARGFRAME IOVERLAY, 0, STATIC
        ARGFRAME DOVERLAY, 0, STATIC
        LOCFRAME ISTACK, 1, STACK
        LOCFRAME XSTACK, 116, STACK
        FUNCTION zclZEM_BasicResetCB,021603H
        ARGFRAME XSTACK, 0, STACK
        LOCFRAME ISTACK, 2, STACK
        PUBLIC zclZEM_Init
        FUNCTION zclZEM_Init,0a1203H
        ARGFRAME XSTACK, 0, STACK
        LOCFRAME XSTACK, 45, STACK
        PUBLIC zclZEM_NwkState
        FUNCTION zclZEM_ProcessCommissioningStatus,021603H
        ARGFRAME XSTACK, 0, STACK
        LOCFRAME ISTACK, 3, STACK
        LOCFRAME XSTACK, 100, STACK
        FUNCTION zclZEM_ProcessInDiscCmdsRspCmd,0203H
        ARGFRAME XSTACK, 9, STACK
        ARGFRAME IOVERLAY, 0, STATIC
        ARGFRAME DOVERLAY, 0, STATIC
        LOCFRAME ISTACK, 2, STACK
        FUNCTION zclZEM_ProcessIncomingMsg,021203H
        ARGFRAME XSTACK, 192, STACK
        ARGFRAME IOVERLAY, 0, STATIC
        ARGFRAME DOVERLAY, 0, STATIC
        LOCFRAME XSTACK, 9, STACK
        FUNCTION zclZEM_ReadAndSendMAC,0a1203H
        ARGFRAME XSTACK, 39, STACK
        ARGFRAME IOVERLAY, 0, STATIC
        ARGFRAME DOVERLAY, 0, STATIC
        LOCFRAME ISTACK, 1, STACK
        LOCFRAME XSTACK, 71, STACK
        FUNCTION zclZEM_SendMACToCoordinator,0a1203H
        ARGFRAME XSTACK, 192, STACK
        ARGFRAME IOVERLAY, 0, STATIC
        ARGFRAME DOVERLAY, 0, STATIC
        LOCFRAME XSTACK, 78, STACK
        PUBLIC zclZEM_TaskID
        FUNCTION zclZEM_UartCB,021603H
        ARGFRAME XSTACK, 0, STACK
        LOCFRAME XSTACK, 9, STACK
        PUBLIC zclZEM_event_loop
        FUNCTION zclZEM_event_loop,0a1203H
        ARGFRAME XSTACK, 0, STACK
        LOCFRAME ISTACK, 1, STACK
        LOCFRAME XSTACK, 201, STACK
        
          CFI Names cfiNames0
          CFI StackFrame CFA_SP SP IDATA
          CFI StackFrame CFA_PSP16 PSP16 XDATA
          CFI StackFrame CFA_XSP16 XSP16 XDATA
          CFI StaticOverlayFrame CFA_IOVERLAY IOVERLAY
          CFI StaticOverlayFrame CFA_DOVERLAY DOVERLAY
          CFI Resource `PSW.CY`:1, `B.BR0`:1, `B.BR1`:1, `B.BR2`:1, `B.BR3`:1
          CFI Resource `B.BR4`:1, `B.BR5`:1, `B.BR6`:1, `B.BR7`:1, `VB.BR8`:1
          CFI Resource `VB.BR9`:1, `VB.BR10`:1, `VB.BR11`:1, `VB.BR12`:1
          CFI Resource `VB.BR13`:1, `VB.BR14`:1, `VB.BR15`:1, VB:8, B:8, A:8
          CFI Resource PSW:8, DPL0:8, DPH0:8, R0:8, R1:8, R2:8, R3:8, R4:8, R5:8
          CFI Resource R6:8, R7:8, V0:8, V1:8, V2:8, V3:8, V4:8, V5:8, V6:8, V7:8
          CFI Resource V8:8, V9:8, V10:8, V11:8, V12:8, V13:8, V14:8, V15:8, SP:8
          CFI Resource PSPH:8, PSPL:8, PSP16:16, XSPH:8, XSPL:8, XSP16:16
          CFI VirtualResource ?RET:24
          CFI Resource ?BRET_EXT:8
          CFI VirtualResource ?RET_HIGH:8, ?RET_LOW:8
          CFI ResourceParts PSP16 PSPH, PSPL
          CFI ResourceParts XSP16 XSPH, XSPL
          CFI ResourceParts ?RET ?BRET_EXT, ?RET_HIGH, ?RET_LOW
          CFI EndNames cfiNames0
        
          CFI Common cfiCommon0 Using cfiNames0
          CFI CodeAlign 1
          CFI DataAlign -1
          CFI ReturnAddress ?RET CODE
          CFI CFA_DOVERLAY Used
          CFI CFA_IOVERLAY Used
          CFI CFA_SP SP+-3
          CFI CFA_PSP16 PSP16+0
          CFI CFA_XSP16 XSP16+0
          CFI `PSW.CY` SameValue
          CFI `B.BR0` SameValue
          CFI `B.BR1` SameValue
          CFI `B.BR2` SameValue
          CFI `B.BR3` SameValue
          CFI `B.BR4` SameValue
          CFI `B.BR5` SameValue
          CFI `B.BR6` SameValue
          CFI `B.BR7` SameValue
          CFI `VB.BR8` SameValue
          CFI `VB.BR9` SameValue
          CFI `VB.BR10` SameValue
          CFI `VB.BR11` SameValue
          CFI `VB.BR12` SameValue
          CFI `VB.BR13` SameValue
          CFI `VB.BR14` SameValue
          CFI `VB.BR15` SameValue
          CFI VB SameValue
          CFI B Undefined
          CFI A Undefined
          CFI PSW SameValue
          CFI DPL0 SameValue
          CFI DPH0 SameValue
          CFI R0 Undefined
          CFI R1 Undefined
          CFI R2 Undefined
          CFI R3 Undefined
          CFI R4 Undefined
          CFI R5 Undefined
          CFI R6 SameValue
          CFI R7 SameValue
          CFI V0 SameValue
          CFI V1 SameValue
          CFI V2 SameValue
          CFI V3 SameValue
          CFI V4 SameValue
          CFI V5 SameValue
          CFI V6 SameValue
          CFI V7 SameValue
          CFI V8 SameValue
          CFI V9 SameValue
          CFI V10 SameValue
          CFI V11 SameValue
          CFI V12 SameValue
          CFI V13 SameValue
          CFI V14 SameValue
          CFI V15 SameValue
          CFI PSPH Undefined
          CFI PSPL Undefined
          CFI XSPH Undefined
          CFI XSPL Undefined
          CFI ?RET Concat
          CFI ?BRET_EXT Frame(CFA_SP, 3)
          CFI ?RET_HIGH Frame(CFA_SP, 2)
          CFI ?RET_LOW Frame(CFA_SP, 1)
          CFI EndCommon cfiCommon0
        
        
          CFI Common cfiCommon1 Using cfiNames0
          CFI CodeAlign 1
          CFI DataAlign -1
          CFI ReturnAddress ?RET CODE
          CFI CFA_DOVERLAY Used
          CFI CFA_IOVERLAY Used
          CFI CFA_SP SP+-2
          CFI CFA_PSP16 PSP16+0
          CFI CFA_XSP16 XSP16+0
          CFI `PSW.CY` SameValue
          CFI `B.BR0` SameValue
          CFI `B.BR1` SameValue
          CFI `B.BR2` SameValue
          CFI `B.BR3` SameValue
          CFI `B.BR4` SameValue
          CFI `B.BR5` SameValue
          CFI `B.BR6` SameValue
          CFI `B.BR7` SameValue
          CFI `VB.BR8` SameValue
          CFI `VB.BR9` SameValue
          CFI `VB.BR10` SameValue
          CFI `VB.BR11` SameValue
          CFI `VB.BR12` SameValue
          CFI `VB.BR13` SameValue
          CFI `VB.BR14` SameValue
          CFI `VB.BR15` SameValue
          CFI VB SameValue
          CFI B SameValue
          CFI A SameValue
          CFI PSW SameValue
          CFI DPL0 SameValue
          CFI DPH0 SameValue
          CFI R0 SameValue
          CFI R1 SameValue
          CFI R2 SameValue
          CFI R3 SameValue
          CFI R4 SameValue
          CFI R5 SameValue
          CFI R6 SameValue
          CFI R7 SameValue
          CFI V0 SameValue
          CFI V1 SameValue
          CFI V2 SameValue
          CFI V3 SameValue
          CFI V4 SameValue
          CFI V5 SameValue
          CFI V6 SameValue
          CFI V7 SameValue
          CFI V8 SameValue
          CFI V9 SameValue
          CFI V10 SameValue
          CFI V11 SameValue
          CFI V12 SameValue
          CFI V13 SameValue
          CFI V14 SameValue
          CFI V15 SameValue
          CFI PSPH Undefined
          CFI PSPL Undefined
          CFI XSPH Undefined
          CFI XSPL Undefined
          CFI ?RET Concat
          CFI ?BRET_EXT SameValue
          CFI ?RET_HIGH Frame(CFA_SP, 2)
          CFI ?RET_LOW Frame(CFA_SP, 1)
          CFI EndCommon cfiCommon1
        
AF_DataRequest      SYMBOL "AF_DataRequest"
`??AF_DataRequest::?relay` SYMBOL "?relay", AF_DataRequest
HalLedSet           SYMBOL "HalLedSet"
`??HalLedSet::?relay` SYMBOL "?relay", HalLedSet
HalUARTOpen         SYMBOL "HalUARTOpen"
`??HalUARTOpen::?relay` SYMBOL "?relay", HalUARTOpen
HalUARTRead         SYMBOL "HalUARTRead"
`??HalUARTRead::?relay` SYMBOL "?relay", HalUARTRead
HalUARTWrite        SYMBOL "HalUARTWrite"
`??HalUARTWrite::?relay` SYMBOL "?relay", HalUARTWrite
Hal_UART_RxBufLen   SYMBOL "Hal_UART_RxBufLen"
`??Hal_UART_RxBufLen::?relay` SYMBOL "?relay", Hal_UART_RxBufLen
NLME_GetExtAddr     SYMBOL "NLME_GetExtAddr"
`??NLME_GetExtAddr::?relay` SYMBOL "?relay", NLME_GetExtAddr
NLME_PermitJoiningRequest SYMBOL "NLME_PermitJoiningRequest"
`??NLME_PermitJoiningRequest::?relay` SYMBOL "?relay", NLME_PermitJoiningRequest
RegisterForKeys     SYMBOL "RegisterForKeys"
`??RegisterForKeys::?relay` SYMBOL "?relay", RegisterForKeys
RegisterVoltageWarningCB SYMBOL "RegisterVoltageWarningCB"
`??RegisterVoltageWarningCB::?relay` SYMBOL "?relay", RegisterVoltageWarningCB
afRegister          SYMBOL "afRegister"
`??afRegister::?relay` SYMBOL "?relay", afRegister
bdb_RegisterCommissioningStatusCB SYMBOL "bdb_RegisterCommissioningStatusCB"
`??bdb_RegisterCommissioningStatusCB::?relay` SYMBOL "?relay", bdb_RegisterCommissioningStatusCB
bdb_RegisterSimpleDescriptor SYMBOL "bdb_RegisterSimpleDescriptor"
`??bdb_RegisterSimpleDescriptor::?relay` SYMBOL "?relay", bdb_RegisterSimpleDescriptor
bdb_RepAddAttrCfgRecordDefaultToList SYMBOL "bdb_RepAddAttrCfgRecordDefaultToList"
`??bdb_RepAddAttrCfgRecordDefaultToList::?relay` SYMBOL "?relay", bdb_RepAddAttrCfgRecordDefaultToList
bdb_StartCommissioning SYMBOL "bdb_StartCommissioning"
`??bdb_StartCommissioning::?relay` SYMBOL "?relay", bdb_StartCommissioning
bdb_ZedAttemptRecoverNwk SYMBOL "bdb_ZedAttemptRecoverNwk"
`??bdb_ZedAttemptRecoverNwk::?relay` SYMBOL "?relay", bdb_ZedAttemptRecoverNwk
osal_mem_free       SYMBOL "osal_mem_free"
`??osal_mem_free::?relay` SYMBOL "?relay", osal_mem_free
osal_memcpy         SYMBOL "osal_memcpy"
`??osal_memcpy::?relay` SYMBOL "?relay", osal_memcpy
osal_msg_deallocate SYMBOL "osal_msg_deallocate"
`??osal_msg_deallocate::?relay` SYMBOL "?relay", osal_msg_deallocate
osal_msg_receive    SYMBOL "osal_msg_receive"
`??osal_msg_receive::?relay` SYMBOL "?relay", osal_msg_receive
osal_start_timerEx  SYMBOL "osal_start_timerEx"
`??osal_start_timerEx::?relay` SYMBOL "?relay", osal_start_timerEx
zclGeneral_RegisterCmdCallbacks SYMBOL "zclGeneral_RegisterCmdCallbacks"
`??zclGeneral_RegisterCmdCallbacks::?relay` SYMBOL "?relay", zclGeneral_RegisterCmdCallbacks
zclZEM_ResetAttributesToDefaultValues SYMBOL "zclZEM_ResetAttributesToDefaultValues"
`??zclZEM_ResetAttributesToDefaultValues::?relay` SYMBOL "?relay", zclZEM_ResetAttributesToDefaultValues
zcl_registerAttrList SYMBOL "zcl_registerAttrList"
`??zcl_registerAttrList::?relay` SYMBOL "?relay", zcl_registerAttrList
zcl_registerForMsg  SYMBOL "zcl_registerForMsg"
`??zcl_registerForMsg::?relay` SYMBOL "?relay", zcl_registerForMsg
zclZEM_Init         SYMBOL "zclZEM_Init"
`??zclZEM_Init::?relay` SYMBOL "?relay", zclZEM_Init
zclZEM_event_loop   SYMBOL "zclZEM_event_loop"
`??zclZEM_event_loop::?relay` SYMBOL "?relay", zclZEM_event_loop

        EXTERN `??AF_DataRequest::?relay`
        FUNCTION `??AF_DataRequest::?relay`,00H
        EXTERN `??HalLedSet::?relay`
        FUNCTION `??HalLedSet::?relay`,00H
        EXTERN `??HalUARTOpen::?relay`
        FUNCTION `??HalUARTOpen::?relay`,00H
        EXTERN `??HalUARTRead::?relay`
        FUNCTION `??HalUARTRead::?relay`,00H
        EXTERN `??HalUARTWrite::?relay`
        FUNCTION `??HalUARTWrite::?relay`,00H
        EXTERN `??Hal_UART_RxBufLen::?relay`
        FUNCTION `??Hal_UART_RxBufLen::?relay`,00H
        EXTERN `??NLME_GetExtAddr::?relay`
        FUNCTION `??NLME_GetExtAddr::?relay`,00H
        EXTERN `??NLME_PermitJoiningRequest::?relay`
        FUNCTION `??NLME_PermitJoiningRequest::?relay`,00H
        EXTERN `??RegisterForKeys::?relay`
        FUNCTION `??RegisterForKeys::?relay`,00H
        EXTERN `??RegisterVoltageWarningCB::?relay`
        FUNCTION `??RegisterVoltageWarningCB::?relay`,00H
        EXTERN `??afRegister::?relay`
        FUNCTION `??afRegister::?relay`,00H
        EXTERN `??bdb_RegisterCommissioningStatusCB::?relay`
        FUNCTION `??bdb_RegisterCommissioningStatusCB::?relay`,00H
        EXTERN `??bdb_RegisterSimpleDescriptor::?relay`
        FUNCTION `??bdb_RegisterSimpleDescriptor::?relay`,00H
        EXTERN `??bdb_RepAddAttrCfgRecordDefaultToList::?relay`
        FUNCTION `??bdb_RepAddAttrCfgRecordDefaultToList::?relay`,00H
        EXTERN `??bdb_StartCommissioning::?relay`
        FUNCTION `??bdb_StartCommissioning::?relay`,00H
        EXTERN `??bdb_ZedAttemptRecoverNwk::?relay`
        FUNCTION `??bdb_ZedAttemptRecoverNwk::?relay`,00H
        EXTERN `??osal_mem_free::?relay`
        FUNCTION `??osal_mem_free::?relay`,00H
        EXTERN `??osal_memcpy::?relay`
        FUNCTION `??osal_memcpy::?relay`,00H
        EXTERN `??osal_msg_deallocate::?relay`
        FUNCTION `??osal_msg_deallocate::?relay`,00H
        EXTERN `??osal_msg_receive::?relay`
        FUNCTION `??osal_msg_receive::?relay`,00H
        EXTERN `??osal_start_timerEx::?relay`
        FUNCTION `??osal_start_timerEx::?relay`,00H
        EXTERN `??zclGeneral_RegisterCmdCallbacks::?relay`
        FUNCTION `??zclGeneral_RegisterCmdCallbacks::?relay`,00H
        EXTERN `??zclZEM_ResetAttributesToDefaultValues::?relay`
        FUNCTION `??zclZEM_ResetAttributesToDefaultValues::?relay`,00H
        EXTERN `??zcl_registerAttrList::?relay`
        FUNCTION `??zcl_registerAttrList::?relay`,00H
        EXTERN `??zcl_registerForMsg::?relay`
        FUNCTION `??zcl_registerForMsg::?relay`,00H
        EXTERN AF_DataRequest
        FUNCTION AF_DataRequest,0202H
        ARGFRAME ISTACK, 0, STACK
        ARGFRAME PSTACK, 0, STACK
        ARGFRAME XSTACK, 201, STACK
        ARGFRAME IOVERLAY, 0, STATIC
        ARGFRAME DOVERLAY, 0, STATIC
        EXTERN HalLedSet
        FUNCTION HalLedSet,0202H
        ARGFRAME ISTACK, 2, STACK
        ARGFRAME PSTACK, 0, STACK
        ARGFRAME XSTACK, 96, STACK
        ARGFRAME IOVERLAY, 0, STATIC
        ARGFRAME DOVERLAY, 0, STATIC
        EXTERN HalUARTOpen
        FUNCTION HalUARTOpen,0202H
        ARGFRAME ISTACK, 0, STACK
        ARGFRAME PSTACK, 0, STACK
        ARGFRAME XSTACK, 39, STACK
        ARGFRAME IOVERLAY, 0, STATIC
        ARGFRAME DOVERLAY, 0, STATIC
        EXTERN HalUARTRead
        FUNCTION HalUARTRead,0202H
        ARGFRAME ISTACK, 0, STACK
        ARGFRAME PSTACK, 0, STACK
        ARGFRAME XSTACK, 9, STACK
        ARGFRAME IOVERLAY, 0, STATIC
        ARGFRAME DOVERLAY, 0, STATIC
        EXTERN HalUARTWrite
        FUNCTION HalUARTWrite,0202H
        ARGFRAME ISTACK, 2, STACK
        ARGFRAME PSTACK, 0, STACK
        ARGFRAME XSTACK, 192, STACK
        ARGFRAME IOVERLAY, 0, STATIC
        ARGFRAME DOVERLAY, 0, STATIC
        EXTERN Hal_UART_RxBufLen
        FUNCTION Hal_UART_RxBufLen,0202H
        ARGFRAME ISTACK, 0, STACK
        ARGFRAME PSTACK, 0, STACK
        ARGFRAME XSTACK, 9, STACK
        ARGFRAME IOVERLAY, 0, STATIC
        ARGFRAME DOVERLAY, 0, STATIC
        EXTERN NLME_GetExtAddr
        FUNCTION NLME_GetExtAddr,0202H
        ARGFRAME ISTACK, 0, STACK
        ARGFRAME PSTACK, 0, STACK
        ARGFRAME XSTACK, 69, STACK
        ARGFRAME IOVERLAY, 0, STATIC
        ARGFRAME DOVERLAY, 0, STATIC
        EXTERN NLME_PermitJoiningRequest
        FUNCTION NLME_PermitJoiningRequest,0202H
        ARGFRAME ISTACK, 0, STACK
        ARGFRAME PSTACK, 0, STACK
        ARGFRAME XSTACK, 192, STACK
        ARGFRAME IOVERLAY, 0, STATIC
        ARGFRAME DOVERLAY, 0, STATIC
        EXTERN RegisterForKeys
        FUNCTION RegisterForKeys,0202H
        ARGFRAME ISTACK, 0, STACK
        ARGFRAME PSTACK, 0, STACK
        ARGFRAME XSTACK, 39, STACK
        ARGFRAME IOVERLAY, 0, STATIC
        ARGFRAME DOVERLAY, 0, STATIC
        EXTERN RegisterVoltageWarningCB
        FUNCTION RegisterVoltageWarningCB,0202H
        ARGFRAME ISTACK, 0, STACK
        ARGFRAME PSTACK, 0, STACK
        ARGFRAME XSTACK, 39, STACK
        ARGFRAME IOVERLAY, 0, STATIC
        ARGFRAME DOVERLAY, 0, STATIC
        EXTERN _NIB
        EXTERN afRegister
        FUNCTION afRegister,0202H
        ARGFRAME ISTACK, 0, STACK
        ARGFRAME PSTACK, 0, STACK
        ARGFRAME XSTACK, 39, STACK
        ARGFRAME IOVERLAY, 0, STATIC
        ARGFRAME DOVERLAY, 0, STATIC
        EXTERN bdb_RegisterCommissioningStatusCB
        FUNCTION bdb_RegisterCommissioningStatusCB,0202H
        ARGFRAME ISTACK, 0, STACK
        ARGFRAME PSTACK, 0, STACK
        ARGFRAME XSTACK, 39, STACK
        ARGFRAME IOVERLAY, 0, STATIC
        ARGFRAME DOVERLAY, 0, STATIC
        EXTERN bdb_RegisterSimpleDescriptor
        FUNCTION bdb_RegisterSimpleDescriptor,0202H
        ARGFRAME ISTACK, 0, STACK
        ARGFRAME PSTACK, 0, STACK
        ARGFRAME XSTACK, 39, STACK
        ARGFRAME IOVERLAY, 0, STATIC
        ARGFRAME DOVERLAY, 0, STATIC
        EXTERN bdb_RepAddAttrCfgRecordDefaultToList
        FUNCTION bdb_RepAddAttrCfgRecordDefaultToList,0202H
        ARGFRAME ISTACK, 0, STACK
        ARGFRAME PSTACK, 0, STACK
        ARGFRAME XSTACK, 45, STACK
        ARGFRAME IOVERLAY, 0, STATIC
        ARGFRAME DOVERLAY, 0, STATIC
        EXTERN bdb_StartCommissioning
        FUNCTION bdb_StartCommissioning,0202H
        ARGFRAME ISTACK, 2, STACK
        ARGFRAME PSTACK, 0, STACK
        ARGFRAME XSTACK, 192, STACK
        ARGFRAME IOVERLAY, 0, STATIC
        ARGFRAME DOVERLAY, 0, STATIC
        EXTERN bdb_ZedAttemptRecoverNwk
        FUNCTION bdb_ZedAttemptRecoverNwk,0202H
        ARGFRAME ISTACK, 0, STACK
        ARGFRAME PSTACK, 0, STACK
        ARGFRAME XSTACK, 192, STACK
        ARGFRAME IOVERLAY, 0, STATIC
        ARGFRAME DOVERLAY, 0, STATIC
        EXTERN devState
        EXTERN osal_mem_free
        FUNCTION osal_mem_free,0202H
        ARGFRAME ISTACK, 0, STACK
        ARGFRAME PSTACK, 0, STACK
        ARGFRAME XSTACK, 9, STACK
        ARGFRAME IOVERLAY, 0, STATIC
        ARGFRAME DOVERLAY, 0, STATIC
        EXTERN osal_memcpy
        FUNCTION osal_memcpy,0202H
        ARGFRAME ISTACK, 0, STACK
        ARGFRAME PSTACK, 0, STACK
        ARGFRAME XSTACK, 116, STACK
        ARGFRAME IOVERLAY, 0, STATIC
        ARGFRAME DOVERLAY, 0, STATIC
        EXTERN osal_msg_deallocate
        FUNCTION osal_msg_deallocate,0202H
        ARGFRAME ISTACK, 0, STACK
        ARGFRAME PSTACK, 0, STACK
        ARGFRAME XSTACK, 192, STACK
        ARGFRAME IOVERLAY, 0, STATIC
        ARGFRAME DOVERLAY, 0, STATIC
        EXTERN osal_msg_receive
        FUNCTION osal_msg_receive,0202H
        ARGFRAME ISTACK, 0, STACK
        ARGFRAME PSTACK, 0, STACK
        ARGFRAME XSTACK, 192, STACK
        ARGFRAME IOVERLAY, 0, STATIC
        ARGFRAME DOVERLAY, 0, STATIC
        EXTERN osal_start_timerEx
        FUNCTION osal_start_timerEx,0202H
        ARGFRAME ISTACK, 2, STACK
        ARGFRAME PSTACK, 0, STACK
        ARGFRAME XSTACK, 196, STACK
        ARGFRAME IOVERLAY, 0, STATIC
        ARGFRAME DOVERLAY, 0, STATIC
        EXTERN zclGeneral_RegisterCmdCallbacks
        FUNCTION zclGeneral_RegisterCmdCallbacks,0202H
        ARGFRAME ISTACK, 0, STACK
        ARGFRAME PSTACK, 0, STACK
        ARGFRAME XSTACK, 39, STACK
        ARGFRAME IOVERLAY, 0, STATIC
        ARGFRAME DOVERLAY, 0, STATIC
        EXTERN zclZEM_Attrs
        EXTERN zclZEM_NumAttributes
        EXTERN zclZEM_ResetAttributesToDefaultValues
        FUNCTION zclZEM_ResetAttributesToDefaultValues,0202H
        ARGFRAME ISTACK, 2, STACK
        ARGFRAME PSTACK, 0, STACK
        ARGFRAME XSTACK, 39, STACK
        ARGFRAME IOVERLAY, 0, STATIC
        ARGFRAME DOVERLAY, 0, STATIC
        EXTERN zclZEM_SimpleDesc
        EXTERN zcl_registerAttrList
        FUNCTION zcl_registerAttrList,0202H
        ARGFRAME ISTACK, 0, STACK
        ARGFRAME PSTACK, 0, STACK
        ARGFRAME XSTACK, 39, STACK
        ARGFRAME IOVERLAY, 0, STATIC
        ARGFRAME DOVERLAY, 0, STATIC
        EXTERN zcl_registerForMsg
        FUNCTION zcl_registerForMsg,0202H
        ARGFRAME ISTACK, 0, STACK
        ARGFRAME PSTACK, 0, STACK
        ARGFRAME XSTACK, 39, STACK
        ARGFRAME IOVERLAY, 0, STATIC
        ARGFRAME DOVERLAY, 0, STATIC
        EXTERN zdpExternalStateTaskID

// D:\project\Z-Stack 3.0.2\Projects\zstack\HomeAutomation\ZEM\Source\zcl_ZEM.c
//    1 /*********************************************************************
//    2  * INCLUDES
//    3  */
//    4 #include "ZComDef.h"
//    5 #include "OSAL.h"
//    6 #include "AF.h"
//    7 #include "ZDApp.h"
//    8 #include "ZDObject.h"
//    9 #include "ZDProfile.h"
//   10 #include "MT_SYS.h"
//   11 
//   12 #include "zcl.h"
//   13 #include "zcl_general.h"
//   14 #include "zcl_ha.h"
//   15 #include "zcl_ms.h"
//   16 
//   17 #include "zcl_ZEM.h"
//   18 
//   19 #include "onboard.h"

        ASEGN SFR_AN:DATA:NOROOT,0f1H
// unsigned char volatile __sfr PERCFG
PERCFG:
        DATA8
        DS 1

        ASEGN SFR_AN:DATA:NOROOT,0f4H
// unsigned char volatile __sfr P1SEL
P1SEL:
        DATA8
        DS 1

        ASEGN SFR_AN:DATA:NOROOT,0feH
// unsigned char volatile __sfr P1DIR
P1DIR:
        DATA8
        DS 1
//   20 
//   21 /* HAL */
//   22 #include "hal_lcd.h"
//   23 #include "hal_led.h"
//   24 #include "hal_key.h"
//   25 #include "hal_uart.h"
//   26 
//   27 #include "bdb_interface.h"
//   28 #include "bdb_Reporting.h"
//   29    
//   30 /*********************************************************************
//   31  * MACROS
//   32  */
//   33 
//   34 // how often to report temperature
//   35 #define ZEM_REPORT_INTERVAL   10000
//   36 
//   37 #define GUI_LOCAL_TEMP    1
//   38 
//   39 #define APP_TITLE "   Temp Sensor  "
//   40 
//   41 /*********************************************************************
//   42  * CONSTANTS
//   43  */
//   44 
//   45 /*********************************************************************
//   46  * TYPEDEFS
//   47  */
//   48 
//   49 /*********************************************************************
//   50  * GLOBAL VARIABLES
//   51  */

        RSEG XDATA_Z:XDATA:NOROOT(0)
        DATA8
//   52 byte zclZEM_TaskID;
zclZEM_TaskID:
        DS 1
        REQUIRE __INIT_XDATA_Z
//   53 
//   54 extern int16 zdpExternalStateTaskID;
//   55 
//   56 // UART Buffer

        RSEG XDATA_Z:XDATA:NOROOT(0)
        DATA8
//   57 static uint8 zclZEM_UartBuf[ZCLZEM_UART_BUF_LEN];
zclZEM_UartBuf:
        DS 64
        REQUIRE __INIT_XDATA_Z
//   58 
//   59 /*********************************************************************
//   60  * GLOBAL FUNCTIONS
//   61  */
//   62 
//   63 /*********************************************************************
//   64  * LOCAL VARIABLES
//   65  */
//   66 

        RSEG XDATA_Z:XDATA:NOROOT(0)
        DATA8
//   67 uint8 zclZEM_NwkState = 0; // DEV_INIT
zclZEM_NwkState:
        DS 1
        REQUIRE __INIT_XDATA_Z
//   68 
//   69 //static uint8 aProcessCmd[] = { 1, 0, 0, 0 }; // used for reset command, { length + cmd0 + cmd1 + data }
//   70 
//   71 // Application Endpoint for data communication

        RSEG XDATA_I:XDATA:NOROOT(0)
//   72 static endPointDesc_t ZEM_AppEp =
ZEM_AppEp:
        DATA8
        DS 7
        REQUIRE `?<Initializer for ZEM_AppEp>`
        REQUIRE __INIT_XDATA_I
//   73 {
//   74   ZEM_ENDPOINT,                       // Application endpoint
//   75   0,
//   76   &zclZEM_TaskID,
//   77   (SimpleDescriptionFormat_t *)&zclZEM_SimpleDesc,                 // Simple description for this application
//   78   (afNetworkLatencyReq_t)0            // No Network Latency req
//   79 };
//   80 #ifdef BDB_REPORTING
//   81 #if BDBREPORTING_MAX_ANALOG_ATTR_SIZE == 8
//   82   uint8 reportableChange[] = {0x2C, 0x01, 0x00, 0x00, 0x00, 0x00, 0x00, 0x00}; // 0x2C01 is 300 in int16
//   83 #endif
//   84 #if BDBREPORTING_MAX_ANALOG_ATTR_SIZE == 4

        RSEG XDATA_I:XDATA:NOROOT(0)
//   85   uint8 reportableChange[] = {0x2C, 0x01, 0x00, 0x00}; // 0x2C01 is 300 in int16
reportableChange:
        DATA32
        DS 4
        REQUIRE `?<Initializer for reportableChange>`
        REQUIRE __INIT_XDATA_I
//   86 #endif 
//   87 #if BDBREPORTING_MAX_ANALOG_ATTR_SIZE == 2
//   88   uint8 reportableChange[] = {0x2C, 0x01}; // 0x2C01 is 300 in int16
//   89 #endif 
//   90 #endif
//   91 
//   92 /*********************************************************************
//   93  * LOCAL FUNCTIONS
//   94  */
//   95 static void zclZEM_HandleKeys( byte shift, byte keys );
//   96 static void zclZEM_BasicResetCB( void );
//   97 
//   98 static void zclZEM_ProcessCommissioningStatus(bdbCommissioningModeMsg_t* bdbCommissioningModeMsg);
//   99 
//  100 // Functions to process ZCL Foundation incoming Command/Response messages
//  101 static void zclZEM_ProcessIncomingMsg( zclIncomingMsg_t *msg );
//  102 #ifdef ZCL_READ
//  103 static uint8 zclZEM_ProcessInReadRspCmd( zclIncomingMsg_t *pInMsg );
//  104 #endif
//  105 #ifdef ZCL_WRITE
//  106 static uint8 zclZEM_ProcessInWriteRspCmd( zclIncomingMsg_t *pInMsg );
//  107 #endif
//  108 static uint8 zclZEM_ProcessInDefaultRspCmd( zclIncomingMsg_t *pInMsg );
//  109 #ifdef ZCL_DISCOVER
//  110 static uint8 zclZEM_ProcessInDiscCmdsRspCmd( zclIncomingMsg_t *pInMsg );
//  111 static uint8 zclZEM_ProcessInDiscAttrsRspCmd( zclIncomingMsg_t *pInMsg );
//  112 static uint8 zclZEM_ProcessInDiscAttrsExtRspCmd( zclIncomingMsg_t *pInMsg );
//  113 #endif // ZCL_DISCOVER
//  114 
//  115 static void zclSampleApp_BatteryWarningCB( uint8 voltLevel);
//  116 
//  117 /*********************************************************************
//  118  * STATUS STRINGS
//  119  */
//  120 
//  121 /*********************************************************************
//  122  * CONSTANTS
//  123  */
//  124 
//  125 
//  126 /*********************************************************************
//  127  * ZCL General Profile Callback table
//  128  */

        RSEG XDATA_I:XDATA:NOROOT(0)
//  129 static zclGeneral_AppCallbacks_t zclZEM_CmdCallbacks =
zclZEM_CmdCallbacks:
        DATA8
        DS 18
        REQUIRE `?<Initializer for zclZEM_CmdCallbacks>`
        REQUIRE __INIT_XDATA_I
//  130 {
//  131   zclZEM_BasicResetCB,        // Basic Cluster Reset command
//  132   NULL,                                           // Identify Trigger Effect command
//  133   NULL,             				                      // On/Off cluster command
//  134   NULL,                                           // On/Off cluster enhanced command Off with Effect
//  135   NULL,                                           // On/Off cluster enhanced command On with Recall Global Scene
//  136   NULL,                                           // On/Off cluster enhanced command On with Timed Off
//  137 #ifdef ZCL_LEVEL_CTRL
//  138   NULL,                                           // Level Control Move to Level command
//  139   NULL,                                           // Level Control Move command
//  140   NULL,                                           // Level Control Step command
//  141   NULL,                                           // Level Control Stop command
//  142 #endif
//  143 #ifdef ZCL_GROUPS
//  144   NULL,                                           // Group Response commands
//  145 #endif
//  146 #ifdef ZCL_SCENES
//  147   NULL,                                           // Scene Store Request command
//  148   NULL,                                           // Scene Recall Request command
//  149   NULL,                                           // Scene Response command
//  150 #endif
//  151 #ifdef ZCL_ALARMS
//  152   NULL,                                           // Alarm (Response) commands
//  153 #endif
//  154 #ifdef SE_UK_EXT
//  155   NULL,                                           // Get Event Log command
//  156   NULL,                                           // Publish Event Log command
//  157 #endif
//  158   NULL,                                           // RSSI Location command
//  159   NULL                                            // RSSI Location Response command
//  160 };
//  161 
//  162 /*********************************************************************
//  163  * @fn          zclZEM_Init
//  164  *
//  165  * @brief       Initialization function for the zclGeneral layer.
//  166  *
//  167  * @param       none
//  168  *
//  169  * @return      none
//  170  */

        RSEG BANKED_CODE:HUGECODE:NOROOT(0)
//  171 void zclZEM_Init( byte task_id )
zclZEM_Init:
          CFI Block cfiBlock0 Using cfiCommon0
          CFI Function zclZEM_Init
        CODE
//  172 {
        FUNCALL zclZEM_Init, bdb_RegisterSimpleDescriptor
        LOCFRAME ISTACK, 0, STACK
        LOCFRAME PSTACK, 0, STACK
        LOCFRAME XSTACK, 39, STACK
        LOCFRAME IOVERLAY, 0, STATIC
        LOCFRAME DOVERLAY, 0, STATIC
        ARGFRAME ISTACK, 0, STACK
        ARGFRAME PSTACK, 0, STACK
        ARGFRAME XSTACK, 39, STACK
        ARGFRAME IOVERLAY, 0, STATIC
        ARGFRAME DOVERLAY, 0, STATIC
        FUNCALL zclZEM_Init, zclGeneral_RegisterCmdCallbacks
        LOCFRAME ISTACK, 0, STACK
        LOCFRAME PSTACK, 0, STACK
        LOCFRAME XSTACK, 39, STACK
        LOCFRAME IOVERLAY, 0, STATIC
        LOCFRAME DOVERLAY, 0, STATIC
        ARGFRAME ISTACK, 0, STACK
        ARGFRAME PSTACK, 0, STACK
        ARGFRAME XSTACK, 39, STACK
        ARGFRAME IOVERLAY, 0, STATIC
        ARGFRAME DOVERLAY, 0, STATIC
        FUNCALL zclZEM_Init, zclZEM_ResetAttributesToDefaultValues
        LOCFRAME ISTACK, 0, STACK
        LOCFRAME PSTACK, 0, STACK
        LOCFRAME XSTACK, 39, STACK
        LOCFRAME IOVERLAY, 0, STATIC
        LOCFRAME DOVERLAY, 0, STATIC
        ARGFRAME ISTACK, 0, STACK
        ARGFRAME PSTACK, 0, STACK
        ARGFRAME XSTACK, 39, STACK
        ARGFRAME IOVERLAY, 0, STATIC
        ARGFRAME DOVERLAY, 0, STATIC
        FUNCALL zclZEM_Init, zcl_registerAttrList
        LOCFRAME ISTACK, 0, STACK
        LOCFRAME PSTACK, 0, STACK
        LOCFRAME XSTACK, 39, STACK
        LOCFRAME IOVERLAY, 0, STATIC
        LOCFRAME DOVERLAY, 0, STATIC
        ARGFRAME ISTACK, 0, STACK
        ARGFRAME PSTACK, 0, STACK
        ARGFRAME XSTACK, 39, STACK
        ARGFRAME IOVERLAY, 0, STATIC
        ARGFRAME DOVERLAY, 0, STATIC
        FUNCALL zclZEM_Init, zcl_registerForMsg
        LOCFRAME ISTACK, 0, STACK
        LOCFRAME PSTACK, 0, STACK
        LOCFRAME XSTACK, 39, STACK
        LOCFRAME IOVERLAY, 0, STATIC
        LOCFRAME DOVERLAY, 0, STATIC
        ARGFRAME ISTACK, 0, STACK
        ARGFRAME PSTACK, 0, STACK
        ARGFRAME XSTACK, 39, STACK
        ARGFRAME IOVERLAY, 0, STATIC
        ARGFRAME DOVERLAY, 0, STATIC
        FUNCALL zclZEM_Init, RegisterVoltageWarningCB
        LOCFRAME ISTACK, 0, STACK
        LOCFRAME PSTACK, 0, STACK
        LOCFRAME XSTACK, 39, STACK
        LOCFRAME IOVERLAY, 0, STATIC
        LOCFRAME DOVERLAY, 0, STATIC
        ARGFRAME ISTACK, 0, STACK
        ARGFRAME PSTACK, 0, STACK
        ARGFRAME XSTACK, 39, STACK
        ARGFRAME IOVERLAY, 0, STATIC
        ARGFRAME DOVERLAY, 0, STATIC
        FUNCALL zclZEM_Init, RegisterForKeys
        LOCFRAME ISTACK, 0, STACK
        LOCFRAME PSTACK, 0, STACK
        LOCFRAME XSTACK, 39, STACK
        LOCFRAME IOVERLAY, 0, STATIC
        LOCFRAME DOVERLAY, 0, STATIC
        ARGFRAME ISTACK, 0, STACK
        ARGFRAME PSTACK, 0, STACK
        ARGFRAME XSTACK, 39, STACK
        ARGFRAME IOVERLAY, 0, STATIC
        ARGFRAME DOVERLAY, 0, STATIC
        FUNCALL zclZEM_Init, bdb_RegisterCommissioningStatusCB
        LOCFRAME ISTACK, 0, STACK
        LOCFRAME PSTACK, 0, STACK
        LOCFRAME XSTACK, 39, STACK
        LOCFRAME IOVERLAY, 0, STATIC
        LOCFRAME DOVERLAY, 0, STATIC
        ARGFRAME ISTACK, 0, STACK
        ARGFRAME PSTACK, 0, STACK
        ARGFRAME XSTACK, 39, STACK
        ARGFRAME IOVERLAY, 0, STATIC
        ARGFRAME DOVERLAY, 0, STATIC
        FUNCALL zclZEM_Init, afRegister
        LOCFRAME ISTACK, 0, STACK
        LOCFRAME PSTACK, 0, STACK
        LOCFRAME XSTACK, 39, STACK
        LOCFRAME IOVERLAY, 0, STATIC
        LOCFRAME DOVERLAY, 0, STATIC
        ARGFRAME ISTACK, 0, STACK
        ARGFRAME PSTACK, 0, STACK
        ARGFRAME XSTACK, 39, STACK
        ARGFRAME IOVERLAY, 0, STATIC
        ARGFRAME DOVERLAY, 0, STATIC
        FUNCALL zclZEM_Init, HalUARTOpen
        LOCFRAME ISTACK, 0, STACK
        LOCFRAME PSTACK, 0, STACK
        LOCFRAME XSTACK, 39, STACK
        LOCFRAME IOVERLAY, 0, STATIC
        LOCFRAME DOVERLAY, 0, STATIC
        ARGFRAME ISTACK, 0, STACK
        ARGFRAME PSTACK, 0, STACK
        ARGFRAME XSTACK, 39, STACK
        ARGFRAME IOVERLAY, 0, STATIC
        ARGFRAME DOVERLAY, 0, STATIC
        FUNCALL zclZEM_Init, bdb_StartCommissioning
        LOCFRAME ISTACK, 0, STACK
        LOCFRAME PSTACK, 0, STACK
        LOCFRAME XSTACK, 39, STACK
        LOCFRAME IOVERLAY, 0, STATIC
        LOCFRAME DOVERLAY, 0, STATIC
        ARGFRAME ISTACK, 0, STACK
        ARGFRAME PSTACK, 0, STACK
        ARGFRAME XSTACK, 39, STACK
        ARGFRAME IOVERLAY, 0, STATIC
        ARGFRAME DOVERLAY, 0, STATIC
        FUNCALL zclZEM_Init, zclZEM_ReadAndSendMAC
        LOCFRAME ISTACK, 0, STACK
        LOCFRAME PSTACK, 0, STACK
        LOCFRAME XSTACK, 39, STACK
        LOCFRAME IOVERLAY, 0, STATIC
        LOCFRAME DOVERLAY, 0, STATIC
        ARGFRAME ISTACK, 0, STACK
        ARGFRAME PSTACK, 0, STACK
        ARGFRAME XSTACK, 39, STACK
        ARGFRAME IOVERLAY, 0, STATIC
        ARGFRAME DOVERLAY, 0, STATIC
        FUNCALL zclZEM_Init, bdb_RepAddAttrCfgRecordDefaultToList
        LOCFRAME ISTACK, 0, STACK
        LOCFRAME PSTACK, 0, STACK
        LOCFRAME XSTACK, 45, STACK
        LOCFRAME IOVERLAY, 0, STATIC
        LOCFRAME DOVERLAY, 0, STATIC
        ARGFRAME ISTACK, 0, STACK
        ARGFRAME PSTACK, 0, STACK
        ARGFRAME XSTACK, 45, STACK
        ARGFRAME IOVERLAY, 0, STATIC
        ARGFRAME DOVERLAY, 0, STATIC
        FUNCALL zclZEM_Init, osal_start_timerEx
        LOCFRAME ISTACK, 0, STACK
        LOCFRAME PSTACK, 0, STACK
        LOCFRAME XSTACK, 43, STACK
        LOCFRAME IOVERLAY, 0, STATIC
        LOCFRAME DOVERLAY, 0, STATIC
        ARGFRAME ISTACK, 0, STACK
        ARGFRAME PSTACK, 0, STACK
        ARGFRAME XSTACK, 43, STACK
        ARGFRAME IOVERLAY, 0, STATIC
        ARGFRAME DOVERLAY, 0, STATIC
        REQUIRE ?V0
        REQUIRE ?V1
        MOV       A,#-0xa
        LCALL     ?BANKED_ENTER_XDATA
          CFI DPH0 load(1, XDATA, add(CFA_XSP16, literal(-1)))
          CFI DPL0 load(1, XDATA, add(CFA_XSP16, literal(-2)))
          CFI ?BRET_EXT load(1, XDATA, add(CFA_XSP16, literal(-3)))
          CFI ?RET_HIGH load(1, XDATA, add(CFA_XSP16, literal(-4)))
          CFI ?RET_LOW load(1, XDATA, add(CFA_XSP16, literal(-5)))
          CFI R7 load(1, XDATA, add(CFA_XSP16, literal(-6)))
          CFI V1 load(1, XDATA, add(CFA_XSP16, literal(-7)))
          CFI V0 load(1, XDATA, add(CFA_XSP16, literal(-8)))
          CFI VB load(1, XDATA, add(CFA_XSP16, literal(-9)))
          CFI R6 load(1, XDATA, add(CFA_XSP16, literal(-10)))
          CFI CFA_SP SP+0
          CFI CFA_XSP16 add(XSP16, 10)
        ; Saved register size: 10
        ; Auto size: 29
        MOV       A,#-0x1d
        LCALL     ?ALLOC_XSTACK8
          CFI CFA_XSP16 add(XSP16, 39)
        MOV       A,R1
//  173   zclZEM_TaskID = task_id;
        MOV       DPTR,#zclZEM_TaskID
        MOVX      @DPTR,A
//  174 
//  175   // Register the Simple Descriptor for this application
//  176   bdb_RegisterSimpleDescriptor( &zclZEM_SimpleDesc ); 
        ; Setup parameters for call to function bdb_RegisterSimpleDescriptor
        MOV       R2,#zclZEM_SimpleDesc & 0xff
        MOV       R3,#(zclZEM_SimpleDesc >> 8) & 0xff
        LCALL     `??bdb_RegisterSimpleDescriptor::?relay`; Banked call to: bdb_RegisterSimpleDescriptor
//  177   
//  178   // Register the ZCL General Cluster Library callback functions
//  179   zclGeneral_RegisterCmdCallbacks( ZEM_ENDPOINT, &zclZEM_CmdCallbacks );
        ; Setup parameters for call to function zclGeneral_RegisterCmdCallbacks
        MOV       R2,#zclZEM_CmdCallbacks & 0xff
        MOV       R3,#(zclZEM_CmdCallbacks >> 8) & 0xff
        MOV       R1,#0x8
        LCALL     `??zclGeneral_RegisterCmdCallbacks::?relay`; Banked call to: zclGeneral_RegisterCmdCallbacks
//  180 
//  181   // Register the application's attribute list
//  182   zclZEM_ResetAttributesToDefaultValues();
        ; Setup parameters for call to function zclZEM_ResetAttributesToDefaultValues
        LCALL     `??zclZEM_ResetAttributesToDefaultValues::?relay`; Banked call to: zclZEM_ResetAttributesToDefaultValues
//  183   zcl_registerAttrList( ZEM_ENDPOINT, zclZEM_NumAttributes, zclZEM_Attrs );
        ; Setup parameters for call to function zcl_registerAttrList
        MOV       R4,#zclZEM_Attrs & 0xff
        MOV       R5,#(zclZEM_Attrs >> 8) & 0xff
        MOV       DPTR,#zclZEM_NumAttributes
        CLR       A
        MOVC      A,@A+DPTR
        MOV       R2,A
        MOV       R1,#0x8
        LCALL     `??zcl_registerAttrList::?relay`; Banked call to: zcl_registerAttrList
//  184 
//  185   // Register the Application to receive the unprocessed Foundation command/response messages
//  186   zcl_registerForMsg( zclZEM_TaskID );
        ; Setup parameters for call to function zcl_registerForMsg
        MOV       DPTR,#zclZEM_TaskID
        MOVX      A,@DPTR
        MOV       R1,A
        LCALL     `??zcl_registerForMsg::?relay`; Banked call to: zcl_registerForMsg
//  187 
//  188   // Register low voltage NV memory protection application callback
//  189   RegisterVoltageWarningCB( zclSampleApp_BatteryWarningCB );
        ; Setup parameters for call to function RegisterVoltageWarningCB
        MOV       R2,#`??zclSampleApp_BatteryWarningCB::?relay` & 0xff
        MOV       R3,#(`??zclSampleApp_BatteryWarningCB::?relay` >> 8) & 0xff
        LCALL     `??RegisterVoltageWarningCB::?relay`; Banked call to: RegisterVoltageWarningCB
//  190 
//  191   // Register for all key events - This app will handle all key events
//  192   RegisterForKeys( zclZEM_TaskID );
        ; Setup parameters for call to function RegisterForKeys
        MOV       DPTR,#zclZEM_TaskID
        MOVX      A,@DPTR
        MOV       R1,A
        LCALL     `??RegisterForKeys::?relay`; Banked call to: RegisterForKeys
//  193 
//  194   bdb_RegisterCommissioningStatusCB( zclZEM_ProcessCommissioningStatus );
        ; Setup parameters for call to function bdb_RegisterCommissioningStatusCB
        MOV       R2,#`??zclZEM_ProcessCommissioningStatus::?relay` & 0xff
        MOV       R3,#(`??zclZEM_ProcessCommissioningStatus::?relay` >> 8) & 0xff
        LCALL     `??bdb_RegisterCommissioningStatusCB::?relay`; Banked call to: bdb_RegisterCommissioningStatusCB
//  195 
//  196   // Register the endpoint with AF (Application Framework)
//  197   afRegister( &ZEM_AppEp  );
        ; Setup parameters for call to function afRegister
        MOV       R2,#ZEM_AppEp & 0xff
        MOV       R3,#(ZEM_AppEp >> 8) & 0xff
        LCALL     `??afRegister::?relay`; Banked call to: afRegister
//  198   
//  199   // Initialize UART communication
//  200   zclZEM_InitUart();
        ORL       0xf1,#0x1
        ORL       0xf4,#0x30
        ORL       0xfe,#0x10
        ANL       0xfe,#0xdf
        MOV       DPL,?XSP + 0
        MOV       DPH,?XSP + 1
        MOV       A,#0x1
        MOVX      @DPTR,A
        LCALL     ?XSTACK_DISP0_8
        MOV       A,#0x4
        MOVX      @DPTR,A
        MOV       A,#0x2
        LCALL     ?XSTACK_DISP0_8
        CLR       A
        MOVX      @DPTR,A
        MOV       A,#0x3
        LCALL     ?XSTACK_DISP0_8
        CLR       A
        MOVX      @DPTR,A
        INC       DPTR
        MOVX      @DPTR,A
        MOV       A,#0xa
        LCALL     ?XSTACK_DISP0_8
        MOV       A,#0x40
        MOVX      @DPTR,A
        INC       DPTR
        CLR       A
        MOVX      @DPTR,A
        MOV       A,#0x12
        LCALL     ?XSTACK_DISP0_8
        CLR       A
        MOVX      @DPTR,A
        INC       DPTR
        MOVX      @DPTR,A
        MOV       A,#0x5
        LCALL     ?XSTACK_DISP0_8
        MOV       A,#0x6
        MOVX      @DPTR,A
        MOV       A,#0x16
        LCALL     ?XSTACK_DISP0_8
        MOV       A,#0x1
        MOVX      @DPTR,A
        MOV       A,#0x1b
        LCALL     ?XSTACK_DISP0_8
        MOV       A,#`??zclZEM_UartCB::?relay` & 0xff
        MOVX      @DPTR,A
        INC       DPTR
        MOV       A,#(`??zclZEM_UartCB::?relay` >> 8) & 0xff
        MOVX      @DPTR,A
        ; Setup parameters for call to function HalUARTOpen
        MOV       R2,?XSP + 0
        MOV       R3,?XSP + 1
        MOV       R1,#0x0
        LCALL     `??HalUARTOpen::?relay`; Banked call to: HalUARTOpen
//  201 
//  202 #ifdef ZDO_COORDINATOR
//  203   bdb_StartCommissioning( BDB_COMMISSIONING_MODE_NWK_FORMATION |
//  204                           BDB_COMMISSIONING_MODE_FINDING_BINDING );
//  205   NLME_PermitJoiningRequest(255);
//  206 
//  207 #else
//  208   bdb_StartCommissioning( BDB_COMMISSIONING_MODE_NWK_STEERING |
//  209                           BDB_COMMISSIONING_MODE_FINDING_BINDING );
        ; Setup parameters for call to function bdb_StartCommissioning
        MOV       R1,#0xa
        LCALL     `??bdb_StartCommissioning::?relay`; Banked call to: bdb_StartCommissioning
//  210 #endif
//  211   
//  212   // Read and send MAC address
//  213   zclZEM_ReadAndSendMAC();
        ; Setup parameters for call to function zclZEM_ReadAndSendMAC
        LCALL     `??zclZEM_ReadAndSendMAC::?relay`; Banked call to: zclZEM_ReadAndSendMAC
//  214 
//  215 #ifdef BDB_REPORTING
//  216   //Adds the default configuration values for the temperature attribute of the ZCL_CLUSTER_ID_MS_TEMPERATURE_MEASUREMENT cluster, for endpoint ZEM_ENDPOINT
//  217   //Default maxReportingInterval value is 10 seconds
//  218   //Default minReportingInterval value is 3 seconds
//  219   //Default reportChange value is 300 (3 degrees)
//  220   bdb_RepAddAttrCfgRecordDefaultToList(ZEM_ENDPOINT, ZCL_CLUSTER_ID_MS_TEMPERATURE_MEASUREMENT, ATTRID_MS_TEMPERATURE_MEASURED_VALUE, 0, 10, reportableChange);
        ; Setup parameters for call to function bdb_RepAddAttrCfgRecordDefaultToList
        MOV       ?V0,#reportableChange & 0xff
        MOV       ?V1,#(reportableChange >> 8) & 0xff
        MOV       R0,#?V0
        LCALL     ?PUSH_XSTACK_I_TWO
          CFI CFA_XSP16 add(XSP16, 41)
        MOV       ?V0,#0xa
        MOV       ?V1,#0x0
        MOV       R0,#?V0
        LCALL     ?PUSH_XSTACK_I_TWO
          CFI CFA_XSP16 add(XSP16, 43)
        CLR       A
        MOV       ?V0,A
        MOV       R0,#?V0
        LCALL     ?PUSH_XSTACK_I_TWO
          CFI CFA_XSP16 add(XSP16, 45)
        MOV       R4,#0x0
        MOV       R5,#0x0
        MOV       R2,#0x2
        MOV       R3,#0x4
        MOV       R1,#0x8
        LCALL     `??bdb_RepAddAttrCfgRecordDefaultToList::?relay`; Banked call to: bdb_RepAddAttrCfgRecordDefaultToList
        MOV       A,#0x6
        LCALL     ?DEALLOC_XSTACK8
          CFI CFA_XSP16 add(XSP16, 39)
//  221 #endif
//  222   
//  223   zdpExternalStateTaskID = zclZEM_TaskID;
        MOV       DPTR,#zclZEM_TaskID
        MOVX      A,@DPTR
        MOV       DPTR,#zdpExternalStateTaskID
        MOVX      @DPTR,A
        INC       DPTR
        CLR       A
        MOVX      @DPTR,A
//  224    osal_start_timerEx(
//  225       zclZEM_TaskID,
//  226       ZEMAPP_EVT,
//  227       60000);
        ; Setup parameters for call to function osal_start_timerEx
        MOV       DPTR,#__Constant_ea60
        LCALL     ?PUSH_XSTACK8_X_FOUR
          CFI CFA_XSP16 add(XSP16, 43)
        MOV       R2,#-0x80
        MOV       R3,#0x0
        MOV       DPTR,#zclZEM_TaskID
        MOVX      A,@DPTR
        MOV       R1,A
        LCALL     `??osal_start_timerEx::?relay`; Banked call to: osal_start_timerEx
        MOV       A,#0x4
        LCALL     ?DEALLOC_XSTACK8
          CFI CFA_XSP16 add(XSP16, 39)
//  228 }
        MOV       A,#0x1d
        LCALL     ?DEALLOC_XSTACK8
          CFI CFA_XSP16 add(XSP16, 10)
        MOV       R7,#0x2
        LJMP      ?BANKED_LEAVE_XDATA
          CFI EndBlock cfiBlock0
        REQUIRE PERCFG
        REQUIRE P1SEL
        REQUIRE P1DIR
//  229 
//  230 /*********************************************************************
//  231  * @fn          zclSample_event_loop
//  232  *
//  233  * @brief       Event Loop Processor for zclGeneral.
//  234  *
//  235  * @param       none
//  236  *
//  237  * @return      none
//  238  */

        RSEG BANKED_CODE:HUGECODE:NOROOT(0)
//  239 uint16 zclZEM_event_loop( uint8 task_id, uint16 events )
zclZEM_event_loop:
          CFI Block cfiBlock1 Using cfiCommon0
          CFI Function zclZEM_event_loop
        CODE
//  240 {
        FUNCALL zclZEM_event_loop, NLME_PermitJoiningRequest
        LOCFRAME ISTACK, 0, STACK
        LOCFRAME PSTACK, 0, STACK
        LOCFRAME XSTACK, 192, STACK
        LOCFRAME IOVERLAY, 0, STATIC
        LOCFRAME DOVERLAY, 0, STATIC
        ARGFRAME ISTACK, 0, STACK
        ARGFRAME PSTACK, 0, STACK
        ARGFRAME XSTACK, 192, STACK
        ARGFRAME IOVERLAY, 0, STATIC
        ARGFRAME DOVERLAY, 0, STATIC
        FUNCALL zclZEM_event_loop, osal_start_timerEx
        LOCFRAME ISTACK, 0, STACK
        LOCFRAME PSTACK, 0, STACK
        LOCFRAME XSTACK, 196, STACK
        LOCFRAME IOVERLAY, 0, STATIC
        LOCFRAME DOVERLAY, 0, STATIC
        ARGFRAME ISTACK, 0, STACK
        ARGFRAME PSTACK, 0, STACK
        ARGFRAME XSTACK, 196, STACK
        ARGFRAME IOVERLAY, 0, STATIC
        ARGFRAME DOVERLAY, 0, STATIC
        FUNCALL zclZEM_event_loop, zclZEM_AF_RxProc
        LOCFRAME ISTACK, 0, STACK
        LOCFRAME PSTACK, 0, STACK
        LOCFRAME XSTACK, 192, STACK
        LOCFRAME IOVERLAY, 0, STATIC
        LOCFRAME DOVERLAY, 0, STATIC
        ARGFRAME ISTACK, 0, STACK
        ARGFRAME PSTACK, 0, STACK
        ARGFRAME XSTACK, 192, STACK
        ARGFRAME IOVERLAY, 0, STATIC
        ARGFRAME DOVERLAY, 0, STATIC
        FUNCALL zclZEM_event_loop, osal_msg_deallocate
        LOCFRAME ISTACK, 0, STACK
        LOCFRAME PSTACK, 0, STACK
        LOCFRAME XSTACK, 192, STACK
        LOCFRAME IOVERLAY, 0, STATIC
        LOCFRAME DOVERLAY, 0, STATIC
        ARGFRAME ISTACK, 0, STACK
        ARGFRAME PSTACK, 0, STACK
        ARGFRAME XSTACK, 192, STACK
        ARGFRAME IOVERLAY, 0, STATIC
        ARGFRAME DOVERLAY, 0, STATIC
        FUNCALL zclZEM_event_loop, osal_msg_receive
        LOCFRAME ISTACK, 0, STACK
        LOCFRAME PSTACK, 0, STACK
        LOCFRAME XSTACK, 192, STACK
        LOCFRAME IOVERLAY, 0, STATIC
        LOCFRAME DOVERLAY, 0, STATIC
        ARGFRAME ISTACK, 0, STACK
        ARGFRAME PSTACK, 0, STACK
        ARGFRAME XSTACK, 192, STACK
        ARGFRAME IOVERLAY, 0, STATIC
        ARGFRAME DOVERLAY, 0, STATIC
        FUNCALL zclZEM_event_loop, HalUARTWrite
        LOCFRAME ISTACK, 0, STACK
        LOCFRAME PSTACK, 0, STACK
        LOCFRAME XSTACK, 192, STACK
        LOCFRAME IOVERLAY, 0, STATIC
        LOCFRAME DOVERLAY, 0, STATIC
        ARGFRAME ISTACK, 0, STACK
        ARGFRAME PSTACK, 0, STACK
        ARGFRAME XSTACK, 192, STACK
        ARGFRAME IOVERLAY, 0, STATIC
        ARGFRAME DOVERLAY, 0, STATIC
        FUNCALL zclZEM_event_loop, HalUARTWrite
        LOCFRAME ISTACK, 0, STACK
        LOCFRAME PSTACK, 0, STACK
        LOCFRAME XSTACK, 192, STACK
        LOCFRAME IOVERLAY, 0, STATIC
        LOCFRAME DOVERLAY, 0, STATIC
        ARGFRAME ISTACK, 0, STACK
        ARGFRAME PSTACK, 0, STACK
        ARGFRAME XSTACK, 192, STACK
        ARGFRAME IOVERLAY, 0, STATIC
        ARGFRAME DOVERLAY, 0, STATIC
        FUNCALL zclZEM_event_loop, zclZEM_ProcessIncomingMsg
        LOCFRAME ISTACK, 0, STACK
        LOCFRAME PSTACK, 0, STACK
        LOCFRAME XSTACK, 192, STACK
        LOCFRAME IOVERLAY, 0, STATIC
        LOCFRAME DOVERLAY, 0, STATIC
        ARGFRAME ISTACK, 0, STACK
        ARGFRAME PSTACK, 0, STACK
        ARGFRAME XSTACK, 192, STACK
        ARGFRAME IOVERLAY, 0, STATIC
        ARGFRAME DOVERLAY, 0, STATIC
        FUNCALL zclZEM_event_loop, bdb_ZedAttemptRecoverNwk
        LOCFRAME ISTACK, 0, STACK
        LOCFRAME PSTACK, 0, STACK
        LOCFRAME XSTACK, 192, STACK
        LOCFRAME IOVERLAY, 0, STATIC
        LOCFRAME DOVERLAY, 0, STATIC
        ARGFRAME ISTACK, 0, STACK
        ARGFRAME PSTACK, 0, STACK
        ARGFRAME XSTACK, 192, STACK
        ARGFRAME IOVERLAY, 0, STATIC
        ARGFRAME DOVERLAY, 0, STATIC
        FUNCALL zclZEM_event_loop, AF_DataRequest
        LOCFRAME ISTACK, 0, STACK
        LOCFRAME PSTACK, 0, STACK
        LOCFRAME XSTACK, 201, STACK
        LOCFRAME IOVERLAY, 0, STATIC
        LOCFRAME DOVERLAY, 0, STATIC
        ARGFRAME ISTACK, 0, STACK
        ARGFRAME PSTACK, 0, STACK
        ARGFRAME XSTACK, 201, STACK
        ARGFRAME IOVERLAY, 0, STATIC
        ARGFRAME DOVERLAY, 0, STATIC
        FUNCALL zclZEM_event_loop, HalUARTWrite
        LOCFRAME ISTACK, 0, STACK
        LOCFRAME PSTACK, 0, STACK
        LOCFRAME XSTACK, 192, STACK
        LOCFRAME IOVERLAY, 0, STATIC
        LOCFRAME DOVERLAY, 0, STATIC
        ARGFRAME ISTACK, 0, STACK
        ARGFRAME PSTACK, 0, STACK
        ARGFRAME XSTACK, 192, STACK
        ARGFRAME IOVERLAY, 0, STATIC
        ARGFRAME DOVERLAY, 0, STATIC
        FUNCALL zclZEM_event_loop, osal_start_timerEx
        LOCFRAME ISTACK, 0, STACK
        LOCFRAME PSTACK, 0, STACK
        LOCFRAME XSTACK, 196, STACK
        LOCFRAME IOVERLAY, 0, STATIC
        LOCFRAME DOVERLAY, 0, STATIC
        ARGFRAME ISTACK, 0, STACK
        ARGFRAME PSTACK, 0, STACK
        ARGFRAME XSTACK, 196, STACK
        ARGFRAME IOVERLAY, 0, STATIC
        ARGFRAME DOVERLAY, 0, STATIC
        FUNCALL zclZEM_event_loop, AF_DataRequest
        LOCFRAME ISTACK, 0, STACK
        LOCFRAME PSTACK, 0, STACK
        LOCFRAME XSTACK, 201, STACK
        LOCFRAME IOVERLAY, 0, STATIC
        LOCFRAME DOVERLAY, 0, STATIC
        ARGFRAME ISTACK, 0, STACK
        ARGFRAME PSTACK, 0, STACK
        ARGFRAME XSTACK, 201, STACK
        ARGFRAME IOVERLAY, 0, STATIC
        ARGFRAME DOVERLAY, 0, STATIC
        FUNCALL zclZEM_event_loop, osal_start_timerEx
        LOCFRAME ISTACK, 0, STACK
        LOCFRAME PSTACK, 0, STACK
        LOCFRAME XSTACK, 196, STACK
        LOCFRAME IOVERLAY, 0, STATIC
        LOCFRAME DOVERLAY, 0, STATIC
        ARGFRAME ISTACK, 0, STACK
        ARGFRAME PSTACK, 0, STACK
        ARGFRAME XSTACK, 196, STACK
        ARGFRAME IOVERLAY, 0, STATIC
        ARGFRAME DOVERLAY, 0, STATIC
        FUNCALL zclZEM_event_loop, HalUARTWrite
        LOCFRAME ISTACK, 0, STACK
        LOCFRAME PSTACK, 0, STACK
        LOCFRAME XSTACK, 192, STACK
        LOCFRAME IOVERLAY, 0, STATIC
        LOCFRAME DOVERLAY, 0, STATIC
        ARGFRAME ISTACK, 0, STACK
        ARGFRAME PSTACK, 0, STACK
        ARGFRAME XSTACK, 192, STACK
        ARGFRAME IOVERLAY, 0, STATIC
        ARGFRAME DOVERLAY, 0, STATIC
        FUNCALL zclZEM_event_loop, HalUARTWrite
        LOCFRAME ISTACK, 0, STACK
        LOCFRAME PSTACK, 0, STACK
        LOCFRAME XSTACK, 192, STACK
        LOCFRAME IOVERLAY, 0, STATIC
        LOCFRAME DOVERLAY, 0, STATIC
        ARGFRAME ISTACK, 0, STACK
        ARGFRAME PSTACK, 0, STACK
        ARGFRAME XSTACK, 192, STACK
        ARGFRAME IOVERLAY, 0, STATIC
        ARGFRAME DOVERLAY, 0, STATIC
        FUNCALL zclZEM_event_loop, zclZEM_SendMACToCoordinator
        LOCFRAME ISTACK, 0, STACK
        LOCFRAME PSTACK, 0, STACK
        LOCFRAME XSTACK, 192, STACK
        LOCFRAME IOVERLAY, 0, STATIC
        LOCFRAME DOVERLAY, 0, STATIC
        ARGFRAME ISTACK, 0, STACK
        ARGFRAME PSTACK, 0, STACK
        ARGFRAME XSTACK, 192, STACK
        ARGFRAME IOVERLAY, 0, STATIC
        ARGFRAME DOVERLAY, 0, STATIC
        FUNCALL zclZEM_event_loop, osal_start_timerEx
        LOCFRAME ISTACK, 0, STACK
        LOCFRAME PSTACK, 0, STACK
        LOCFRAME XSTACK, 196, STACK
        LOCFRAME IOVERLAY, 0, STATIC
        LOCFRAME DOVERLAY, 0, STATIC
        ARGFRAME ISTACK, 0, STACK
        ARGFRAME PSTACK, 0, STACK
        ARGFRAME XSTACK, 196, STACK
        ARGFRAME IOVERLAY, 0, STATIC
        ARGFRAME DOVERLAY, 0, STATIC
        FUNCALL zclZEM_event_loop, bdb_StartCommissioning
        LOCFRAME ISTACK, 0, STACK
        LOCFRAME PSTACK, 0, STACK
        LOCFRAME XSTACK, 192, STACK
        LOCFRAME IOVERLAY, 0, STATIC
        LOCFRAME DOVERLAY, 0, STATIC
        ARGFRAME ISTACK, 0, STACK
        ARGFRAME PSTACK, 0, STACK
        ARGFRAME XSTACK, 192, STACK
        ARGFRAME IOVERLAY, 0, STATIC
        ARGFRAME DOVERLAY, 0, STATIC
        FUNCALL zclZEM_event_loop, HalUARTWrite
        LOCFRAME ISTACK, 0, STACK
        LOCFRAME PSTACK, 0, STACK
        LOCFRAME XSTACK, 192, STACK
        LOCFRAME IOVERLAY, 0, STATIC
        LOCFRAME DOVERLAY, 0, STATIC
        ARGFRAME ISTACK, 0, STACK
        ARGFRAME PSTACK, 0, STACK
        ARGFRAME XSTACK, 192, STACK
        ARGFRAME IOVERLAY, 0, STATIC
        ARGFRAME DOVERLAY, 0, STATIC
        FUNCALL zclZEM_event_loop, bdb_StartCommissioning
        LOCFRAME ISTACK, 0, STACK
        LOCFRAME PSTACK, 0, STACK
        LOCFRAME XSTACK, 192, STACK
        LOCFRAME IOVERLAY, 0, STATIC
        LOCFRAME DOVERLAY, 0, STATIC
        ARGFRAME ISTACK, 0, STACK
        ARGFRAME PSTACK, 0, STACK
        ARGFRAME XSTACK, 192, STACK
        ARGFRAME IOVERLAY, 0, STATIC
        ARGFRAME DOVERLAY, 0, STATIC
        REQUIRE ?V0
        REQUIRE ?V1
        REQUIRE ?V2
        REQUIRE ?V3
        MOV       A,#-0xc
        LCALL     ?BANKED_ENTER_XDATA
          CFI DPH0 load(1, XDATA, add(CFA_XSP16, literal(-1)))
          CFI DPL0 load(1, XDATA, add(CFA_XSP16, literal(-2)))
          CFI ?BRET_EXT load(1, XDATA, add(CFA_XSP16, literal(-3)))
          CFI ?RET_HIGH load(1, XDATA, add(CFA_XSP16, literal(-4)))
          CFI ?RET_LOW load(1, XDATA, add(CFA_XSP16, literal(-5)))
          CFI R7 load(1, XDATA, add(CFA_XSP16, literal(-6)))
          CFI V3 load(1, XDATA, add(CFA_XSP16, literal(-7)))
          CFI V2 load(1, XDATA, add(CFA_XSP16, literal(-8)))
          CFI V1 load(1, XDATA, add(CFA_XSP16, literal(-9)))
          CFI V0 load(1, XDATA, add(CFA_XSP16, literal(-10)))
          CFI VB load(1, XDATA, add(CFA_XSP16, literal(-11)))
          CFI R6 load(1, XDATA, add(CFA_XSP16, literal(-12)))
          CFI CFA_SP SP+0
          CFI CFA_XSP16 add(XSP16, 12)
        ; Saved register size: 12
        ; Auto size: 180
        MOV       A,#0x4c
        LCALL     ?ALLOC_XSTACK8
          CFI CFA_XSP16 add(XSP16, 192)
        MOV       A,R2
        MOV       R6,A
        MOV       A,R3
        MOV       R7,A
//  241   afIncomingMSGPacket_t *MSGpkt;
//  242 
//  243   (void)task_id;  // Intentionally unreferenced parameter
//  244 
//  245   if ( events & SYS_EVENT_MSG )
        ANL       A,#0x80
        JNZ       ??zclZEM_event_loop_0
//  246   {
//  247     while ( (MSGpkt = (afIncomingMSGPacket_t *)osal_msg_receive( zclZEM_TaskID )) )
//  248     {
//  249       // 
//  250         uint8 eventTypeMsg[] = "Received event type: 0x";
//  251         HalUARTWrite(HAL_UART_PORT_0, eventTypeMsg, sizeof(eventTypeMsg)-1);
//  252         
//  253         uint8 eventStr[4];
//  254         uint8 eventByte = MSGpkt->hdr.event;
//  255         uint8 highNibble = (eventByte >> 4) & 0x0F;
//  256         uint8 lowNibble = eventByte & 0x0F;
//  257         eventStr[0] = (highNibble < 10) ? ('0' + highNibble) : ('A' + highNibble - 10);
//  258         eventStr[1] = (lowNibble < 10) ? ('0' + lowNibble) : ('A' + lowNibble - 10);
//  259         eventStr[2] = '\r';
//  260         eventStr[3] = '\n';
//  261         HalUARTWrite(0, eventStr, 4);
//  262       
//  263       switch ( MSGpkt->hdr.event )
//  264       {
//  265         case ZCL_INCOMING_MSG:
//  266           // Incoming ZCL Foundation command/response messages
//  267           zclZEM_ProcessIncomingMsg( (zclIncomingMsg_t *)MSGpkt );
//  268           break;
//  269 
//  270         case AF_INCOMING_MSG_CMD:
//  271           // Incoming AF data messages
//  272           zclZEM_AF_RxProc( MSGpkt );
//  273           break;
//  274 
//  275         case KEY_CHANGE:
//  276           zclZEM_HandleKeys( ((keyChange_t *)MSGpkt)->state, ((keyChange_t *)MSGpkt)->keys );
//  277           break;
//  278 
//  279         case ZDO_STATE_CHANGE:
//  280           break;
//  281 
//  282         default:
//  283           break;
//  284       }
//  285 
//  286       // Release the memory
//  287       osal_msg_deallocate( (uint8 *)MSGpkt );
//  288     }
//  289 
//  290     // return unprocessed events
//  291     return (events ^ SYS_EVENT_MSG);
//  292   }
//  293 
//  294   // LEDSYS_EVENT_MSG
//  295   if(events & ZEMAPP_EVT)
        MOV       A,R6
        ANL       A,#0x80
        JNZ       $+5
        LJMP      ??zclZEM_event_loop_1 & 0xFFFF
//  296   { 
//  297     // 254
//  298     NLME_PermitJoiningRequest(254);
        ; Setup parameters for call to function NLME_PermitJoiningRequest
        MOV       R1,#-0x2
        LCALL     `??NLME_PermitJoiningRequest::?relay`; Banked call to: NLME_PermitJoiningRequest
//  299     
//  300     // LED
//  301     osal_start_timerEx(zclZEM_TaskID, ZEMAPP_EVT, 10000);
        ; Setup parameters for call to function osal_start_timerEx
        MOV       DPTR,#__Constant_2710
        LCALL     ?PUSH_XSTACK8_X_FOUR
          CFI CFA_XSP16 add(XSP16, 196)
        MOV       R2,#-0x80
        MOV       R3,#0x0
        MOV       DPTR,#zclZEM_TaskID
        MOVX      A,@DPTR
        MOV       R1,A
        LCALL     `??osal_start_timerEx::?relay`; Banked call to: osal_start_timerEx
        MOV       A,#0x4
        LCALL     ?DEALLOC_XSTACK8
          CFI CFA_XSP16 add(XSP16, 192)
//  302     
//  303     return (events ^ ZEMAPP_EVT);
        MOV       A,R6
        XRL       A,#0x80
        LJMP      ??zclZEM_event_loop_2 & 0xFFFF
//  304   }
??zclZEM_event_loop_3:
        ; Setup parameters for call to function zclZEM_AF_RxProc
        MOV       R2,?V0
        MOV       R3,?V1
        LCALL     `??zclZEM_AF_RxProc::?relay`; Banked call to: zclZEM_AF_RxProc
??zclZEM_event_loop_4:
        ; Setup parameters for call to function osal_msg_deallocate
        MOV       R2,?V0
        MOV       R3,?V1
        LCALL     `??osal_msg_deallocate::?relay`; Banked call to: osal_msg_deallocate
??zclZEM_event_loop_0:
        ; Setup parameters for call to function osal_msg_receive
        MOV       DPTR,#zclZEM_TaskID
        MOVX      A,@DPTR
        MOV       R1,A
        LCALL     `??osal_msg_receive::?relay`; Banked call to: osal_msg_receive
        MOV       ?V0,R2
        MOV       ?V1,R3
        MOV       A,R2
        ORL       A,?V1
        JZ        ??zclZEM_event_loop_5
        MOV       DPTR,#`?<Constant "Received event type: 0x">`
        MOV       A,#-0x64
        LCALL     ?XSTACK_DISP102_8
        MOV       A,#0x18
        LCALL     ?MOVE_LONG8_XDATA_XDATA
        ; Setup parameters for call to function HalUARTWrite
        MOV       R4,#0x17
        MOV       R5,A
        MOV       A,#-0x64
        LCALL     ?XSTACK_DISP101_8
        MOV       R1,#0x0
        LCALL     `??HalUARTWrite::?relay`; Banked call to: HalUARTWrite
        MOV       DPL,?V0
        MOV       DPH,?V1
        LCALL     ?Subroutine8 & 0xFFFF
??CrossCallReturnLabel_8:
        JNC       ??zclZEM_event_loop_6
        MOV       A,#0x30
        SJMP      ??zclZEM_event_loop_7
??zclZEM_event_loop_6:
        MOV       A,#0x37
??zclZEM_event_loop_7:
        LCALL     ?Subroutine12 & 0xFFFF
??CrossCallReturnLabel_14:
        JNC       ??zclZEM_event_loop_8
        MOV       A,#0x30
        SJMP      ??zclZEM_event_loop_9
??zclZEM_event_loop_8:
        MOV       A,#0x37
??zclZEM_event_loop_9:
        ADD       A,R0
        MOV       R0,A
        MOV       A,#0x1
        LCALL     ?XSTACK_DISP0_8
        MOV       A,R0
        MOVX      @DPTR,A
        MOV       A,#0x2
        LCALL     ?XSTACK_DISP0_8
        MOV       A,#0xd
        MOVX      @DPTR,A
        MOV       A,#0x3
        LCALL     ?XSTACK_DISP0_8
        MOV       A,#0xa
        MOVX      @DPTR,A
        ; Setup parameters for call to function HalUARTWrite
        MOV       R4,#0x4
        MOV       R5,#0x0
        MOV       R2,?XSP + 0
        MOV       R3,?XSP + 1
        MOV       R1,#0x0
        LCALL     `??HalUARTWrite::?relay`; Banked call to: HalUARTWrite
        MOV       DPL,?V0
        MOV       DPH,?V1
        MOVX      A,@DPTR
        ADD       A,#-0x1a
        JNZ       $+5
        LJMP      ??zclZEM_event_loop_3 & 0xFFFF
        ADD       A,#-0x1a
        JZ        $+5
        LJMP      ??zclZEM_event_loop_4 & 0xFFFF
        ; Setup parameters for call to function zclZEM_ProcessIncomingMsg
        MOV       R2,?V0
        MOV       R3,?V1
        LCALL     `??zclZEM_ProcessIncomingMsg::?relay`; Banked call to: zclZEM_ProcessIncomingMsg
        LJMP      ??zclZEM_event_loop_4 & 0xFFFF
??zclZEM_event_loop_5:
        MOV       A,R6
        MOV       R2,A
        MOV       A,R7
        XRL       A,#0x80
        LJMP      ??zclZEM_event_loop_10 & 0xFFFF
//  305   
//  306 #if ZG_BUILD_ENDDEVICE_TYPE    
//  307   if ( events & ZEM_END_DEVICE_REJOIN_EVT )
??zclZEM_event_loop_1:
        MOV       A,R6
        ANL       A,#0x2
        JZ        ??zclZEM_event_loop_11
//  308   {
//  309     bdb_ZedAttemptRecoverNwk();
        ; Setup parameters for call to function bdb_ZedAttemptRecoverNwk
        LCALL     `??bdb_ZedAttemptRecoverNwk::?relay`; Banked call to: bdb_ZedAttemptRecoverNwk
//  310     return ( events ^ ZEM_END_DEVICE_REJOIN_EVT );
        MOV       A,R6
        XRL       A,#0x2
??zclZEM_event_loop_2:
        MOV       R2,A
        MOV       A,R7
        LJMP      ??zclZEM_event_loop_10 & 0xFFFF
//  311   }
//  312 #endif
//  313 
//  314   if ( events & ZEM_LCD_AUTO_UPDATE_EVT )
??zclZEM_event_loop_11:
        MOV       A,R6
        ANL       A,#0x10
        JZ        ??zclZEM_event_loop_12
//  315   {
//  316     return ( events ^ ZEM_LCD_AUTO_UPDATE_EVT );
        MOV       A,R6
        XRL       A,#0x10
        SJMP      ??zclZEM_event_loop_13
//  317   }
//  318 
//  319   if ( events & ZEM_KEY_AUTO_REPEAT_EVT )
??zclZEM_event_loop_12:
        MOV       A,R6
        ANL       A,#0x20
        JZ        ??zclZEM_event_loop_14
//  320   {
//  321     return ( events ^ ZEM_KEY_AUTO_REPEAT_EVT );
        MOV       A,R6
        XRL       A,#0x20
??zclZEM_event_loop_13:
        MOV       R2,A
        LJMP      ??zclZEM_event_loop_15 & 0xFFFF
//  322   }
//  323   
//  324   // Broadcast event
//  325   if ( events & ZEM_BROADCAST_EVT )
??zclZEM_event_loop_14:
        MOV       A,R7
        ANL       A,#0x10
        JNZ       $+5
        LJMP      ??zclZEM_event_loop_16 & 0xFFFF
//  326   {
//  327     uint8 broadcastData[] = "Broadcast";
        MOV       DPTR,#`?<Constant "Broadcast">`
        MOV       A,#0x18
        LCALL     ?XSTACK_DISP102_8
        MOV       A,#0xa
        LCALL     ?MOVE_LONG8_XDATA_XDATA
//  328     zclZEM_AF_Broadcast(CLUSTER_BROADCAST, 
//  329                         sizeof(broadcastData)-1, 
//  330                         broadcastData);
        MOV       A,#0x14
        LCALL     ?XSTACK_DISP0_8
        MOV       A,#0xf
        MOVX      @DPTR,A
        MOV       A,#0xc
        LCALL     ?XSTACK_DISP0_8
        MOV       A,#-0x1
        MOVX      @DPTR,A
        INC       DPTR
        MOVX      @DPTR,A
        MOV       A,#0x15
        LCALL     ?XSTACK_DISP0_8
        MOV       A,#0x8
        MOVX      @DPTR,A
        MOV       DPTR,#??transferId_1
        LCALL     ?Subroutine4 & 0xFFFF
??CrossCallReturnLabel_0:
        LCALL     ?PUSH_XSTACK_I_ONE
          CFI CFA_XSP16 add(XSP16, 193)
        MOV       ?V0,#??transferId_1 & 0xff
        MOV       ?V1,#(??transferId_1 >> 8) & 0xff
        MOV       R0,#?V0
        LCALL     ?PUSH_XSTACK_I_TWO
          CFI CFA_XSP16 add(XSP16, 195)
        MOV       A,#0x1b
        LCALL     ?XSTACK_DISP100_8
        MOV       ?V0,R0
        MOV       ?V1,R1
        MOV       R0,#?V0
        LCALL     ?PUSH_XSTACK_I_TWO
          CFI CFA_XSP16 add(XSP16, 197)
        MOV       ?V0,#0x9
        MOV       ?V1,#0x0
        MOV       R0,#?V0
        LCALL     ?PUSH_XSTACK_I_TWO
          CFI CFA_XSP16 add(XSP16, 199)
        MOV       ?V0,#0x1
        MOV       R0,#?V0
        LCALL     ?PUSH_XSTACK_I_TWO
          CFI CFA_XSP16 add(XSP16, 201)
        MOV       R1,#0x0
        MOV       R4,#ZEM_AppEp & 0xff
        MOV       R5,#(ZEM_AppEp >> 8) & 0xff
        MOV       A,#0x15
        LCALL     ?XSTACK_DISP101_8
        LCALL     `??AF_DataRequest::?relay`; Banked call to: AF_DataRequest
        MOV       A,#0x9
        LCALL     ?DEALLOC_XSTACK8
          CFI CFA_XSP16 add(XSP16, 192)
//  331     
//  332     // 
//  333     uint8 bcDebugMsg[] = "Broadcast message sent!\r\n";
        MOV       DPTR,#`?<Constant "Broadcast message sen...">`
        MOV       A,#-0x7e
        LCALL     ?XSTACK_DISP102_8
        MOV       A,#0x1a
        LCALL     ?MOVE_LONG8_XDATA_XDATA
//  334     HalUARTWrite(HAL_UART_PORT_0, bcDebugMsg, sizeof(bcDebugMsg)-1);
        ; Setup parameters for call to function HalUARTWrite
        MOV       R4,#0x19
        MOV       R5,A
        MOV       A,#-0x7e
        LCALL     ?XSTACK_DISP101_8
        MOV       R1,#0x0
        LCALL     `??HalUARTWrite::?relay`; Banked call to: HalUARTWrite
//  335     
//  336     osal_start_timerEx(zclZEM_TaskID,
//  337                       ZEM_BROADCAST_EVT,
//  338                       ZEM_BROADCAST_PERIOD);
        ; Setup parameters for call to function osal_start_timerEx
        MOV       DPTR,#__Constant_3e8
        LCALL     ?PUSH_XSTACK8_X_FOUR
          CFI CFA_XSP16 add(XSP16, 196)
        MOV       R2,#0x0
        MOV       R3,#0x10
        MOV       DPTR,#zclZEM_TaskID
        MOVX      A,@DPTR
        MOV       R1,A
        LCALL     `??osal_start_timerEx::?relay`; Banked call to: osal_start_timerEx
        MOV       A,#0x4
        LCALL     ?DEALLOC_XSTACK8
          CFI CFA_XSP16 add(XSP16, 192)
//  339     return ( events ^ ZEM_BROADCAST_EVT );
        MOV       A,R6
        MOV       R2,A
        MOV       A,R7
        XRL       A,#0x10
        LJMP      ??zclZEM_event_loop_10 & 0xFFFF
//  340   }
//  341   
//  342   // Groupcast event
//  343   if ( events & ZEM_GROUPCAST_EVT )
??zclZEM_event_loop_16:
        MOV       A,R7
        ANL       A,#0x8
        JNZ       $+5
        LJMP      ??zclZEM_event_loop_17 & 0xFFFF
//  344   {
//  345     uint8 groupcastData[] = "Groupcast";
        MOV       DPTR,#`?<Constant "Groupcast">`
        MOV       A,#0x18
        LCALL     ?XSTACK_DISP102_8
        MOV       A,#0xa
        LCALL     ?MOVE_LONG8_XDATA_XDATA
//  346     zclZEM_AF_Groupcast(GROUP_ID,
//  347                         CLUSTER_GROUPCAST,
//  348                         sizeof(groupcastData)-1, 
//  349                         groupcastData);
        MOV       A,#0x14
        LCALL     ?XSTACK_DISP0_8
        MOV       A,#0x1
        MOVX      @DPTR,A
        MOV       A,#0xc
        LCALL     ?XSTACK_DISP0_8
        MOV       A,#0x15
        MOVX      @DPTR,A
        INC       DPTR
        CLR       A
        MOVX      @DPTR,A
        MOV       A,#0x15
        LCALL     ?XSTACK_DISP0_8
        MOV       A,#0x8
        MOVX      @DPTR,A
        MOV       DPTR,#??transferId_2
        LCALL     ?Subroutine4 & 0xFFFF
??CrossCallReturnLabel_1:
        LCALL     ?PUSH_XSTACK_I_ONE
          CFI CFA_XSP16 add(XSP16, 193)
        MOV       ?V0,#??transferId_2 & 0xff
        MOV       ?V1,#(??transferId_2 >> 8) & 0xff
        MOV       R0,#?V0
        LCALL     ?PUSH_XSTACK_I_TWO
          CFI CFA_XSP16 add(XSP16, 195)
        MOV       A,#0x1b
        LCALL     ?XSTACK_DISP100_8
        MOV       ?V0,R0
        MOV       ?V1,R1
        MOV       R0,#?V0
        LCALL     ?PUSH_XSTACK_I_TWO
          CFI CFA_XSP16 add(XSP16, 197)
        MOV       ?V0,#0x9
        MOV       ?V1,#0x0
        MOV       R0,#?V0
        LCALL     ?PUSH_XSTACK_I_TWO
          CFI CFA_XSP16 add(XSP16, 199)
        MOV       ?V0,#0x2
        MOV       R0,#?V0
        LCALL     ?PUSH_XSTACK_I_TWO
          CFI CFA_XSP16 add(XSP16, 201)
        MOV       R1,#0x0
        MOV       R4,#ZEM_AppEp & 0xff
        MOV       R5,#(ZEM_AppEp >> 8) & 0xff
        MOV       A,#0x15
        LCALL     ?XSTACK_DISP101_8
        LCALL     `??AF_DataRequest::?relay`; Banked call to: AF_DataRequest
        MOV       A,#0x9
        LCALL     ?DEALLOC_XSTACK8
          CFI CFA_XSP16 add(XSP16, 192)
//  350     osal_start_timerEx(zclZEM_TaskID,
//  351                       ZEM_GROUPCAST_EVT,
//  352                       ZEM_GROUPCAST_PERIOD);
        ; Setup parameters for call to function osal_start_timerEx
        MOV       DPTR,#__Constant_3e8
        LCALL     ?PUSH_XSTACK8_X_FOUR
          CFI CFA_XSP16 add(XSP16, 196)
        MOV       R2,#0x0
        MOV       R3,#0x8
        MOV       DPTR,#zclZEM_TaskID
        MOVX      A,@DPTR
        MOV       R1,A
        LCALL     `??osal_start_timerEx::?relay`; Banked call to: osal_start_timerEx
        MOV       A,#0x4
        LCALL     ?DEALLOC_XSTACK8
          CFI CFA_XSP16 add(XSP16, 192)
//  353     return ( events ^ ZEM_GROUPCAST_EVT );
        MOV       A,R6
        MOV       R2,A
        MOV       A,R7
        XRL       A,#0x8
        LJMP      ??zclZEM_event_loop_10 & 0xFFFF
//  354   }
//  355   
//  356   // P2P event
//  357   if ( events & ZEM_P2P_EVT )
??zclZEM_event_loop_17:
        MOV       A,R7
        ANL       A,#0x2
        JNZ       $+5
        LJMP      ??zclZEM_event_loop_18 & 0xFFFF
//  358   {
//  359     // 
//  360     uint8 p2pDebugMsg[] = "ZEM_P2P_EVT processed! Network state: ";
        MOV       DPTR,#`?<Constant "ZEM_P2P_EVT processed...">`
        MOV       A,#0x5b
        LCALL     ?XSTACK_DISP102_8
        MOV       A,#0x27
        LCALL     ?MOVE_LONG8_XDATA_XDATA
//  361     HalUARTWrite(HAL_UART_PORT_0, p2pDebugMsg, sizeof(p2pDebugMsg)-1);
        ; Setup parameters for call to function HalUARTWrite
        MOV       R4,#0x26
        MOV       R5,A
        MOV       A,#0x5b
        LCALL     ?XSTACK_DISP101_8
        MOV       R1,#0x0
        LCALL     `??HalUARTWrite::?relay`; Banked call to: HalUARTWrite
//  362     
//  363     uint8 stateStr[8];
//  364     // 
//  365     uint8 stateByte = devState;
        MOV       DPTR,#devState
        MOVX      A,@DPTR
        LCALL     ?Subroutine11 & 0xFFFF
//  366     uint8 highNibble = (stateByte >> 4) & 0x0F;
//  367     uint8 lowNibble = stateByte & 0x0F;
//  368     stateStr[0] = (highNibble < 10) ? ('0' + highNibble) : ('A' + highNibble - 10);
??CrossCallReturnLabel_12:
        JNC       ??zclZEM_event_loop_19
        MOV       A,#0x30
        SJMP      ??zclZEM_event_loop_20
??zclZEM_event_loop_19:
        MOV       A,#0x37
??zclZEM_event_loop_20:
        ADD       A,R0
        MOV       R0,A
        MOV       A,#0x4
        LCALL     ?XSTACK_DISP0_8
        MOV       A,R0
        MOVX      @DPTR,A
//  369     stateStr[1] = (lowNibble < 10) ? ('0' + lowNibble) : ('A' + lowNibble - 10);
        MOV       A,R1
        CLR       C
        SUBB      A,#0xa
        JNC       ??zclZEM_event_loop_21
        MOV       A,#0x30
        SJMP      ??zclZEM_event_loop_22
??zclZEM_event_loop_21:
        MOV       A,#0x37
??zclZEM_event_loop_22:
        ADD       A,R1
        MOV       R0,A
        MOV       A,#0x5
        LCALL     ?XSTACK_DISP0_8
        MOV       A,R0
        MOVX      @DPTR,A
//  370     stateStr[2] = '\r';
        MOV       A,#0x6
        LCALL     ?XSTACK_DISP0_8
        MOV       A,#0xd
        MOVX      @DPTR,A
//  371     stateStr[3] = '\n';
        MOV       A,#0x7
        LCALL     ?XSTACK_DISP0_8
        MOV       A,#0xa
        MOVX      @DPTR,A
//  372     HalUARTWrite(0, stateStr, 4);
        ; Setup parameters for call to function HalUARTWrite
        MOV       R4,#0x4
        MOV       R5,#0x0
        MOV       A,R4
        LCALL     ?XSTACK_DISP101_8
        MOV       R1,#0x0
        LCALL     `??HalUARTWrite::?relay`; Banked call to: HalUARTWrite
//  373     
//  374     // P2PMAC
//  375     zclZEM_SendMACToCoordinator();
        ; Setup parameters for call to function zclZEM_SendMACToCoordinator
        LCALL     `??zclZEM_SendMACToCoordinator::?relay`; Banked call to: zclZEM_SendMACToCoordinator
//  376     
//  377     osal_start_timerEx(zclZEM_TaskID,
//  378                       ZEM_P2P_EVT,
//  379                       ZEM_P2P_PERIOD);
        ; Setup parameters for call to function osal_start_timerEx
        MOV       DPTR,#__Constant_3e8
        LCALL     ?PUSH_XSTACK8_X_FOUR
          CFI CFA_XSP16 add(XSP16, 196)
        MOV       R2,#0x0
        MOV       R3,#0x2
        MOV       DPTR,#zclZEM_TaskID
        MOVX      A,@DPTR
        MOV       R1,A
        LCALL     `??osal_start_timerEx::?relay`; Banked call to: osal_start_timerEx
        MOV       A,#0x4
        LCALL     ?DEALLOC_XSTACK8
          CFI CFA_XSP16 add(XSP16, 192)
//  380     return ( events ^ ZEM_P2P_EVT );
        MOV       A,R6
        MOV       R2,A
        MOV       A,R7
        XRL       A,#0x2
        SJMP      ??zclZEM_event_loop_10
//  381   }
//  382   
//  383   // 
//  384   if ( events & ZEM_RETRY_FORMATION_EVT )
??zclZEM_event_loop_18:
        MOV       A,R7
        ANL       A,#0x4
        JZ        ??zclZEM_event_loop_23
//  385   {
//  386     
//  387     // 
//  388     bdb_StartCommissioning(BDB_COMMISSIONING_MODE_NWK_FORMATION |
//  389                                 BDB_COMMISSIONING_MODE_FINDING_BINDING );
        ; Setup parameters for call to function bdb_StartCommissioning
        MOV       R1,#0xc
        LCALL     `??bdb_StartCommissioning::?relay`; Banked call to: bdb_StartCommissioning
//  390     return ( events ^ ZEM_RETRY_FORMATION_EVT );
        MOV       A,R6
        MOV       R2,A
        MOV       A,R7
        XRL       A,#0x4
        SJMP      ??zclZEM_event_loop_10
//  391   }
//  392   #ifndef ZDO_COORDINATOR
//  393     if ( events & ZEM_REJOIN_EVT )//
??zclZEM_event_loop_23:
        MOV       A,R7
        ANL       A,#0x1
        JZ        ??zclZEM_event_loop_24
//  394     {
//  395         // 
//  396         uint8 rejoinMsg[] = "ZEM_REJOIN_EVT processed! Starting network steering...\r\n";
        MOV       DPTR,#`?<Constant "ZEM_REJOIN_EVT proces...">`
        MOV       A,#0x22
        LCALL     ?XSTACK_DISP102_8
        MOV       A,#0x39
        LCALL     ?MOVE_LONG8_XDATA_XDATA
//  397         HalUARTWrite(HAL_UART_PORT_0, rejoinMsg, sizeof(rejoinMsg)-1);
        ; Setup parameters for call to function HalUARTWrite
        MOV       R4,#0x38
        MOV       R5,A
        MOV       A,#0x22
        LCALL     ?XSTACK_DISP101_8
        MOV       R1,#0x0
        LCALL     `??HalUARTWrite::?relay`; Banked call to: HalUARTWrite
//  398         
//  399         // 
//  400         bdb_StartCommissioning(BDB_COMMISSIONING_MODE_NWK_STEERING |
//  401                                     BDB_COMMISSIONING_MODE_FINDING_BINDING );
        ; Setup parameters for call to function bdb_StartCommissioning
        MOV       R1,#0xa
        LCALL     `??bdb_StartCommissioning::?relay`; Banked call to: bdb_StartCommissioning
//  402       return ( events ^ ZEM_REJOIN_EVT );
        MOV       A,R6
        MOV       R2,A
        MOV       A,R7
        XRL       A,#0x1
??zclZEM_event_loop_10:
        MOV       R3,A
        SJMP      ??zclZEM_event_loop_15
//  403     }
//  404   #endif
//  405 
//  406   // Discard unknown events
//  407   return 0;
??zclZEM_event_loop_24:
        MOV       R2,#0x0
        MOV       R3,#0x0
??zclZEM_event_loop_15:
        MOV       A,#-0x4c
          CFI EndBlock cfiBlock1
        REQUIRE ?Subroutine0
        ; // Fall through to label ?Subroutine0
//  408 }

        RSEG BANKED_CODE:HUGECODE:NOROOT(0)
?Subroutine0:
          CFI Block cfiBlock2 Using cfiCommon0
          CFI NoFunction
          CFI CFA_SP SP+0
          CFI CFA_XSP16 add(XSP16, 192)
          CFI VB load(1, XDATA, add(CFA_XSP16, literal(-11)))
          CFI DPL0 load(1, XDATA, add(CFA_XSP16, literal(-2)))
          CFI DPH0 load(1, XDATA, add(CFA_XSP16, literal(-1)))
          CFI R6 load(1, XDATA, add(CFA_XSP16, literal(-12)))
          CFI R7 load(1, XDATA, add(CFA_XSP16, literal(-6)))
          CFI V0 load(1, XDATA, add(CFA_XSP16, literal(-10)))
          CFI V1 load(1, XDATA, add(CFA_XSP16, literal(-9)))
          CFI V2 load(1, XDATA, add(CFA_XSP16, literal(-8)))
          CFI V3 load(1, XDATA, add(CFA_XSP16, literal(-7)))
          CFI ?BRET_EXT load(1, XDATA, add(CFA_XSP16, literal(-3)))
          CFI ?RET_HIGH load(1, XDATA, add(CFA_XSP16, literal(-4)))
          CFI ?RET_LOW load(1, XDATA, add(CFA_XSP16, literal(-5)))
          CFI Invalid
        LCALL     ?DEALLOC_XSTACK8
          CFI CFA_XSP16 add(XSP16, 12)
          CFI Valid
        MOV       R7,#0x4
        LJMP      ?BANKED_LEAVE_XDATA
          CFI EndBlock cfiBlock2
//  409 
//  410 /*********************************************************************
//  411  * @fn      zclZEM_InitUart
//  412  *
//  413  * @brief   Initialize UART for communication
//  414  *
//  415  * @param   none
//  416  *
//  417  * @return  none
//  418  */
//  419 static void zclZEM_InitUart(void)
//  420 {
//  421   // UARTP1.4/P1.5
//  422   /********** 1. UART0P1.4/P1.5PERCFG **********/
//  423   // PERCFGbit0(U0CFG)1UART0Alternative 2(P1.4/P1.5)
//  424   PERCFG |= (1 << 0);  // PERCFG |= 0x01bit0
//  425 
//  426   /********** 2. P1.4/P1.5UART0P1 **********/
//  427   // P1SELbit4(P1.4)bit5(P1.5)1(UART)
//  428   P1SEL |= (1 << 4) | (1 << 5);  // P1SEL |= 0x30(00110000)
//  429   // P1DIRbit4(P1.4=TX)1bit5(P1.5=RX)0
//  430   P1DIR |= (1 << 4);   // P1.4(TX)
//  431   P1DIR &= ~(1 << 5);  // P1.5(RX)
//  432 
//  433   halUARTCfg_t uartConfig;
//  434   /* UART Configuration */
//  435   uartConfig.configured          = TRUE;      // Enable configuration
//  436   uartConfig.baudRate            = HAL_UART_BR_115200;  // Baud rate
//  437   uartConfig.flowControl         = FALSE;     // Disable hardware flow control
//  438   uartConfig.flowControlThreshold= 0;         // Flow control threshold
//  439   uartConfig.rx.maxBufSize       = ZCLZEM_UART_BUF_LEN;  // Receive buffer size
//  440   uartConfig.tx.maxBufSize       = 0;         // Transmit buffer size
//  441   uartConfig.idleTimeout         = 6;         // Default timeout
//  442   uartConfig.intEnable           = TRUE;      // Enable interrupt
//  443   uartConfig.callBackFunc        = zclZEM_UartCB;  // Set callback function
//  444   /* Start UART */
//  445   // UART0
//  446   HalUARTOpen(HAL_UART_PORT_0, &uartConfig);  // Open UART0 with configuration
//  447 }
//  448 
//  449 

        RSEG BANKED_CODE:HUGECODE:NOROOT(0)
//  450 void zclZEM_SendMACToCoordinator(void)
zclZEM_SendMACToCoordinator:
          CFI Block cfiBlock3 Using cfiCommon0
          CFI Function zclZEM_SendMACToCoordinator
        CODE
//  451 {
        FUNCALL zclZEM_SendMACToCoordinator, NLME_GetExtAddr
        LOCFRAME ISTACK, 0, STACK
        LOCFRAME PSTACK, 0, STACK
        LOCFRAME XSTACK, 69, STACK
        LOCFRAME IOVERLAY, 0, STATIC
        LOCFRAME DOVERLAY, 0, STATIC
        ARGFRAME ISTACK, 0, STACK
        ARGFRAME PSTACK, 0, STACK
        ARGFRAME XSTACK, 69, STACK
        ARGFRAME IOVERLAY, 0, STATIC
        ARGFRAME DOVERLAY, 0, STATIC
        FUNCALL zclZEM_SendMACToCoordinator, osal_memcpy
        LOCFRAME ISTACK, 0, STACK
        LOCFRAME PSTACK, 0, STACK
        LOCFRAME XSTACK, 72, STACK
        LOCFRAME IOVERLAY, 0, STATIC
        LOCFRAME DOVERLAY, 0, STATIC
        ARGFRAME ISTACK, 0, STACK
        ARGFRAME PSTACK, 0, STACK
        ARGFRAME XSTACK, 72, STACK
        ARGFRAME IOVERLAY, 0, STATIC
        ARGFRAME DOVERLAY, 0, STATIC
        FUNCALL zclZEM_SendMACToCoordinator, AF_DataRequest
        LOCFRAME ISTACK, 0, STACK
        LOCFRAME PSTACK, 0, STACK
        LOCFRAME XSTACK, 78, STACK
        LOCFRAME IOVERLAY, 0, STATIC
        LOCFRAME DOVERLAY, 0, STATIC
        ARGFRAME ISTACK, 0, STACK
        ARGFRAME PSTACK, 0, STACK
        ARGFRAME XSTACK, 78, STACK
        ARGFRAME IOVERLAY, 0, STATIC
        ARGFRAME DOVERLAY, 0, STATIC
        FUNCALL zclZEM_SendMACToCoordinator, HalUARTWrite
        LOCFRAME ISTACK, 0, STACK
        LOCFRAME PSTACK, 0, STACK
        LOCFRAME XSTACK, 69, STACK
        LOCFRAME IOVERLAY, 0, STATIC
        LOCFRAME DOVERLAY, 0, STATIC
        ARGFRAME ISTACK, 0, STACK
        ARGFRAME PSTACK, 0, STACK
        ARGFRAME XSTACK, 69, STACK
        ARGFRAME IOVERLAY, 0, STATIC
        ARGFRAME DOVERLAY, 0, STATIC
        REQUIRE ?V0
        REQUIRE ?V1
        REQUIRE ?V2
        REQUIRE ?V3
        MOV       A,#-0xc
        LCALL     ?BANKED_ENTER_XDATA
          CFI DPH0 load(1, XDATA, add(CFA_XSP16, literal(-1)))
          CFI DPL0 load(1, XDATA, add(CFA_XSP16, literal(-2)))
          CFI ?BRET_EXT load(1, XDATA, add(CFA_XSP16, literal(-3)))
          CFI ?RET_HIGH load(1, XDATA, add(CFA_XSP16, literal(-4)))
          CFI ?RET_LOW load(1, XDATA, add(CFA_XSP16, literal(-5)))
          CFI R7 load(1, XDATA, add(CFA_XSP16, literal(-6)))
          CFI V3 load(1, XDATA, add(CFA_XSP16, literal(-7)))
          CFI V2 load(1, XDATA, add(CFA_XSP16, literal(-8)))
          CFI V1 load(1, XDATA, add(CFA_XSP16, literal(-9)))
          CFI V0 load(1, XDATA, add(CFA_XSP16, literal(-10)))
          CFI VB load(1, XDATA, add(CFA_XSP16, literal(-11)))
          CFI R6 load(1, XDATA, add(CFA_XSP16, literal(-12)))
          CFI CFA_SP SP+0
          CFI CFA_XSP16 add(XSP16, 12)
        ; Saved register size: 12
        ; Auto size: 57
        MOV       A,#-0x39
        LCALL     ?ALLOC_XSTACK8
          CFI CFA_XSP16 add(XSP16, 69)
//  452   uint8* macAddr;
//  453   uint8 macData[10]; // MAC1 + 8MAC + 1
//  454   
//  455   // MAC
//  456   macAddr = NLME_GetExtAddr();
        ; Setup parameters for call to function NLME_GetExtAddr
        LCALL     `??NLME_GetExtAddr::?relay`; Banked call to: NLME_GetExtAddr
        MOV       ?V0,R2
        MOV       ?V1,R3
//  457   
//  458   // 
//  459   macData[0] = 0x01; // MAC
        MOV       DPL,?XSP + 0
        MOV       DPH,?XSP + 1
        MOV       A,#0x1
        MOVX      @DPTR,A
//  460   osal_memcpy(&macData[1], macAddr, 8); // MAC
        ; Setup parameters for call to function osal_memcpy
        MOV       ?V2,#0x0
        MOV       R0,#?V0
        LCALL     ?PUSH_XSTACK_I_THREE
          CFI CFA_XSP16 add(XSP16, 72)
        MOV       R4,#0x8
        MOV       R5,#0x0
        MOV       A,#0x4
        LCALL     ?XSTACK_DISP0_8
        MOV       R2,DPL
        MOV       R3,DPH
        LCALL     `??osal_memcpy::?relay`; Banked call to: osal_memcpy
        MOV       A,#0x3
        LCALL     ?DEALLOC_XSTACK8
          CFI CFA_XSP16 add(XSP16, 69)
//  461   macData[9] = 0x00; // 
        MOV       A,#0x9
        LCALL     ?XSTACK_DISP0_8
        CLR       A
        MOVX      @DPTR,A
//  462   
//  463   // 0x0000
//  464   zclZEM_AF_P2P(0x0000, // 
//  465                 CLUSTER_P2P, // 
//  466                 10, // 
//  467                 macData); // 
        MOV       A,#0x12
        LCALL     ?XSTACK_DISP0_8
        MOV       A,#0x2
        MOVX      @DPTR,A
        MOV       A,#0xa
        LCALL     ?XSTACK_DISP0_8
        CLR       A
        MOVX      @DPTR,A
        INC       DPTR
        MOVX      @DPTR,A
        MOV       A,#0x13
        LCALL     ?XSTACK_DISP0_8
        MOV       A,#0x8
        MOVX      @DPTR,A
        MOV       DPTR,#??transferId
        LCALL     ?Subroutine4 & 0xFFFF
??CrossCallReturnLabel_2:
        LCALL     ?PUSH_XSTACK_I_ONE
          CFI CFA_XSP16 add(XSP16, 70)
        MOV       ?V0,#??transferId & 0xff
        MOV       ?V1,#(??transferId >> 8) & 0xff
        MOV       R0,#?V0
        LCALL     ?PUSH_XSTACK_I_TWO
          CFI CFA_XSP16 add(XSP16, 72)
        MOV       A,#0x3
        LCALL     ?XSTACK_DISP100_8
        MOV       ?V0,R0
        MOV       ?V1,R1
        MOV       R0,#?V0
        LCALL     ?PUSH_XSTACK_I_TWO
          CFI CFA_XSP16 add(XSP16, 74)
        MOV       ?V0,#0xa
        MOV       ?V1,#0x0
        MOV       R0,#?V0
        LCALL     ?PUSH_XSTACK_I_TWO
          CFI CFA_XSP16 add(XSP16, 76)
        CLR       A
        MOV       ?V0,A
        MOV       R0,#?V0
        LCALL     ?PUSH_XSTACK_I_TWO
          CFI CFA_XSP16 add(XSP16, 78)
        MOV       R1,#0x0
        MOV       R4,#ZEM_AppEp & 0xff
        MOV       R5,#(ZEM_AppEp >> 8) & 0xff
        MOV       A,#0x13
        LCALL     ?XSTACK_DISP101_8
        LCALL     `??AF_DataRequest::?relay`; Banked call to: AF_DataRequest
        MOV       A,#0x9
        LCALL     ?DEALLOC_XSTACK8
          CFI CFA_XSP16 add(XSP16, 69)
//  468   
//  469   // 
//  470   uint8 sendMsg[] = "MAC address sent to coordinator!\r\n";
        MOV       DPTR,#`?<Constant "MAC address sent to c...">`
        MOV       A,#0x16
        LCALL     ?XSTACK_DISP102_8
        MOV       A,#0x23
        LCALL     ?MOVE_LONG8_XDATA_XDATA
//  471   HalUARTWrite(HAL_UART_PORT_0, sendMsg, sizeof(sendMsg)-1);
        ; Setup parameters for call to function HalUARTWrite
        MOV       R4,#0x22
        MOV       R5,A
        MOV       A,#0x16
        LCALL     ?XSTACK_DISP101_8
        MOV       R1,#0x0
        LCALL     `??HalUARTWrite::?relay`; Banked call to: HalUARTWrite
//  472 }
        MOV       A,#0x39
        LJMP      ?Subroutine0 & 0xFFFF
          CFI EndBlock cfiBlock3

        RSEG BANKED_CODE:HUGECODE:NOROOT(0)
?Subroutine4:
          CFI Block cfiCond4 Using cfiCommon0
          CFI Function zclZEM_event_loop
          CFI Conditional ??CrossCallReturnLabel_0
          CFI R6 load(1, XDATA, add(CFA_XSP16, literal(-12)))
          CFI VB load(1, XDATA, add(CFA_XSP16, literal(-11)))
          CFI V0 load(1, XDATA, add(CFA_XSP16, literal(-10)))
          CFI V1 load(1, XDATA, add(CFA_XSP16, literal(-9)))
          CFI V2 load(1, XDATA, add(CFA_XSP16, literal(-8)))
          CFI V3 load(1, XDATA, add(CFA_XSP16, literal(-7)))
          CFI R7 load(1, XDATA, add(CFA_XSP16, literal(-6)))
          CFI ?RET_LOW load(1, XDATA, add(CFA_XSP16, literal(-5)))
          CFI ?RET_HIGH load(1, XDATA, add(CFA_XSP16, literal(-4)))
          CFI ?BRET_EXT load(1, XDATA, add(CFA_XSP16, literal(-3)))
          CFI DPL0 load(1, XDATA, add(CFA_XSP16, literal(-2)))
          CFI DPH0 load(1, XDATA, add(CFA_XSP16, literal(-1)))
          CFI CFA_SP SP+-2
          CFI CFA_XSP16 add(XSP16, 192)
          CFI Block cfiCond5 Using cfiCommon0
          CFI (cfiCond5) Function zclZEM_event_loop
          CFI (cfiCond5) Conditional ??CrossCallReturnLabel_1
          CFI (cfiCond5) R6 load(1, XDATA, add(CFA_XSP16, literal(-12)))
          CFI (cfiCond5) VB load(1, XDATA, add(CFA_XSP16, literal(-11)))
          CFI (cfiCond5) V0 load(1, XDATA, add(CFA_XSP16, literal(-10)))
          CFI (cfiCond5) V1 load(1, XDATA, add(CFA_XSP16, literal(-9)))
          CFI (cfiCond5) V2 load(1, XDATA, add(CFA_XSP16, literal(-8)))
          CFI (cfiCond5) V3 load(1, XDATA, add(CFA_XSP16, literal(-7)))
          CFI (cfiCond5) R7 load(1, XDATA, add(CFA_XSP16, literal(-6)))
          CFI (cfiCond5) ?RET_LOW load(1, XDATA, add(CFA_XSP16, literal(-5)))
          CFI (cfiCond5) ?RET_HIGH load(1, XDATA, add(CFA_XSP16, literal(-4)))
          CFI (cfiCond5) ?BRET_EXT load(1, XDATA, add(CFA_XSP16, literal(-3)))
          CFI (cfiCond5) DPL0 load(1, XDATA, add(CFA_XSP16, literal(-2)))
          CFI (cfiCond5) DPH0 load(1, XDATA, add(CFA_XSP16, literal(-1)))
          CFI (cfiCond5) CFA_SP SP+-2
          CFI (cfiCond5) CFA_XSP16 add(XSP16, 192)
          CFI Block cfiCond6 Using cfiCommon0
          CFI (cfiCond6) Function zclZEM_SendMACToCoordinator
          CFI (cfiCond6) Conditional ??CrossCallReturnLabel_2
          CFI (cfiCond6) R6 load(1, XDATA, add(CFA_XSP16, literal(-12)))
          CFI (cfiCond6) VB load(1, XDATA, add(CFA_XSP16, literal(-11)))
          CFI (cfiCond6) V0 load(1, XDATA, add(CFA_XSP16, literal(-10)))
          CFI (cfiCond6) V1 load(1, XDATA, add(CFA_XSP16, literal(-9)))
          CFI (cfiCond6) V2 load(1, XDATA, add(CFA_XSP16, literal(-8)))
          CFI (cfiCond6) V3 load(1, XDATA, add(CFA_XSP16, literal(-7)))
          CFI (cfiCond6) R7 load(1, XDATA, add(CFA_XSP16, literal(-6)))
          CFI (cfiCond6) ?RET_LOW load(1, XDATA, add(CFA_XSP16, literal(-5)))
          CFI (cfiCond6) ?RET_HIGH load(1, XDATA, add(CFA_XSP16, literal(-4)))
          CFI (cfiCond6) ?BRET_EXT load(1, XDATA, add(CFA_XSP16, literal(-3)))
          CFI (cfiCond6) DPL0 load(1, XDATA, add(CFA_XSP16, literal(-2)))
          CFI (cfiCond6) DPH0 load(1, XDATA, add(CFA_XSP16, literal(-1)))
          CFI (cfiCond6) CFA_SP SP+-2
          CFI (cfiCond6) CFA_XSP16 add(XSP16, 69)
          CFI Block cfiPicker7 Using cfiCommon1
          CFI (cfiPicker7) NoFunction
          CFI (cfiPicker7) Picker
        MOVX      A,@DPTR
        INC       A
        MOVX      @DPTR,A
        ; Setup parameters for call to function AF_DataRequest
        ; Setup parameters for call to function AF_DataRequest
        ; Setup parameters for call to function AF_DataRequest
        MOV       ?V0,#0x1e
        MOV       R0,#?V0
        RET
          CFI EndBlock cfiCond4
          CFI EndBlock cfiCond5
          CFI EndBlock cfiCond6
          CFI EndBlock cfiPicker7
//  473 
//  474 /*********************************************************************
//  475  * @fn      zclZEM_ReadAndSendMAC
//  476  *
//  477  * @brief   Read MAC address and send it via UART
//  478  *
//  479  */

        RSEG BANKED_CODE:HUGECODE:NOROOT(0)
//  480 void zclZEM_ReadAndSendMAC(void)
zclZEM_ReadAndSendMAC:
          CFI Block cfiBlock8 Using cfiCommon0
          CFI Function zclZEM_ReadAndSendMAC
        CODE
//  481 {
        FUNCALL zclZEM_ReadAndSendMAC, NLME_GetExtAddr
        LOCFRAME ISTACK, 0, STACK
        LOCFRAME PSTACK, 0, STACK
        LOCFRAME XSTACK, 68, STACK
        LOCFRAME IOVERLAY, 0, STATIC
        LOCFRAME DOVERLAY, 0, STATIC
        ARGFRAME ISTACK, 0, STACK
        ARGFRAME PSTACK, 0, STACK
        ARGFRAME XSTACK, 68, STACK
        ARGFRAME IOVERLAY, 0, STATIC
        ARGFRAME DOVERLAY, 0, STATIC
        FUNCALL zclZEM_ReadAndSendMAC, osal_memcpy
        LOCFRAME ISTACK, 0, STACK
        LOCFRAME PSTACK, 0, STACK
        LOCFRAME XSTACK, 71, STACK
        LOCFRAME IOVERLAY, 0, STATIC
        LOCFRAME DOVERLAY, 0, STATIC
        ARGFRAME ISTACK, 0, STACK
        ARGFRAME PSTACK, 0, STACK
        ARGFRAME XSTACK, 71, STACK
        ARGFRAME IOVERLAY, 0, STATIC
        ARGFRAME DOVERLAY, 0, STATIC
        FUNCALL zclZEM_ReadAndSendMAC, HalUARTWrite
        LOCFRAME ISTACK, 0, STACK
        LOCFRAME PSTACK, 0, STACK
        LOCFRAME XSTACK, 68, STACK
        LOCFRAME IOVERLAY, 0, STATIC
        LOCFRAME DOVERLAY, 0, STATIC
        ARGFRAME ISTACK, 0, STACK
        ARGFRAME PSTACK, 0, STACK
        ARGFRAME XSTACK, 68, STACK
        ARGFRAME IOVERLAY, 0, STATIC
        ARGFRAME DOVERLAY, 0, STATIC
        REQUIRE ?V0
        REQUIRE ?V1
        REQUIRE ?V2
        REQUIRE ?V3
        MOV       A,#-0xc
        LCALL     ?BANKED_ENTER_XDATA
          CFI DPH0 load(1, XDATA, add(CFA_XSP16, literal(-1)))
          CFI DPL0 load(1, XDATA, add(CFA_XSP16, literal(-2)))
          CFI ?BRET_EXT load(1, XDATA, add(CFA_XSP16, literal(-3)))
          CFI ?RET_HIGH load(1, XDATA, add(CFA_XSP16, literal(-4)))
          CFI ?RET_LOW load(1, XDATA, add(CFA_XSP16, literal(-5)))
          CFI R7 load(1, XDATA, add(CFA_XSP16, literal(-6)))
          CFI V3 load(1, XDATA, add(CFA_XSP16, literal(-7)))
          CFI V2 load(1, XDATA, add(CFA_XSP16, literal(-8)))
          CFI V1 load(1, XDATA, add(CFA_XSP16, literal(-9)))
          CFI V0 load(1, XDATA, add(CFA_XSP16, literal(-10)))
          CFI VB load(1, XDATA, add(CFA_XSP16, literal(-11)))
          CFI R6 load(1, XDATA, add(CFA_XSP16, literal(-12)))
          CFI CFA_SP SP+0
          CFI CFA_XSP16 add(XSP16, 12)
        ; Saved register size: 12
        ; Auto size: 56
        MOV       A,#-0x38
        LCALL     ?ALLOC_XSTACK8
          CFI CFA_XSP16 add(XSP16, 68)
//  482   uint8* macAddr;
//  483   uint8 macStr[50]; // MAC
//  484   uint8 i, pos = 0;
//  485   
//  486   // Read MAC address from system
//  487   macAddr = NLME_GetExtAddr();
        ; Setup parameters for call to function NLME_GetExtAddr
        LCALL     `??NLME_GetExtAddr::?relay`; Banked call to: NLME_GetExtAddr
        MOV       ?V0,R2
        MOV       ?V1,R3
        MOV       R6,?V0
        MOV       R7,?V1
//  488   
//  489   // MAC
//  490   const uint8 header[] = "MAC: ";
        MOV       DPTR,#`?<Constant "MAC: ">`
        MOV       R4,?XSP + 0
        MOV       R5,?XSP + 1
        MOV       A,#0x6
        LCALL     ?MOVE_LONG8_XDATA_XDATA
//  491   osal_memcpy(macStr, header, 4);
        ; Setup parameters for call to function osal_memcpy
        MOV       R0,?XSP + 0
        MOV       R1,?XSP + 1
        MOV       ?V0,R0
        MOV       ?V1,R1
        MOV       ?V2,A
        MOV       R0,#?V0
        LCALL     ?PUSH_XSTACK_I_THREE
          CFI CFA_XSP16 add(XSP16, 71)
        MOV       R4,#0x4
        MOV       R5,#0x0
        MOV       A,#0x9
        LCALL     ?XSTACK_DISP101_8
        LCALL     `??osal_memcpy::?relay`; Banked call to: osal_memcpy
        MOV       A,#0x3
        LCALL     ?DEALLOC_XSTACK8
          CFI CFA_XSP16 add(XSP16, 68)
//  492   pos = 4;
        MOV       R0,#0x4
//  493   
//  494   // MAC
//  495   for (i = 0; i < 8; i++) {
        MOV       R4,#0x0
//  496     // 4
//  497     uint8 highNibble = (macAddr[i] >> 4) & 0x0F;
??zclZEM_ReadAndSendMAC_0:
        MOV       A,R4
        MOV       R2,A
        MOV       A,R6
        ADD       A,R2
        MOV       R2,A
        CLR       A
        ADDC      A,R7
        MOV       R3,A
        MOV       DPL,R2
        MOV       DPH,R3
        MOVX      A,@DPTR
        SWAP      A
        ANL       A,#0xf
        MOV       R1,A
//  498     macStr[pos++] = (highNibble < 10) ? ('0' + highNibble) : ('A' + highNibble - 10);
        MOV       ?V0,R0
        MOV       A,#0x1
        ADD       A,R0
        MOV       R0,A
        MOV       A,R1
        CLR       C
        SUBB      A,#0xa
        JNC       ??zclZEM_ReadAndSendMAC_1
        MOV       A,#0x30
        SJMP      ??zclZEM_ReadAndSendMAC_2
??zclZEM_ReadAndSendMAC_1:
        MOV       A,#0x37
??zclZEM_ReadAndSendMAC_2:
        ADD       A,R1
        PUSH      A
          CFI CFA_SP SP+-1
        MOV       A,?V0
        MOV       ?V2,A
        MOV       A,#0x6
        LCALL     ?XSTACK_DISP0_8
        MOV       A,DPL
        ADD       A,?V2
        MOV       DPL,A
        CLR       A
        ADDC      A,DPH
        MOV       DPH,A
        POP       A
          CFI CFA_SP SP+0
        MOVX      @DPTR,A
//  499     
//  500     // 4
//  501     uint8 lowNibble = macAddr[i] & 0x0F;
        MOV       DPL,R2
        MOV       DPH,R3
        MOVX      A,@DPTR
        ANL       A,#0xf
        MOV       R1,A
//  502     macStr[pos++] = (lowNibble < 10) ? ('0' + lowNibble) : ('A' + lowNibble - 10);
        MOV       ?V1,R0
        MOV       A,#0x1
        ADD       A,R0
        MOV       R0,A
        MOV       A,R1
        CLR       C
        SUBB      A,#0xa
        JNC       ??zclZEM_ReadAndSendMAC_3
        MOV       A,#0x30
        SJMP      ??zclZEM_ReadAndSendMAC_4
??zclZEM_ReadAndSendMAC_3:
        MOV       A,#0x37
??zclZEM_ReadAndSendMAC_4:
        ADD       A,R1
        MOV       R1,A
        MOV       R2,?V1
        MOV       A,#0x6
        LCALL     ?XSTACK_DISP0_8
        LCALL     ?Subroutine15 & 0xFFFF
??CrossCallReturnLabel_20:
        MOV       A,R1
        MOVX      @DPTR,A
//  503     
//  504     // 
//  505     if (i < 7) {
        MOV       A,R4
        CLR       C
        SUBB      A,#0x7
        JNC       ??zclZEM_ReadAndSendMAC_5
//  506       macStr[pos++] = ':';
        MOV       A,#0x6
        LCALL     ?XSTACK_DISP0_8
        LCALL     ?Subroutine14 & 0xFFFF
//  507     }
//  508   }
??CrossCallReturnLabel_18:
        MOV       A,#0x3a
        MOVX      @DPTR,A
        INC       R0
??zclZEM_ReadAndSendMAC_5:
        INC       R4
        MOV       A,R4
        CLR       C
        SUBB      A,#0x8
        JC        ??zclZEM_ReadAndSendMAC_0
//  509   
//  510   // 
//  511   macStr[pos++] = '\r';
        MOV       A,R0
        MOV       R2,A
        MOV       A,#0x6
        LCALL     ?XSTACK_DISP0_8
        LCALL     ?Subroutine15 & 0xFFFF
??CrossCallReturnLabel_21:
        MOV       A,#0xd
        MOVX      @DPTR,A
        INC       R0
//  512   macStr[pos++] = '\n';
        MOV       A,#0x6
        LCALL     ?XSTACK_DISP0_8
        LCALL     ?Subroutine14 & 0xFFFF
??CrossCallReturnLabel_19:
        MOV       A,#0xa
        MOVX      @DPTR,A
//  513   
//  514   // Send MAC address via UART
//  515   // UART0
//  516   HalUARTWrite(HAL_UART_PORT_0, macStr, pos);
        ; Setup parameters for call to function HalUARTWrite
        MOV       A,#0x1
        ADD       A,R0
        MOV       R4,A
        MOV       R5,#0x0
        MOV       A,#0x6
        LCALL     ?XSTACK_DISP101_8
        MOV       R1,#0x0
        LCALL     `??HalUARTWrite::?relay`; Banked call to: HalUARTWrite
//  517 }
        MOV       A,#0x38
        LJMP      ?Subroutine0 & 0xFFFF
          CFI EndBlock cfiBlock8

        RSEG BANKED_CODE:HUGECODE:NOROOT(0)
?Subroutine15:
          CFI Block cfiCond9 Using cfiCommon0
          CFI Function zclZEM_ReadAndSendMAC
          CFI Conditional ??CrossCallReturnLabel_20
          CFI R6 load(1, XDATA, add(CFA_XSP16, literal(-12)))
          CFI VB load(1, XDATA, add(CFA_XSP16, literal(-11)))
          CFI V0 load(1, XDATA, add(CFA_XSP16, literal(-10)))
          CFI V1 load(1, XDATA, add(CFA_XSP16, literal(-9)))
          CFI V2 load(1, XDATA, add(CFA_XSP16, literal(-8)))
          CFI V3 load(1, XDATA, add(CFA_XSP16, literal(-7)))
          CFI R7 load(1, XDATA, add(CFA_XSP16, literal(-6)))
          CFI ?RET_LOW load(1, XDATA, add(CFA_XSP16, literal(-5)))
          CFI ?RET_HIGH load(1, XDATA, add(CFA_XSP16, literal(-4)))
          CFI ?BRET_EXT load(1, XDATA, add(CFA_XSP16, literal(-3)))
          CFI DPL0 load(1, XDATA, add(CFA_XSP16, literal(-2)))
          CFI DPH0 load(1, XDATA, add(CFA_XSP16, literal(-1)))
          CFI CFA_SP SP+-2
          CFI CFA_XSP16 add(XSP16, 68)
          CFI Block cfiCond10 Using cfiCommon0
          CFI (cfiCond10) Function zclZEM_ReadAndSendMAC
          CFI (cfiCond10) Conditional ??CrossCallReturnLabel_21
          CFI (cfiCond10) R6 load(1, XDATA, add(CFA_XSP16, literal(-12)))
          CFI (cfiCond10) VB load(1, XDATA, add(CFA_XSP16, literal(-11)))
          CFI (cfiCond10) V0 load(1, XDATA, add(CFA_XSP16, literal(-10)))
          CFI (cfiCond10) V1 load(1, XDATA, add(CFA_XSP16, literal(-9)))
          CFI (cfiCond10) V2 load(1, XDATA, add(CFA_XSP16, literal(-8)))
          CFI (cfiCond10) V3 load(1, XDATA, add(CFA_XSP16, literal(-7)))
          CFI (cfiCond10) R7 load(1, XDATA, add(CFA_XSP16, literal(-6)))
          CFI (cfiCond10) ?RET_LOW load(1, XDATA, add(CFA_XSP16, literal(-5)))
          CFI (cfiCond10) ?RET_HIGH load(1, XDATA, add(CFA_XSP16, literal(-4)))
          CFI (cfiCond10) ?BRET_EXT load(1, XDATA, add(CFA_XSP16, literal(-3)))
          CFI (cfiCond10) DPL0 load(1, XDATA, add(CFA_XSP16, literal(-2)))
          CFI (cfiCond10) DPH0 load(1, XDATA, add(CFA_XSP16, literal(-1)))
          CFI (cfiCond10) CFA_SP SP+-2
          CFI (cfiCond10) CFA_XSP16 add(XSP16, 68)
          CFI Block cfiPicker11 Using cfiCommon1
          CFI (cfiPicker11) NoFunction
          CFI (cfiPicker11) Picker
        MOV       A,DPL
        ADD       A,R2
        MOV       DPL,A
        CLR       A
        ADDC      A,DPH
        MOV       DPH,A
        RET
          CFI EndBlock cfiCond9
          CFI EndBlock cfiCond10
          CFI EndBlock cfiPicker11

        RSEG BANKED_CODE:HUGECODE:NOROOT(0)
?Subroutine14:
          CFI Block cfiCond12 Using cfiCommon0
          CFI Function zclZEM_ReadAndSendMAC
          CFI Conditional ??CrossCallReturnLabel_18
          CFI R6 load(1, XDATA, add(CFA_XSP16, literal(-12)))
          CFI VB load(1, XDATA, add(CFA_XSP16, literal(-11)))
          CFI V0 load(1, XDATA, add(CFA_XSP16, literal(-10)))
          CFI V1 load(1, XDATA, add(CFA_XSP16, literal(-9)))
          CFI V2 load(1, XDATA, add(CFA_XSP16, literal(-8)))
          CFI V3 load(1, XDATA, add(CFA_XSP16, literal(-7)))
          CFI R7 load(1, XDATA, add(CFA_XSP16, literal(-6)))
          CFI ?RET_LOW load(1, XDATA, add(CFA_XSP16, literal(-5)))
          CFI ?RET_HIGH load(1, XDATA, add(CFA_XSP16, literal(-4)))
          CFI ?BRET_EXT load(1, XDATA, add(CFA_XSP16, literal(-3)))
          CFI DPL0 load(1, XDATA, add(CFA_XSP16, literal(-2)))
          CFI DPH0 load(1, XDATA, add(CFA_XSP16, literal(-1)))
          CFI CFA_SP SP+-2
          CFI CFA_XSP16 add(XSP16, 68)
          CFI Block cfiCond13 Using cfiCommon0
          CFI (cfiCond13) Function zclZEM_ReadAndSendMAC
          CFI (cfiCond13) Conditional ??CrossCallReturnLabel_19
          CFI (cfiCond13) R6 load(1, XDATA, add(CFA_XSP16, literal(-12)))
          CFI (cfiCond13) VB load(1, XDATA, add(CFA_XSP16, literal(-11)))
          CFI (cfiCond13) V0 load(1, XDATA, add(CFA_XSP16, literal(-10)))
          CFI (cfiCond13) V1 load(1, XDATA, add(CFA_XSP16, literal(-9)))
          CFI (cfiCond13) V2 load(1, XDATA, add(CFA_XSP16, literal(-8)))
          CFI (cfiCond13) V3 load(1, XDATA, add(CFA_XSP16, literal(-7)))
          CFI (cfiCond13) R7 load(1, XDATA, add(CFA_XSP16, literal(-6)))
          CFI (cfiCond13) ?RET_LOW load(1, XDATA, add(CFA_XSP16, literal(-5)))
          CFI (cfiCond13) ?RET_HIGH load(1, XDATA, add(CFA_XSP16, literal(-4)))
          CFI (cfiCond13) ?BRET_EXT load(1, XDATA, add(CFA_XSP16, literal(-3)))
          CFI (cfiCond13) DPL0 load(1, XDATA, add(CFA_XSP16, literal(-2)))
          CFI (cfiCond13) DPH0 load(1, XDATA, add(CFA_XSP16, literal(-1)))
          CFI (cfiCond13) CFA_SP SP+-2
          CFI (cfiCond13) CFA_XSP16 add(XSP16, 68)
          CFI Block cfiPicker14 Using cfiCommon1
          CFI (cfiPicker14) NoFunction
          CFI (cfiPicker14) Picker
        MOV       A,DPL
        ADD       A,R0
        MOV       DPL,A
        CLR       A
        ADDC      A,DPH
        MOV       DPH,A
        RET
          CFI EndBlock cfiCond12
          CFI EndBlock cfiCond13
          CFI EndBlock cfiPicker14
//  518 
//  519 /*********************************************************************
//  520  * @fn      zclZEM_UartCB
//  521  *
//  522  * @brief   UART callback function
//  523  *
//  524  * @param   port - UART port
//  525  * @param   event - UART event
//  526  *
//  527  * @return  none
//  528  */

        RSEG BANKED_CODE:HUGECODE:NOROOT(0)
//  529 static void zclZEM_UartCB(uint8 port, uint8 event)
zclZEM_UartCB:
          CFI Block cfiBlock15 Using cfiCommon0
          CFI Function zclZEM_UartCB
        CODE
//  530 {
        FUNCALL zclZEM_UartCB, Hal_UART_RxBufLen
        LOCFRAME ISTACK, 0, STACK
        LOCFRAME PSTACK, 0, STACK
        LOCFRAME XSTACK, 9, STACK
        LOCFRAME IOVERLAY, 0, STATIC
        LOCFRAME DOVERLAY, 0, STATIC
        ARGFRAME ISTACK, 0, STACK
        ARGFRAME PSTACK, 0, STACK
        ARGFRAME XSTACK, 9, STACK
        ARGFRAME IOVERLAY, 0, STATIC
        ARGFRAME DOVERLAY, 0, STATIC
        FUNCALL zclZEM_UartCB, HalUARTRead
        LOCFRAME ISTACK, 0, STACK
        LOCFRAME PSTACK, 0, STACK
        LOCFRAME XSTACK, 9, STACK
        LOCFRAME IOVERLAY, 0, STATIC
        LOCFRAME DOVERLAY, 0, STATIC
        ARGFRAME ISTACK, 0, STACK
        ARGFRAME PSTACK, 0, STACK
        ARGFRAME XSTACK, 9, STACK
        ARGFRAME IOVERLAY, 0, STATIC
        ARGFRAME DOVERLAY, 0, STATIC
        FUNCALL zclZEM_UartCB, HalUARTWrite
        LOCFRAME ISTACK, 0, STACK
        LOCFRAME PSTACK, 0, STACK
        LOCFRAME XSTACK, 9, STACK
        LOCFRAME IOVERLAY, 0, STATIC
        LOCFRAME DOVERLAY, 0, STATIC
        ARGFRAME ISTACK, 0, STACK
        ARGFRAME PSTACK, 0, STACK
        ARGFRAME XSTACK, 9, STACK
        ARGFRAME IOVERLAY, 0, STATIC
        ARGFRAME DOVERLAY, 0, STATIC
        MOV       A,#-0x9
        LCALL     ?BANKED_ENTER_XDATA
          CFI DPH0 load(1, XDATA, add(CFA_XSP16, literal(-1)))
          CFI DPL0 load(1, XDATA, add(CFA_XSP16, literal(-2)))
          CFI ?BRET_EXT load(1, XDATA, add(CFA_XSP16, literal(-3)))
          CFI ?RET_HIGH load(1, XDATA, add(CFA_XSP16, literal(-4)))
          CFI ?RET_LOW load(1, XDATA, add(CFA_XSP16, literal(-5)))
          CFI R7 load(1, XDATA, add(CFA_XSP16, literal(-6)))
          CFI V0 load(1, XDATA, add(CFA_XSP16, literal(-7)))
          CFI VB load(1, XDATA, add(CFA_XSP16, literal(-8)))
          CFI R6 load(1, XDATA, add(CFA_XSP16, literal(-9)))
          CFI CFA_SP SP+0
          CFI CFA_XSP16 add(XSP16, 9)
        ; Saved register size: 9
        ; Auto size: 0
//  531   // 
//  532   uint8 rxLen = Hal_UART_RxBufLen(HAL_UART_PORT_0); 
        ; Setup parameters for call to function Hal_UART_RxBufLen
        MOV       R1,#0x0
        LCALL     `??Hal_UART_RxBufLen::?relay`; Banked call to: Hal_UART_RxBufLen
        MOV       A,R2
//  533   if(rxLen != 0) // 0 
        JZ        ??zclZEM_UartCB_0
//  534   {
//  535     // 
//  536     HalUARTRead(HAL_UART_PORT_0, zclZEM_UartBuf, rxLen);
        MOV       R6,A
        ; Setup parameters for call to function HalUARTRead
        MOV       R4,A
        MOV       R5,#0x0
        MOV       R2,#zclZEM_UartBuf & 0xff
        MOV       R3,#(zclZEM_UartBuf >> 8) & 0xff
        MOV       R1,#0x0
        LCALL     `??HalUARTRead::?relay`; Banked call to: HalUARTRead
//  537     // 
//  538     HalUARTWrite(HAL_UART_PORT_0, zclZEM_UartBuf, rxLen);  
        ; Setup parameters for call to function HalUARTWrite
        MOV       A,R6
        MOV       R4,A
        MOV       R5,#0x0
        MOV       R2,#zclZEM_UartBuf & 0xff
        MOV       R3,#(zclZEM_UartBuf >> 8) & 0xff
        MOV       R1,#0x0
        LCALL     `??HalUARTWrite::?relay`; Banked call to: HalUARTWrite
//  539   }
//  540 }
??zclZEM_UartCB_0:
          CFI EndBlock cfiBlock15
        REQUIRE ?Subroutine1
        ; // Fall through to label ?Subroutine1

        RSEG BANKED_CODE:HUGECODE:NOROOT(0)
?Subroutine1:
          CFI Block cfiBlock16 Using cfiCommon0
          CFI NoFunction
          CFI CFA_SP SP+0
          CFI CFA_XSP16 add(XSP16, 9)
          CFI VB load(1, XDATA, add(CFA_XSP16, literal(-8)))
          CFI DPL0 load(1, XDATA, add(CFA_XSP16, literal(-2)))
          CFI DPH0 load(1, XDATA, add(CFA_XSP16, literal(-1)))
          CFI R6 load(1, XDATA, add(CFA_XSP16, literal(-9)))
          CFI R7 load(1, XDATA, add(CFA_XSP16, literal(-6)))
          CFI V0 load(1, XDATA, add(CFA_XSP16, literal(-7)))
          CFI ?BRET_EXT load(1, XDATA, add(CFA_XSP16, literal(-3)))
          CFI ?RET_HIGH load(1, XDATA, add(CFA_XSP16, literal(-4)))
          CFI ?RET_LOW load(1, XDATA, add(CFA_XSP16, literal(-5)))
        MOV       R7,#0x1
        LJMP      ?BANKED_LEAVE_XDATA
          CFI EndBlock cfiBlock16
//  541 
//  542 /*********************************************************************
//  543  * @fn      zclZEM_HandleKeys
//  544  *
//  545  * @brief   Handles all key events for this device.
//  546  *
//  547  * @param   shift - true if in shift/alt.
//  548  * @param   keys - bit field for key events. Valid entries:
//  549  *                 HAL_KEY_SW_5
//  550  *                 HAL_KEY_SW_4
//  551  *                 HAL_KEY_SW_3
//  552  *                 HAL_KEY_SW_2
//  553  *                 HAL_KEY_SW_1
//  554  *
//  555  * @return  none
//  556  */
//  557 static void zclZEM_HandleKeys( byte shift, byte keys )
//  558 {
//  559 }
//  560 
//  561 /*********************************************************************
//  562  * @fn      zclZEM_LcdDisplayMainMode
//  563  *
//  564  * @brief   Called to display the main screen on the LCD.
//  565  *
//  566  * @param   none
//  567  *
//  568  * @return  none
//  569  */

        RSEG BANKED_CODE:HUGECODE:NOROOT(0)
//  570 static void zclZEM_ProcessCommissioningStatus(bdbCommissioningModeMsg_t* bdbCommissioningModeMsg)
zclZEM_ProcessCommissioningStatus:
          CFI Block cfiBlock17 Using cfiCommon0
          CFI Function zclZEM_ProcessCommissioningStatus
        CODE
//  571 {
        FUNCALL zclZEM_ProcessCommissioningStatus, bdb_StartCommissioning
        LOCFRAME ISTACK, 2, STACK
        LOCFRAME PSTACK, 0, STACK
        LOCFRAME XSTACK, 96, STACK
        LOCFRAME IOVERLAY, 0, STATIC
        LOCFRAME DOVERLAY, 0, STATIC
        ARGFRAME ISTACK, 2, STACK
        ARGFRAME PSTACK, 0, STACK
        ARGFRAME XSTACK, 96, STACK
        ARGFRAME IOVERLAY, 0, STATIC
        ARGFRAME DOVERLAY, 0, STATIC
        FUNCALL zclZEM_ProcessCommissioningStatus, HalUARTWrite
        LOCFRAME ISTACK, 2, STACK
        LOCFRAME PSTACK, 0, STACK
        LOCFRAME XSTACK, 96, STACK
        LOCFRAME IOVERLAY, 0, STATIC
        LOCFRAME DOVERLAY, 0, STATIC
        ARGFRAME ISTACK, 2, STACK
        ARGFRAME PSTACK, 0, STACK
        ARGFRAME XSTACK, 96, STACK
        ARGFRAME IOVERLAY, 0, STATIC
        ARGFRAME DOVERLAY, 0, STATIC
        FUNCALL zclZEM_ProcessCommissioningStatus, HalUARTWrite
        LOCFRAME ISTACK, 2, STACK
        LOCFRAME PSTACK, 0, STACK
        LOCFRAME XSTACK, 96, STACK
        LOCFRAME IOVERLAY, 0, STATIC
        LOCFRAME DOVERLAY, 0, STATIC
        ARGFRAME ISTACK, 2, STACK
        ARGFRAME PSTACK, 0, STACK
        ARGFRAME XSTACK, 96, STACK
        ARGFRAME IOVERLAY, 0, STATIC
        ARGFRAME DOVERLAY, 0, STATIC
        FUNCALL zclZEM_ProcessCommissioningStatus, zclZEM_SendMACToCoordinator
        LOCFRAME ISTACK, 2, STACK
        LOCFRAME PSTACK, 0, STACK
        LOCFRAME XSTACK, 96, STACK
        LOCFRAME IOVERLAY, 0, STATIC
        LOCFRAME DOVERLAY, 0, STATIC
        ARGFRAME ISTACK, 2, STACK
        ARGFRAME PSTACK, 0, STACK
        ARGFRAME XSTACK, 96, STACK
        ARGFRAME IOVERLAY, 0, STATIC
        ARGFRAME DOVERLAY, 0, STATIC
        FUNCALL zclZEM_ProcessCommissioningStatus, osal_start_timerEx
        LOCFRAME ISTACK, 2, STACK
        LOCFRAME PSTACK, 0, STACK
        LOCFRAME XSTACK, 100, STACK
        LOCFRAME IOVERLAY, 0, STATIC
        LOCFRAME DOVERLAY, 0, STATIC
        ARGFRAME ISTACK, 2, STACK
        ARGFRAME PSTACK, 0, STACK
        ARGFRAME XSTACK, 100, STACK
        ARGFRAME IOVERLAY, 0, STATIC
        ARGFRAME DOVERLAY, 0, STATIC
        FUNCALL zclZEM_ProcessCommissioningStatus, HalLedSet
        LOCFRAME ISTACK, 2, STACK
        LOCFRAME PSTACK, 0, STACK
        LOCFRAME XSTACK, 96, STACK
        LOCFRAME IOVERLAY, 0, STATIC
        LOCFRAME DOVERLAY, 0, STATIC
        ARGFRAME ISTACK, 2, STACK
        ARGFRAME PSTACK, 0, STACK
        ARGFRAME XSTACK, 96, STACK
        ARGFRAME IOVERLAY, 0, STATIC
        ARGFRAME DOVERLAY, 0, STATIC
        FUNCALL zclZEM_ProcessCommissioningStatus, HalUARTWrite
        LOCFRAME ISTACK, 2, STACK
        LOCFRAME PSTACK, 0, STACK
        LOCFRAME XSTACK, 96, STACK
        LOCFRAME IOVERLAY, 0, STATIC
        LOCFRAME DOVERLAY, 0, STATIC
        ARGFRAME ISTACK, 2, STACK
        ARGFRAME PSTACK, 0, STACK
        ARGFRAME XSTACK, 96, STACK
        ARGFRAME IOVERLAY, 0, STATIC
        ARGFRAME DOVERLAY, 0, STATIC
        FUNCALL zclZEM_ProcessCommissioningStatus, osal_start_timerEx
        LOCFRAME ISTACK, 2, STACK
        LOCFRAME PSTACK, 0, STACK
        LOCFRAME XSTACK, 100, STACK
        LOCFRAME IOVERLAY, 0, STATIC
        LOCFRAME DOVERLAY, 0, STATIC
        ARGFRAME ISTACK, 2, STACK
        ARGFRAME PSTACK, 0, STACK
        ARGFRAME XSTACK, 100, STACK
        ARGFRAME IOVERLAY, 0, STATIC
        ARGFRAME DOVERLAY, 0, STATIC
        FUNCALL zclZEM_ProcessCommissioningStatus, osal_start_timerEx
        LOCFRAME ISTACK, 2, STACK
        LOCFRAME PSTACK, 0, STACK
        LOCFRAME XSTACK, 100, STACK
        LOCFRAME IOVERLAY, 0, STATIC
        LOCFRAME DOVERLAY, 0, STATIC
        ARGFRAME ISTACK, 2, STACK
        ARGFRAME PSTACK, 0, STACK
        ARGFRAME XSTACK, 100, STACK
        ARGFRAME IOVERLAY, 0, STATIC
        ARGFRAME DOVERLAY, 0, STATIC
        PUSH      DPL
          CFI DPL0 Frame(CFA_SP, 4)
          CFI CFA_SP SP+-4
        PUSH      DPH
          CFI DPH0 Frame(CFA_SP, 5)
          CFI CFA_SP SP+-5
        ; Saved register size: 2
        ; Auto size: 96
        MOV       A,#-0x60
        LCALL     ?ALLOC_XSTACK8
          CFI CFA_XSP16 add(XSP16, 96)
//  572     switch(bdbCommissioningModeMsg->bdbCommissioningMode)
        MOV       DPL,R2
        MOV       DPH,R3
        INC       DPTR
        MOVX      A,@DPTR
        DEC       A
        JZ        ??zclZEM_ProcessCommissioningStatus_0
        DEC       A
        JZ        ??zclZEM_ProcessCommissioningStatus_1
        ADD       A,#-0x3
        JNZ       $+5
        LJMP      ??zclZEM_ProcessCommissioningStatus_2 & 0xFFFF
        LJMP      ??zclZEM_ProcessCommissioningStatus_3 & 0xFFFF
//  573     {
//  574       case BDB_COMMISSIONING_FORMATION:
//  575         if(bdbCommissioningModeMsg->bdbCommissioningStatus == BDB_COMMISSIONING_SUCCESS)
??zclZEM_ProcessCommissioningStatus_1:
        MOV       DPL,R2
        MOV       DPH,R3
        MOVX      A,@DPTR
        JZ        $+5
        LJMP      ??zclZEM_ProcessCommissioningStatus_3 & 0xFFFF
//  576         {
//  577           //After formation, perform nwk steering again plus the remaining commissioning modes that has not been process yet
//  578           bdb_StartCommissioning(BDB_COMMISSIONING_MODE_NWK_STEERING | bdbCommissioningModeMsg->bdbRemainingCommissioningModes);
        ; Setup parameters for call to function bdb_StartCommissioning
        INC       DPTR
        INC       DPTR
        MOVX      A,@DPTR
        ORL       A,#0x2
        MOV       R1,A
        LCALL     `??bdb_StartCommissioning::?relay`; Banked call to: bdb_StartCommissioning
        LJMP      ??zclZEM_ProcessCommissioningStatus_3 & 0xFFFF
//  579           // 
//  580           #ifdef ZDO_COORDINATOR
//  581           uint8 successMsg[] = "Network formation successful! PANID: ";
//  582           HalUARTWrite(HAL_UART_PORT_0, successMsg, sizeof(successMsg)-1);
//  583           
//  584           // PANID
//  585           uint8 panidStr[8];
//  586           uint16 panId = _NIB.nwkPanId;
//  587           
//  588           // 
//  589           uint8 highByte = (panId >> 8) & 0xFF;
//  590           uint8 highNibbleH = (highByte >> 4) & 0x0F;
//  591           uint8 lowNibbleH = highByte & 0x0F;
//  592           panidStr[0] = (highNibbleH < 10) ? ('0' + highNibbleH) : ('A' + highNibbleH - 10);
//  593           panidStr[1] = (lowNibbleH < 10) ? ('0' + lowNibbleH) : ('A' + lowNibbleH - 10);
//  594           
//  595           // 
//  596           uint8 lowByte = panId & 0xFF;
//  597           uint8 highNibbleL = (lowByte >> 4) & 0x0F;
//  598           uint8 lowNibbleL = lowByte & 0x0F;
//  599           panidStr[2] = (highNibbleL < 10) ? ('0' + highNibbleL) : ('A' + highNibbleL - 10);
//  600           panidStr[3] = (lowNibbleL < 10) ? ('0' + lowNibbleL) : ('A' + lowNibbleL - 10);
//  601           
//  602           panidStr[4] = '\r';
//  603           panidStr[5] = '\n';
//  604           HalUARTWrite(0, panidStr, 6);
//  605           
//  606           // 
//  607           uint8 nwkAddrMsg[] = "Network Address: 0x";
//  608           HalUARTWrite(HAL_UART_PORT_0, nwkAddrMsg, sizeof(nwkAddrMsg)-1);
//  609           
//  610           uint16 nwkAddr = NLME_GetShortAddr(); // 
//  611           uint8 nwkAddrStr[6];
//  612           
//  613           // 
//  614           uint8 nwkHighByte = (nwkAddr >> 8) & 0xFF;
//  615           uint8 nwkHighNibbleH = (nwkHighByte >> 4) & 0x0F;
//  616           uint8 nwkLowNibbleH = nwkHighByte & 0x0F;
//  617           nwkAddrStr[0] = (nwkHighNibbleH < 10) ? ('0' + nwkHighNibbleH) : ('A' + nwkHighNibbleH - 10);
//  618           nwkAddrStr[1] = (nwkLowNibbleH < 10) ? ('0' + nwkLowNibbleH) : ('A' + nwkLowNibbleH - 10);
//  619           
//  620           // 
//  621           uint8 nwkLowByte = nwkAddr & 0xFF;
//  622           uint8 nwkHighNibbleL = (nwkLowByte >> 4) & 0x0F;
//  623           uint8 nwkLowNibbleL = nwkLowByte & 0x0F;
//  624           nwkAddrStr[2] = (nwkHighNibbleL < 10) ? ('0' + nwkHighNibbleL) : ('A' + nwkHighNibbleL - 10);
//  625           nwkAddrStr[3] = (nwkLowNibbleL < 10) ? ('0' + nwkLowNibbleL) : ('A' + nwkLowNibbleL - 10);
//  626           
//  627           nwkAddrStr[4] = '\r';
//  628           nwkAddrStr[5] = '\n';
//  629           HalUARTWrite(0, nwkAddrStr, 6);
//  630           
//  631           // LED
//  632           HalLedSet(HAL_LED_1, HAL_LED_MODE_ON);
//  633           
//  634           // 
//  635           NLME_PermitJoiningRequest(255);
//  636           
//  637           // 
//  638           // Broadcast
//  639           osal_start_timerEx(zclZEM_TaskID,
//  640                              ZEM_BROADCAST_EVT,
//  641                              ZEM_BROADCAST_PERIOD);
//  642           #endif
//  643         }
//  644         else
//  645         {
//  646           //Want to try other channels?
//  647           //try with bdb_setChannelAttribute
//  648           // 
//  649           #ifdef ZDO_COORDINATOR
//  650           uint8 failMsg[] = "Network formation failed! Retrying...\r\n";
//  651           HalUARTWrite(HAL_UART_PORT_0, failMsg, sizeof(failMsg)-1);
//  652           
//  653           // 
//  654           bdb_StartCommissioning(BDB_COMMISSIONING_MODE_NWK_FORMATION |
//  655                                 BDB_COMMISSIONING_MODE_FINDING_BINDING);
//  656           #endif
//  657         }
//  658       break;
//  659       case BDB_COMMISSIONING_NWK_STEERING:
//  660         if(bdbCommissioningModeMsg->bdbCommissioningStatus == BDB_COMMISSIONING_SUCCESS)
??zclZEM_ProcessCommissioningStatus_0:
        MOV       DPL,R2
        MOV       DPH,R3
        MOVX      A,@DPTR
        JZ        $+5
        LJMP      ??zclZEM_ProcessCommissioningStatus_4 & 0xFFFF
//  661         {
//  662           //YOUR JOB:
//  663           //We are on the nwk, what now?
//  664           // 
//  665           #ifdef ZDO_COORDINATOR
//  666           #else
//  667           uint8 steeringSuccessMsg[] = "Network steering successful! PANID: ";
        MOV       DPTR,#`?<Constant "Network steering succ...">`
        MOV       A,#0x3b
        LCALL     ?XSTACK_DISP102_8
        MOV       A,#0x25
        LCALL     ?MOVE_LONG8_XDATA_XDATA
//  668           HalUARTWrite(HAL_UART_PORT_0, steeringSuccessMsg, sizeof(steeringSuccessMsg)-1);
        ; Setup parameters for call to function HalUARTWrite
        MOV       R4,#0x24
        MOV       R5,A
        MOV       A,#0x3b
        LCALL     ?XSTACK_DISP101_8
        MOV       R1,#0x0
        LCALL     `??HalUARTWrite::?relay`; Banked call to: HalUARTWrite
//  669           
//  670           // PANID
//  671           uint8 panidStr[8];
//  672           uint16 panId = _NIB.nwkPanId;
        MOV       DPTR,#_NIB + 33
        MOVX      A,@DPTR
        MOV       R2,A
        INC       DPTR
        LCALL     ?Subroutine8 & 0xFFFF
//  673           
//  674           // 
//  675           uint8 highByte = (panId >> 8) & 0xFF;
//  676           uint8 highNibbleH = (highByte >> 4) & 0x0F;
//  677           uint8 lowNibbleH = highByte & 0x0F;
//  678           panidStr[0] = (highNibbleH < 10) ? ('0' + highNibbleH) : ('A' + highNibbleH - 10);
??CrossCallReturnLabel_9:
        JNC       ??zclZEM_ProcessCommissioningStatus_5
        MOV       A,#0x30
        SJMP      ??zclZEM_ProcessCommissioningStatus_6
??zclZEM_ProcessCommissioningStatus_5:
        MOV       A,#0x37
??zclZEM_ProcessCommissioningStatus_6:
        LCALL     ?Subroutine12 & 0xFFFF
//  679           panidStr[1] = (lowNibbleH < 10) ? ('0' + lowNibbleH) : ('A' + lowNibbleH - 10);
??CrossCallReturnLabel_15:
        JNC       ??zclZEM_ProcessCommissioningStatus_7
        MOV       A,#0x30
        SJMP      ??zclZEM_ProcessCommissioningStatus_8
??zclZEM_ProcessCommissioningStatus_7:
        MOV       A,#0x37
??zclZEM_ProcessCommissioningStatus_8:
        ADD       A,R0
        MOV       R0,A
        MOV       A,#0x1
        LCALL     ?XSTACK_DISP0_8
        MOV       A,R0
        MOVX      @DPTR,A
//  680           
//  681           // 
//  682           uint8 lowByte = panId & 0xFF;
        MOV       A,R2
        LCALL     ?Subroutine11 & 0xFFFF
//  683           uint8 highNibbleL = (lowByte >> 4) & 0x0F;
//  684           uint8 lowNibbleL = lowByte & 0x0F;
//  685           panidStr[2] = (highNibbleL < 10) ? ('0' + highNibbleL) : ('A' + highNibbleL - 10);
??CrossCallReturnLabel_13:
        JNC       ??zclZEM_ProcessCommissioningStatus_9
        MOV       A,#0x30
        SJMP      ??zclZEM_ProcessCommissioningStatus_10
??zclZEM_ProcessCommissioningStatus_9:
        MOV       A,#0x37
??zclZEM_ProcessCommissioningStatus_10:
        ADD       A,R0
        MOV       R0,A
        MOV       A,#0x2
        LCALL     ?XSTACK_DISP0_8
        MOV       A,R0
        MOVX      @DPTR,A
//  686           panidStr[3] = (lowNibbleL < 10) ? ('0' + lowNibbleL) : ('A' + lowNibbleL - 10);
        MOV       A,R1
        CLR       C
        SUBB      A,#0xa
        JNC       ??zclZEM_ProcessCommissioningStatus_11
        MOV       A,#0x30
        SJMP      ??zclZEM_ProcessCommissioningStatus_12
??zclZEM_ProcessCommissioningStatus_11:
        MOV       A,#0x37
??zclZEM_ProcessCommissioningStatus_12:
        ADD       A,R1
        MOV       R0,A
        MOV       A,#0x3
        LCALL     ?XSTACK_DISP0_8
        MOV       A,R0
        MOVX      @DPTR,A
//  687           
//  688           panidStr[4] = '\r';
        MOV       A,#0x4
        LCALL     ?XSTACK_DISP0_8
        MOV       A,#0xd
        MOVX      @DPTR,A
//  689           panidStr[5] = '\n';
        MOV       A,#0x5
        LCALL     ?XSTACK_DISP0_8
        MOV       A,#0xa
        MOVX      @DPTR,A
//  690           HalUARTWrite(0, panidStr, 6);
        ; Setup parameters for call to function HalUARTWrite
        MOV       R4,#0x6
        MOV       R5,#0x0
        MOV       R2,?XSP + 0
        MOV       R3,?XSP + 1
        MOV       R1,#0x0
        LCALL     `??HalUARTWrite::?relay`; Banked call to: HalUARTWrite
//  691           
//  692           // P2PMAC
//  693           zclZEM_SendMACToCoordinator();
        ; Setup parameters for call to function zclZEM_SendMACToCoordinator
        LCALL     `??zclZEM_SendMACToCoordinator::?relay`; Banked call to: zclZEM_SendMACToCoordinator
//  694           
//  695           // P2PMAC
//  696           osal_start_timerEx(zclZEM_TaskID,
//  697                              ZEM_P2P_EVT,
//  698                              ZEM_P2P_PERIOD);
        ; Setup parameters for call to function osal_start_timerEx
        MOV       DPTR,#__Constant_3e8
        LCALL     ?PUSH_XSTACK8_X_FOUR
          CFI CFA_XSP16 add(XSP16, 100)
        MOV       R2,#0x0
        MOV       R3,#0x2
        MOV       DPTR,#zclZEM_TaskID
        MOVX      A,@DPTR
        MOV       R1,A
        LCALL     `??osal_start_timerEx::?relay`; Banked call to: osal_start_timerEx
        MOV       A,#0x4
        LCALL     ?DEALLOC_XSTACK8
          CFI CFA_XSP16 add(XSP16, 96)
//  699           
//  700           // LED
//  701           HalLedSet(HAL_LED_1, HAL_LED_MODE_ON);
        ; Setup parameters for call to function HalLedSet
        MOV       R2,#0x1
        MOV       R1,#0x1
        LCALL     `??HalLedSet::?relay`; Banked call to: HalLedSet
        SJMP      ??zclZEM_ProcessCommissioningStatus_3
//  702           #endif
//  703         }
//  704         else
//  705         {
//  706           // 
//  707           #ifdef ZDO_COORDINATOR
//  708           /*  */
//  709           #else
//  710           /*  */
//  711           uint8 failMsg[] = "Network steering failed! Retrying in 1 second...\r\n";
??zclZEM_ProcessCommissioningStatus_4:
        MOV       DPTR,#`?<Constant "Network steering fail...">`
        MOV       A,#0x8
        LCALL     ?XSTACK_DISP102_8
        MOV       A,#0x33
        LCALL     ?MOVE_LONG8_XDATA_XDATA
//  712           HalUARTWrite(HAL_UART_PORT_0, failMsg, sizeof(failMsg)-1);
        ; Setup parameters for call to function HalUARTWrite
        MOV       R4,#0x32
        MOV       R5,A
        MOV       A,#0x8
        LCALL     ?XSTACK_DISP101_8
        MOV       R1,#0x0
        LCALL     `??HalUARTWrite::?relay`; Banked call to: HalUARTWrite
//  713           
//  714           /*  */
//  715           osal_start_timerEx(zclZEM_TaskID, 
//  716                                     ZEM_REJOIN_EVT, 
//  717                                     ZEM_REJOIN_PERIOD);
        ; Setup parameters for call to function osal_start_timerEx
        SJMP      ??zclZEM_ProcessCommissioningStatus_13
//  718           #endif
//  719         }
//  720         break;
//  721       case BDB_COMMISSIONING_FINDING_BINDING:
//  722         if(bdbCommissioningModeMsg->bdbCommissioningStatus == BDB_COMMISSIONING_SUCCESS)
//  723         {
//  724           //YOUR JOB:
//  725         }
//  726         else
//  727         {
//  728           //YOUR JOB:
//  729           //retry?, wait for user interaction?
//  730         }
//  731       break;
//  732       case BDB_COMMISSIONING_INITIALIZATION:
//  733         //Initialization notification can only be successful. Failure on initialization 
//  734         //only happens for ZED and is notified as BDB_COMMISSIONING_PARENT_LOST notification
//  735         
//  736         //YOUR JOB:
//  737         //We are on a network, what now?
//  738         
//  739       break;
//  740 #if ZG_BUILD_ENDDEVICE_TYPE    
//  741     case BDB_COMMISSIONING_PARENT_LOST:
//  742       if(bdbCommissioningModeMsg->bdbCommissioningStatus == BDB_COMMISSIONING_NETWORK_RESTORED)
??zclZEM_ProcessCommissioningStatus_2:
        MOV       DPL,R2
        MOV       DPH,R3
        MOVX      A,@DPTR
        XRL       A,#0xd
        JZ        ??zclZEM_ProcessCommissioningStatus_3
//  743       {
//  744         //We did recover from losing parent
//  745       }
//  746       else
//  747       {
//  748         //Parent not found, attempt to rejoin again after a fixed delay
//  749         //osal_start_timerEx(zclZEM_TaskID, SAMPLEAPP_END_DEVICE_REJOIN_EVT, SAMPLEAPP_END_DEVICE_REJOIN_DELAY);
//  750         
//  751         /*  */
//  752 #ifdef ZDO_COORDINATOR
//  753         /*  */
//  754 #else
//  755       /*  */
//  756       osal_start_timerEx(zclZEM_TaskID, 
//  757                         ZEM_REJOIN_EVT, 
//  758                         ZEM_REJOIN_PERIOD);
        ; Setup parameters for call to function osal_start_timerEx
??zclZEM_ProcessCommissioningStatus_13:
        MOV       DPTR,#__Constant_3e8
        LCALL     ?PUSH_XSTACK8_X_FOUR
          CFI CFA_XSP16 add(XSP16, 100)
        MOV       R2,#0x0
        MOV       R3,#0x1
        MOV       DPTR,#zclZEM_TaskID
        MOVX      A,@DPTR
        MOV       R1,A
        LCALL     `??osal_start_timerEx::?relay`; Banked call to: osal_start_timerEx
        MOV       A,#0x4
        LCALL     ?DEALLOC_XSTACK8
          CFI CFA_XSP16 add(XSP16, 96)
//  759 #endif
//  760       }
//  761     break;
//  762 #endif 
//  763     }
//  764 
//  765 }
??zclZEM_ProcessCommissioningStatus_3:
        MOV       A,#0x60
        LCALL     ?DEALLOC_XSTACK8
          CFI EndBlock cfiBlock17
        REQUIRE ?Subroutine2
        ; // Fall through to label ?Subroutine2

        RSEG BANKED_CODE:HUGECODE:NOROOT(0)
?Subroutine2:
          CFI Block cfiBlock18 Using cfiCommon0
          CFI NoFunction
          CFI CFA_SP SP+-5
          CFI DPL0 Frame(CFA_SP, 4)
          CFI DPH0 Frame(CFA_SP, 5)
        POP       DPH
          CFI CFA_SP SP+-4
          CFI DPH0 SameValue
        POP       DPL
          CFI CFA_SP SP+-3
          CFI DPL0 SameValue
        LJMP      ?BRET
          CFI EndBlock cfiBlock18

        RSEG BANKED_CODE:HUGECODE:NOROOT(0)
?Subroutine12:
          CFI Block cfiCond19 Using cfiCommon0
          CFI Function zclZEM_event_loop
          CFI Conditional ??CrossCallReturnLabel_14
          CFI R6 load(1, XDATA, add(CFA_XSP16, literal(-12)))
          CFI VB load(1, XDATA, add(CFA_XSP16, literal(-11)))
          CFI V0 load(1, XDATA, add(CFA_XSP16, literal(-10)))
          CFI V1 load(1, XDATA, add(CFA_XSP16, literal(-9)))
          CFI V2 load(1, XDATA, add(CFA_XSP16, literal(-8)))
          CFI V3 load(1, XDATA, add(CFA_XSP16, literal(-7)))
          CFI R7 load(1, XDATA, add(CFA_XSP16, literal(-6)))
          CFI ?RET_LOW load(1, XDATA, add(CFA_XSP16, literal(-5)))
          CFI ?RET_HIGH load(1, XDATA, add(CFA_XSP16, literal(-4)))
          CFI ?BRET_EXT load(1, XDATA, add(CFA_XSP16, literal(-3)))
          CFI DPL0 load(1, XDATA, add(CFA_XSP16, literal(-2)))
          CFI DPH0 load(1, XDATA, add(CFA_XSP16, literal(-1)))
          CFI CFA_SP SP+-2
          CFI CFA_XSP16 add(XSP16, 192)
          CFI Block cfiCond20 Using cfiCommon0
          CFI (cfiCond20) Function zclZEM_ProcessCommissioningStatus
          CFI (cfiCond20) Conditional ??CrossCallReturnLabel_15
          CFI (cfiCond20) DPL0 Frame(CFA_SP, 4)
          CFI (cfiCond20) DPH0 Frame(CFA_SP, 5)
          CFI (cfiCond20) CFA_SP SP+-7
          CFI (cfiCond20) CFA_XSP16 add(XSP16, 96)
          CFI Block cfiPicker21 Using cfiCommon1
          CFI (cfiPicker21) NoFunction
          CFI (cfiPicker21) Picker
        ADD       A,R1
        MOV       DPL,?XSP + 0
        MOV       DPH,?XSP + 1
        MOVX      @DPTR,A
        MOV       A,R0
        SUBB      A,#0xa
        RET
          CFI EndBlock cfiCond19
          CFI EndBlock cfiCond20
          CFI EndBlock cfiPicker21

        RSEG BANKED_CODE:HUGECODE:NOROOT(0)
?Subroutine11:
          CFI Block cfiCond22 Using cfiCommon0
          CFI Function zclZEM_event_loop
          CFI Conditional ??CrossCallReturnLabel_12
          CFI R6 load(1, XDATA, add(CFA_XSP16, literal(-12)))
          CFI VB load(1, XDATA, add(CFA_XSP16, literal(-11)))
          CFI V0 load(1, XDATA, add(CFA_XSP16, literal(-10)))
          CFI V1 load(1, XDATA, add(CFA_XSP16, literal(-9)))
          CFI V2 load(1, XDATA, add(CFA_XSP16, literal(-8)))
          CFI V3 load(1, XDATA, add(CFA_XSP16, literal(-7)))
          CFI R7 load(1, XDATA, add(CFA_XSP16, literal(-6)))
          CFI ?RET_LOW load(1, XDATA, add(CFA_XSP16, literal(-5)))
          CFI ?RET_HIGH load(1, XDATA, add(CFA_XSP16, literal(-4)))
          CFI ?BRET_EXT load(1, XDATA, add(CFA_XSP16, literal(-3)))
          CFI DPL0 load(1, XDATA, add(CFA_XSP16, literal(-2)))
          CFI DPH0 load(1, XDATA, add(CFA_XSP16, literal(-1)))
          CFI CFA_SP SP+-2
          CFI CFA_XSP16 add(XSP16, 192)
          CFI Block cfiCond23 Using cfiCommon0
          CFI (cfiCond23) Function zclZEM_ProcessCommissioningStatus
          CFI (cfiCond23) Conditional ??CrossCallReturnLabel_13
          CFI (cfiCond23) DPL0 Frame(CFA_SP, 4)
          CFI (cfiCond23) DPH0 Frame(CFA_SP, 5)
          CFI (cfiCond23) CFA_SP SP+-7
          CFI (cfiCond23) CFA_XSP16 add(XSP16, 96)
          CFI Block cfiPicker24 Using cfiCommon1
          CFI (cfiPicker24) NoFunction
          CFI (cfiPicker24) Picker
        MOV       R1,A
        SWAP      A
        ANL       A,#0xf
        MOV       R0,A
        MOV       A,#0xf
        ANL       A,R1
        MOV       R1,A
        MOV       A,R0
        CLR       C
        SUBB      A,#0xa
        RET
          CFI EndBlock cfiCond22
          CFI EndBlock cfiCond23
          CFI EndBlock cfiPicker24

        RSEG BANKED_CODE:HUGECODE:NOROOT(0)
?Subroutine8:
          CFI Block cfiCond25 Using cfiCommon0
          CFI Function zclZEM_event_loop
          CFI Conditional ??CrossCallReturnLabel_8
          CFI R6 load(1, XDATA, add(CFA_XSP16, literal(-12)))
          CFI VB load(1, XDATA, add(CFA_XSP16, literal(-11)))
          CFI V0 load(1, XDATA, add(CFA_XSP16, literal(-10)))
          CFI V1 load(1, XDATA, add(CFA_XSP16, literal(-9)))
          CFI V2 load(1, XDATA, add(CFA_XSP16, literal(-8)))
          CFI V3 load(1, XDATA, add(CFA_XSP16, literal(-7)))
          CFI R7 load(1, XDATA, add(CFA_XSP16, literal(-6)))
          CFI ?RET_LOW load(1, XDATA, add(CFA_XSP16, literal(-5)))
          CFI ?RET_HIGH load(1, XDATA, add(CFA_XSP16, literal(-4)))
          CFI ?BRET_EXT load(1, XDATA, add(CFA_XSP16, literal(-3)))
          CFI DPL0 load(1, XDATA, add(CFA_XSP16, literal(-2)))
          CFI DPH0 load(1, XDATA, add(CFA_XSP16, literal(-1)))
          CFI CFA_SP SP+-2
          CFI CFA_XSP16 add(XSP16, 192)
          CFI Block cfiCond26 Using cfiCommon0
          CFI (cfiCond26) Function zclZEM_ProcessCommissioningStatus
          CFI (cfiCond26) Conditional ??CrossCallReturnLabel_9
          CFI (cfiCond26) DPL0 Frame(CFA_SP, 4)
          CFI (cfiCond26) DPH0 Frame(CFA_SP, 5)
          CFI (cfiCond26) CFA_SP SP+-7
          CFI (cfiCond26) CFA_XSP16 add(XSP16, 96)
          CFI Block cfiPicker27 Using cfiCommon1
          CFI (cfiPicker27) NoFunction
          CFI (cfiPicker27) Picker
        MOVX      A,@DPTR
        MOV       R0,A
        SWAP      A
        ANL       A,#0xf
        MOV       R1,A
        MOV       A,#0xf
        ANL       A,R0
        MOV       R0,A
        MOV       A,R1
        CLR       C
        SUBB      A,#0xa
        RET
          CFI EndBlock cfiCond25
          CFI EndBlock cfiCond26
          CFI EndBlock cfiPicker27
//  766 
//  767 /*********************************************************************
//  768  * @fn      zclZEM_BasicResetCB
//  769  *
//  770  * @brief   Callback from the ZCL General Cluster Library
//  771  *          to set all the Basic Cluster attributes to default values.
//  772  *
//  773  * @param   none
//  774  *
//  775  * @return  none
//  776  */

        RSEG BANKED_CODE:HUGECODE:NOROOT(0)
//  777 static void zclZEM_BasicResetCB( void )
zclZEM_BasicResetCB:
          CFI Block cfiBlock28 Using cfiCommon0
          CFI Function zclZEM_BasicResetCB
        CODE
//  778 {
        FUNCALL zclZEM_BasicResetCB, zclZEM_ResetAttributesToDefaultValues
        LOCFRAME ISTACK, 2, STACK
        LOCFRAME PSTACK, 0, STACK
        LOCFRAME XSTACK, 0, STACK
        LOCFRAME IOVERLAY, 0, STATIC
        LOCFRAME DOVERLAY, 0, STATIC
        ARGFRAME ISTACK, 2, STACK
        ARGFRAME PSTACK, 0, STACK
        ARGFRAME XSTACK, 0, STACK
        ARGFRAME IOVERLAY, 0, STATIC
        ARGFRAME DOVERLAY, 0, STATIC
        PUSH      DPL
          CFI DPL0 Frame(CFA_SP, 4)
          CFI CFA_SP SP+-4
        PUSH      DPH
          CFI DPH0 Frame(CFA_SP, 5)
          CFI CFA_SP SP+-5
        ; Saved register size: 2
        ; Auto size: 0
//  779   zclZEM_ResetAttributesToDefaultValues();
        ; Setup parameters for call to function zclZEM_ResetAttributesToDefaultValues
        LCALL     `??zclZEM_ResetAttributesToDefaultValues::?relay`; Banked call to: zclZEM_ResetAttributesToDefaultValues
//  780   
//  781 }
        SJMP      ?Subroutine2
          CFI EndBlock cfiBlock28
//  782 
//  783 /*********************************************************************
//  784  * @fn      zclSampleApp_BatteryWarningCB
//  785  *
//  786  * @brief   Called to handle battery-low situation.
//  787  *
//  788  * @param   voltLevel - level of severity
//  789  *
//  790  * @return  none
//  791  */

        RSEG BANKED_CODE:HUGECODE:NOROOT(0)
//  792 void zclSampleApp_BatteryWarningCB( uint8 voltLevel )
zclSampleApp_BatteryWarningCB:
          CFI Block cfiBlock29 Using cfiCommon0
          CFI Function zclSampleApp_BatteryWarningCB
        CODE
//  793 {
        ; Saved register size: 0
        ; Auto size: 0
//  794   if ( voltLevel == VOLT_LEVEL_CAUTIOUS )
//  795   {
//  796     // Send warning message to the gateway and blink LED
//  797   }
//  798   else if ( voltLevel == VOLT_LEVEL_BAD )
//  799   {
//  800     // Shut down the system
//  801   }
//  802 }
        LJMP      ?BRET
          CFI EndBlock cfiBlock29
//  803 
//  804 /******************************************************************************
//  805  *
//  806  *  Functions for processing ZCL Foundation incoming Command/Response messages
//  807  *
//  808  *****************************************************************************/
//  809 
//  810 /*********************************************************************
//  811  * @fn      zclZEM_ProcessIncomingMsg
//  812  *
//  813  * @brief   Process ZCL Foundation incoming message
//  814  *
//  815  * @param   pInMsg - pointer to the received message
//  816  *
//  817  * @return  none
//  818  */

        RSEG BANKED_CODE:HUGECODE:NOROOT(0)
//  819 static void zclZEM_ProcessIncomingMsg( zclIncomingMsg_t *pInMsg)
zclZEM_ProcessIncomingMsg:
          CFI Block cfiBlock30 Using cfiCommon0
          CFI Function zclZEM_ProcessIncomingMsg
        CODE
//  820 {
        FUNCALL zclZEM_ProcessIncomingMsg, zclZEM_ProcessInDiscCmdsRspCmd
        LOCFRAME ISTACK, 0, STACK
        LOCFRAME PSTACK, 0, STACK
        LOCFRAME XSTACK, 9, STACK
        LOCFRAME IOVERLAY, 0, STATIC
        LOCFRAME DOVERLAY, 0, STATIC
        ARGFRAME ISTACK, 0, STACK
        ARGFRAME PSTACK, 0, STACK
        ARGFRAME XSTACK, 9, STACK
        ARGFRAME IOVERLAY, 0, STATIC
        ARGFRAME DOVERLAY, 0, STATIC
        FUNCALL zclZEM_ProcessIncomingMsg, zclZEM_ProcessInDiscCmdsRspCmd
        LOCFRAME ISTACK, 0, STACK
        LOCFRAME PSTACK, 0, STACK
        LOCFRAME XSTACK, 9, STACK
        LOCFRAME IOVERLAY, 0, STATIC
        LOCFRAME DOVERLAY, 0, STATIC
        ARGFRAME ISTACK, 0, STACK
        ARGFRAME PSTACK, 0, STACK
        ARGFRAME XSTACK, 9, STACK
        ARGFRAME IOVERLAY, 0, STATIC
        ARGFRAME DOVERLAY, 0, STATIC
        FUNCALL zclZEM_ProcessIncomingMsg, osal_mem_free
        LOCFRAME ISTACK, 0, STACK
        LOCFRAME PSTACK, 0, STACK
        LOCFRAME XSTACK, 9, STACK
        LOCFRAME IOVERLAY, 0, STATIC
        LOCFRAME DOVERLAY, 0, STATIC
        ARGFRAME ISTACK, 0, STACK
        ARGFRAME PSTACK, 0, STACK
        ARGFRAME XSTACK, 9, STACK
        ARGFRAME IOVERLAY, 0, STATIC
        ARGFRAME DOVERLAY, 0, STATIC
        MOV       A,#-0x9
        LCALL     ?BANKED_ENTER_XDATA
          CFI DPH0 load(1, XDATA, add(CFA_XSP16, literal(-1)))
          CFI DPL0 load(1, XDATA, add(CFA_XSP16, literal(-2)))
          CFI ?BRET_EXT load(1, XDATA, add(CFA_XSP16, literal(-3)))
          CFI ?RET_HIGH load(1, XDATA, add(CFA_XSP16, literal(-4)))
          CFI ?RET_LOW load(1, XDATA, add(CFA_XSP16, literal(-5)))
          CFI R7 load(1, XDATA, add(CFA_XSP16, literal(-6)))
          CFI V0 load(1, XDATA, add(CFA_XSP16, literal(-7)))
          CFI VB load(1, XDATA, add(CFA_XSP16, literal(-8)))
          CFI R6 load(1, XDATA, add(CFA_XSP16, literal(-9)))
          CFI CFA_SP SP+0
          CFI CFA_XSP16 add(XSP16, 9)
        ; Saved register size: 9
        ; Auto size: 0
//  821   switch ( pInMsg->zclHdr.commandID )
        MOV       A,R2
        ADD       A,#0x17
        MOV       R0,A
        CLR       A
        ADDC      A,R3
        MOV       R1,A
        MOV       A,R0
        MOV       R6,A
        MOV       A,R1
        MOV       R7,A
        MOV       DPL,R2
        MOV       DPH,R3
        INC       DPTR
        INC       DPTR
        INC       DPTR
        INC       DPTR
        INC       DPTR
        INC       DPTR
        INC       DPTR
        MOVX      A,@DPTR
        DEC       A
        JZ        ??zclZEM_ProcessIncomingMsg_0
        ADD       A,#-0x3
        JZ        ??zclZEM_ProcessIncomingMsg_1
        ADD       A,#-0x9
        JZ        ??zclZEM_ProcessIncomingMsg_2
        ADD       A,#-0x5
        JZ        ??zclZEM_ProcessIncomingMsg_3
        ADD       A,#-0x2
        JZ        ??zclZEM_ProcessIncomingMsg_3
        ADD       A,#-0x2
        JZ        ??zclZEM_ProcessIncomingMsg_4
        SJMP      ??zclZEM_ProcessIncomingMsg_5
//  822   {
//  823 #ifdef ZCL_READ
//  824     case ZCL_CMD_READ_RSP:
//  825       zclZEM_ProcessInReadRspCmd( pInMsg );
??zclZEM_ProcessIncomingMsg_0:
        LCALL     ?Subroutine9 & 0xFFFF
??CrossCallReturnLabel_10:
        MOVX      A,@DPTR
        MOV       R1,A
        MOV       A,R0
        CLR       C
        SUBB      A,R1
        JNC       ??zclZEM_ProcessIncomingMsg_5
        INC       R0
        SJMP      ??CrossCallReturnLabel_10
//  826       break;
//  827 #endif
//  828 #ifdef ZCL_WRITE
//  829     case ZCL_CMD_WRITE_RSP:
//  830       zclZEM_ProcessInWriteRspCmd( pInMsg );
??zclZEM_ProcessIncomingMsg_1:
        LCALL     ?Subroutine9 & 0xFFFF
??CrossCallReturnLabel_11:
        MOVX      A,@DPTR
        MOV       R1,A
        MOV       A,R0
        CLR       C
        SUBB      A,R1
        JNC       ??zclZEM_ProcessIncomingMsg_5
        INC       R0
        SJMP      ??CrossCallReturnLabel_11
//  831       break;
//  832 #endif
//  833 #ifdef ZCL_REPORT
//  834     // See ZCL Test Applicaiton (zcl_testapp.c) for sample code on Attribute Reporting
//  835     case ZCL_CMD_CONFIG_REPORT:
//  836       //zclZEM_ProcessInConfigReportCmd( pInMsg );
//  837       break;
//  838       case ZCL_CMD_READ_REPORT_CFG:
//  839       //zclZEM_ProcessInReadReportCfgCmd( pInMsg );
//  840       break;
//  841     case ZCL_CMD_CONFIG_REPORT_RSP:
//  842       //zclZEM_ProcessInConfigReportRspCmd( pInMsg );
//  843       break;
//  844     case ZCL_CMD_READ_REPORT_CFG_RSP:
//  845       //zclZEM_ProcessInReadReportCfgRspCmd( pInMsg );
//  846       break;
//  847 
//  848     case ZCL_CMD_REPORT:
//  849       //zclZEM_ProcessInReportCmd( pInMsg );
//  850       break;
//  851 #endif
//  852     case ZCL_CMD_DEFAULT_RSP:
//  853       zclZEM_ProcessInDefaultRspCmd( pInMsg );
//  854       break;
//  855 #ifdef ZCL_DISCOVER
//  856     case ZCL_CMD_DISCOVER_CMDS_RECEIVED_RSP:
//  857       zclZEM_ProcessInDiscCmdsRspCmd( pInMsg );
??zclZEM_ProcessIncomingMsg_3:
        ; Setup parameters for call to function zclZEM_ProcessInDiscCmdsRspCmd
//  858       break;
//  859 
//  860     case ZCL_CMD_DISCOVER_CMDS_GEN_RSP:
//  861       zclZEM_ProcessInDiscCmdsRspCmd( pInMsg );
        ; Setup parameters for call to function zclZEM_ProcessInDiscCmdsRspCmd
        LCALL     `??zclZEM_ProcessInDiscCmdsRspCmd::?relay`; Banked call to: zclZEM_ProcessInDiscCmdsRspCmd
//  862       break;
        SJMP      ??zclZEM_ProcessIncomingMsg_5
//  863 
//  864     case ZCL_CMD_DISCOVER_ATTRS_RSP:
//  865       zclZEM_ProcessInDiscAttrsRspCmd( pInMsg );
??zclZEM_ProcessIncomingMsg_2:
        LCALL     ?Subroutine10 & 0xFFFF
??CrossCallReturnLabel_23:
        MOV       DPL,R0
        MOV       DPH,R1
        INC       DPTR
        MOVX      A,@DPTR
        MOV       R3,A
        MOV       A,R2
        CLR       C
        SUBB      A,R3
        JNC       ??zclZEM_ProcessIncomingMsg_5
        INC       R2
        SJMP      ??CrossCallReturnLabel_23
//  866       break;
//  867 
//  868     case ZCL_CMD_DISCOVER_ATTRS_EXT_RSP:
//  869       zclZEM_ProcessInDiscAttrsExtRspCmd( pInMsg );
??zclZEM_ProcessIncomingMsg_4:
        LCALL     ?Subroutine10 & 0xFFFF
//  870       break;
//  871 #endif
//  872     default:
//  873       break;
//  874   }
??CrossCallReturnLabel_24:
        SJMP      ??zclZEM_ProcessIncomingMsg_6
??zclZEM_ProcessIncomingMsg_7:
        INC       R2
??zclZEM_ProcessIncomingMsg_6:
        MOV       DPL,R0
        MOV       DPH,R1
        INC       DPTR
        MOVX      A,@DPTR
        MOV       R3,A
        MOV       A,R2
        CLR       C
        SUBB      A,R3
        JC        ??zclZEM_ProcessIncomingMsg_7
//  875 
//  876   if ( pInMsg->attrCmd )
??zclZEM_ProcessIncomingMsg_5:
        MOV       DPL,R6
        MOV       DPH,R7
        MOVX      A,@DPTR
        MOV       R2,A
        INC       DPTR
        MOVX      A,@DPTR
        MOV       R3,A
        MOV       A,R2
        ORL       A,R3
        JZ        ??zclZEM_ProcessIncomingMsg_8
//  877   {
//  878     osal_mem_free( pInMsg->attrCmd );
        ; Setup parameters for call to function osal_mem_free
        LCALL     `??osal_mem_free::?relay`; Banked call to: osal_mem_free
//  879   }
//  880 }
??zclZEM_ProcessIncomingMsg_8:
        LJMP      ?Subroutine1 & 0xFFFF
          CFI EndBlock cfiBlock30

        RSEG BANKED_CODE:HUGECODE:NOROOT(0)
?Subroutine10:
          CFI Block cfiCond31 Using cfiCommon0
          CFI Function zclZEM_ProcessIncomingMsg
          CFI Conditional ??CrossCallReturnLabel_23
          CFI R6 load(1, XDATA, add(CFA_XSP16, literal(-9)))
          CFI VB load(1, XDATA, add(CFA_XSP16, literal(-8)))
          CFI V0 load(1, XDATA, add(CFA_XSP16, literal(-7)))
          CFI R7 load(1, XDATA, add(CFA_XSP16, literal(-6)))
          CFI ?RET_LOW load(1, XDATA, add(CFA_XSP16, literal(-5)))
          CFI ?RET_HIGH load(1, XDATA, add(CFA_XSP16, literal(-4)))
          CFI ?BRET_EXT load(1, XDATA, add(CFA_XSP16, literal(-3)))
          CFI DPL0 load(1, XDATA, add(CFA_XSP16, literal(-2)))
          CFI DPH0 load(1, XDATA, add(CFA_XSP16, literal(-1)))
          CFI CFA_SP SP+-2
          CFI CFA_XSP16 add(XSP16, 9)
          CFI Block cfiCond32 Using cfiCommon0
          CFI (cfiCond32) Function zclZEM_ProcessIncomingMsg
          CFI (cfiCond32) Conditional ??CrossCallReturnLabel_24
          CFI (cfiCond32) R6 load(1, XDATA, add(CFA_XSP16, literal(-9)))
          CFI (cfiCond32) VB load(1, XDATA, add(CFA_XSP16, literal(-8)))
          CFI (cfiCond32) V0 load(1, XDATA, add(CFA_XSP16, literal(-7)))
          CFI (cfiCond32) R7 load(1, XDATA, add(CFA_XSP16, literal(-6)))
          CFI (cfiCond32) ?RET_LOW load(1, XDATA, add(CFA_XSP16, literal(-5)))
          CFI (cfiCond32) ?RET_HIGH load(1, XDATA, add(CFA_XSP16, literal(-4)))
          CFI (cfiCond32) ?BRET_EXT load(1, XDATA, add(CFA_XSP16, literal(-3)))
          CFI (cfiCond32) DPL0 load(1, XDATA, add(CFA_XSP16, literal(-2)))
          CFI (cfiCond32) DPH0 load(1, XDATA, add(CFA_XSP16, literal(-1)))
          CFI (cfiCond32) CFA_SP SP+-2
          CFI (cfiCond32) CFA_XSP16 add(XSP16, 9)
          CFI Block cfiPicker33 Using cfiCommon1
          CFI (cfiPicker33) NoFunction
          CFI (cfiPicker33) Picker
        MOV       DPL,R6
        MOV       DPH,R7
          CFI EndBlock cfiCond31
          CFI EndBlock cfiCond32
          CFI EndBlock cfiPicker33
        REQUIRE ??Subroutine17_0
        ; // Fall through to label ??Subroutine17_0

        RSEG BANKED_CODE:HUGECODE:NOROOT(0)
??Subroutine17_0:
          CFI Block cfiCond34 Using cfiCommon0
          CFI Function zclZEM_ProcessInDiscCmdsRspCmd
          CFI Conditional ??CrossCallReturnLabel_22
          CFI DPL0 Frame(CFA_SP, 4)
          CFI DPH0 Frame(CFA_SP, 5)
          CFI CFA_SP SP+-7
          CFI Block cfiCond35 Using cfiCommon0
          CFI (cfiCond35) Function zclZEM_ProcessIncomingMsg
          CFI (cfiCond35) Conditional ??CrossCallReturnLabel_23
          CFI (cfiCond35) R6 load(1, XDATA, add(CFA_XSP16, literal(-9)))
          CFI (cfiCond35) VB load(1, XDATA, add(CFA_XSP16, literal(-8)))
          CFI (cfiCond35) V0 load(1, XDATA, add(CFA_XSP16, literal(-7)))
          CFI (cfiCond35) R7 load(1, XDATA, add(CFA_XSP16, literal(-6)))
          CFI (cfiCond35) ?RET_LOW load(1, XDATA, add(CFA_XSP16, literal(-5)))
          CFI (cfiCond35) ?RET_HIGH load(1, XDATA, add(CFA_XSP16, literal(-4)))
          CFI (cfiCond35) ?BRET_EXT load(1, XDATA, add(CFA_XSP16, literal(-3)))
          CFI (cfiCond35) DPL0 load(1, XDATA, add(CFA_XSP16, literal(-2)))
          CFI (cfiCond35) DPH0 load(1, XDATA, add(CFA_XSP16, literal(-1)))
          CFI (cfiCond35) CFA_SP SP+-2
          CFI (cfiCond35) CFA_XSP16 add(XSP16, 9)
          CFI Block cfiCond36 Using cfiCommon0
          CFI (cfiCond36) Function zclZEM_ProcessIncomingMsg
          CFI (cfiCond36) Conditional ??CrossCallReturnLabel_24
          CFI (cfiCond36) R6 load(1, XDATA, add(CFA_XSP16, literal(-9)))
          CFI (cfiCond36) VB load(1, XDATA, add(CFA_XSP16, literal(-8)))
          CFI (cfiCond36) V0 load(1, XDATA, add(CFA_XSP16, literal(-7)))
          CFI (cfiCond36) R7 load(1, XDATA, add(CFA_XSP16, literal(-6)))
          CFI (cfiCond36) ?RET_LOW load(1, XDATA, add(CFA_XSP16, literal(-5)))
          CFI (cfiCond36) ?RET_HIGH load(1, XDATA, add(CFA_XSP16, literal(-4)))
          CFI (cfiCond36) ?BRET_EXT load(1, XDATA, add(CFA_XSP16, literal(-3)))
          CFI (cfiCond36) DPL0 load(1, XDATA, add(CFA_XSP16, literal(-2)))
          CFI (cfiCond36) DPH0 load(1, XDATA, add(CFA_XSP16, literal(-1)))
          CFI (cfiCond36) CFA_SP SP+-2
          CFI (cfiCond36) CFA_XSP16 add(XSP16, 9)
          CFI Block cfiPicker37 Using cfiCommon1
          CFI (cfiPicker37) NoFunction
          CFI (cfiPicker37) Picker
        MOVX      A,@DPTR
        MOV       R0,A
        INC       DPTR
        MOVX      A,@DPTR
        MOV       R1,A
        MOV       R2,#0x0
        RET
          CFI EndBlock cfiCond34
          CFI EndBlock cfiCond35
          CFI EndBlock cfiCond36
          CFI EndBlock cfiPicker37

        RSEG BANKED_CODE:HUGECODE:NOROOT(0)
?Subroutine9:
          CFI Block cfiCond38 Using cfiCommon0
          CFI Function zclZEM_ProcessIncomingMsg
          CFI Conditional ??CrossCallReturnLabel_10
          CFI R6 load(1, XDATA, add(CFA_XSP16, literal(-9)))
          CFI VB load(1, XDATA, add(CFA_XSP16, literal(-8)))
          CFI V0 load(1, XDATA, add(CFA_XSP16, literal(-7)))
          CFI R7 load(1, XDATA, add(CFA_XSP16, literal(-6)))
          CFI ?RET_LOW load(1, XDATA, add(CFA_XSP16, literal(-5)))
          CFI ?RET_HIGH load(1, XDATA, add(CFA_XSP16, literal(-4)))
          CFI ?BRET_EXT load(1, XDATA, add(CFA_XSP16, literal(-3)))
          CFI DPL0 load(1, XDATA, add(CFA_XSP16, literal(-2)))
          CFI DPH0 load(1, XDATA, add(CFA_XSP16, literal(-1)))
          CFI CFA_SP SP+-2
          CFI CFA_XSP16 add(XSP16, 9)
          CFI Block cfiCond39 Using cfiCommon0
          CFI (cfiCond39) Function zclZEM_ProcessIncomingMsg
          CFI (cfiCond39) Conditional ??CrossCallReturnLabel_11
          CFI (cfiCond39) R6 load(1, XDATA, add(CFA_XSP16, literal(-9)))
          CFI (cfiCond39) VB load(1, XDATA, add(CFA_XSP16, literal(-8)))
          CFI (cfiCond39) V0 load(1, XDATA, add(CFA_XSP16, literal(-7)))
          CFI (cfiCond39) R7 load(1, XDATA, add(CFA_XSP16, literal(-6)))
          CFI (cfiCond39) ?RET_LOW load(1, XDATA, add(CFA_XSP16, literal(-5)))
          CFI (cfiCond39) ?RET_HIGH load(1, XDATA, add(CFA_XSP16, literal(-4)))
          CFI (cfiCond39) ?BRET_EXT load(1, XDATA, add(CFA_XSP16, literal(-3)))
          CFI (cfiCond39) DPL0 load(1, XDATA, add(CFA_XSP16, literal(-2)))
          CFI (cfiCond39) DPH0 load(1, XDATA, add(CFA_XSP16, literal(-1)))
          CFI (cfiCond39) CFA_SP SP+-2
          CFI (cfiCond39) CFA_XSP16 add(XSP16, 9)
          CFI Block cfiPicker40 Using cfiCommon1
          CFI (cfiPicker40) NoFunction
          CFI (cfiPicker40) Picker
        MOV       DPL,R6
        MOV       DPH,R7
        MOVX      A,@DPTR
        MOV       R0,A
        INC       DPTR
        MOVX      A,@DPTR
        MOV       R1,A
        MOV       DPL,R0
        MOV       DPH,R1
        MOV       R0,#0x0
        RET
          CFI EndBlock cfiCond38
          CFI EndBlock cfiCond39
          CFI EndBlock cfiPicker40
//  881 
//  882 #ifdef ZCL_READ
//  883 /*********************************************************************
//  884  * @fn      zclZEM_ProcessInReadRspCmd
//  885  *
//  886  * @brief   Process the "Profile" Read Response Command
//  887  *
//  888  * @param   pInMsg - incoming message to process
//  889  *
//  890  * @return  none
//  891  */
//  892 static uint8 zclZEM_ProcessInReadRspCmd( zclIncomingMsg_t *pInMsg )
//  893 {
//  894   zclReadRspCmd_t *readRspCmd;
//  895   uint8 i;
//  896 
//  897   readRspCmd = (zclReadRspCmd_t *)pInMsg->attrCmd;
//  898   for ( i = 0; i < readRspCmd->numAttr; i++ )
//  899   {
//  900     // Notify the originator of the results of the original read attributes
//  901     // attempt and, for each successfull request, the value of the requested
//  902     // attribute
//  903   }
//  904 
//  905   return ( TRUE );
//  906 }
//  907 #endif // ZCL_READ
//  908 
//  909 #ifdef ZCL_WRITE
//  910 /*********************************************************************
//  911  * @fn      zclZEM_ProcessInWriteRspCmd
//  912  *
//  913  * @brief   Process the "Profile" Write Response Command
//  914  *
//  915  * @param   pInMsg - incoming message to process
//  916  *
//  917  * @return  none
//  918  */
//  919 static uint8 zclZEM_ProcessInWriteRspCmd( zclIncomingMsg_t *pInMsg )
//  920 {
//  921   zclWriteRspCmd_t *writeRspCmd;
//  922   uint8 i;
//  923 
//  924   writeRspCmd = (zclWriteRspCmd_t *)pInMsg->attrCmd;
//  925   for ( i = 0; i < writeRspCmd->numAttr; i++ )
//  926   {
//  927     // Notify the device of the results of the its original write attributes
//  928     // command.
//  929   }
//  930 
//  931   return ( TRUE );
//  932 }
//  933 #endif // ZCL_WRITE
//  934 
//  935 /*********************************************************************
//  936  * @fn      zclZEM_ProcessInDefaultRspCmd
//  937  *
//  938  * @brief   Process the "Profile" Default Response Command
//  939  *
//  940  * @param   pInMsg - incoming message to process
//  941  *
//  942  * @return  none
//  943  */
//  944 static uint8 zclZEM_ProcessInDefaultRspCmd( zclIncomingMsg_t *pInMsg )
//  945 {
//  946   // zclDefaultRspCmd_t *defaultRspCmd = (zclDefaultRspCmd_t *)pInMsg->attrCmd;
//  947 
//  948   // Device is notified of the Default Response command.
//  949   (void)pInMsg;
//  950 
//  951   return ( TRUE );
//  952 }
//  953 
//  954 #ifdef ZCL_DISCOVER
//  955 /*********************************************************************
//  956  * @fn      zclZEM_ProcessInDiscCmdsRspCmd
//  957  *
//  958  * @brief   Process the Discover Commands Response Command
//  959  *
//  960  * @param   pInMsg - incoming message to process
//  961  *
//  962  * @return  none
//  963  */

        RSEG BANKED_CODE:HUGECODE:NOROOT(0)
//  964 static uint8 zclZEM_ProcessInDiscCmdsRspCmd( zclIncomingMsg_t *pInMsg )
zclZEM_ProcessInDiscCmdsRspCmd:
          CFI Block cfiBlock41 Using cfiCommon0
          CFI Function zclZEM_ProcessInDiscCmdsRspCmd
        CODE
//  965 {
        PUSH      DPL
          CFI DPL0 Frame(CFA_SP, 4)
          CFI CFA_SP SP+-4
        PUSH      DPH
          CFI DPH0 Frame(CFA_SP, 5)
          CFI CFA_SP SP+-5
        ; Saved register size: 2
        ; Auto size: 0
//  966   zclDiscoverCmdsCmdRsp_t *discoverRspCmd;
//  967   uint8 i;
//  968 
//  969   discoverRspCmd = (zclDiscoverCmdsCmdRsp_t *)pInMsg->attrCmd;
        MOV       A,R2
        ADD       A,#0x17
        MOV       DPL,A
        CLR       A
        ADDC      A,R3
        MOV       DPH,A
        LCALL     ??Subroutine17_0 & 0xFFFF
//  970   for ( i = 0; i < discoverRspCmd->numCmd; i++ )
??CrossCallReturnLabel_22:
        SJMP      ??zclZEM_ProcessInDiscCmdsRspCmd_0
??zclZEM_ProcessInDiscCmdsRspCmd_1:
        INC       R2
??zclZEM_ProcessInDiscCmdsRspCmd_0:
        MOV       DPL,R0
        MOV       DPH,R1
        INC       DPTR
        INC       DPTR
        MOVX      A,@DPTR
        MOV       R3,A
        MOV       A,R2
        CLR       C
        SUBB      A,R3
        JC        ??zclZEM_ProcessInDiscCmdsRspCmd_1
//  971   {
//  972     // Device is notified of the result of its attribute discovery command.
//  973   }
//  974 
//  975   return ( TRUE );
        MOV       R1,#0x1
        LJMP      ?Subroutine2 & 0xFFFF
//  976 }
          CFI EndBlock cfiBlock41
//  977 
//  978 /*********************************************************************
//  979  * @fn      zclZEM_ProcessInDiscAttrsRspCmd
//  980  *
//  981  * @brief   Process the "Profile" Discover Attributes Response Command
//  982  *
//  983  * @param   pInMsg - incoming message to process
//  984  *
//  985  * @return  none
//  986  */
//  987 static uint8 zclZEM_ProcessInDiscAttrsRspCmd( zclIncomingMsg_t *pInMsg )
//  988 {
//  989   zclDiscoverAttrsRspCmd_t *discoverRspCmd;
//  990   uint8 i;
//  991 
//  992   discoverRspCmd = (zclDiscoverAttrsRspCmd_t *)pInMsg->attrCmd;
//  993   for ( i = 0; i < discoverRspCmd->numAttr; i++ )
//  994   {
//  995     // Device is notified of the result of its attribute discovery command.
//  996   }
//  997 
//  998   return ( TRUE );
//  999 }
// 1000 
// 1001 /*********************************************************************
// 1002  * @fn      zclZEM_ProcessInDiscAttrsExtRspCmd
// 1003  *
// 1004  * @brief   Process the "Profile" Discover Attributes Extended Response Command
// 1005  *
// 1006  * @param   pInMsg - incoming message to process
// 1007  *
// 1008  * @return  none
// 1009  */
// 1010 static uint8 zclZEM_ProcessInDiscAttrsExtRspCmd( zclIncomingMsg_t *pInMsg )
// 1011 {
// 1012   zclDiscoverAttrsExtRsp_t *discoverRspCmd;
// 1013   uint8 i;
// 1014 
// 1015   discoverRspCmd = (zclDiscoverAttrsExtRsp_t *)pInMsg->attrCmd;
// 1016   for ( i = 0; i < discoverRspCmd->numAttr; i++ )
// 1017   {
// 1018     // Device is notified of the result of its attribute discovery command.
// 1019   }
// 1020 
// 1021   return ( TRUE );
// 1022 }
// 1023 #endif // ZCL_DISCOVER
// 1024 
// 1025 
// 1026 
// 1027 
// 1028 /*********************************************************************
// 1029  * @fn      zclZEM_AF_P2P
// 1030  *
// 1031  * @brief   
// 1032  *
// 1033  * @param   destNwkAddr - 
// 1034  * @param   cid - Cluster ID
// 1035  * @param   len - 
// 1036  * @param   data - 
// 1037  *
// 1038  * @return  none
// 1039  */
// 1040 static void zclZEM_AF_P2P(
// 1041     uint16 destNwkAddr,
// 1042     uint16 cid,
// 1043     uint8 len,
// 1044     uint8 *data)
// 1045 {
// 1046     afAddrType_t dstAddr; //

        RSEG XDATA_Z:XDATA:NOROOT(0)
        DATA8
// 1047     static uint8 transferId = 0;//ID
??transferId:
        DS 1
        REQUIRE __INIT_XDATA_Z
// 1048     
// 1049     /* Destination */
// 1050     dstAddr.addrMode = afAddr16Bit;// 16P2P
// 1051     dstAddr.addr.shortAddr = destNwkAddr;//
// 1052     dstAddr.endPoint = ZEM_ENDPOINT;//
// 1053     
// 1054     transferId++;
// 1055     
// 1056     AF_DataRequest(&dstAddr,
// 1057         &ZEM_AppEp,//
// 1058         cid,
// 1059         len,
// 1060         data,
// 1061         &transferId,
// 1062         AF_DISCV_ROUTE,//
// 1063         AF_DEFAULT_RADIUS);//
// 1064 }
// 1065 
// 1066 /*********************************************************************
// 1067  * @fn      zclZEM_AF_Broadcast
// 1068  *
// 1069  * @brief   
// 1070  *
// 1071  * @param   cid - Cluster ID
// 1072  * @param   len - 
// 1073  * @param   data - 
// 1074  *
// 1075  * @return  none
// 1076  */
// 1077 static void zclZEM_AF_Broadcast(
// 1078     uint16 cid,
// 1079     uint8 len,
// 1080     uint8 *data)
// 1081 {
// 1082     afAddrType_t dstAddr;

        RSEG XDATA_Z:XDATA:NOROOT(0)
        DATA8
// 1083     static uint8 transferId = 0;
??transferId_1:
        DS 1
        REQUIRE __INIT_XDATA_Z
// 1084     
// 1085     /* Destination */
// 1086     dstAddr.addrMode = afAddrBroadcast;   // 
// 1087     dstAddr.addr.shortAddr = 0xFFFF; // 
// 1088     dstAddr.endPoint = ZEM_ENDPOINT; // 
// 1089     
// 1090     /* Transfer id */
// 1091     transferId++;
// 1092     
// 1093     /* Send */
// 1094     AF_DataRequest(&dstAddr,
// 1095         &ZEM_AppEp,//
// 1096         cid,
// 1097         len,
// 1098         data,
// 1099         &transferId,
// 1100         AF_TX_OPTIONS_NONE,
// 1101         AF_DEFAULT_RADIUS );//
// 1102 }
// 1103 
// 1104 /*********************************************************************
// 1105  * @fn      zclZEM_AF_Groupcast
// 1106  *
// 1107  * @brief   
// 1108  *
// 1109  * @param   groupId - ID
// 1110  * @param   cid - ClusterID
// 1111  * @param   len - 
// 1112  * @param   data - 
// 1113  *
// 1114  * @return  none
// 1115  */
// 1116 static void zclZEM_AF_Groupcast(
// 1117     uint16 groupId,
// 1118     uint16 cid,
// 1119     uint8 len,
// 1120     uint8 *data)
// 1121 {
// 1122     afAddrType_t dstAddr;

        RSEG XDATA_Z:XDATA:NOROOT(0)
        DATA8
// 1123     static uint8 transferId = 0;
??transferId_2:
        DS 1
        REQUIRE __INIT_XDATA_Z
// 1124     
// 1125     /* Destination */
// 1126     dstAddr.addrMode = afAddrGroup;//
// 1127     dstAddr.addr.shortAddr = groupId;
// 1128     dstAddr.endPoint = ZEM_ENDPOINT;//
// 1129     
// 1130     /* Transfer id */
// 1131     transferId++;
// 1132     
// 1133     /* Send */
// 1134     AF_DataRequest(&dstAddr,
// 1135         &ZEM_AppEp,//
// 1136         cid,
// 1137         len,
// 1138         data,
// 1139         &transferId,
// 1140         AF_TX_OPTIONS_NONE,
// 1141         AF_DEFAULT_RADIUS );//
// 1142 }
// 1143 
// 1144 /*********************************************************************
// 1145  * @fn      zclZEM_AF_RxProc
// 1146  *
// 1147  * @brief   
// 1148  *
// 1149  * @param   MSGpkt - 
// 1150  *
// 1151  * @return  none
// 1152  */

        RSEG BANKED_CODE:HUGECODE:NOROOT(0)
// 1153 static void zclZEM_AF_RxProc(afIncomingMSGPacket_t *MSGpkt)
zclZEM_AF_RxProc:
          CFI Block cfiBlock42 Using cfiCommon0
          CFI Function zclZEM_AF_RxProc
        CODE
// 1154 {
        FUNCALL zclZEM_AF_RxProc, osal_memcpy
        LOCFRAME ISTACK, 0, STACK
        LOCFRAME PSTACK, 0, STACK
        LOCFRAME XSTACK, 116, STACK
        LOCFRAME IOVERLAY, 0, STATIC
        LOCFRAME DOVERLAY, 0, STATIC
        ARGFRAME ISTACK, 0, STACK
        ARGFRAME PSTACK, 0, STACK
        ARGFRAME XSTACK, 116, STACK
        ARGFRAME IOVERLAY, 0, STATIC
        ARGFRAME DOVERLAY, 0, STATIC
        FUNCALL zclZEM_AF_RxProc, osal_memcpy
        LOCFRAME ISTACK, 0, STACK
        LOCFRAME PSTACK, 0, STACK
        LOCFRAME XSTACK, 116, STACK
        LOCFRAME IOVERLAY, 0, STATIC
        LOCFRAME DOVERLAY, 0, STATIC
        ARGFRAME ISTACK, 0, STACK
        ARGFRAME PSTACK, 0, STACK
        ARGFRAME XSTACK, 116, STACK
        ARGFRAME IOVERLAY, 0, STATIC
        ARGFRAME DOVERLAY, 0, STATIC
        FUNCALL zclZEM_AF_RxProc, osal_memcpy
        LOCFRAME ISTACK, 0, STACK
        LOCFRAME PSTACK, 0, STACK
        LOCFRAME XSTACK, 116, STACK
        LOCFRAME IOVERLAY, 0, STATIC
        LOCFRAME DOVERLAY, 0, STATIC
        ARGFRAME ISTACK, 0, STACK
        ARGFRAME PSTACK, 0, STACK
        ARGFRAME XSTACK, 116, STACK
        ARGFRAME IOVERLAY, 0, STATIC
        ARGFRAME DOVERLAY, 0, STATIC
        FUNCALL zclZEM_AF_RxProc, HalUARTWrite
        LOCFRAME ISTACK, 0, STACK
        LOCFRAME PSTACK, 0, STACK
        LOCFRAME XSTACK, 113, STACK
        LOCFRAME IOVERLAY, 0, STATIC
        LOCFRAME DOVERLAY, 0, STATIC
        ARGFRAME ISTACK, 0, STACK
        ARGFRAME PSTACK, 0, STACK
        ARGFRAME XSTACK, 113, STACK
        ARGFRAME IOVERLAY, 0, STATIC
        ARGFRAME DOVERLAY, 0, STATIC
        FUNCALL zclZEM_AF_RxProc, HalUARTWrite
        LOCFRAME ISTACK, 0, STACK
        LOCFRAME PSTACK, 0, STACK
        LOCFRAME XSTACK, 113, STACK
        LOCFRAME IOVERLAY, 0, STATIC
        LOCFRAME DOVERLAY, 0, STATIC
        ARGFRAME ISTACK, 0, STACK
        ARGFRAME PSTACK, 0, STACK
        ARGFRAME XSTACK, 113, STACK
        ARGFRAME IOVERLAY, 0, STATIC
        ARGFRAME DOVERLAY, 0, STATIC
        FUNCALL zclZEM_AF_RxProc, osal_memcpy
        LOCFRAME ISTACK, 0, STACK
        LOCFRAME PSTACK, 0, STACK
        LOCFRAME XSTACK, 116, STACK
        LOCFRAME IOVERLAY, 0, STATIC
        LOCFRAME DOVERLAY, 0, STATIC
        ARGFRAME ISTACK, 0, STACK
        ARGFRAME PSTACK, 0, STACK
        ARGFRAME XSTACK, 116, STACK
        ARGFRAME IOVERLAY, 0, STATIC
        ARGFRAME DOVERLAY, 0, STATIC
        FUNCALL zclZEM_AF_RxProc, osal_memcpy
        LOCFRAME ISTACK, 0, STACK
        LOCFRAME PSTACK, 0, STACK
        LOCFRAME XSTACK, 116, STACK
        LOCFRAME IOVERLAY, 0, STATIC
        LOCFRAME DOVERLAY, 0, STATIC
        ARGFRAME ISTACK, 0, STACK
        ARGFRAME PSTACK, 0, STACK
        ARGFRAME XSTACK, 116, STACK
        ARGFRAME IOVERLAY, 0, STATIC
        ARGFRAME DOVERLAY, 0, STATIC
        FUNCALL zclZEM_AF_RxProc, osal_memcpy
        LOCFRAME ISTACK, 0, STACK
        LOCFRAME PSTACK, 0, STACK
        LOCFRAME XSTACK, 116, STACK
        LOCFRAME IOVERLAY, 0, STATIC
        LOCFRAME DOVERLAY, 0, STATIC
        ARGFRAME ISTACK, 0, STACK
        ARGFRAME PSTACK, 0, STACK
        ARGFRAME XSTACK, 116, STACK
        ARGFRAME IOVERLAY, 0, STATIC
        ARGFRAME DOVERLAY, 0, STATIC
        FUNCALL zclZEM_AF_RxProc, HalUARTWrite
        LOCFRAME ISTACK, 0, STACK
        LOCFRAME PSTACK, 0, STACK
        LOCFRAME XSTACK, 113, STACK
        LOCFRAME IOVERLAY, 0, STATIC
        LOCFRAME DOVERLAY, 0, STATIC
        ARGFRAME ISTACK, 0, STACK
        ARGFRAME PSTACK, 0, STACK
        ARGFRAME XSTACK, 113, STACK
        ARGFRAME IOVERLAY, 0, STATIC
        ARGFRAME DOVERLAY, 0, STATIC
        FUNCALL zclZEM_AF_RxProc, osal_memcpy
        LOCFRAME ISTACK, 0, STACK
        LOCFRAME PSTACK, 0, STACK
        LOCFRAME XSTACK, 116, STACK
        LOCFRAME IOVERLAY, 0, STATIC
        LOCFRAME DOVERLAY, 0, STATIC
        ARGFRAME ISTACK, 0, STACK
        ARGFRAME PSTACK, 0, STACK
        ARGFRAME XSTACK, 116, STACK
        ARGFRAME IOVERLAY, 0, STATIC
        ARGFRAME DOVERLAY, 0, STATIC
        FUNCALL zclZEM_AF_RxProc, osal_memcpy
        LOCFRAME ISTACK, 0, STACK
        LOCFRAME PSTACK, 0, STACK
        LOCFRAME XSTACK, 116, STACK
        LOCFRAME IOVERLAY, 0, STATIC
        LOCFRAME DOVERLAY, 0, STATIC
        ARGFRAME ISTACK, 0, STACK
        ARGFRAME PSTACK, 0, STACK
        ARGFRAME XSTACK, 116, STACK
        ARGFRAME IOVERLAY, 0, STATIC
        ARGFRAME DOVERLAY, 0, STATIC
        FUNCALL zclZEM_AF_RxProc, osal_memcpy
        LOCFRAME ISTACK, 0, STACK
        LOCFRAME PSTACK, 0, STACK
        LOCFRAME XSTACK, 116, STACK
        LOCFRAME IOVERLAY, 0, STATIC
        LOCFRAME DOVERLAY, 0, STATIC
        ARGFRAME ISTACK, 0, STACK
        ARGFRAME PSTACK, 0, STACK
        ARGFRAME XSTACK, 116, STACK
        ARGFRAME IOVERLAY, 0, STATIC
        ARGFRAME DOVERLAY, 0, STATIC
        FUNCALL zclZEM_AF_RxProc, HalUARTWrite
        LOCFRAME ISTACK, 0, STACK
        LOCFRAME PSTACK, 0, STACK
        LOCFRAME XSTACK, 113, STACK
        LOCFRAME IOVERLAY, 0, STATIC
        LOCFRAME DOVERLAY, 0, STATIC
        ARGFRAME ISTACK, 0, STACK
        ARGFRAME PSTACK, 0, STACK
        ARGFRAME XSTACK, 113, STACK
        ARGFRAME IOVERLAY, 0, STATIC
        ARGFRAME DOVERLAY, 0, STATIC
        REQUIRE ?V0
        REQUIRE ?V1
        REQUIRE ?V2
        REQUIRE ?V3
        REQUIRE ?V4
        REQUIRE ?V5
        REQUIRE ?V6
        REQUIRE ?V8
        REQUIRE ?V9
        REQUIRE ?V10
        MOV       A,#-0x13
        LCALL     ?BANKED_ENTER_XDATA
          CFI DPH0 load(1, XDATA, add(CFA_XSP16, literal(-1)))
          CFI DPL0 load(1, XDATA, add(CFA_XSP16, literal(-2)))
          CFI ?BRET_EXT load(1, XDATA, add(CFA_XSP16, literal(-3)))
          CFI ?RET_HIGH load(1, XDATA, add(CFA_XSP16, literal(-4)))
          CFI ?RET_LOW load(1, XDATA, add(CFA_XSP16, literal(-5)))
          CFI R7 load(1, XDATA, add(CFA_XSP16, literal(-6)))
          CFI V10 load(1, XDATA, add(CFA_XSP16, literal(-7)))
          CFI V9 load(1, XDATA, add(CFA_XSP16, literal(-8)))
          CFI V8 load(1, XDATA, add(CFA_XSP16, literal(-9)))
          CFI V7 load(1, XDATA, add(CFA_XSP16, literal(-10)))
          CFI V6 load(1, XDATA, add(CFA_XSP16, literal(-11)))
          CFI V5 load(1, XDATA, add(CFA_XSP16, literal(-12)))
          CFI V4 load(1, XDATA, add(CFA_XSP16, literal(-13)))
          CFI V3 load(1, XDATA, add(CFA_XSP16, literal(-14)))
          CFI V2 load(1, XDATA, add(CFA_XSP16, literal(-15)))
          CFI V1 load(1, XDATA, add(CFA_XSP16, literal(-16)))
          CFI V0 load(1, XDATA, add(CFA_XSP16, literal(-17)))
          CFI VB load(1, XDATA, add(CFA_XSP16, literal(-18)))
          CFI R6 load(1, XDATA, add(CFA_XSP16, literal(-19)))
          CFI CFA_SP SP+0
          CFI CFA_XSP16 add(XSP16, 19)
        ; Saved register size: 19
        ; Auto size: 94
        MOV       A,#-0x5e
        LCALL     ?ALLOC_XSTACK8
          CFI CFA_XSP16 add(XSP16, 113)
// 1155     /**/
// 1156     static uint8 p2pCnt = 0;
// 1157     /**/
// 1158     static uint8 bcCnt = 0;
// 1159     /**/
// 1160     static uint8 gcCnt = 0;
// 1161     
// 1162     switch( MSGpkt->clusterId )  // Cluster ID
        MOV       ?V4,#`?<Constant " Count: ">` & 0xff
        MOV       ?V5,#(`?<Constant " Count: ">` >> 8) & 0xff
        MOV       ?V6,#0x0
        MOV       A,R2
        ADD       A,#0x22
        MOV       ?V0,A
        CLR       A
        ADDC      A,R3
        MOV       ?V1,A
        MOV       A,R2
        ADD       A,#0x20
        MOV       R6,A
        CLR       A
        ADDC      A,R3
        MOV       R7,A
        MOV       DPL,R2
        MOV       DPH,R3
        INC       DPTR
        INC       DPTR
        INC       DPTR
        INC       DPTR
        MOVX      A,@DPTR
        MOV       ?V2,A
        INC       DPTR
        MOVX      A,@DPTR
        MOV       ?V3,A
        MOV       R0,#?V2
        LCALL     ?US_SWITCH_DENSE
`?<Jumptable for zclZEM_AF_RxProc>_0`:
        DATA
        DATA16
        DATA
        DATA16
        DW        0
        DATA
        DATA8
        DATA
        DATA8
        DB        2
        DATA
        DATA16
        DATA
        DATA16
        DW        ??zclZEM_AF_RxProc_0
        DATA
        DATA16
        DATA
        DATA16
        DW        ??zclZEM_AF_RxProc_1
        DATA
        DATA16
        DATA
        DATA16
        DW        ??zclZEM_AF_RxProc_2
        DATA
        DATA16
        DATA
        DATA16
        DW        ??zclZEM_AF_RxProc_3
        CODE
// 1163     {
// 1164         case CLUSTER_P2P:
// 1165             p2pCnt++;  // P2P
??zclZEM_AF_RxProc_1:
        MOV       DPTR,#??p2pCnt
        MOVX      A,@DPTR
        INC       A
        MOVX      @DPTR,A
// 1166             // 
// 1167             {
// 1168                 uint8 p2pMsg[64];
// 1169                 osal_memcpy(p2pMsg, "P2P Data: ", 10);
        ; Setup parameters for call to function osal_memcpy
        MOV       ?V8,#`?<Constant "P2P Data: ">` & 0xff
        MOV       ?V9,#(`?<Constant "P2P Data: ">` >> 8) & 0xff
        MOV       ?V10,#0x0
        MOV       R0,#?V8
        LCALL     ?PUSH_XSTACK_I_THREE
          CFI CFA_XSP16 add(XSP16, 116)
        MOV       R4,#0xa
        MOV       R5,#0x0
        MOV       A,#0x3
        LCALL     ?XSTACK_DISP101_8
        LCALL     `??osal_memcpy::?relay`; Banked call to: osal_memcpy
        MOV       A,#0x3
        LCALL     ?DEALLOC_XSTACK8
          CFI CFA_XSP16 add(XSP16, 113)
// 1170                 osal_memcpy(p2pMsg + 10, MSGpkt->cmd.Data, MSGpkt->cmd.DataLength);
        ; Setup parameters for call to function osal_memcpy
        LCALL     ?Subroutine5 & 0xFFFF
??CrossCallReturnLabel_3:
        LCALL     ?PUSH_XSTACK_I_THREE
          CFI CFA_XSP16 add(XSP16, 116)
        MOV       DPL,R6
        MOV       DPH,R7
        MOVX      A,@DPTR
        MOV       R4,A
        INC       DPTR
        MOVX      A,@DPTR
        MOV       R5,A
        MOV       A,#0xd
        LCALL     ?XSTACK_DISP0_8
        MOV       R2,DPL
        MOV       R3,DPH
        LCALL     `??osal_memcpy::?relay`; Banked call to: osal_memcpy
        MOV       A,#0x3
        LCALL     ?DEALLOC_XSTACK8
          CFI CFA_XSP16 add(XSP16, 113)
// 1171                 osal_memcpy(p2pMsg + 10 + MSGpkt->cmd.DataLength, " Count: ", 8);
        ; Setup parameters for call to function osal_memcpy
        MOV       R0,#?V4
        LCALL     ?PUSH_XSTACK_I_THREE
          CFI CFA_XSP16 add(XSP16, 116)
        MOV       R4,#0x8
        MOV       R5,#0x0
        MOV       DPL,R6
        MOV       DPH,R7
        MOV       A,#0x3
        LCALL     ?XSTACK_DISP100_8
        MOV       ?V1,R1
        LCALL     ??Subroutine18_0 & 0xFFFF
??CrossCallReturnLabel_25:
        ADD       A,#0xa
        MOV       R2,A
        CLR       A
        ADDC      A,R1
        MOV       R3,A
        LCALL     `??osal_memcpy::?relay`; Banked call to: osal_memcpy
        MOV       A,#0x3
        LCALL     ?DEALLOC_XSTACK8
          CFI CFA_XSP16 add(XSP16, 113)
// 1172                 p2pMsg[18 + MSGpkt->cmd.DataLength] = '0' + p2pCnt;
        MOV       DPTR,#??p2pCnt
        MOVX      A,@DPTR
        ADD       A,#0x30
        PUSH      A
          CFI CFA_SP SP+-1
        LCALL     ?Subroutine7 & 0xFFFF
// 1173                 p2pMsg[19 + MSGpkt->cmd.DataLength] = '\r';
// 1174                 p2pMsg[20 + MSGpkt->cmd.DataLength] = '\n';
// 1175                 HalUARTWrite(HAL_UART_PORT_0, p2pMsg, 21 + MSGpkt->cmd.DataLength);
// 1176             }
??CrossCallReturnLabel_26:
        ADD       A,#0x12
        MOV       DPL,A
        CLR       A
        ADDC      A,R1
        MOV       DPH,A
        POP       A
          CFI CFA_SP SP+0
        LCALL     ??Subroutine19_0 & 0xFFFF
??CrossCallReturnLabel_32:
        ADD       A,#0x13
        LCALL     ?Subroutine3 & 0xFFFF
??CrossCallReturnLabel_30:
        ADD       A,#0x14
        LCALL     ?Subroutine13 & 0xFFFF
??CrossCallReturnLabel_16:
        ADD       A,#0x15
        LJMP      ??zclZEM_AF_RxProc_4 & 0xFFFF
// 1177             break;
// 1178         case CLUSTER_BROADCAST:
// 1179             bcCnt++;  // 
??zclZEM_AF_RxProc_2:
        MOV       DPTR,#??bcCnt
        MOVX      A,@DPTR
        INC       A
        MOVX      @DPTR,A
// 1180             
// 1181             // 
// 1182             uint8 bcRecvMsg[] = "Broadcast message received!\r\n";
        MOV       DPTR,#`?<Constant "Broadcast message rec...">`
        MOV       A,#0x40
        LCALL     ?XSTACK_DISP102_8
        MOV       A,#0x1e
        LCALL     ?MOVE_LONG8_XDATA_XDATA
// 1183             HalUARTWrite(HAL_UART_PORT_0, bcRecvMsg, sizeof(bcRecvMsg)-1);
        ; Setup parameters for call to function HalUARTWrite
        MOV       R4,#0x1d
        MOV       R5,A
        MOV       A,#0x40
        LCALL     ?XSTACK_DISP101_8
        MOV       R1,#0x0
        LCALL     `??HalUARTWrite::?relay`; Banked call to: HalUARTWrite
// 1184             
// 1185             // 
// 1186             {
// 1187                 uint8 bcMsg[64];
// 1188                 osal_memcpy(bcMsg, "Broadcast Data: ", 16);
        ; Setup parameters for call to function osal_memcpy
        MOV       ?V8,#`?<Constant "Broadcast Data: ">` & 0xff
        MOV       ?V9,#(`?<Constant "Broadcast Data: ">` >> 8) & 0xff
        MOV       ?V10,#0x0
        MOV       R0,#?V8
        LCALL     ?PUSH_XSTACK_I_THREE
          CFI CFA_XSP16 add(XSP16, 116)
        MOV       R4,#0x10
        MOV       R5,#0x0
        MOV       A,#0x3
        LCALL     ?XSTACK_DISP101_8
        LCALL     `??osal_memcpy::?relay`; Banked call to: osal_memcpy
        MOV       A,#0x3
        LCALL     ?DEALLOC_XSTACK8
          CFI CFA_XSP16 add(XSP16, 113)
// 1189                 osal_memcpy(bcMsg + 16, MSGpkt->cmd.Data, MSGpkt->cmd.DataLength);
        ; Setup parameters for call to function osal_memcpy
        LCALL     ?Subroutine5 & 0xFFFF
??CrossCallReturnLabel_4:
        LCALL     ?PUSH_XSTACK_I_THREE
          CFI CFA_XSP16 add(XSP16, 116)
        MOV       DPL,R6
        MOV       DPH,R7
        MOVX      A,@DPTR
        MOV       R4,A
        INC       DPTR
        MOVX      A,@DPTR
        MOV       R5,A
        MOV       A,#0x13
        LCALL     ?XSTACK_DISP0_8
        MOV       R2,DPL
        MOV       R3,DPH
        LCALL     `??osal_memcpy::?relay`; Banked call to: osal_memcpy
        MOV       A,#0x3
        LCALL     ?DEALLOC_XSTACK8
          CFI CFA_XSP16 add(XSP16, 113)
// 1190                 osal_memcpy(bcMsg + 16 + MSGpkt->cmd.DataLength, " Count: ", 8);
        ; Setup parameters for call to function osal_memcpy
        MOV       R0,#?V4
        LCALL     ?PUSH_XSTACK_I_THREE
          CFI CFA_XSP16 add(XSP16, 116)
        MOV       R4,#0x8
        MOV       R5,#0x0
        MOV       DPL,R6
        MOV       DPH,R7
        MOV       A,#0x3
        LCALL     ?XSTACK_DISP100_8
        LCALL     ?Subroutine6 & 0xFFFF
??CrossCallReturnLabel_6:
        LCALL     `??osal_memcpy::?relay`; Banked call to: osal_memcpy
        MOV       A,#0x3
        LCALL     ?DEALLOC_XSTACK8
          CFI CFA_XSP16 add(XSP16, 113)
// 1191                 bcMsg[24 + MSGpkt->cmd.DataLength] = '0' + bcCnt;
        MOV       DPTR,#??bcCnt
        SJMP      ??zclZEM_AF_RxProc_5
// 1192                 bcMsg[25 + MSGpkt->cmd.DataLength] = '\r';
// 1193                 bcMsg[26 + MSGpkt->cmd.DataLength] = '\n';
// 1194                 HalUARTWrite(HAL_UART_PORT_0, bcMsg, 27 + MSGpkt->cmd.DataLength);
// 1195             }
// 1196             break;
// 1197         case CLUSTER_GROUPCAST:
// 1198             gcCnt++;  // 
??zclZEM_AF_RxProc_3:
        MOV       DPTR,#??gcCnt
        MOVX      A,@DPTR
        INC       A
        MOVX      @DPTR,A
// 1199             // 
// 1200             {
// 1201                 uint8 gcMsg[64];
// 1202                 osal_memcpy(gcMsg, "Groupcast Data: ", 16);
        ; Setup parameters for call to function osal_memcpy
        MOV       ?V8,#`?<Constant "Groupcast Data: ">` & 0xff
        MOV       ?V9,#(`?<Constant "Groupcast Data: ">` >> 8) & 0xff
        MOV       ?V10,#0x0
        MOV       R0,#?V8
        LCALL     ?PUSH_XSTACK_I_THREE
          CFI CFA_XSP16 add(XSP16, 116)
        MOV       R4,#0x10
        MOV       R5,#0x0
        MOV       A,#0x3
        LCALL     ?XSTACK_DISP101_8
        LCALL     `??osal_memcpy::?relay`; Banked call to: osal_memcpy
        MOV       A,#0x3
        LCALL     ?DEALLOC_XSTACK8
          CFI CFA_XSP16 add(XSP16, 113)
// 1203                 osal_memcpy(gcMsg + 16, MSGpkt->cmd.Data, MSGpkt->cmd.DataLength);
        ; Setup parameters for call to function osal_memcpy
        LCALL     ?Subroutine5 & 0xFFFF
??CrossCallReturnLabel_5:
        LCALL     ?PUSH_XSTACK_I_THREE
          CFI CFA_XSP16 add(XSP16, 116)
        MOV       DPL,R6
        MOV       DPH,R7
        MOVX      A,@DPTR
        MOV       R4,A
        INC       DPTR
        MOVX      A,@DPTR
        MOV       R5,A
        MOV       A,#0x13
        LCALL     ?XSTACK_DISP0_8
        MOV       R2,DPL
        MOV       R3,DPH
        LCALL     `??osal_memcpy::?relay`; Banked call to: osal_memcpy
        MOV       A,#0x3
        LCALL     ?DEALLOC_XSTACK8
          CFI CFA_XSP16 add(XSP16, 113)
// 1204                 osal_memcpy(gcMsg + 16 + MSGpkt->cmd.DataLength, " Count: ", 8);
        ; Setup parameters for call to function osal_memcpy
        MOV       R0,#?V4
        LCALL     ?PUSH_XSTACK_I_THREE
          CFI CFA_XSP16 add(XSP16, 116)
        MOV       R4,#0x8
        MOV       R5,#0x0
        MOV       DPL,R6
        MOV       DPH,R7
        MOV       A,#0x3
        LCALL     ?XSTACK_DISP100_8
        LCALL     ?Subroutine6 & 0xFFFF
??CrossCallReturnLabel_7:
        LCALL     `??osal_memcpy::?relay`; Banked call to: osal_memcpy
        MOV       A,#0x3
        LCALL     ?DEALLOC_XSTACK8
          CFI CFA_XSP16 add(XSP16, 113)
// 1205                 gcMsg[24 + MSGpkt->cmd.DataLength] = '0' + gcCnt;
        MOV       DPTR,#??gcCnt
??zclZEM_AF_RxProc_5:
        MOVX      A,@DPTR
        ADD       A,#0x30
        PUSH      A
          CFI CFA_SP SP+-1
// 1206                 gcMsg[25 + MSGpkt->cmd.DataLength] = '\r';
// 1207                 gcMsg[26 + MSGpkt->cmd.DataLength] = '\n';
// 1208                 HalUARTWrite(HAL_UART_PORT_0, gcMsg, 27 + MSGpkt->cmd.DataLength);
// 1209             }
        LCALL     ?Subroutine7 & 0xFFFF
??CrossCallReturnLabel_27:
        ADD       A,#0x18
        MOV       DPL,A
        CLR       A
        ADDC      A,R1
        MOV       DPH,A
        POP       A
          CFI CFA_SP SP+0
        LCALL     ??Subroutine19_0 & 0xFFFF
??CrossCallReturnLabel_33:
        ADD       A,#0x19
        LCALL     ?Subroutine3 & 0xFFFF
??CrossCallReturnLabel_31:
        ADD       A,#0x1a
        LCALL     ?Subroutine13 & 0xFFFF
??CrossCallReturnLabel_17:
        ADD       A,#0x1b
??zclZEM_AF_RxProc_4:
        MOV       R4,A
        INC       DPTR
        MOVX      A,@DPTR
        ADDC      A,#0x0
        MOV       R5,A
        MOV       R2,?XSP + 0
        MOV       R3,?XSP + 1
        MOV       R1,#0x0
        LCALL     `??HalUARTWrite::?relay`; Banked call to: HalUARTWrite
// 1210             break;
// 1211         default:
// 1212             break;
// 1213     }
// 1214 }
??zclZEM_AF_RxProc_0:
        MOV       A,#0x5e
        LCALL     ?DEALLOC_XSTACK8
          CFI CFA_XSP16 add(XSP16, 19)
        MOV       R7,#0xb
        LJMP      ?BANKED_LEAVE_XDATA
          CFI EndBlock cfiBlock42

        RSEG BANKED_CODE:HUGECODE:NOROOT(0)
?Subroutine13:
          CFI Block cfiCond43 Using cfiCommon0
          CFI Function zclZEM_AF_RxProc
          CFI Conditional ??CrossCallReturnLabel_16
          CFI R6 load(1, XDATA, add(CFA_XSP16, literal(-19)))
          CFI VB load(1, XDATA, add(CFA_XSP16, literal(-18)))
          CFI V0 load(1, XDATA, add(CFA_XSP16, literal(-17)))
          CFI V1 load(1, XDATA, add(CFA_XSP16, literal(-16)))
          CFI V2 load(1, XDATA, add(CFA_XSP16, literal(-15)))
          CFI V3 load(1, XDATA, add(CFA_XSP16, literal(-14)))
          CFI V4 load(1, XDATA, add(CFA_XSP16, literal(-13)))
          CFI V5 load(1, XDATA, add(CFA_XSP16, literal(-12)))
          CFI V6 load(1, XDATA, add(CFA_XSP16, literal(-11)))
          CFI V7 load(1, XDATA, add(CFA_XSP16, literal(-10)))
          CFI V8 load(1, XDATA, add(CFA_XSP16, literal(-9)))
          CFI V9 load(1, XDATA, add(CFA_XSP16, literal(-8)))
          CFI V10 load(1, XDATA, add(CFA_XSP16, literal(-7)))
          CFI R7 load(1, XDATA, add(CFA_XSP16, literal(-6)))
          CFI ?RET_LOW load(1, XDATA, add(CFA_XSP16, literal(-5)))
          CFI ?RET_HIGH load(1, XDATA, add(CFA_XSP16, literal(-4)))
          CFI ?BRET_EXT load(1, XDATA, add(CFA_XSP16, literal(-3)))
          CFI DPL0 load(1, XDATA, add(CFA_XSP16, literal(-2)))
          CFI DPH0 load(1, XDATA, add(CFA_XSP16, literal(-1)))
          CFI CFA_SP SP+-2
          CFI CFA_XSP16 add(XSP16, 113)
          CFI Block cfiCond44 Using cfiCommon0
          CFI (cfiCond44) Function zclZEM_AF_RxProc
          CFI (cfiCond44) Conditional ??CrossCallReturnLabel_17
          CFI (cfiCond44) R6 load(1, XDATA, add(CFA_XSP16, literal(-19)))
          CFI (cfiCond44) VB load(1, XDATA, add(CFA_XSP16, literal(-18)))
          CFI (cfiCond44) V0 load(1, XDATA, add(CFA_XSP16, literal(-17)))
          CFI (cfiCond44) V1 load(1, XDATA, add(CFA_XSP16, literal(-16)))
          CFI (cfiCond44) V2 load(1, XDATA, add(CFA_XSP16, literal(-15)))
          CFI (cfiCond44) V3 load(1, XDATA, add(CFA_XSP16, literal(-14)))
          CFI (cfiCond44) V4 load(1, XDATA, add(CFA_XSP16, literal(-13)))
          CFI (cfiCond44) V5 load(1, XDATA, add(CFA_XSP16, literal(-12)))
          CFI (cfiCond44) V6 load(1, XDATA, add(CFA_XSP16, literal(-11)))
          CFI (cfiCond44) V7 load(1, XDATA, add(CFA_XSP16, literal(-10)))
          CFI (cfiCond44) V8 load(1, XDATA, add(CFA_XSP16, literal(-9)))
          CFI (cfiCond44) V9 load(1, XDATA, add(CFA_XSP16, literal(-8)))
          CFI (cfiCond44) V10 load(1, XDATA, add(CFA_XSP16, literal(-7)))
          CFI (cfiCond44) R7 load(1, XDATA, add(CFA_XSP16, literal(-6)))
          CFI (cfiCond44) ?RET_LOW load(1, XDATA, add(CFA_XSP16, literal(-5)))
          CFI (cfiCond44) ?RET_HIGH load(1, XDATA, add(CFA_XSP16, literal(-4)))
          CFI (cfiCond44) ?BRET_EXT load(1, XDATA, add(CFA_XSP16, literal(-3)))
          CFI (cfiCond44) DPL0 load(1, XDATA, add(CFA_XSP16, literal(-2)))
          CFI (cfiCond44) DPH0 load(1, XDATA, add(CFA_XSP16, literal(-1)))
          CFI (cfiCond44) CFA_SP SP+-2
          CFI (cfiCond44) CFA_XSP16 add(XSP16, 113)
          CFI Block cfiPicker45 Using cfiCommon1
          CFI (cfiPicker45) NoFunction
          CFI (cfiPicker45) Picker
        MOV       DPL,A
        CLR       A
        ADDC      A,R1
        MOV       DPH,A
        MOV       A,#0xa
        MOVX      @DPTR,A
        ; Setup parameters for call to function HalUARTWrite
        ; Setup parameters for call to function HalUARTWrite
        MOV       DPL,R6
        MOV       DPH,R7
        MOVX      A,@DPTR
        RET
          CFI EndBlock cfiCond43
          CFI EndBlock cfiCond44
          CFI EndBlock cfiPicker45

        RSEG BANKED_CODE:HUGECODE:NOROOT(0)
?Subroutine7:
          CFI Block cfiCond46 Using cfiCommon0
          CFI Function zclZEM_AF_RxProc
          CFI Conditional ??CrossCallReturnLabel_26
          CFI R6 load(1, XDATA, add(CFA_XSP16, literal(-19)))
          CFI VB load(1, XDATA, add(CFA_XSP16, literal(-18)))
          CFI V0 load(1, XDATA, add(CFA_XSP16, literal(-17)))
          CFI V1 load(1, XDATA, add(CFA_XSP16, literal(-16)))
          CFI V2 load(1, XDATA, add(CFA_XSP16, literal(-15)))
          CFI V3 load(1, XDATA, add(CFA_XSP16, literal(-14)))
          CFI V4 load(1, XDATA, add(CFA_XSP16, literal(-13)))
          CFI V5 load(1, XDATA, add(CFA_XSP16, literal(-12)))
          CFI V6 load(1, XDATA, add(CFA_XSP16, literal(-11)))
          CFI V7 load(1, XDATA, add(CFA_XSP16, literal(-10)))
          CFI V8 load(1, XDATA, add(CFA_XSP16, literal(-9)))
          CFI V9 load(1, XDATA, add(CFA_XSP16, literal(-8)))
          CFI V10 load(1, XDATA, add(CFA_XSP16, literal(-7)))
          CFI R7 load(1, XDATA, add(CFA_XSP16, literal(-6)))
          CFI ?RET_LOW load(1, XDATA, add(CFA_XSP16, literal(-5)))
          CFI ?RET_HIGH load(1, XDATA, add(CFA_XSP16, literal(-4)))
          CFI ?BRET_EXT load(1, XDATA, add(CFA_XSP16, literal(-3)))
          CFI DPL0 load(1, XDATA, add(CFA_XSP16, literal(-2)))
          CFI DPH0 load(1, XDATA, add(CFA_XSP16, literal(-1)))
          CFI CFA_XSP16 add(XSP16, 113)
          CFI Block cfiCond47 Using cfiCommon0
          CFI (cfiCond47) Function zclZEM_AF_RxProc
          CFI (cfiCond47) Conditional ??CrossCallReturnLabel_27
          CFI (cfiCond47) R6 load(1, XDATA, add(CFA_XSP16, literal(-19)))
          CFI (cfiCond47) VB load(1, XDATA, add(CFA_XSP16, literal(-18)))
          CFI (cfiCond47) V0 load(1, XDATA, add(CFA_XSP16, literal(-17)))
          CFI (cfiCond47) V1 load(1, XDATA, add(CFA_XSP16, literal(-16)))
          CFI (cfiCond47) V2 load(1, XDATA, add(CFA_XSP16, literal(-15)))
          CFI (cfiCond47) V3 load(1, XDATA, add(CFA_XSP16, literal(-14)))
          CFI (cfiCond47) V4 load(1, XDATA, add(CFA_XSP16, literal(-13)))
          CFI (cfiCond47) V5 load(1, XDATA, add(CFA_XSP16, literal(-12)))
          CFI (cfiCond47) V6 load(1, XDATA, add(CFA_XSP16, literal(-11)))
          CFI (cfiCond47) V7 load(1, XDATA, add(CFA_XSP16, literal(-10)))
          CFI (cfiCond47) V8 load(1, XDATA, add(CFA_XSP16, literal(-9)))
          CFI (cfiCond47) V9 load(1, XDATA, add(CFA_XSP16, literal(-8)))
          CFI (cfiCond47) V10 load(1, XDATA, add(CFA_XSP16, literal(-7)))
          CFI (cfiCond47) R7 load(1, XDATA, add(CFA_XSP16, literal(-6)))
          CFI (cfiCond47) ?RET_LOW load(1, XDATA, add(CFA_XSP16, literal(-5)))
          CFI (cfiCond47) ?RET_HIGH load(1, XDATA, add(CFA_XSP16, literal(-4)))
          CFI (cfiCond47) ?BRET_EXT load(1, XDATA, add(CFA_XSP16, literal(-3)))
          CFI (cfiCond47) DPL0 load(1, XDATA, add(CFA_XSP16, literal(-2)))
          CFI (cfiCond47) DPH0 load(1, XDATA, add(CFA_XSP16, literal(-1)))
          CFI (cfiCond47) CFA_XSP16 add(XSP16, 113)
          CFI Block cfiPicker48 Using cfiCommon1
          CFI (cfiPicker48) NoFunction
          CFI (cfiPicker48) Picker
        MOV       DPL,R6
        MOV       DPH,R7
        MOV       R0,?XSP + 0
        MOV       ?V0,R0
          CFI EndBlock cfiCond46
          CFI EndBlock cfiCond47
          CFI EndBlock cfiPicker48
        REQUIRE ??Subroutine18_0
        ; // Fall through to label ??Subroutine18_0

        RSEG BANKED_CODE:HUGECODE:NOROOT(0)
??Subroutine18_0:
          CFI Block cfiCond49 Using cfiCommon0
          CFI Function zclZEM_AF_RxProc
          CFI Conditional ??CrossCallReturnLabel_25
          CFI R6 load(1, XDATA, add(CFA_XSP16, literal(-19)))
          CFI VB load(1, XDATA, add(CFA_XSP16, literal(-18)))
          CFI V0 load(1, XDATA, add(CFA_XSP16, literal(-17)))
          CFI V1 load(1, XDATA, add(CFA_XSP16, literal(-16)))
          CFI V2 load(1, XDATA, add(CFA_XSP16, literal(-15)))
          CFI V3 load(1, XDATA, add(CFA_XSP16, literal(-14)))
          CFI V4 load(1, XDATA, add(CFA_XSP16, literal(-13)))
          CFI V5 load(1, XDATA, add(CFA_XSP16, literal(-12)))
          CFI V6 load(1, XDATA, add(CFA_XSP16, literal(-11)))
          CFI V7 load(1, XDATA, add(CFA_XSP16, literal(-10)))
          CFI V8 load(1, XDATA, add(CFA_XSP16, literal(-9)))
          CFI V9 load(1, XDATA, add(CFA_XSP16, literal(-8)))
          CFI V10 load(1, XDATA, add(CFA_XSP16, literal(-7)))
          CFI R7 load(1, XDATA, add(CFA_XSP16, literal(-6)))
          CFI ?RET_LOW load(1, XDATA, add(CFA_XSP16, literal(-5)))
          CFI ?RET_HIGH load(1, XDATA, add(CFA_XSP16, literal(-4)))
          CFI ?BRET_EXT load(1, XDATA, add(CFA_XSP16, literal(-3)))
          CFI DPL0 load(1, XDATA, add(CFA_XSP16, literal(-2)))
          CFI DPH0 load(1, XDATA, add(CFA_XSP16, literal(-1)))
          CFI CFA_SP SP+-2
          CFI CFA_XSP16 add(XSP16, 116)
          CFI Block cfiCond50 Using cfiCommon0
          CFI (cfiCond50) Function zclZEM_AF_RxProc
          CFI (cfiCond50) Conditional ??CrossCallReturnLabel_26
          CFI (cfiCond50) R6 load(1, XDATA, add(CFA_XSP16, literal(-19)))
          CFI (cfiCond50) VB load(1, XDATA, add(CFA_XSP16, literal(-18)))
          CFI (cfiCond50) V0 load(1, XDATA, add(CFA_XSP16, literal(-17)))
          CFI (cfiCond50) V1 load(1, XDATA, add(CFA_XSP16, literal(-16)))
          CFI (cfiCond50) V2 load(1, XDATA, add(CFA_XSP16, literal(-15)))
          CFI (cfiCond50) V3 load(1, XDATA, add(CFA_XSP16, literal(-14)))
          CFI (cfiCond50) V4 load(1, XDATA, add(CFA_XSP16, literal(-13)))
          CFI (cfiCond50) V5 load(1, XDATA, add(CFA_XSP16, literal(-12)))
          CFI (cfiCond50) V6 load(1, XDATA, add(CFA_XSP16, literal(-11)))
          CFI (cfiCond50) V7 load(1, XDATA, add(CFA_XSP16, literal(-10)))
          CFI (cfiCond50) V8 load(1, XDATA, add(CFA_XSP16, literal(-9)))
          CFI (cfiCond50) V9 load(1, XDATA, add(CFA_XSP16, literal(-8)))
          CFI (cfiCond50) V10 load(1, XDATA, add(CFA_XSP16, literal(-7)))
          CFI (cfiCond50) R7 load(1, XDATA, add(CFA_XSP16, literal(-6)))
          CFI (cfiCond50) ?RET_LOW load(1, XDATA, add(CFA_XSP16, literal(-5)))
          CFI (cfiCond50) ?RET_HIGH load(1, XDATA, add(CFA_XSP16, literal(-4)))
          CFI (cfiCond50) ?BRET_EXT load(1, XDATA, add(CFA_XSP16, literal(-3)))
          CFI (cfiCond50) DPL0 load(1, XDATA, add(CFA_XSP16, literal(-2)))
          CFI (cfiCond50) DPH0 load(1, XDATA, add(CFA_XSP16, literal(-1)))
          CFI (cfiCond50) CFA_XSP16 add(XSP16, 113)
          CFI Block cfiCond51 Using cfiCommon0
          CFI (cfiCond51) Function zclZEM_AF_RxProc
          CFI (cfiCond51) Conditional ??CrossCallReturnLabel_27
          CFI (cfiCond51) R6 load(1, XDATA, add(CFA_XSP16, literal(-19)))
          CFI (cfiCond51) VB load(1, XDATA, add(CFA_XSP16, literal(-18)))
          CFI (cfiCond51) V0 load(1, XDATA, add(CFA_XSP16, literal(-17)))
          CFI (cfiCond51) V1 load(1, XDATA, add(CFA_XSP16, literal(-16)))
          CFI (cfiCond51) V2 load(1, XDATA, add(CFA_XSP16, literal(-15)))
          CFI (cfiCond51) V3 load(1, XDATA, add(CFA_XSP16, literal(-14)))
          CFI (cfiCond51) V4 load(1, XDATA, add(CFA_XSP16, literal(-13)))
          CFI (cfiCond51) V5 load(1, XDATA, add(CFA_XSP16, literal(-12)))
          CFI (cfiCond51) V6 load(1, XDATA, add(CFA_XSP16, literal(-11)))
          CFI (cfiCond51) V7 load(1, XDATA, add(CFA_XSP16, literal(-10)))
          CFI (cfiCond51) V8 load(1, XDATA, add(CFA_XSP16, literal(-9)))
          CFI (cfiCond51) V9 load(1, XDATA, add(CFA_XSP16, literal(-8)))
          CFI (cfiCond51) V10 load(1, XDATA, add(CFA_XSP16, literal(-7)))
          CFI (cfiCond51) R7 load(1, XDATA, add(CFA_XSP16, literal(-6)))
          CFI (cfiCond51) ?RET_LOW load(1, XDATA, add(CFA_XSP16, literal(-5)))
          CFI (cfiCond51) ?RET_HIGH load(1, XDATA, add(CFA_XSP16, literal(-4)))
          CFI (cfiCond51) ?BRET_EXT load(1, XDATA, add(CFA_XSP16, literal(-3)))
          CFI (cfiCond51) DPL0 load(1, XDATA, add(CFA_XSP16, literal(-2)))
          CFI (cfiCond51) DPH0 load(1, XDATA, add(CFA_XSP16, literal(-1)))
          CFI (cfiCond51) CFA_XSP16 add(XSP16, 113)
          CFI Block cfiPicker52 Using cfiCommon1
          CFI (cfiPicker52) NoFunction
          CFI (cfiPicker52) Picker
        LCALL     ?Subroutine16 & 0xFFFF
??CrossCallReturnLabel_29:
        RET
          CFI EndBlock cfiCond49
          CFI EndBlock cfiCond50
          CFI EndBlock cfiCond51
          CFI EndBlock cfiPicker52

        RSEG BANKED_CODE:HUGECODE:NOROOT(0)
?Subroutine16:
          CFI Block cfiCond53 Using cfiCommon0
          CFI Function zclZEM_AF_RxProc
          CFI Conditional ??CrossCallReturnLabel_29, ??CrossCallReturnLabel_26
          CFI R6 load(1, XDATA, add(CFA_XSP16, literal(-19)))
          CFI VB load(1, XDATA, add(CFA_XSP16, literal(-18)))
          CFI V0 load(1, XDATA, add(CFA_XSP16, literal(-17)))
          CFI V1 load(1, XDATA, add(CFA_XSP16, literal(-16)))
          CFI V2 load(1, XDATA, add(CFA_XSP16, literal(-15)))
          CFI V3 load(1, XDATA, add(CFA_XSP16, literal(-14)))
          CFI V4 load(1, XDATA, add(CFA_XSP16, literal(-13)))
          CFI V5 load(1, XDATA, add(CFA_XSP16, literal(-12)))
          CFI V6 load(1, XDATA, add(CFA_XSP16, literal(-11)))
          CFI V7 load(1, XDATA, add(CFA_XSP16, literal(-10)))
          CFI V8 load(1, XDATA, add(CFA_XSP16, literal(-9)))
          CFI V9 load(1, XDATA, add(CFA_XSP16, literal(-8)))
          CFI V10 load(1, XDATA, add(CFA_XSP16, literal(-7)))
          CFI R7 load(1, XDATA, add(CFA_XSP16, literal(-6)))
          CFI ?RET_LOW load(1, XDATA, add(CFA_XSP16, literal(-5)))
          CFI ?RET_HIGH load(1, XDATA, add(CFA_XSP16, literal(-4)))
          CFI ?BRET_EXT load(1, XDATA, add(CFA_XSP16, literal(-3)))
          CFI DPL0 load(1, XDATA, add(CFA_XSP16, literal(-2)))
          CFI DPH0 load(1, XDATA, add(CFA_XSP16, literal(-1)))
          CFI CFA_SP SP+-5
          CFI CFA_XSP16 add(XSP16, 113)
          CFI Block cfiCond54 Using cfiCommon0
          CFI (cfiCond54) Function zclZEM_AF_RxProc
          CFI (cfiCond54) Conditional ??CrossCallReturnLabel_29, ??CrossCallReturnLabel_27
          CFI (cfiCond54) R6 load(1, XDATA, add(CFA_XSP16, literal(-19)))
          CFI (cfiCond54) VB load(1, XDATA, add(CFA_XSP16, literal(-18)))
          CFI (cfiCond54) V0 load(1, XDATA, add(CFA_XSP16, literal(-17)))
          CFI (cfiCond54) V1 load(1, XDATA, add(CFA_XSP16, literal(-16)))
          CFI (cfiCond54) V2 load(1, XDATA, add(CFA_XSP16, literal(-15)))
          CFI (cfiCond54) V3 load(1, XDATA, add(CFA_XSP16, literal(-14)))
          CFI (cfiCond54) V4 load(1, XDATA, add(CFA_XSP16, literal(-13)))
          CFI (cfiCond54) V5 load(1, XDATA, add(CFA_XSP16, literal(-12)))
          CFI (cfiCond54) V6 load(1, XDATA, add(CFA_XSP16, literal(-11)))
          CFI (cfiCond54) V7 load(1, XDATA, add(CFA_XSP16, literal(-10)))
          CFI (cfiCond54) V8 load(1, XDATA, add(CFA_XSP16, literal(-9)))
          CFI (cfiCond54) V9 load(1, XDATA, add(CFA_XSP16, literal(-8)))
          CFI (cfiCond54) V10 load(1, XDATA, add(CFA_XSP16, literal(-7)))
          CFI (cfiCond54) R7 load(1, XDATA, add(CFA_XSP16, literal(-6)))
          CFI (cfiCond54) ?RET_LOW load(1, XDATA, add(CFA_XSP16, literal(-5)))
          CFI (cfiCond54) ?RET_HIGH load(1, XDATA, add(CFA_XSP16, literal(-4)))
          CFI (cfiCond54) ?BRET_EXT load(1, XDATA, add(CFA_XSP16, literal(-3)))
          CFI (cfiCond54) DPL0 load(1, XDATA, add(CFA_XSP16, literal(-2)))
          CFI (cfiCond54) DPH0 load(1, XDATA, add(CFA_XSP16, literal(-1)))
          CFI (cfiCond54) CFA_SP SP+-5
          CFI (cfiCond54) CFA_XSP16 add(XSP16, 113)
          CFI Block cfiCond55 Using cfiCommon0
          CFI (cfiCond55) Function zclZEM_AF_RxProc
          CFI (cfiCond55) Conditional ??CrossCallReturnLabel_29, ??CrossCallReturnLabel_25
          CFI (cfiCond55) R6 load(1, XDATA, add(CFA_XSP16, literal(-19)))
          CFI (cfiCond55) VB load(1, XDATA, add(CFA_XSP16, literal(-18)))
          CFI (cfiCond55) V0 load(1, XDATA, add(CFA_XSP16, literal(-17)))
          CFI (cfiCond55) V1 load(1, XDATA, add(CFA_XSP16, literal(-16)))
          CFI (cfiCond55) V2 load(1, XDATA, add(CFA_XSP16, literal(-15)))
          CFI (cfiCond55) V3 load(1, XDATA, add(CFA_XSP16, literal(-14)))
          CFI (cfiCond55) V4 load(1, XDATA, add(CFA_XSP16, literal(-13)))
          CFI (cfiCond55) V5 load(1, XDATA, add(CFA_XSP16, literal(-12)))
          CFI (cfiCond55) V6 load(1, XDATA, add(CFA_XSP16, literal(-11)))
          CFI (cfiCond55) V7 load(1, XDATA, add(CFA_XSP16, literal(-10)))
          CFI (cfiCond55) V8 load(1, XDATA, add(CFA_XSP16, literal(-9)))
          CFI (cfiCond55) V9 load(1, XDATA, add(CFA_XSP16, literal(-8)))
          CFI (cfiCond55) V10 load(1, XDATA, add(CFA_XSP16, literal(-7)))
          CFI (cfiCond55) R7 load(1, XDATA, add(CFA_XSP16, literal(-6)))
          CFI (cfiCond55) ?RET_LOW load(1, XDATA, add(CFA_XSP16, literal(-5)))
          CFI (cfiCond55) ?RET_HIGH load(1, XDATA, add(CFA_XSP16, literal(-4)))
          CFI (cfiCond55) ?BRET_EXT load(1, XDATA, add(CFA_XSP16, literal(-3)))
          CFI (cfiCond55) DPL0 load(1, XDATA, add(CFA_XSP16, literal(-2)))
          CFI (cfiCond55) DPH0 load(1, XDATA, add(CFA_XSP16, literal(-1)))
          CFI (cfiCond55) CFA_SP SP+-4
          CFI (cfiCond55) CFA_XSP16 add(XSP16, 116)
          CFI Block cfiCond56 Using cfiCommon0
          CFI (cfiCond56) Function zclZEM_AF_RxProc
          CFI (cfiCond56) Conditional ??CrossCallReturnLabel_28, ??CrossCallReturnLabel_6
          CFI (cfiCond56) R6 load(1, XDATA, add(CFA_XSP16, literal(-19)))
          CFI (cfiCond56) VB load(1, XDATA, add(CFA_XSP16, literal(-18)))
          CFI (cfiCond56) V0 load(1, XDATA, add(CFA_XSP16, literal(-17)))
          CFI (cfiCond56) V1 load(1, XDATA, add(CFA_XSP16, literal(-16)))
          CFI (cfiCond56) V2 load(1, XDATA, add(CFA_XSP16, literal(-15)))
          CFI (cfiCond56) V3 load(1, XDATA, add(CFA_XSP16, literal(-14)))
          CFI (cfiCond56) V4 load(1, XDATA, add(CFA_XSP16, literal(-13)))
          CFI (cfiCond56) V5 load(1, XDATA, add(CFA_XSP16, literal(-12)))
          CFI (cfiCond56) V6 load(1, XDATA, add(CFA_XSP16, literal(-11)))
          CFI (cfiCond56) V7 load(1, XDATA, add(CFA_XSP16, literal(-10)))
          CFI (cfiCond56) V8 load(1, XDATA, add(CFA_XSP16, literal(-9)))
          CFI (cfiCond56) V9 load(1, XDATA, add(CFA_XSP16, literal(-8)))
          CFI (cfiCond56) V10 load(1, XDATA, add(CFA_XSP16, literal(-7)))
          CFI (cfiCond56) R7 load(1, XDATA, add(CFA_XSP16, literal(-6)))
          CFI (cfiCond56) ?RET_LOW load(1, XDATA, add(CFA_XSP16, literal(-5)))
          CFI (cfiCond56) ?RET_HIGH load(1, XDATA, add(CFA_XSP16, literal(-4)))
          CFI (cfiCond56) ?BRET_EXT load(1, XDATA, add(CFA_XSP16, literal(-3)))
          CFI (cfiCond56) DPL0 load(1, XDATA, add(CFA_XSP16, literal(-2)))
          CFI (cfiCond56) DPH0 load(1, XDATA, add(CFA_XSP16, literal(-1)))
          CFI (cfiCond56) CFA_SP SP+-4
          CFI (cfiCond56) CFA_XSP16 add(XSP16, 116)
          CFI Block cfiCond57 Using cfiCommon0
          CFI (cfiCond57) Function zclZEM_AF_RxProc
          CFI (cfiCond57) Conditional ??CrossCallReturnLabel_28, ??CrossCallReturnLabel_7
          CFI (cfiCond57) R6 load(1, XDATA, add(CFA_XSP16, literal(-19)))
          CFI (cfiCond57) VB load(1, XDATA, add(CFA_XSP16, literal(-18)))
          CFI (cfiCond57) V0 load(1, XDATA, add(CFA_XSP16, literal(-17)))
          CFI (cfiCond57) V1 load(1, XDATA, add(CFA_XSP16, literal(-16)))
          CFI (cfiCond57) V2 load(1, XDATA, add(CFA_XSP16, literal(-15)))
          CFI (cfiCond57) V3 load(1, XDATA, add(CFA_XSP16, literal(-14)))
          CFI (cfiCond57) V4 load(1, XDATA, add(CFA_XSP16, literal(-13)))
          CFI (cfiCond57) V5 load(1, XDATA, add(CFA_XSP16, literal(-12)))
          CFI (cfiCond57) V6 load(1, XDATA, add(CFA_XSP16, literal(-11)))
          CFI (cfiCond57) V7 load(1, XDATA, add(CFA_XSP16, literal(-10)))
          CFI (cfiCond57) V8 load(1, XDATA, add(CFA_XSP16, literal(-9)))
          CFI (cfiCond57) V9 load(1, XDATA, add(CFA_XSP16, literal(-8)))
          CFI (cfiCond57) V10 load(1, XDATA, add(CFA_XSP16, literal(-7)))
          CFI (cfiCond57) R7 load(1, XDATA, add(CFA_XSP16, literal(-6)))
          CFI (cfiCond57) ?RET_LOW load(1, XDATA, add(CFA_XSP16, literal(-5)))
          CFI (cfiCond57) ?RET_HIGH load(1, XDATA, add(CFA_XSP16, literal(-4)))
          CFI (cfiCond57) ?BRET_EXT load(1, XDATA, add(CFA_XSP16, literal(-3)))
          CFI (cfiCond57) DPL0 load(1, XDATA, add(CFA_XSP16, literal(-2)))
          CFI (cfiCond57) DPH0 load(1, XDATA, add(CFA_XSP16, literal(-1)))
          CFI (cfiCond57) CFA_SP SP+-4
          CFI (cfiCond57) CFA_XSP16 add(XSP16, 116)
          CFI Block cfiPicker58 Using cfiCommon1
          CFI (cfiPicker58) NoFunction
          CFI (cfiPicker58) Picker
        MOVX      A,@DPTR
        ADD       A,R0
        MOV       R0,A
        INC       DPTR
        MOVX      A,@DPTR
        ADDC      A,?V1
        MOV       R1,A
        MOV       A,R0
        RET
          CFI EndBlock cfiCond53
          CFI EndBlock cfiCond54
          CFI EndBlock cfiCond55
          CFI EndBlock cfiCond56
          CFI EndBlock cfiCond57
          CFI EndBlock cfiPicker58

        RSEG BANKED_CODE:HUGECODE:NOROOT(0)
?Subroutine6:
          CFI Block cfiCond59 Using cfiCommon0
          CFI Function zclZEM_AF_RxProc
          CFI Conditional ??CrossCallReturnLabel_6
          CFI R6 load(1, XDATA, add(CFA_XSP16, literal(-19)))
          CFI VB load(1, XDATA, add(CFA_XSP16, literal(-18)))
          CFI V0 load(1, XDATA, add(CFA_XSP16, literal(-17)))
          CFI V1 load(1, XDATA, add(CFA_XSP16, literal(-16)))
          CFI V2 load(1, XDATA, add(CFA_XSP16, literal(-15)))
          CFI V3 load(1, XDATA, add(CFA_XSP16, literal(-14)))
          CFI V4 load(1, XDATA, add(CFA_XSP16, literal(-13)))
          CFI V5 load(1, XDATA, add(CFA_XSP16, literal(-12)))
          CFI V6 load(1, XDATA, add(CFA_XSP16, literal(-11)))
          CFI V7 load(1, XDATA, add(CFA_XSP16, literal(-10)))
          CFI V8 load(1, XDATA, add(CFA_XSP16, literal(-9)))
          CFI V9 load(1, XDATA, add(CFA_XSP16, literal(-8)))
          CFI V10 load(1, XDATA, add(CFA_XSP16, literal(-7)))
          CFI R7 load(1, XDATA, add(CFA_XSP16, literal(-6)))
          CFI ?RET_LOW load(1, XDATA, add(CFA_XSP16, literal(-5)))
          CFI ?RET_HIGH load(1, XDATA, add(CFA_XSP16, literal(-4)))
          CFI ?BRET_EXT load(1, XDATA, add(CFA_XSP16, literal(-3)))
          CFI DPL0 load(1, XDATA, add(CFA_XSP16, literal(-2)))
          CFI DPH0 load(1, XDATA, add(CFA_XSP16, literal(-1)))
          CFI CFA_SP SP+-2
          CFI CFA_XSP16 add(XSP16, 116)
          CFI Block cfiCond60 Using cfiCommon0
          CFI (cfiCond60) Function zclZEM_AF_RxProc
          CFI (cfiCond60) Conditional ??CrossCallReturnLabel_7
          CFI (cfiCond60) R6 load(1, XDATA, add(CFA_XSP16, literal(-19)))
          CFI (cfiCond60) VB load(1, XDATA, add(CFA_XSP16, literal(-18)))
          CFI (cfiCond60) V0 load(1, XDATA, add(CFA_XSP16, literal(-17)))
          CFI (cfiCond60) V1 load(1, XDATA, add(CFA_XSP16, literal(-16)))
          CFI (cfiCond60) V2 load(1, XDATA, add(CFA_XSP16, literal(-15)))
          CFI (cfiCond60) V3 load(1, XDATA, add(CFA_XSP16, literal(-14)))
          CFI (cfiCond60) V4 load(1, XDATA, add(CFA_XSP16, literal(-13)))
          CFI (cfiCond60) V5 load(1, XDATA, add(CFA_XSP16, literal(-12)))
          CFI (cfiCond60) V6 load(1, XDATA, add(CFA_XSP16, literal(-11)))
          CFI (cfiCond60) V7 load(1, XDATA, add(CFA_XSP16, literal(-10)))
          CFI (cfiCond60) V8 load(1, XDATA, add(CFA_XSP16, literal(-9)))
          CFI (cfiCond60) V9 load(1, XDATA, add(CFA_XSP16, literal(-8)))
          CFI (cfiCond60) V10 load(1, XDATA, add(CFA_XSP16, literal(-7)))
          CFI (cfiCond60) R7 load(1, XDATA, add(CFA_XSP16, literal(-6)))
          CFI (cfiCond60) ?RET_LOW load(1, XDATA, add(CFA_XSP16, literal(-5)))
          CFI (cfiCond60) ?RET_HIGH load(1, XDATA, add(CFA_XSP16, literal(-4)))
          CFI (cfiCond60) ?BRET_EXT load(1, XDATA, add(CFA_XSP16, literal(-3)))
          CFI (cfiCond60) DPL0 load(1, XDATA, add(CFA_XSP16, literal(-2)))
          CFI (cfiCond60) DPH0 load(1, XDATA, add(CFA_XSP16, literal(-1)))
          CFI (cfiCond60) CFA_SP SP+-2
          CFI (cfiCond60) CFA_XSP16 add(XSP16, 116)
          CFI Block cfiPicker61 Using cfiCommon1
          CFI (cfiPicker61) NoFunction
          CFI (cfiPicker61) Picker
        MOV       ?V1,R1
        LCALL     ?Subroutine16 & 0xFFFF
??CrossCallReturnLabel_28:
        ADD       A,#0x10
        MOV       R2,A
        CLR       A
        ADDC      A,R1
        MOV       R3,A
        RET
          CFI EndBlock cfiCond59
          CFI EndBlock cfiCond60
          CFI EndBlock cfiPicker61

        RSEG BANKED_CODE:HUGECODE:NOROOT(0)
?Subroutine5:
          CFI Block cfiCond62 Using cfiCommon0
          CFI Function zclZEM_AF_RxProc
          CFI Conditional ??CrossCallReturnLabel_3
          CFI R6 load(1, XDATA, add(CFA_XSP16, literal(-19)))
          CFI VB load(1, XDATA, add(CFA_XSP16, literal(-18)))
          CFI V0 load(1, XDATA, add(CFA_XSP16, literal(-17)))
          CFI V1 load(1, XDATA, add(CFA_XSP16, literal(-16)))
          CFI V2 load(1, XDATA, add(CFA_XSP16, literal(-15)))
          CFI V3 load(1, XDATA, add(CFA_XSP16, literal(-14)))
          CFI V4 load(1, XDATA, add(CFA_XSP16, literal(-13)))
          CFI V5 load(1, XDATA, add(CFA_XSP16, literal(-12)))
          CFI V6 load(1, XDATA, add(CFA_XSP16, literal(-11)))
          CFI V7 load(1, XDATA, add(CFA_XSP16, literal(-10)))
          CFI V8 load(1, XDATA, add(CFA_XSP16, literal(-9)))
          CFI V9 load(1, XDATA, add(CFA_XSP16, literal(-8)))
          CFI V10 load(1, XDATA, add(CFA_XSP16, literal(-7)))
          CFI R7 load(1, XDATA, add(CFA_XSP16, literal(-6)))
          CFI ?RET_LOW load(1, XDATA, add(CFA_XSP16, literal(-5)))
          CFI ?RET_HIGH load(1, XDATA, add(CFA_XSP16, literal(-4)))
          CFI ?BRET_EXT load(1, XDATA, add(CFA_XSP16, literal(-3)))
          CFI DPL0 load(1, XDATA, add(CFA_XSP16, literal(-2)))
          CFI DPH0 load(1, XDATA, add(CFA_XSP16, literal(-1)))
          CFI CFA_SP SP+-2
          CFI CFA_XSP16 add(XSP16, 113)
          CFI Block cfiCond63 Using cfiCommon0
          CFI (cfiCond63) Function zclZEM_AF_RxProc
          CFI (cfiCond63) Conditional ??CrossCallReturnLabel_4
          CFI (cfiCond63) R6 load(1, XDATA, add(CFA_XSP16, literal(-19)))
          CFI (cfiCond63) VB load(1, XDATA, add(CFA_XSP16, literal(-18)))
          CFI (cfiCond63) V0 load(1, XDATA, add(CFA_XSP16, literal(-17)))
          CFI (cfiCond63) V1 load(1, XDATA, add(CFA_XSP16, literal(-16)))
          CFI (cfiCond63) V2 load(1, XDATA, add(CFA_XSP16, literal(-15)))
          CFI (cfiCond63) V3 load(1, XDATA, add(CFA_XSP16, literal(-14)))
          CFI (cfiCond63) V4 load(1, XDATA, add(CFA_XSP16, literal(-13)))
          CFI (cfiCond63) V5 load(1, XDATA, add(CFA_XSP16, literal(-12)))
          CFI (cfiCond63) V6 load(1, XDATA, add(CFA_XSP16, literal(-11)))
          CFI (cfiCond63) V7 load(1, XDATA, add(CFA_XSP16, literal(-10)))
          CFI (cfiCond63) V8 load(1, XDATA, add(CFA_XSP16, literal(-9)))
          CFI (cfiCond63) V9 load(1, XDATA, add(CFA_XSP16, literal(-8)))
          CFI (cfiCond63) V10 load(1, XDATA, add(CFA_XSP16, literal(-7)))
          CFI (cfiCond63) R7 load(1, XDATA, add(CFA_XSP16, literal(-6)))
          CFI (cfiCond63) ?RET_LOW load(1, XDATA, add(CFA_XSP16, literal(-5)))
          CFI (cfiCond63) ?RET_HIGH load(1, XDATA, add(CFA_XSP16, literal(-4)))
          CFI (cfiCond63) ?BRET_EXT load(1, XDATA, add(CFA_XSP16, literal(-3)))
          CFI (cfiCond63) DPL0 load(1, XDATA, add(CFA_XSP16, literal(-2)))
          CFI (cfiCond63) DPH0 load(1, XDATA, add(CFA_XSP16, literal(-1)))
          CFI (cfiCond63) CFA_SP SP+-2
          CFI (cfiCond63) CFA_XSP16 add(XSP16, 113)
          CFI Block cfiCond64 Using cfiCommon0
          CFI (cfiCond64) Function zclZEM_AF_RxProc
          CFI (cfiCond64) Conditional ??CrossCallReturnLabel_5
          CFI (cfiCond64) R6 load(1, XDATA, add(CFA_XSP16, literal(-19)))
          CFI (cfiCond64) VB load(1, XDATA, add(CFA_XSP16, literal(-18)))
          CFI (cfiCond64) V0 load(1, XDATA, add(CFA_XSP16, literal(-17)))
          CFI (cfiCond64) V1 load(1, XDATA, add(CFA_XSP16, literal(-16)))
          CFI (cfiCond64) V2 load(1, XDATA, add(CFA_XSP16, literal(-15)))
          CFI (cfiCond64) V3 load(1, XDATA, add(CFA_XSP16, literal(-14)))
          CFI (cfiCond64) V4 load(1, XDATA, add(CFA_XSP16, literal(-13)))
          CFI (cfiCond64) V5 load(1, XDATA, add(CFA_XSP16, literal(-12)))
          CFI (cfiCond64) V6 load(1, XDATA, add(CFA_XSP16, literal(-11)))
          CFI (cfiCond64) V7 load(1, XDATA, add(CFA_XSP16, literal(-10)))
          CFI (cfiCond64) V8 load(1, XDATA, add(CFA_XSP16, literal(-9)))
          CFI (cfiCond64) V9 load(1, XDATA, add(CFA_XSP16, literal(-8)))
          CFI (cfiCond64) V10 load(1, XDATA, add(CFA_XSP16, literal(-7)))
          CFI (cfiCond64) R7 load(1, XDATA, add(CFA_XSP16, literal(-6)))
          CFI (cfiCond64) ?RET_LOW load(1, XDATA, add(CFA_XSP16, literal(-5)))
          CFI (cfiCond64) ?RET_HIGH load(1, XDATA, add(CFA_XSP16, literal(-4)))
          CFI (cfiCond64) ?BRET_EXT load(1, XDATA, add(CFA_XSP16, literal(-3)))
          CFI (cfiCond64) DPL0 load(1, XDATA, add(CFA_XSP16, literal(-2)))
          CFI (cfiCond64) DPH0 load(1, XDATA, add(CFA_XSP16, literal(-1)))
          CFI (cfiCond64) CFA_SP SP+-2
          CFI (cfiCond64) CFA_XSP16 add(XSP16, 113)
          CFI Block cfiPicker65 Using cfiCommon1
          CFI (cfiPicker65) NoFunction
          CFI (cfiPicker65) Picker
        MOV       DPL,?V0
        MOV       DPH,?V1
        MOVX      A,@DPTR
        MOV       ?V0,A
        INC       DPTR
        MOVX      A,@DPTR
        MOV       ?V1,A
        MOV       ?V2,#0x0
        MOV       R0,#?V0
        RET
          CFI EndBlock cfiCond62
          CFI EndBlock cfiCond63
          CFI EndBlock cfiCond64
          CFI EndBlock cfiPicker65

        RSEG BANKED_CODE:HUGECODE:NOROOT(0)
?Subroutine3:
          CFI Block cfiCond66 Using cfiCommon0
          CFI Function zclZEM_AF_RxProc
          CFI Conditional ??CrossCallReturnLabel_30
          CFI R6 load(1, XDATA, add(CFA_XSP16, literal(-19)))
          CFI VB load(1, XDATA, add(CFA_XSP16, literal(-18)))
          CFI V0 load(1, XDATA, add(CFA_XSP16, literal(-17)))
          CFI V1 load(1, XDATA, add(CFA_XSP16, literal(-16)))
          CFI V2 load(1, XDATA, add(CFA_XSP16, literal(-15)))
          CFI V3 load(1, XDATA, add(CFA_XSP16, literal(-14)))
          CFI V4 load(1, XDATA, add(CFA_XSP16, literal(-13)))
          CFI V5 load(1, XDATA, add(CFA_XSP16, literal(-12)))
          CFI V6 load(1, XDATA, add(CFA_XSP16, literal(-11)))
          CFI V7 load(1, XDATA, add(CFA_XSP16, literal(-10)))
          CFI V8 load(1, XDATA, add(CFA_XSP16, literal(-9)))
          CFI V9 load(1, XDATA, add(CFA_XSP16, literal(-8)))
          CFI V10 load(1, XDATA, add(CFA_XSP16, literal(-7)))
          CFI R7 load(1, XDATA, add(CFA_XSP16, literal(-6)))
          CFI ?RET_LOW load(1, XDATA, add(CFA_XSP16, literal(-5)))
          CFI ?RET_HIGH load(1, XDATA, add(CFA_XSP16, literal(-4)))
          CFI ?BRET_EXT load(1, XDATA, add(CFA_XSP16, literal(-3)))
          CFI DPL0 load(1, XDATA, add(CFA_XSP16, literal(-2)))
          CFI DPH0 load(1, XDATA, add(CFA_XSP16, literal(-1)))
          CFI CFA_SP SP+-2
          CFI CFA_XSP16 add(XSP16, 113)
          CFI Block cfiCond67 Using cfiCommon0
          CFI (cfiCond67) Function zclZEM_AF_RxProc
          CFI (cfiCond67) Conditional ??CrossCallReturnLabel_31
          CFI (cfiCond67) R6 load(1, XDATA, add(CFA_XSP16, literal(-19)))
          CFI (cfiCond67) VB load(1, XDATA, add(CFA_XSP16, literal(-18)))
          CFI (cfiCond67) V0 load(1, XDATA, add(CFA_XSP16, literal(-17)))
          CFI (cfiCond67) V1 load(1, XDATA, add(CFA_XSP16, literal(-16)))
          CFI (cfiCond67) V2 load(1, XDATA, add(CFA_XSP16, literal(-15)))
          CFI (cfiCond67) V3 load(1, XDATA, add(CFA_XSP16, literal(-14)))
          CFI (cfiCond67) V4 load(1, XDATA, add(CFA_XSP16, literal(-13)))
          CFI (cfiCond67) V5 load(1, XDATA, add(CFA_XSP16, literal(-12)))
          CFI (cfiCond67) V6 load(1, XDATA, add(CFA_XSP16, literal(-11)))
          CFI (cfiCond67) V7 load(1, XDATA, add(CFA_XSP16, literal(-10)))
          CFI (cfiCond67) V8 load(1, XDATA, add(CFA_XSP16, literal(-9)))
          CFI (cfiCond67) V9 load(1, XDATA, add(CFA_XSP16, literal(-8)))
          CFI (cfiCond67) V10 load(1, XDATA, add(CFA_XSP16, literal(-7)))
          CFI (cfiCond67) R7 load(1, XDATA, add(CFA_XSP16, literal(-6)))
          CFI (cfiCond67) ?RET_LOW load(1, XDATA, add(CFA_XSP16, literal(-5)))
          CFI (cfiCond67) ?RET_HIGH load(1, XDATA, add(CFA_XSP16, literal(-4)))
          CFI (cfiCond67) ?BRET_EXT load(1, XDATA, add(CFA_XSP16, literal(-3)))
          CFI (cfiCond67) DPL0 load(1, XDATA, add(CFA_XSP16, literal(-2)))
          CFI (cfiCond67) DPH0 load(1, XDATA, add(CFA_XSP16, literal(-1)))
          CFI (cfiCond67) CFA_SP SP+-2
          CFI (cfiCond67) CFA_XSP16 add(XSP16, 113)
          CFI Block cfiPicker68 Using cfiCommon1
          CFI (cfiPicker68) NoFunction
          CFI (cfiPicker68) Picker
        MOV       DPL,A
        CLR       A
        ADDC      A,R1
        MOV       DPH,A
        MOV       A,#0xd
          CFI EndBlock cfiCond66
          CFI EndBlock cfiCond67
          CFI EndBlock cfiPicker68
        REQUIRE ??Subroutine19_0
        ; // Fall through to label ??Subroutine19_0

        RSEG BANKED_CODE:HUGECODE:NOROOT(0)
??Subroutine19_0:
          CFI Block cfiCond69 Using cfiCommon0
          CFI Function zclZEM_AF_RxProc
          CFI Conditional ??CrossCallReturnLabel_32
          CFI R6 load(1, XDATA, add(CFA_XSP16, literal(-19)))
          CFI VB load(1, XDATA, add(CFA_XSP16, literal(-18)))
          CFI V0 load(1, XDATA, add(CFA_XSP16, literal(-17)))
          CFI V1 load(1, XDATA, add(CFA_XSP16, literal(-16)))
          CFI V2 load(1, XDATA, add(CFA_XSP16, literal(-15)))
          CFI V3 load(1, XDATA, add(CFA_XSP16, literal(-14)))
          CFI V4 load(1, XDATA, add(CFA_XSP16, literal(-13)))
          CFI V5 load(1, XDATA, add(CFA_XSP16, literal(-12)))
          CFI V6 load(1, XDATA, add(CFA_XSP16, literal(-11)))
          CFI V7 load(1, XDATA, add(CFA_XSP16, literal(-10)))
          CFI V8 load(1, XDATA, add(CFA_XSP16, literal(-9)))
          CFI V9 load(1, XDATA, add(CFA_XSP16, literal(-8)))
          CFI V10 load(1, XDATA, add(CFA_XSP16, literal(-7)))
          CFI R7 load(1, XDATA, add(CFA_XSP16, literal(-6)))
          CFI ?RET_LOW load(1, XDATA, add(CFA_XSP16, literal(-5)))
          CFI ?RET_HIGH load(1, XDATA, add(CFA_XSP16, literal(-4)))
          CFI ?BRET_EXT load(1, XDATA, add(CFA_XSP16, literal(-3)))
          CFI DPL0 load(1, XDATA, add(CFA_XSP16, literal(-2)))
          CFI DPH0 load(1, XDATA, add(CFA_XSP16, literal(-1)))
          CFI CFA_SP SP+-2
          CFI CFA_XSP16 add(XSP16, 113)
          CFI Block cfiCond70 Using cfiCommon0
          CFI (cfiCond70) Function zclZEM_AF_RxProc
          CFI (cfiCond70) Conditional ??CrossCallReturnLabel_33
          CFI (cfiCond70) R6 load(1, XDATA, add(CFA_XSP16, literal(-19)))
          CFI (cfiCond70) VB load(1, XDATA, add(CFA_XSP16, literal(-18)))
          CFI (cfiCond70) V0 load(1, XDATA, add(CFA_XSP16, literal(-17)))
          CFI (cfiCond70) V1 load(1, XDATA, add(CFA_XSP16, literal(-16)))
          CFI (cfiCond70) V2 load(1, XDATA, add(CFA_XSP16, literal(-15)))
          CFI (cfiCond70) V3 load(1, XDATA, add(CFA_XSP16, literal(-14)))
          CFI (cfiCond70) V4 load(1, XDATA, add(CFA_XSP16, literal(-13)))
          CFI (cfiCond70) V5 load(1, XDATA, add(CFA_XSP16, literal(-12)))
          CFI (cfiCond70) V6 load(1, XDATA, add(CFA_XSP16, literal(-11)))
          CFI (cfiCond70) V7 load(1, XDATA, add(CFA_XSP16, literal(-10)))
          CFI (cfiCond70) V8 load(1, XDATA, add(CFA_XSP16, literal(-9)))
          CFI (cfiCond70) V9 load(1, XDATA, add(CFA_XSP16, literal(-8)))
          CFI (cfiCond70) V10 load(1, XDATA, add(CFA_XSP16, literal(-7)))
          CFI (cfiCond70) R7 load(1, XDATA, add(CFA_XSP16, literal(-6)))
          CFI (cfiCond70) ?RET_LOW load(1, XDATA, add(CFA_XSP16, literal(-5)))
          CFI (cfiCond70) ?RET_HIGH load(1, XDATA, add(CFA_XSP16, literal(-4)))
          CFI (cfiCond70) ?BRET_EXT load(1, XDATA, add(CFA_XSP16, literal(-3)))
          CFI (cfiCond70) DPL0 load(1, XDATA, add(CFA_XSP16, literal(-2)))
          CFI (cfiCond70) DPH0 load(1, XDATA, add(CFA_XSP16, literal(-1)))
          CFI (cfiCond70) CFA_SP SP+-2
          CFI (cfiCond70) CFA_XSP16 add(XSP16, 113)
          CFI Block cfiCond71 Using cfiCommon0
          CFI (cfiCond71) Function zclZEM_AF_RxProc
          CFI (cfiCond71) Conditional ??CrossCallReturnLabel_30
          CFI (cfiCond71) R6 load(1, XDATA, add(CFA_XSP16, literal(-19)))
          CFI (cfiCond71) VB load(1, XDATA, add(CFA_XSP16, literal(-18)))
          CFI (cfiCond71) V0 load(1, XDATA, add(CFA_XSP16, literal(-17)))
          CFI (cfiCond71) V1 load(1, XDATA, add(CFA_XSP16, literal(-16)))
          CFI (cfiCond71) V2 load(1, XDATA, add(CFA_XSP16, literal(-15)))
          CFI (cfiCond71) V3 load(1, XDATA, add(CFA_XSP16, literal(-14)))
          CFI (cfiCond71) V4 load(1, XDATA, add(CFA_XSP16, literal(-13)))
          CFI (cfiCond71) V5 load(1, XDATA, add(CFA_XSP16, literal(-12)))
          CFI (cfiCond71) V6 load(1, XDATA, add(CFA_XSP16, literal(-11)))
          CFI (cfiCond71) V7 load(1, XDATA, add(CFA_XSP16, literal(-10)))
          CFI (cfiCond71) V8 load(1, XDATA, add(CFA_XSP16, literal(-9)))
          CFI (cfiCond71) V9 load(1, XDATA, add(CFA_XSP16, literal(-8)))
          CFI (cfiCond71) V10 load(1, XDATA, add(CFA_XSP16, literal(-7)))
          CFI (cfiCond71) R7 load(1, XDATA, add(CFA_XSP16, literal(-6)))
          CFI (cfiCond71) ?RET_LOW load(1, XDATA, add(CFA_XSP16, literal(-5)))
          CFI (cfiCond71) ?RET_HIGH load(1, XDATA, add(CFA_XSP16, literal(-4)))
          CFI (cfiCond71) ?BRET_EXT load(1, XDATA, add(CFA_XSP16, literal(-3)))
          CFI (cfiCond71) DPL0 load(1, XDATA, add(CFA_XSP16, literal(-2)))
          CFI (cfiCond71) DPH0 load(1, XDATA, add(CFA_XSP16, literal(-1)))
          CFI (cfiCond71) CFA_SP SP+-2
          CFI (cfiCond71) CFA_XSP16 add(XSP16, 113)
          CFI Block cfiCond72 Using cfiCommon0
          CFI (cfiCond72) Function zclZEM_AF_RxProc
          CFI (cfiCond72) Conditional ??CrossCallReturnLabel_31
          CFI (cfiCond72) R6 load(1, XDATA, add(CFA_XSP16, literal(-19)))
          CFI (cfiCond72) VB load(1, XDATA, add(CFA_XSP16, literal(-18)))
          CFI (cfiCond72) V0 load(1, XDATA, add(CFA_XSP16, literal(-17)))
          CFI (cfiCond72) V1 load(1, XDATA, add(CFA_XSP16, literal(-16)))
          CFI (cfiCond72) V2 load(1, XDATA, add(CFA_XSP16, literal(-15)))
          CFI (cfiCond72) V3 load(1, XDATA, add(CFA_XSP16, literal(-14)))
          CFI (cfiCond72) V4 load(1, XDATA, add(CFA_XSP16, literal(-13)))
          CFI (cfiCond72) V5 load(1, XDATA, add(CFA_XSP16, literal(-12)))
          CFI (cfiCond72) V6 load(1, XDATA, add(CFA_XSP16, literal(-11)))
          CFI (cfiCond72) V7 load(1, XDATA, add(CFA_XSP16, literal(-10)))
          CFI (cfiCond72) V8 load(1, XDATA, add(CFA_XSP16, literal(-9)))
          CFI (cfiCond72) V9 load(1, XDATA, add(CFA_XSP16, literal(-8)))
          CFI (cfiCond72) V10 load(1, XDATA, add(CFA_XSP16, literal(-7)))
          CFI (cfiCond72) R7 load(1, XDATA, add(CFA_XSP16, literal(-6)))
          CFI (cfiCond72) ?RET_LOW load(1, XDATA, add(CFA_XSP16, literal(-5)))
          CFI (cfiCond72) ?RET_HIGH load(1, XDATA, add(CFA_XSP16, literal(-4)))
          CFI (cfiCond72) ?BRET_EXT load(1, XDATA, add(CFA_XSP16, literal(-3)))
          CFI (cfiCond72) DPL0 load(1, XDATA, add(CFA_XSP16, literal(-2)))
          CFI (cfiCond72) DPH0 load(1, XDATA, add(CFA_XSP16, literal(-1)))
          CFI (cfiCond72) CFA_SP SP+-2
          CFI (cfiCond72) CFA_XSP16 add(XSP16, 113)
          CFI Block cfiPicker73 Using cfiCommon1
          CFI (cfiPicker73) NoFunction
          CFI (cfiPicker73) Picker
        MOVX      @DPTR,A
        MOV       DPL,R6
        MOV       DPH,R7
        MOVX      A,@DPTR
        ADD       A,?V0
        MOV       R0,A
        INC       DPTR
        MOVX      A,@DPTR
        ADDC      A,?V1
        MOV       R1,A
        MOV       A,R0
        RET
          CFI EndBlock cfiCond69
          CFI EndBlock cfiCond70
          CFI EndBlock cfiCond71
          CFI EndBlock cfiCond72
          CFI EndBlock cfiPicker73

        RSEG XDATA_Z:XDATA:NOROOT(0)
        DATA8
??p2pCnt:
        DS 1
        REQUIRE __INIT_XDATA_Z

        RSEG XDATA_Z:XDATA:NOROOT(0)
        DATA8
??bcCnt:
        DS 1
        REQUIRE __INIT_XDATA_Z

        RSEG XDATA_Z:XDATA:NOROOT(0)
        DATA8
??gcCnt:
        DS 1
        REQUIRE __INIT_XDATA_Z

        RSEG XDATA_ID:CODE:NOROOT(0)
`?<Initializer for ZEM_AppEp>`:
        DATA8
        DB 8
        DB 0
        DATA16
        DW zclZEM_TaskID
        DW zclZEM_SimpleDesc
        DATA8
        DB 0

        RSEG XDATA_ID:CODE:NOROOT(0)
`?<Initializer for reportableChange>`:
        DATA8
        DB 44
        DB 1
        DB 0
        DB 0

        RSEG XDATA_ID:CODE:NOROOT(0)
`?<Initializer for zclZEM_CmdCallbacks>`:
        DATA16
        DW `??zclZEM_BasicResetCB::?relay`
        DW 0H
        DW 0H
        DW 0H
        DW 0H
        DW 0H
        DW 0H
        DW 0H
        DW 0H

        RSEG BANK_RELAYS:CODE:REORDER:NOROOT(0)
`??zclZEM_Init::?relay`:
        CODE
        LCALL   ?BDISPATCH
        DATA24
        DC24    zclZEM_Init

        RSEG BANK_RELAYS:CODE:REORDER:NOROOT(0)
`??zclZEM_event_loop::?relay`:
        CODE
        LCALL   ?BDISPATCH
        DATA24
        DC24    zclZEM_event_loop

        RSEG BANK_RELAYS:CODE:REORDER:NOROOT(0)
`??zclZEM_SendMACToCoordinator::?relay`:
        CODE
        LCALL   ?BDISPATCH
        DATA24
        DC24    zclZEM_SendMACToCoordinator

        RSEG BANK_RELAYS:CODE:REORDER:NOROOT(0)
`??zclZEM_ReadAndSendMAC::?relay`:
        CODE
        LCALL   ?BDISPATCH
        DATA24
        DC24    zclZEM_ReadAndSendMAC

        RSEG BANK_RELAYS:CODE:REORDER:NOROOT(0)
`??zclZEM_UartCB::?relay`:
        CODE
        LCALL   ?BDISPATCH
        DATA24
        DC24    zclZEM_UartCB

        RSEG BANK_RELAYS:CODE:REORDER:NOROOT(0)
`??zclZEM_ProcessCommissioningStatus::?relay`:
        CODE
        LCALL   ?BDISPATCH
        DATA24
        DC24    zclZEM_ProcessCommissioningStatus

        RSEG BANK_RELAYS:CODE:REORDER:NOROOT(0)
`??zclZEM_BasicResetCB::?relay`:
        CODE
        LCALL   ?BDISPATCH
        DATA24
        DC24    zclZEM_BasicResetCB

        RSEG BANK_RELAYS:CODE:REORDER:NOROOT(0)
`??zclSampleApp_BatteryWarningCB::?relay`:
        CODE
        LCALL   ?BDISPATCH
        DATA24
        DC24    zclSampleApp_BatteryWarningCB

        RSEG BANK_RELAYS:CODE:REORDER:NOROOT(0)
`??zclZEM_ProcessIncomingMsg::?relay`:
        CODE
        LCALL   ?BDISPATCH
        DATA24
        DC24    zclZEM_ProcessIncomingMsg

        RSEG BANK_RELAYS:CODE:REORDER:NOROOT(0)
`??zclZEM_ProcessInDiscCmdsRspCmd::?relay`:
        CODE
        LCALL   ?BDISPATCH
        DATA24
        DC24    zclZEM_ProcessInDiscCmdsRspCmd

        RSEG BANK_RELAYS:CODE:REORDER:NOROOT(0)
`??zclZEM_AF_RxProc::?relay`:
        CODE
        LCALL   ?BDISPATCH
        DATA24
        DC24    zclZEM_AF_RxProc

        RSEG XDATA_ROM_C:CONST:REORDER:NOROOT(0)
        DATA8
`?<Constant "Received event type: 0x">`:
        DB "Received event type: 0x"

        RSEG XDATA_ROM_C:CONST:REORDER:NOROOT(0)
        DATA8
`?<Constant "Broadcast">`:
        DB "Broadcast"

        RSEG XDATA_ROM_C:CONST:REORDER:NOROOT(0)
        DATA8
`?<Constant "Broadcast message sen...">`:
        DB "Broadcast message sent!\015\012"

        RSEG XDATA_ROM_C:CONST:REORDER:NOROOT(0)
        DATA8
`?<Constant "Groupcast">`:
        DB "Groupcast"

        RSEG XDATA_ROM_C:CONST:REORDER:NOROOT(0)
        DATA8
`?<Constant "ZEM_P2P_EVT processed...">`:
        DB "ZEM_P2P_EVT processed! Network state: "

        RSEG XDATA_ROM_C:CONST:REORDER:NOROOT(0)
        DATA8
`?<Constant "ZEM_REJOIN_EVT proces...">`:
        DB 5AH, 45H, 4DH, 5FH, 52H, 45H, 4AH, 4FH
        DB 49H, 4EH, 5FH, 45H, 56H, 54H, 20H, 70H
        DB 72H, 6FH, 63H, 65H, 73H, 73H, 65H, 64H
        DB 21H, 20H, 53H, 74H, 61H, 72H, 74H, 69H
        DB 6EH, 67H, 20H, 6EH, 65H, 74H, 77H, 6FH
        DB 72H, 6BH, 20H, 73H, 74H, 65H, 65H, 72H
        DB 69H, 6EH, 67H, 2EH, 2EH, 2EH, 0DH, 0AH
        DB 0

        RSEG XDATA_ROM_C:CONST:REORDER:NOROOT(0)
        DATA8
`?<Constant "MAC address sent to c...">`:
        DB "MAC address sent to coordinator!\015\012"

        RSEG XDATA_ROM_C:CONST:REORDER:NOROOT(0)
        DATA8
`?<Constant "MAC: ">`:
        DB "MAC: "

        RSEG XDATA_ROM_C:CONST:REORDER:NOROOT(0)
        DATA8
`?<Constant "Network steering succ...">`:
        DB "Network steering successful! PANID: "

        RSEG XDATA_ROM_C:CONST:REORDER:NOROOT(0)
        DATA8
`?<Constant "Network steering fail...">`:
        DB 4EH, 65H, 74H, 77H, 6FH, 72H, 6BH, 20H
        DB 73H, 74H, 65H, 65H, 72H, 69H, 6EH, 67H
        DB 20H, 66H, 61H, 69H, 6CH, 65H, 64H, 21H
        DB 20H, 52H, 65H, 74H, 72H, 79H, 69H, 6EH
        DB 67H, 20H, 69H, 6EH, 20H, 31H, 20H, 73H
        DB 65H, 63H, 6FH, 6EH, 64H, 2EH, 2EH, 2EH
        DB 0DH, 0AH, 0

        RSEG XDATA_ROM_C:CONST:REORDER:NOROOT(0)
        DATA8
`?<Constant "P2P Data: ">`:
        DB "P2P Data: "

        RSEG XDATA_ROM_C:CONST:REORDER:NOROOT(0)
        DATA8
`?<Constant " Count: ">`:
        DB " Count: "

        RSEG XDATA_ROM_C:CONST:REORDER:NOROOT(0)
        DATA8
`?<Constant "Broadcast message rec...">`:
        DB "Broadcast message received!\015\012"

        RSEG XDATA_ROM_C:CONST:REORDER:NOROOT(0)
        DATA8
`?<Constant "Broadcast Data: ">`:
        DB "Broadcast Data: "

        RSEG XDATA_ROM_C:CONST:REORDER:NOROOT(0)
        DATA8
`?<Constant "Groupcast Data: ">`:
        DB "Groupcast Data: "

        RSEG XDATA_ROM_C:CONST:REORDER:NOROOT(0)
        DATA32
__Constant_ea60:
        DD 60000

        RSEG XDATA_ROM_C:CONST:REORDER:NOROOT(0)
        DATA32
__Constant_2710:
        DD 10000

        RSEG XDATA_ROM_C:CONST:REORDER:NOROOT(0)
        DATA32
__Constant_3e8:
        DD 1000

        END
// 1215 
// 1216 /****************************************************************************
// 1217 ****************************************************************************/
// 1218 
// 1219 
// 
// 2 747 bytes in segment BANKED_CODE
//    66 bytes in segment BANK_RELAYS
//     3 bytes in segment SFR_AN
//    29 bytes in segment XDATA_I
//    29 bytes in segment XDATA_ID
//   391 bytes in segment XDATA_ROM_C
//    72 bytes in segment XDATA_Z
// 
//    95 bytes of CODE     memory
//   379 bytes of CONST    memory (+ 12 bytes shared)
//     0 bytes of DATA     memory (+  3 bytes shared)
// 2 747 bytes of HUGECODE memory
//   101 bytes of XDATA    memory
//
//Errors: none
//Warnings: 1
