///////////////////////////////////////////////////////////////////////////////
//
// IAR C/C++ Compiler V10.10.1.4655 for 8051              05/Feb/2026  17:28:21
// Copyright 2004-2017 IAR Systems AB.
// Standalone license - IAR Embedded Workbench for 8051
//
//    Core               =  plain
//    Code model         =  banked
//    Data model         =  large
//    Calling convention =  xdata reentrant
//    Constant location  =  data_rom
//    Dptr setup         =  1,16
//                          
//    Source file        =  
//        D:\project\Z-Stack 3.0.2\Components\stack\zdo\ZDSecMgr.c
//    Command line       =  
//        -f C:\Users\KLF\AppData\Local\Temp\EW6322.tmp ("D:\project\Z-Stack
//        3.0.2\Components\stack\zdo\ZDSecMgr.c" -D BDB_REPORTING -D
//        xPOWER_SAVING -D NWK_AUTO_POLL -D xZTOOL_P1 -D xMT_TASK -D
//        xMT_APP_FUNC -D xMT_SYS_FUNC -D xMT_ZDO_FUNC -D xMT_APP_CNF_FUNC -D
//        LCD_SUPPORTED=DEBUG -D MULTICAST_ENABLED=FALSE -D ZCL_READ -D
//        ZCL_DISCOVER -D ZCL_WRITE -D ZCL_BASIC -D ZCL_IDENTIFY -D
//        ZCL_TEMPERATURE_MEASUREMENT -D ZCL_GROUPS -D HAL_UART=TRUE -D
//        INT_HEAP_LEN=2048 -lC "D:\project\Z-Stack
//        3.0.2\Projects\zstack\HomeAutomation\ZEM\CC2530DB\EndDeviceEB\List"
//        -lA "D:\project\Z-Stack
//        3.0.2\Projects\zstack\HomeAutomation\ZEM\CC2530DB\EndDeviceEB\List"
//        --diag_suppress Pe001,Pa010 -o "D:\project\Z-Stack
//        3.0.2\Projects\zstack\HomeAutomation\ZEM\CC2530DB\EndDeviceEB\Obj" -e
//        --debug --core=plain --dptr=16,1 --data_model=large
//        --code_model=banked --calling_convention=xdata_reentrant
//        --place_constants=data_rom --nr_virtual_regs 16 -f
//        "D:\project\Z-Stack
//        3.0.2\Projects\zstack\HomeAutomation\ZEM\CC2530DB\..\..\..\Tools\CC2530DB\f8wEndev.cfg"
//        (-DCPU32MHZ -DROOT=__near_func -DMAC_CFG_TX_DATA_MAX=3
//        -DMAC_CFG_TX_MAX=6 -DMAC_CFG_RX_MAX=3) -f "D:\project\Z-Stack
//        3.0.2\Projects\zstack\HomeAutomation\ZEM\CC2530DB\..\..\..\Tools\CC2530DB\f8wConfig.cfg"
//        (-DZIGBEEPRO -DSECURE=1 -DZG_SECURE_DYNAMIC=0 -DREFLECTOR
//        -DDEFAULT_CHANLIST=0x00100000 -DZDAPP_CONFIG_PAN_ID=0x1234
//        -DNWK_START_DELAY=100 -DEXTENDED_JOINING_RANDOM_MASK=0x007F
//        -DBEACON_REQUEST_DELAY=100 -DBEACON_REQ_DELAY_MASK=0x00FF
//        -DLINK_STATUS_JITTER_MASK=0x007F -DROUTE_EXPIRY_TIME=30
//        -DAPSC_ACK_WAIT_DURATION_POLLED=3000 -DNWK_INDIRECT_MSG_TIMEOUT=7
//        -DMAX_RREQ_ENTRIES=8 -DAPSC_MAX_FRAME_RETRIES=3
//        -DNWK_MAX_DATA_RETRIES=2 -DMAX_POLL_FAILURE_RETRIES=2 -DMAX_BCAST=9
//        -DAPS_MAX_GROUPS=16 -DMAX_RTG_ENTRIES=40 -DNWK_MAX_BINDING_ENTRIES=4
//        -DMAX_BINDING_CLUSTER_IDS=4 -DDEFAULT_KEY={0}
//        -DMAC_MAX_FRAME_SIZE=116 -DZDNWKMGR_MIN_TRANSMISSIONS=20
//        "-DCONST=const __code" -DGENERIC=__generic -DRFD_RCVC_ALWAYS_ON=FALSE
//        -DPOLL_RATE=1000 -DQUEUED_POLL_RATE=100 -DRESPONSE_POLL_RATE=100
//        -DREJOIN_POLL_RATE=440 -DREJOIN_BACKOFF=900000 -DREJOIN_SCAN=900000
//        -DENABLE_LED4_DISABLE_S1) -f "D:\project\Z-Stack
//        3.0.2\Projects\zstack\HomeAutomation\ZEM\CC2530DB\..\..\..\Tools\CC2530DB\f8wZCL.cfg"
//        -I "D:\project\Z-Stack
//        3.0.2\Projects\zstack\HomeAutomation\ZEM\CC2530DB\" -I
//        "D:\project\Z-Stack
//        3.0.2\Projects\zstack\HomeAutomation\ZEM\CC2530DB\..\Source\" -I
//        "D:\project\Z-Stack
//        3.0.2\Projects\zstack\HomeAutomation\ZEM\CC2530DB\..\..\Source\" -I
//        "D:\project\Z-Stack
//        3.0.2\Projects\zstack\HomeAutomation\ZEM\CC2530DB\..\..\..\ZMain\TI2530DB\"
//        -I "D:\project\Z-Stack
//        3.0.2\Projects\zstack\HomeAutomation\ZEM\CC2530DB\..\..\..\..\..\Components\hal\include\"
//        -I "D:\project\Z-Stack
//        3.0.2\Projects\zstack\HomeAutomation\ZEM\CC2530DB\..\..\..\..\..\Components\hal\target\CC2530EB\"
//        -I "D:\project\Z-Stack
//        3.0.2\Projects\zstack\HomeAutomation\ZEM\CC2530DB\..\..\..\..\..\Components\mac\include\"
//        -I "D:\project\Z-Stack
//        3.0.2\Projects\zstack\HomeAutomation\ZEM\CC2530DB\..\..\..\..\..\Components\mac\high_level\"
//        -I "D:\project\Z-Stack
//        3.0.2\Projects\zstack\HomeAutomation\ZEM\CC2530DB\..\..\..\..\..\Components\mac\low_level\srf04\"
//        -I "D:\project\Z-Stack
//        3.0.2\Projects\zstack\HomeAutomation\ZEM\CC2530DB\..\..\..\..\..\Components\mac\low_level\srf04\single_chip\"
//        -I "D:\project\Z-Stack
//        3.0.2\Projects\zstack\HomeAutomation\ZEM\CC2530DB\..\..\..\..\..\Components\mt\"
//        -I "D:\project\Z-Stack
//        3.0.2\Projects\zstack\HomeAutomation\ZEM\CC2530DB\..\..\..\..\..\Components\osal\include\"
//        -I "D:\project\Z-Stack
//        3.0.2\Projects\zstack\HomeAutomation\ZEM\CC2530DB\..\..\..\..\..\Components\services\saddr\"
//        -I "D:\project\Z-Stack
//        3.0.2\Projects\zstack\HomeAutomation\ZEM\CC2530DB\..\..\..\..\..\Components\services\sdata\"
//        -I "D:\project\Z-Stack
//        3.0.2\Projects\zstack\HomeAutomation\ZEM\CC2530DB\..\..\..\..\..\Components\stack\af\"
//        -I "D:\project\Z-Stack
//        3.0.2\Projects\zstack\HomeAutomation\ZEM\CC2530DB\..\..\..\..\..\Components\stack\bdb\"
//        -I "D:\project\Z-Stack
//        3.0.2\Projects\zstack\HomeAutomation\ZEM\CC2530DB\..\..\..\..\..\Components\stack\gp\"
//        -I "D:\project\Z-Stack
//        3.0.2\Projects\zstack\HomeAutomation\ZEM\CC2530DB\..\..\..\..\..\Components\stack\nwk\"
//        -I "D:\project\Z-Stack
//        3.0.2\Projects\zstack\HomeAutomation\ZEM\CC2530DB\..\..\..\..\..\Components\stack\sapi\"
//        -I "D:\project\Z-Stack
//        3.0.2\Projects\zstack\HomeAutomation\ZEM\CC2530DB\..\..\..\..\..\Components\stack\sec\"
//        -I "D:\project\Z-Stack
//        3.0.2\Projects\zstack\HomeAutomation\ZEM\CC2530DB\..\..\..\..\..\Components\stack\sys\"
//        -I "D:\project\Z-Stack
//        3.0.2\Projects\zstack\HomeAutomation\ZEM\CC2530DB\..\..\..\..\..\Components\stack\zcl\"
//        -I "D:\project\Z-Stack
//        3.0.2\Projects\zstack\HomeAutomation\ZEM\CC2530DB\..\..\..\..\..\Components\stack\zdo\"
//        -I "D:\project\Z-Stack
//        3.0.2\Projects\zstack\HomeAutomation\ZEM\CC2530DB\..\..\..\..\..\Components\zmac\"
//        -I "D:\project\Z-Stack
//        3.0.2\Projects\zstack\HomeAutomation\ZEM\CC2530DB\..\..\..\..\..\Components\zmac\f8w\"
//        -Ohz --require_prototypes)
//    Locale             =  Chinese (Simplified)_China.936
//    List file          =  
//        D:\project\Z-Stack
//        3.0.2\Projects\zstack\HomeAutomation\ZEM\CC2530DB\EndDeviceEB\List\ZDSecMgr.s51
//
///////////////////////////////////////////////////////////////////////////////

        NAME ZDSecMgr

        RTMODEL "__SystemLibrary", "CLib"
        RTMODEL "__calling_convention", "xdata_reentrant"
        RTMODEL "__code_model", "banked"
        RTMODEL "__core", "plain"
        RTMODEL "__data_model", "large"
        RTMODEL "__dptr_size", "16"
        RTMODEL "__extended_stack", "disabled"
        RTMODEL "__location_for_constants", "data"
        RTMODEL "__number_of_dptrs", "1"
        RTMODEL "__register_banks", "*"
        RTMODEL "__rt_version", "1"

        RSEG DOVERLAY:DATA:NOROOT(0)
        RSEG IOVERLAY:IDATA:NOROOT(0)
        RSEG ISTACK:IDATA:NOROOT(0)
        RSEG PSTACK:XDATA:NOROOT(0)
        RSEG XSTACK:XDATA:NOROOT(0)

        EXTERN ?V0
        EXTERN ?V1
        EXTERN ?V2
        EXTERN ?V3
        EXTERN ?V4
        EXTERN ?V5
        EXTERN ?V6
        EXTERN ?V7
        EXTERN ?V8
        EXTERN ?V9
        EXTERN ?V10
        EXTERN ?V11
        EXTERN ?ALLOC_XSTACK8
        EXTERN ?BANKED_ENTER_XDATA
        EXTERN ?BANKED_LEAVE_XDATA
        EXTERN ?BDISPATCH
        EXTERN ?BRET
        EXTERN ?CALL_IND
        EXTERN ?DEALLOC_XSTACK8
        EXTERN ?L_ADD_TO_X
        EXTERN ?L_ADD_X
        EXTERN ?L_MOV_X
        EXTERN ?MOVE_LONG8_XDATA_XDATA
        EXTERN ?PUSH_XSTACK8_X_TWO
        EXTERN ?PUSH_XSTACK_I_THREE
        EXTERN ?PUSH_XSTACK_I_TWO
        EXTERN ?UL_GE_X
        EXTERN ?XLOAD_R0123
        EXTERN ?XSP
        EXTERN ?XSTACK_DISP0_8
        EXTERN ?XSTACK_DISP100_8
        EXTERN ?XSTACK_DISP101_8
        EXTERN ?XSTACK_DISP102_8
        EXTERN ?XSTORE_R0123
        EXTERN __INIT_XDATA_I
        EXTERN __INIT_XDATA_Z

        PUBLIC `??APSME_IsDefaultTCLK::?relay`
        FUNCTION `??APSME_IsDefaultTCLK::?relay`,0203H
        PUBLIC `??APSME_IsLinkKeyValid::?relay`
        FUNCTION `??APSME_IsLinkKeyValid::?relay`,0203H
        PUBLIC `??APSME_KeyFwdToChild::?relay`
        FUNCTION `??APSME_KeyFwdToChild::?relay`,0203H
        PUBLIC `??APSME_LinkKeyNVIdGet::?relay`
        FUNCTION `??APSME_LinkKeyNVIdGet::?relay`,0203H
        PUBLIC `??APSME_LinkKeySet::?relay`
        FUNCTION `??APSME_LinkKeySet::?relay`,0203H
        PUBLIC `??APSME_TCLinkKeyInit::?relay`
        FUNCTION `??APSME_TCLinkKeyInit::?relay`,0203H
        PUBLIC `??APSME_TCLinkKeyLoad::?relay`
        FUNCTION `??APSME_TCLinkKeyLoad::?relay`,0203H
        PUBLIC `??APSME_TCLinkKeySync::?relay`
        FUNCTION `??APSME_TCLinkKeySync::?relay`,0203H
        PUBLIC `??ZDSecMgrAPSRemove::?relay`
        FUNCTION `??ZDSecMgrAPSRemove::?relay`,0203H
        PUBLIC `??ZDSecMgrAddLinkKey::?relay`
        FUNCTION `??ZDSecMgrAddLinkKey::?relay`,0203H
        PUBLIC `??ZDSecMgrAddrClear::?relay`
        FUNCTION `??ZDSecMgrAddrClear::?relay`,0203H
        PUBLIC `??ZDSecMgrAddrStore::?relay`
        FUNCTION `??ZDSecMgrAddrStore::?relay`,0203H
        PUBLIC `??ZDSecMgrAppConfKeyReq::?relay`
        FUNCTION `??ZDSecMgrAppConfKeyReq::?relay`,0203H
        PUBLIC `??ZDSecMgrAppKeyGet::?relay`
        FUNCTION `??ZDSecMgrAppKeyGet::?relay`,0203H
        PUBLIC `??ZDSecMgrAppKeyReq::?relay`
        FUNCTION `??ZDSecMgrAppKeyReq::?relay`,0203H
        PUBLIC `??ZDSecMgrApsLinkKeyInit::?relay`
        FUNCTION `??ZDSecMgrApsLinkKeyInit::?relay`,0203H
        PUBLIC `??ZDSecMgrAssocDeviceAuth::?relay`
        FUNCTION `??ZDSecMgrAssocDeviceAuth::?relay`,0203H
        PUBLIC `??ZDSecMgrAuthNwkKey::?relay`
        FUNCTION `??ZDSecMgrAuthNwkKey::?relay`,0203H
        PUBLIC `??ZDSecMgrAuthenticationCheck::?relay`
        FUNCTION `??ZDSecMgrAuthenticationCheck::?relay`,0203H
        PUBLIC `??ZDSecMgrAuthenticationSet::?relay`
        FUNCTION `??ZDSecMgrAuthenticationSet::?relay`,0203H
        PUBLIC `??ZDSecMgrConfig::?relay`
        FUNCTION `??ZDSecMgrConfig::?relay`,0203H
        PUBLIC `??ZDSecMgrDeviceJoin::?relay`
        FUNCTION `??ZDSecMgrDeviceJoin::?relay`,0203H
        PUBLIC `??ZDSecMgrDeviceJoinDirect::?relay`
        FUNCTION `??ZDSecMgrDeviceJoinDirect::?relay`,0203H
        PUBLIC `??ZDSecMgrDeviceJoinFwd::?relay`
        FUNCTION `??ZDSecMgrDeviceJoinFwd::?relay`,0203H
        PUBLIC `??ZDSecMgrDeviceNew::?relay`
        FUNCTION `??ZDSecMgrDeviceNew::?relay`,0203H
        PUBLIC `??ZDSecMgrDeviceRemove::?relay`
        FUNCTION `??ZDSecMgrDeviceRemove::?relay`,0203H
        PUBLIC `??ZDSecMgrDeviceRemoveByExtAddr::?relay`
        FUNCTION `??ZDSecMgrDeviceRemoveByExtAddr::?relay`,0203H
        PUBLIC `??ZDSecMgrDeviceValidate::?relay`
        FUNCTION `??ZDSecMgrDeviceValidate::?relay`,0203H
        PUBLIC `??ZDSecMgrDeviceValidateRM::?relay`
        FUNCTION `??ZDSecMgrDeviceValidateRM::?relay`,0203H
        PUBLIC `??ZDSecMgrEntryFree::?relay`
        FUNCTION `??ZDSecMgrEntryFree::?relay`,0203H
        PUBLIC `??ZDSecMgrEntryInit::?relay`
        FUNCTION `??ZDSecMgrEntryInit::?relay`,0203H
        PUBLIC `??ZDSecMgrEntryLookup::?relay`
        FUNCTION `??ZDSecMgrEntryLookup::?relay`,0203H
        PUBLIC `??ZDSecMgrEntryLookupAMI::?relay`
        FUNCTION `??ZDSecMgrEntryLookupAMI::?relay`,0203H
        PUBLIC `??ZDSecMgrEntryLookupAMIGetIndex::?relay`
        FUNCTION `??ZDSecMgrEntryLookupAMIGetIndex::?relay`,0203H
        PUBLIC `??ZDSecMgrEntryLookupExt::?relay`
        FUNCTION `??ZDSecMgrEntryLookupExt::?relay`,0203H
        PUBLIC `??ZDSecMgrEntryLookupExtGetIndex::?relay`
        FUNCTION `??ZDSecMgrEntryLookupExtGetIndex::?relay`,0203H
        PUBLIC `??ZDSecMgrEntryNew::?relay`
        FUNCTION `??ZDSecMgrEntryNew::?relay`,0203H
        PUBLIC `??ZDSecMgrExtAddrLookup::?relay`
        FUNCTION `??ZDSecMgrExtAddrLookup::?relay`,0203H
        PUBLIC `??ZDSecMgrExtAddrStore::?relay`
        FUNCTION `??ZDSecMgrExtAddrStore::?relay`,0203H
        PUBLIC `??ZDSecMgrGenerateKeyFromSeed::?relay`
        FUNCTION `??ZDSecMgrGenerateKeyFromSeed::?relay`,0203H
        PUBLIC `??ZDSecMgrGenerateRndKey::?relay`
        FUNCTION `??ZDSecMgrGenerateRndKey::?relay`,0203H
        PUBLIC `??ZDSecMgrGenerateSeed::?relay`
        FUNCTION `??ZDSecMgrGenerateSeed::?relay`,0203H
        PUBLIC `??ZDSecMgrInit::?relay`
        FUNCTION `??ZDSecMgrInit::?relay`,0203H
        PUBLIC `??ZDSecMgrInitNV::?relay`
        FUNCTION `??ZDSecMgrInitNV::?relay`,0203H
        PUBLIC `??ZDSecMgrInitNVKeyTables::?relay`
        FUNCTION `??ZDSecMgrInitNVKeyTables::?relay`,0203H
        PUBLIC `??ZDSecMgrNewDeviceEvent::?relay`
        FUNCTION `??ZDSecMgrNewDeviceEvent::?relay`,0203H
        PUBLIC `??ZDSecMgrNwkKeyInit::?relay`
        FUNCTION `??ZDSecMgrNwkKeyInit::?relay`,0203H
        PUBLIC `??ZDSecMgrPermitJoining::?relay`
        FUNCTION `??ZDSecMgrPermitJoining::?relay`,0203H
        PUBLIC `??ZDSecMgrPermitJoiningTimeout::?relay`
        FUNCTION `??ZDSecMgrPermitJoiningTimeout::?relay`,0203H
        PUBLIC `??ZDSecMgrReadKeyFromNv::?relay`
        FUNCTION `??ZDSecMgrReadKeyFromNv::?relay`,0203H
        PUBLIC `??ZDSecMgrRemoveDeviceInd::?relay`
        FUNCTION `??ZDSecMgrRemoveDeviceInd::?relay`,0203H
        PUBLIC `??ZDSecMgrRequestAppKey::?relay`
        FUNCTION `??ZDSecMgrRequestAppKey::?relay`,0203H
        PUBLIC `??ZDSecMgrRequestKeyInd::?relay`
        FUNCTION `??ZDSecMgrRequestKeyInd::?relay`,0203H
        PUBLIC `??ZDSecMgrSaveApsLinkKey::?relay`
        FUNCTION `??ZDSecMgrSaveApsLinkKey::?relay`,0203H
        PUBLIC `??ZDSecMgrSaveTCLinkKey::?relay`
        FUNCTION `??ZDSecMgrSaveTCLinkKey::?relay`,0203H
        PUBLIC `??ZDSecMgrSendNwkKey::?relay`
        FUNCTION `??ZDSecMgrSendNwkKey::?relay`,0203H
        PUBLIC `??ZDSecMgrSetDefaultNV::?relay`
        FUNCTION `??ZDSecMgrSetDefaultNV::?relay`,0203H
        PUBLIC `??ZDSecMgrSetupPartner::?relay`
        FUNCTION `??ZDSecMgrSetupPartner::?relay`,0203H
        PUBLIC `??ZDSecMgrSwitchKeyInd::?relay`
        FUNCTION `??ZDSecMgrSwitchKeyInd::?relay`,0203H
        PUBLIC `??ZDSecMgrTCDataLoad::?relay`
        FUNCTION `??ZDSecMgrTCDataLoad::?relay`,0203H
        PUBLIC `??ZDSecMgrTCExtAddrCheck::?relay`
        FUNCTION `??ZDSecMgrTCExtAddrCheck::?relay`,0203H
        PUBLIC `??ZDSecMgrTclkReq::?relay`
        FUNCTION `??ZDSecMgrTclkReq::?relay`,0203H
        PUBLIC `??ZDSecMgrTransportKeyInd::?relay`
        FUNCTION `??ZDSecMgrTransportKeyInd::?relay`,0203H
        PUBLIC `??ZDSecMgrUpdateDeviceInd::?relay`
        FUNCTION `??ZDSecMgrUpdateDeviceInd::?relay`,0203H
        PUBLIC `??ZDSecMgrUpdateTCAddress::?relay`
        FUNCTION `??ZDSecMgrUpdateTCAddress::?relay`,0203H
        PUBLIC `??ZDSecMgrVerifyKeyInd::?relay`
        FUNCTION `??ZDSecMgrVerifyKeyInd::?relay`,0203H
        PUBLIC APSME_IsDefaultTCLK
        FUNCTION APSME_IsDefaultTCLK,021203H
        ARGFRAME XSTACK, 0, STACK
        LOCFRAME ISTACK, 2, STACK
        PUBLIC APSME_IsLinkKeyValid
        FUNCTION APSME_IsLinkKeyValid,0a1203H
        ARGFRAME XSTACK, 0, STACK
        LOCFRAME XSTACK, 37, STACK
        PUBLIC APSME_KeyFwdToChild
        FUNCTION APSME_KeyFwdToChild,0a1203H
        ARGFRAME XSTACK, 0, STACK
        LOCFRAME XSTACK, 10, STACK
        PUBLIC APSME_LinkKeyNVIdGet
        FUNCTION APSME_LinkKeyNVIdGet,021203H
        ARGFRAME XSTACK, 33, STACK
        ARGFRAME IOVERLAY, 0, STATIC
        ARGFRAME DOVERLAY, 0, STATIC
        LOCFRAME XSTACK, 11, STACK
        PUBLIC APSME_LinkKeySet
        FUNCTION APSME_LinkKeySet,0a1203H
        ARGFRAME XSTACK, 14, STACK
        ARGFRAME IOVERLAY, 0, STATIC
        ARGFRAME DOVERLAY, 0, STATIC
        LOCFRAME XSTACK, 23, STACK
        PUBLIC APSME_TCLinkKeyInit
        FUNCTION APSME_TCLinkKeyInit,0a1203H
        ARGFRAME XSTACK, 9, STACK
        ARGFRAME IOVERLAY, 0, STATIC
        ARGFRAME DOVERLAY, 0, STATIC
        LOCFRAME XSTACK, 43, STACK
        PUBLIC APSME_TCLinkKeyLoad
        FUNCTION APSME_TCLinkKeyLoad,0a1203H
        ARGFRAME XSTACK, 0, STACK
        LOCFRAME ISTACK, 1, STACK
        LOCFRAME XSTACK, 55, STACK
        PUBLIC APSME_TCLinkKeySync
        FUNCTION APSME_TCLinkKeySync,0a1203H
        ARGFRAME XSTACK, 0, STACK
        LOCFRAME ISTACK, 1, STACK
        LOCFRAME XSTACK, 49, STACK
        PUBLIC ApsLinkKeyFrmCntr
        PUBLIC TCLinkKeyFrmCntr
        PUBLIC TrustCenterLinkKey
        PUBLIC ZDSecMgrAPSRemove
        FUNCTION ZDSecMgrAPSRemove,021203H
        ARGFRAME XSTACK, 2, STACK
        LOCFRAME ISTACK, 2, STACK
        LOCFRAME XSTACK, 8, STACK
        PUBLIC ZDSecMgrAddLinkKey
        FUNCTION ZDSecMgrAddLinkKey,0a1203H
        ARGFRAME XSTACK, 2, STACK
        LOCFRAME XSTACK, 16, STACK
        PUBLIC ZDSecMgrAddrClear
        FUNCTION ZDSecMgrAddrClear,021203H
        ARGFRAME XSTACK, 33, STACK
        ARGFRAME IOVERLAY, 0, STATIC
        ARGFRAME DOVERLAY, 0, STATIC
        LOCFRAME XSTACK, 24, STACK
        PUBLIC ZDSecMgrAddrStore
        FUNCTION ZDSecMgrAddrStore,021203H
        ARGFRAME XSTACK, 32, STACK
        ARGFRAME IOVERLAY, 0, STATIC
        ARGFRAME DOVERLAY, 0, STATIC
        LOCFRAME XSTACK, 22, STACK
        PUBLIC ZDSecMgrAppConfKeyReq
        FUNCTION ZDSecMgrAppConfKeyReq,0203H
        ARGFRAME XSTACK, 0, STACK
        PUBLIC ZDSecMgrAppKeyGet
        FUNCTION ZDSecMgrAppKeyGet,021203H
        ARGFRAME XSTACK, 59, STACK
        ARGFRAME IOVERLAY, 0, STATIC
        ARGFRAME DOVERLAY, 0, STATIC
        LOCFRAME ISTACK, 3, STACK
        PUBLIC ZDSecMgrAppKeyReq
        FUNCTION ZDSecMgrAppKeyReq,0a1203H
        ARGFRAME XSTACK, 0, STACK
        ARGFRAME IOVERLAY, 0, STATIC
        ARGFRAME DOVERLAY, 0, STATIC
        LOCFRAME XSTACK, 59, STACK
        PUBLIC ZDSecMgrAppKeyType
        PUBLIC ZDSecMgrApsLinkKeyInit
        FUNCTION ZDSecMgrApsLinkKeyInit,0a1203H
        ARGFRAME XSTACK, 9, STACK
        ARGFRAME IOVERLAY, 0, STATIC
        ARGFRAME DOVERLAY, 0, STATIC
        LOCFRAME XSTACK, 40, STACK
        PUBLIC ZDSecMgrAssocDeviceAuth
        FUNCTION ZDSecMgrAssocDeviceAuth,0203H
        ARGFRAME XSTACK, 33, STACK
        ARGFRAME IOVERLAY, 0, STATIC
        ARGFRAME DOVERLAY, 0, STATIC
        LOCFRAME ISTACK, 2, STACK
        PUBLIC ZDSecMgrAuthNwkKey
        FUNCTION ZDSecMgrAuthNwkKey,021203H
        ARGFRAME XSTACK, 50, STACK
        ARGFRAME IOVERLAY, 0, STATIC
        ARGFRAME DOVERLAY, 0, STATIC
        LOCFRAME ISTACK, 2, STACK
        PUBLIC ZDSecMgrAuthenticationCheck
        FUNCTION ZDSecMgrAuthenticationCheck,0203H
        ARGFRAME XSTACK, 0, STACK
        PUBLIC ZDSecMgrAuthenticationSet
        FUNCTION ZDSecMgrAuthenticationSet,021203H
        ARGFRAME XSTACK, 0, STACK
        LOCFRAME ISTACK, 1, STACK
        LOCFRAME XSTACK, 11, STACK
        PUBLIC ZDSecMgrConfig
        FUNCTION ZDSecMgrConfig,021203H
        ARGFRAME XSTACK, 0, STACK
        LOCFRAME ISTACK, 2, STACK
        PUBLIC ZDSecMgrDeviceJoin
        FUNCTION ZDSecMgrDeviceJoin,0a1203H
        ARGFRAME XSTACK, 32, STACK
        ARGFRAME IOVERLAY, 0, STATIC
        ARGFRAME DOVERLAY, 0, STATIC
        LOCFRAME XSTACK, 33, STACK
        PUBLIC ZDSecMgrDeviceJoinDirect
        FUNCTION ZDSecMgrDeviceJoinDirect,0a1203H
        ARGFRAME XSTACK, 0, STACK
        LOCFRAME ISTACK, 1, STACK
        LOCFRAME XSTACK, 36, STACK
        PUBLIC ZDSecMgrDeviceJoinFwd
        FUNCTION ZDSecMgrDeviceJoinFwd,0a1203H
        ARGFRAME XSTACK, 0, STACK
        ARGFRAME IOVERLAY, 0, STATIC
        ARGFRAME DOVERLAY, 0, STATIC
        LOCFRAME XSTACK, 18, STACK
        PUBLIC ZDSecMgrDeviceNew
        FUNCTION ZDSecMgrDeviceNew,021203H
        ARGFRAME XSTACK, 33, STACK
        ARGFRAME IOVERLAY, 0, STATIC
        ARGFRAME DOVERLAY, 0, STATIC
        LOCFRAME ISTACK, 2, STACK
        PUBLIC ZDSecMgrDeviceRemove
        FUNCTION ZDSecMgrDeviceRemove,0a1203H
        ARGFRAME XSTACK, 30, STACK
        ARGFRAME IOVERLAY, 0, STATIC
        ARGFRAME DOVERLAY, 0, STATIC
        LOCFRAME XSTACK, 20, STACK
        PUBLIC ZDSecMgrDeviceRemoveByExtAddr
        FUNCTION ZDSecMgrDeviceRemoveByExtAddr,021203H
        ARGFRAME XSTACK, 0, STACK
        LOCFRAME XSTACK, 11, STACK
        PUBLIC ZDSecMgrDeviceValidate
        FUNCTION ZDSecMgrDeviceValidate,021203H
        ARGFRAME XSTACK, 30, STACK
        ARGFRAME IOVERLAY, 0, STATIC
        ARGFRAME DOVERLAY, 0, STATIC
        LOCFRAME ISTACK, 2, STACK
        PUBLIC ZDSecMgrDeviceValidateRM
        FUNCTION ZDSecMgrDeviceValidateRM,0203H
        ARGFRAME XSTACK, 0, STACK
        ARGFRAME IOVERLAY, 0, STATIC
        ARGFRAME DOVERLAY, 0, STATIC
        LOCFRAME ISTACK, 2, STACK
        PUBLIC ZDSecMgrEntries
        PUBLIC ZDSecMgrEntryFree
        FUNCTION ZDSecMgrEntryFree,0a1203H
        ARGFRAME XSTACK, 11, STACK
        ARGFRAME IOVERLAY, 0, STATIC
        ARGFRAME DOVERLAY, 0, STATIC
        LOCFRAME XSTACK, 18, STACK
        PUBLIC ZDSecMgrEntryInit
        FUNCTION ZDSecMgrEntryInit,021203H
        ARGFRAME XSTACK, 0, STACK
        LOCFRAME ISTACK, 2, STACK
        PUBLIC ZDSecMgrEntryLookup
        FUNCTION ZDSecMgrEntryLookup,0a1203H
        ARGFRAME XSTACK, 0, STACK
        LOCFRAME XSTACK, 22, STACK
        PUBLIC ZDSecMgrEntryLookupAMI
        FUNCTION ZDSecMgrEntryLookupAMI,080203H
        ARGFRAME XSTACK, 14, STACK
        ARGFRAME IOVERLAY, 0, STATIC
        ARGFRAME DOVERLAY, 0, STATIC
        LOCFRAME XSTACK, 9, STACK
        PUBLIC ZDSecMgrEntryLookupAMIGetIndex
        FUNCTION ZDSecMgrEntryLookupAMIGetIndex,080203H
        ARGFRAME XSTACK, 0, STACK
        LOCFRAME XSTACK, 9, STACK
        PUBLIC ZDSecMgrEntryLookupExt
        FUNCTION ZDSecMgrEntryLookupExt,0a1203H
        ARGFRAME XSTACK, 11, STACK
        ARGFRAME IOVERLAY, 0, STATIC
        ARGFRAME DOVERLAY, 0, STATIC
        LOCFRAME XSTACK, 11, STACK
        PUBLIC ZDSecMgrEntryLookupExtGetIndex
        FUNCTION ZDSecMgrEntryLookupExtGetIndex,021203H
        ARGFRAME XSTACK, 21, STACK
        ARGFRAME IOVERLAY, 0, STATIC
        ARGFRAME DOVERLAY, 0, STATIC
        LOCFRAME XSTACK, 11, STACK
        PUBLIC ZDSecMgrEntryNew
        FUNCTION ZDSecMgrEntryNew,080203H
        ARGFRAME XSTACK, 14, STACK
        ARGFRAME IOVERLAY, 0, STATIC
        ARGFRAME DOVERLAY, 0, STATIC
        LOCFRAME XSTACK, 9, STACK
        PUBLIC ZDSecMgrExtAddrLookup
        FUNCTION ZDSecMgrExtAddrLookup,021203H
        ARGFRAME XSTACK, 24, STACK
        ARGFRAME IOVERLAY, 0, STATIC
        ARGFRAME DOVERLAY, 0, STATIC
        LOCFRAME XSTACK, 22, STACK
        PUBLIC ZDSecMgrExtAddrStore
        FUNCTION ZDSecMgrExtAddrStore,021203H
        ARGFRAME XSTACK, 2, STACK
        LOCFRAME XSTACK, 22, STACK
        PUBLIC ZDSecMgrGenerateKeyFromSeed
        FUNCTION ZDSecMgrGenerateKeyFromSeed,0a1203H
        ARGFRAME XSTACK, 69, STACK
        ARGFRAME IOVERLAY, 0, STATIC
        ARGFRAME DOVERLAY, 0, STATIC
        LOCFRAME XSTACK, 38, STACK
        PUBLIC ZDSecMgrGenerateRndKey
        FUNCTION ZDSecMgrGenerateRndKey,0a1203H
        ARGFRAME XSTACK, 26, STACK
        ARGFRAME IOVERLAY, 0, STATIC
        ARGFRAME DOVERLAY, 0, STATIC
        LOCFRAME ISTACK, 1, STACK
        LOCFRAME XSTACK, 12, STACK
        PUBLIC ZDSecMgrGenerateSeed
        FUNCTION ZDSecMgrGenerateSeed,0a1203H
        ARGFRAME XSTACK, 0, STACK
        LOCFRAME XSTACK, 30, STACK
        PUBLIC ZDSecMgrInit
        FUNCTION ZDSecMgrInit,021203H
        ARGFRAME XSTACK, 0, STACK
        LOCFRAME ISTACK, 2, STACK
        PUBLIC ZDSecMgrInitNV
        FUNCTION ZDSecMgrInitNV,0a1203H
        ARGFRAME XSTACK, 0, STACK
        LOCFRAME XSTACK, 16, STACK
        PUBLIC ZDSecMgrInitNVKeyTables
        FUNCTION ZDSecMgrInitNVKeyTables,021203H
        ARGFRAME XSTACK, 0, STACK
        LOCFRAME XSTACK, 9, STACK
        PUBLIC ZDSecMgrNewDeviceEvent
        FUNCTION ZDSecMgrNewDeviceEvent,0a1203H
        ARGFRAME XSTACK, 0, STACK
        LOCFRAME ISTACK, 1, STACK
        LOCFRAME XSTACK, 33, STACK
        PUBLIC ZDSecMgrNwkKeyInit
        FUNCTION ZDSecMgrNwkKeyInit,0a1203H
        ARGFRAME XSTACK, 9, STACK
        ARGFRAME IOVERLAY, 0, STATIC
        ARGFRAME DOVERLAY, 0, STATIC
        LOCFRAME XSTACK, 66, STACK
        PUBLIC ZDSecMgrPermitJoining
        FUNCTION ZDSecMgrPermitJoining,0203H
        ARGFRAME XSTACK, 0, STACK
        LOCFRAME ISTACK, 2, STACK
        PUBLIC ZDSecMgrPermitJoiningEnabled
        PUBLIC ZDSecMgrPermitJoiningTimed
        PUBLIC ZDSecMgrPermitJoiningTimeout
        FUNCTION ZDSecMgrPermitJoiningTimeout,0203H
        ARGFRAME XSTACK, 0, STACK
        LOCFRAME ISTACK, 2, STACK
        PUBLIC ZDSecMgrReadKeyFromNv
        FUNCTION ZDSecMgrReadKeyFromNv,0a1203H
        ARGFRAME XSTACK, 50, STACK
        ARGFRAME IOVERLAY, 0, STATIC
        ARGFRAME DOVERLAY, 0, STATIC
        LOCFRAME XSTACK, 19, STACK
        PUBLIC ZDSecMgrRemoveDeviceInd
        FUNCTION ZDSecMgrRemoveDeviceInd,021203H
        ARGFRAME XSTACK, 0, STACK
        LOCFRAME XSTACK, 17, STACK
        PUBLIC ZDSecMgrRequestAppKey
        FUNCTION ZDSecMgrRequestAppKey,021203H
        ARGFRAME XSTACK, 0, STACK
        LOCFRAME ISTACK, 2, STACK
        LOCFRAME XSTACK, 4, STACK
        PUBLIC ZDSecMgrRequestKeyInd
        FUNCTION ZDSecMgrRequestKeyInd,021203H
        ARGFRAME XSTACK, 0, STACK
        LOCFRAME ISTACK, 2, STACK
        PUBLIC ZDSecMgrSaveApsLinkKey
        FUNCTION ZDSecMgrSaveApsLinkKey,0a1203H
        ARGFRAME XSTACK, 0, STACK
        LOCFRAME XSTACK, 22, STACK
        PUBLIC ZDSecMgrSaveTCLinkKey
        FUNCTION ZDSecMgrSaveTCLinkKey,0a1203H
        ARGFRAME XSTACK, 0, STACK
        LOCFRAME XSTACK, 22, STACK
        PUBLIC ZDSecMgrSendNwkKey
        FUNCTION ZDSecMgrSendNwkKey,0a1203H
        ARGFRAME XSTACK, 30, STACK
        ARGFRAME IOVERLAY, 0, STATIC
        ARGFRAME DOVERLAY, 0, STATIC
        LOCFRAME ISTACK, 1, STACK
        LOCFRAME XSTACK, 44, STACK
        PUBLIC ZDSecMgrSetDefaultNV
        FUNCTION ZDSecMgrSetDefaultNV,0a1203H
        ARGFRAME XSTACK, 0, STACK
        LOCFRAME XSTACK, 23, STACK
        PUBLIC ZDSecMgrSetupPartner
        FUNCTION ZDSecMgrSetupPartner,0a1203H
        ARGFRAME XSTACK, 0, STACK
        LOCFRAME XSTACK, 25, STACK
        PUBLIC ZDSecMgrSwitchKeyInd
        FUNCTION ZDSecMgrSwitchKeyInd,021203H
        ARGFRAME XSTACK, 0, STACK
        LOCFRAME ISTACK, 2, STACK
        PUBLIC ZDSecMgrTCAuthenticated
        PUBLIC ZDSecMgrTCDataLoad
        FUNCTION ZDSecMgrTCDataLoad,0a1203H
        ARGFRAME XSTACK, 50, STACK
        ARGFRAME IOVERLAY, 0, STATIC
        ARGFRAME DOVERLAY, 0, STATIC
        LOCFRAME XSTACK, 27, STACK
        PUBLIC ZDSecMgrTCExtAddr
        PUBLIC ZDSecMgrTCExtAddrCheck
        FUNCTION ZDSecMgrTCExtAddrCheck,021203H
        ARGFRAME XSTACK, 0, STACK
        LOCFRAME XSTACK, 17, STACK
        PUBLIC ZDSecMgrTclkReq
        FUNCTION ZDSecMgrTclkReq,0a1203H
        ARGFRAME XSTACK, 0, STACK
        ARGFRAME IOVERLAY, 0, STATIC
        ARGFRAME DOVERLAY, 0, STATIC
        LOCFRAME XSTACK, 71, STACK
        PUBLIC ZDSecMgrTransportKeyInd
        FUNCTION ZDSecMgrTransportKeyInd,0a1203H
        ARGFRAME XSTACK, 0, STACK
        LOCFRAME XSTACK, 54, STACK
        PUBLIC ZDSecMgrUpdateDeviceInd
        FUNCTION ZDSecMgrUpdateDeviceInd,021203H
        ARGFRAME XSTACK, 0, STACK
        LOCFRAME ISTACK, 2, STACK
        LOCFRAME XSTACK, 8, STACK
        PUBLIC ZDSecMgrUpdateTCAddress
        FUNCTION ZDSecMgrUpdateTCAddress,0a1203H
        ARGFRAME XSTACK, 50, STACK
        ARGFRAME IOVERLAY, 0, STATIC
        ARGFRAME DOVERLAY, 0, STATIC
        LOCFRAME XSTACK, 18, STACK
        PUBLIC ZDSecMgrVerifyKeyInd
        FUNCTION ZDSecMgrVerifyKeyInd,0203H
        ARGFRAME XSTACK, 0, STACK
        PUBWEAK __Constant_1
        PUBWEAK __Constant_b
        PUBLIC gZDSECMGR_TC_ATTEMPT_DEFAULT_KEY
        PUBLIC gZDSECMGR_TC_DEVICE_IC_MAX
        PUBLIC gZDSECMGR_TC_DEVICE_MAX
        PUBLIC requestLinkKeyTimeout
        PUBLIC requestNewTrustCenterLinkKey
        
          CFI Names cfiNames0
          CFI StackFrame CFA_SP SP IDATA
          CFI StackFrame CFA_PSP16 PSP16 XDATA
          CFI StackFrame CFA_XSP16 XSP16 XDATA
          CFI StaticOverlayFrame CFA_IOVERLAY IOVERLAY
          CFI StaticOverlayFrame CFA_DOVERLAY DOVERLAY
          CFI Resource `PSW.CY`:1, `B.BR0`:1, `B.BR1`:1, `B.BR2`:1, `B.BR3`:1
          CFI Resource `B.BR4`:1, `B.BR5`:1, `B.BR6`:1, `B.BR7`:1, `VB.BR8`:1
          CFI Resource `VB.BR9`:1, `VB.BR10`:1, `VB.BR11`:1, `VB.BR12`:1
          CFI Resource `VB.BR13`:1, `VB.BR14`:1, `VB.BR15`:1, VB:8, B:8, A:8
          CFI Resource PSW:8, DPL0:8, DPH0:8, R0:8, R1:8, R2:8, R3:8, R4:8, R5:8
          CFI Resource R6:8, R7:8, V0:8, V1:8, V2:8, V3:8, V4:8, V5:8, V6:8, V7:8
          CFI Resource V8:8, V9:8, V10:8, V11:8, V12:8, V13:8, V14:8, V15:8, SP:8
          CFI Resource PSPH:8, PSPL:8, PSP16:16, XSPH:8, XSPL:8, XSP16:16
          CFI VirtualResource ?RET:24
          CFI Resource ?BRET_EXT:8
          CFI VirtualResource ?RET_HIGH:8, ?RET_LOW:8
          CFI ResourceParts PSP16 PSPH, PSPL
          CFI ResourceParts XSP16 XSPH, XSPL
          CFI ResourceParts ?RET ?BRET_EXT, ?RET_HIGH, ?RET_LOW
          CFI EndNames cfiNames0
        
          CFI Common cfiCommon0 Using cfiNames0
          CFI CodeAlign 1
          CFI DataAlign -1
          CFI ReturnAddress ?RET CODE
          CFI CFA_DOVERLAY Used
          CFI CFA_IOVERLAY Used
          CFI CFA_SP SP+-3
          CFI CFA_PSP16 PSP16+0
          CFI CFA_XSP16 XSP16+0
          CFI `PSW.CY` SameValue
          CFI `B.BR0` SameValue
          CFI `B.BR1` SameValue
          CFI `B.BR2` SameValue
          CFI `B.BR3` SameValue
          CFI `B.BR4` SameValue
          CFI `B.BR5` SameValue
          CFI `B.BR6` SameValue
          CFI `B.BR7` SameValue
          CFI `VB.BR8` SameValue
          CFI `VB.BR9` SameValue
          CFI `VB.BR10` SameValue
          CFI `VB.BR11` SameValue
          CFI `VB.BR12` SameValue
          CFI `VB.BR13` SameValue
          CFI `VB.BR14` SameValue
          CFI `VB.BR15` SameValue
          CFI VB SameValue
          CFI B Undefined
          CFI A Undefined
          CFI PSW SameValue
          CFI DPL0 SameValue
          CFI DPH0 SameValue
          CFI R0 Undefined
          CFI R1 Undefined
          CFI R2 Undefined
          CFI R3 Undefined
          CFI R4 Undefined
          CFI R5 Undefined
          CFI R6 SameValue
          CFI R7 SameValue
          CFI V0 SameValue
          CFI V1 SameValue
          CFI V2 SameValue
          CFI V3 SameValue
          CFI V4 SameValue
          CFI V5 SameValue
          CFI V6 SameValue
          CFI V7 SameValue
          CFI V8 SameValue
          CFI V9 SameValue
          CFI V10 SameValue
          CFI V11 SameValue
          CFI V12 SameValue
          CFI V13 SameValue
          CFI V14 SameValue
          CFI V15 SameValue
          CFI PSPH Undefined
          CFI PSPL Undefined
          CFI XSPH Undefined
          CFI XSPL Undefined
          CFI ?RET Concat
          CFI ?BRET_EXT Frame(CFA_SP, 3)
          CFI ?RET_HIGH Frame(CFA_SP, 2)
          CFI ?RET_LOW Frame(CFA_SP, 1)
          CFI EndCommon cfiCommon0
        
        
          CFI Common cfiCommon1 Using cfiNames0
          CFI CodeAlign 1
          CFI DataAlign -1
          CFI ReturnAddress ?RET CODE
          CFI CFA_DOVERLAY Used
          CFI CFA_IOVERLAY Used
          CFI CFA_SP SP+-2
          CFI CFA_PSP16 PSP16+0
          CFI CFA_XSP16 XSP16+0
          CFI `PSW.CY` SameValue
          CFI `B.BR0` SameValue
          CFI `B.BR1` SameValue
          CFI `B.BR2` SameValue
          CFI `B.BR3` SameValue
          CFI `B.BR4` SameValue
          CFI `B.BR5` SameValue
          CFI `B.BR6` SameValue
          CFI `B.BR7` SameValue
          CFI `VB.BR8` SameValue
          CFI `VB.BR9` SameValue
          CFI `VB.BR10` SameValue
          CFI `VB.BR11` SameValue
          CFI `VB.BR12` SameValue
          CFI `VB.BR13` SameValue
          CFI `VB.BR14` SameValue
          CFI `VB.BR15` SameValue
          CFI VB SameValue
          CFI B SameValue
          CFI A SameValue
          CFI PSW SameValue
          CFI DPL0 SameValue
          CFI DPH0 SameValue
          CFI R0 SameValue
          CFI R1 SameValue
          CFI R2 SameValue
          CFI R3 SameValue
          CFI R4 SameValue
          CFI R5 SameValue
          CFI R6 SameValue
          CFI R7 SameValue
          CFI V0 SameValue
          CFI V1 SameValue
          CFI V2 SameValue
          CFI V3 SameValue
          CFI V4 SameValue
          CFI V5 SameValue
          CFI V6 SameValue
          CFI V7 SameValue
          CFI V8 SameValue
          CFI V9 SameValue
          CFI V10 SameValue
          CFI V11 SameValue
          CFI V12 SameValue
          CFI V13 SameValue
          CFI V14 SameValue
          CFI V15 SameValue
          CFI PSPH Undefined
          CFI PSPL Undefined
          CFI XSPH Undefined
          CFI XSPL Undefined
          CFI ?RET Concat
          CFI ?BRET_EXT SameValue
          CFI ?RET_HIGH Frame(CFA_SP, 2)
          CFI ?RET_LOW Frame(CFA_SP, 1)
          CFI EndCommon cfiCommon1
        
APSME_EraseICEntry  SYMBOL "APSME_EraseICEntry"
`??APSME_EraseICEntry::?relay` SYMBOL "?relay", APSME_EraseICEntry
APSME_GetRequest    SYMBOL "APSME_GetRequest"
`??APSME_GetRequest::?relay` SYMBOL "?relay", APSME_GetRequest
APSME_IsDistributedSecurity SYMBOL "APSME_IsDistributedSecurity"
`??APSME_IsDistributedSecurity::?relay` SYMBOL "?relay", APSME_IsDistributedSecurity
APSME_LookupExtAddr SYMBOL "APSME_LookupExtAddr"
`??APSME_LookupExtAddr::?relay` SYMBOL "?relay", APSME_LookupExtAddr
APSME_LookupNwkAddr SYMBOL "APSME_LookupNwkAddr"
`??APSME_LookupNwkAddr::?relay` SYMBOL "?relay", APSME_LookupNwkAddr
APSME_RemoveDeviceReq SYMBOL "APSME_RemoveDeviceReq"
`??APSME_RemoveDeviceReq::?relay` SYMBOL "?relay", APSME_RemoveDeviceReq
APSME_RequestKeyReq SYMBOL "APSME_RequestKeyReq"
`??APSME_RequestKeyReq::?relay` SYMBOL "?relay", APSME_RequestKeyReq
APSME_SearchTCLinkKeyEntry SYMBOL "APSME_SearchTCLinkKeyEntry"
`??APSME_SearchTCLinkKeyEntry::?relay` SYMBOL "?relay", APSME_SearchTCLinkKeyEntry
APSME_SecurityRM_ED SYMBOL "APSME_SecurityRM_ED"
`??APSME_SecurityRM_ED::?relay` SYMBOL "?relay", APSME_SecurityRM_ED
APSME_SetRequest    SYMBOL "APSME_SetRequest"
`??APSME_SetRequest::?relay` SYMBOL "?relay", APSME_SetRequest
APSME_TransportKeyReq SYMBOL "APSME_TransportKeyReq"
`??APSME_TransportKeyReq::?relay` SYMBOL "?relay", APSME_TransportKeyReq
APSME_UpdateDeviceReq SYMBOL "APSME_UpdateDeviceReq"
`??APSME_UpdateDeviceReq::?relay` SYMBOL "?relay", APSME_UpdateDeviceReq
AddrMgrEntryGet     SYMBOL "AddrMgrEntryGet"
`??AddrMgrEntryGet::?relay` SYMBOL "?relay", AddrMgrEntryGet
AddrMgrEntryLookupExt SYMBOL "AddrMgrEntryLookupExt"
`??AddrMgrEntryLookupExt::?relay` SYMBOL "?relay", AddrMgrEntryLookupExt
AddrMgrEntryLookupNwk SYMBOL "AddrMgrEntryLookupNwk"
`??AddrMgrEntryLookupNwk::?relay` SYMBOL "?relay", AddrMgrEntryLookupNwk
AddrMgrEntryRelease SYMBOL "AddrMgrEntryRelease"
`??AddrMgrEntryRelease::?relay` SYMBOL "?relay", AddrMgrEntryRelease
AddrMgrEntryUpdate  SYMBOL "AddrMgrEntryUpdate"
`??AddrMgrEntryUpdate::?relay` SYMBOL "?relay", AddrMgrEntryUpdate
AddrMgrExtAddrSet   SYMBOL "AddrMgrExtAddrSet"
`??AddrMgrExtAddrSet::?relay` SYMBOL "?relay", AddrMgrExtAddrSet
AddrMgrExtAddrValid SYMBOL "AddrMgrExtAddrValid"
`??AddrMgrExtAddrValid::?relay` SYMBOL "?relay", AddrMgrExtAddrValid
AssocGetWithExt     SYMBOL "AssocGetWithExt"
`??AssocGetWithExt::?relay` SYMBOL "?relay", AssocGetWithExt
AssocGetWithShort   SYMBOL "AssocGetWithShort"
`??AssocGetWithShort::?relay` SYMBOL "?relay", AssocGetWithShort
AssocRemove         SYMBOL "AssocRemove"
`??AssocRemove::?relay` SYMBOL "?relay", AssocRemove
NLME_GetShortAddr   SYMBOL "NLME_GetShortAddr"
`??NLME_GetShortAddr::?relay` SYMBOL "?relay", NLME_GetShortAddr
NLME_LeaveReq       SYMBOL "NLME_LeaveReq"
`??NLME_LeaveReq::?relay` SYMBOL "?relay", NLME_LeaveReq
NLME_ReadNwkKeyInfo SYMBOL "NLME_ReadNwkKeyInfo"
`??NLME_ReadNwkKeyInfo::?relay` SYMBOL "?relay", NLME_ReadNwkKeyInfo
SSP_GetTrueRand     SYMBOL "SSP_GetTrueRand"
`??SSP_GetTrueRand::?relay` SYMBOL "?relay", SSP_GetTrueRand
SSP_Init            SYMBOL "SSP_Init"
`??SSP_Init::?relay` SYMBOL "?relay", SSP_Init
SSP_SwitchNwkKey    SYMBOL "SSP_SwitchNwkKey"
`??SSP_SwitchNwkKey::?relay` SYMBOL "?relay", SSP_SwitchNwkKey
SSP_UpdateNwkKey    SYMBOL "SSP_UpdateNwkKey"
`??SSP_UpdateNwkKey::?relay` SYMBOL "?relay", SSP_UpdateNwkKey
ZDApp_NVUpdate      SYMBOL "ZDApp_NVUpdate"
`??ZDApp_NVUpdate::?relay` SYMBOL "?relay", ZDApp_NVUpdate
ZDP_IEEEAddrReq     SYMBOL "ZDP_IEEEAddrReq"
`??ZDP_IEEEAddrReq::?relay` SYMBOL "?relay", ZDP_IEEEAddrReq
ZDP_NwkAddrReq      SYMBOL "ZDP_NwkAddrReq"
`??ZDP_NwkAddrReq::?relay` SYMBOL "?relay", ZDP_NwkAddrReq
bdb_doTrustCenterRequireKeyExchange SYMBOL "bdb_doTrustCenterRequireKeyExchange"
`??bdb_doTrustCenterRequireKeyExchange::?relay` SYMBOL "?relay", bdb_doTrustCenterRequireKeyExchange
bdb_tcLinkKeyExchangeAttempt SYMBOL "bdb_tcLinkKeyExchangeAttempt"
`??bdb_tcLinkKeyExchangeAttempt::?relay` SYMBOL "?relay", bdb_tcLinkKeyExchangeAttempt
osal_isbufset       SYMBOL "osal_isbufset"
`??osal_isbufset::?relay` SYMBOL "?relay", osal_isbufset
osal_mem_alloc      SYMBOL "osal_mem_alloc"
`??osal_mem_alloc::?relay` SYMBOL "?relay", osal_mem_alloc
osal_mem_free       SYMBOL "osal_mem_free"
`??osal_mem_free::?relay` SYMBOL "?relay", osal_mem_free
osal_memcmp         SYMBOL "osal_memcmp"
`??osal_memcmp::?relay` SYMBOL "?relay", osal_memcmp
osal_memcpy         SYMBOL "osal_memcpy"
`??osal_memcpy::?relay` SYMBOL "?relay", osal_memcpy
osal_memset         SYMBOL "osal_memset"
`??osal_memset::?relay` SYMBOL "?relay", osal_memset
osal_nv_item_init   SYMBOL "osal_nv_item_init"
`??osal_nv_item_init::?relay` SYMBOL "?relay", osal_nv_item_init
osal_nv_read        SYMBOL "osal_nv_read"
`??osal_nv_read::?relay` SYMBOL "?relay", osal_nv_read
osal_nv_write       SYMBOL "osal_nv_write"
`??osal_nv_write::?relay` SYMBOL "?relay", osal_nv_write
osal_rand           SYMBOL "osal_rand"
`??osal_rand::?relay` SYMBOL "?relay", osal_rand
osal_set_event      SYMBOL "osal_set_event"
`??osal_set_event::?relay` SYMBOL "?relay", osal_set_event
sAddrExtCmp         SYMBOL "sAddrExtCmp"
`??sAddrExtCmp::?relay` SYMBOL "?relay", sAddrExtCmp
sAddrExtCpy         SYMBOL "sAddrExtCpy"
`??sAddrExtCpy::?relay` SYMBOL "?relay", sAddrExtCpy
APSME_IsDefaultTCLK SYMBOL "APSME_IsDefaultTCLK"
`??APSME_IsDefaultTCLK::?relay` SYMBOL "?relay", APSME_IsDefaultTCLK
APSME_IsLinkKeyValid SYMBOL "APSME_IsLinkKeyValid"
`??APSME_IsLinkKeyValid::?relay` SYMBOL "?relay", APSME_IsLinkKeyValid
APSME_KeyFwdToChild SYMBOL "APSME_KeyFwdToChild"
`??APSME_KeyFwdToChild::?relay` SYMBOL "?relay", APSME_KeyFwdToChild
APSME_LinkKeyNVIdGet SYMBOL "APSME_LinkKeyNVIdGet"
`??APSME_LinkKeyNVIdGet::?relay` SYMBOL "?relay", APSME_LinkKeyNVIdGet
APSME_LinkKeySet    SYMBOL "APSME_LinkKeySet"
`??APSME_LinkKeySet::?relay` SYMBOL "?relay", APSME_LinkKeySet
APSME_TCLinkKeyInit SYMBOL "APSME_TCLinkKeyInit"
`??APSME_TCLinkKeyInit::?relay` SYMBOL "?relay", APSME_TCLinkKeyInit
APSME_TCLinkKeyLoad SYMBOL "APSME_TCLinkKeyLoad"
`??APSME_TCLinkKeyLoad::?relay` SYMBOL "?relay", APSME_TCLinkKeyLoad
APSME_TCLinkKeySync SYMBOL "APSME_TCLinkKeySync"
`??APSME_TCLinkKeySync::?relay` SYMBOL "?relay", APSME_TCLinkKeySync
ZDSecMgrAPSRemove   SYMBOL "ZDSecMgrAPSRemove"
`??ZDSecMgrAPSRemove::?relay` SYMBOL "?relay", ZDSecMgrAPSRemove
ZDSecMgrAddLinkKey  SYMBOL "ZDSecMgrAddLinkKey"
`??ZDSecMgrAddLinkKey::?relay` SYMBOL "?relay", ZDSecMgrAddLinkKey
ZDSecMgrAddrClear   SYMBOL "ZDSecMgrAddrClear"
`??ZDSecMgrAddrClear::?relay` SYMBOL "?relay", ZDSecMgrAddrClear
ZDSecMgrAddrStore   SYMBOL "ZDSecMgrAddrStore"
`??ZDSecMgrAddrStore::?relay` SYMBOL "?relay", ZDSecMgrAddrStore
ZDSecMgrAppConfKeyReq SYMBOL "ZDSecMgrAppConfKeyReq"
`??ZDSecMgrAppConfKeyReq::?relay` SYMBOL "?relay", ZDSecMgrAppConfKeyReq
ZDSecMgrAppKeyGet   SYMBOL "ZDSecMgrAppKeyGet"
`??ZDSecMgrAppKeyGet::?relay` SYMBOL "?relay", ZDSecMgrAppKeyGet
ZDSecMgrAppKeyReq   SYMBOL "ZDSecMgrAppKeyReq"
`??ZDSecMgrAppKeyReq::?relay` SYMBOL "?relay", ZDSecMgrAppKeyReq
ZDSecMgrApsLinkKeyInit SYMBOL "ZDSecMgrApsLinkKeyInit"
`??ZDSecMgrApsLinkKeyInit::?relay` SYMBOL "?relay", ZDSecMgrApsLinkKeyInit
ZDSecMgrAssocDeviceAuth SYMBOL "ZDSecMgrAssocDeviceAuth"
`??ZDSecMgrAssocDeviceAuth::?relay` SYMBOL "?relay", ZDSecMgrAssocDeviceAuth
ZDSecMgrAuthNwkKey  SYMBOL "ZDSecMgrAuthNwkKey"
`??ZDSecMgrAuthNwkKey::?relay` SYMBOL "?relay", ZDSecMgrAuthNwkKey
ZDSecMgrAuthenticationCheck SYMBOL "ZDSecMgrAuthenticationCheck"
`??ZDSecMgrAuthenticationCheck::?relay` SYMBOL "?relay", ZDSecMgrAuthenticationCheck
ZDSecMgrAuthenticationSet SYMBOL "ZDSecMgrAuthenticationSet"
`??ZDSecMgrAuthenticationSet::?relay` SYMBOL "?relay", ZDSecMgrAuthenticationSet
ZDSecMgrConfig      SYMBOL "ZDSecMgrConfig"
`??ZDSecMgrConfig::?relay` SYMBOL "?relay", ZDSecMgrConfig
ZDSecMgrDeviceJoin  SYMBOL "ZDSecMgrDeviceJoin"
`??ZDSecMgrDeviceJoin::?relay` SYMBOL "?relay", ZDSecMgrDeviceJoin
ZDSecMgrDeviceJoinDirect SYMBOL "ZDSecMgrDeviceJoinDirect"
`??ZDSecMgrDeviceJoinDirect::?relay` SYMBOL "?relay", ZDSecMgrDeviceJoinDirect
ZDSecMgrDeviceJoinFwd SYMBOL "ZDSecMgrDeviceJoinFwd"
`??ZDSecMgrDeviceJoinFwd::?relay` SYMBOL "?relay", ZDSecMgrDeviceJoinFwd
ZDSecMgrDeviceNew   SYMBOL "ZDSecMgrDeviceNew"
`??ZDSecMgrDeviceNew::?relay` SYMBOL "?relay", ZDSecMgrDeviceNew
ZDSecMgrDeviceRemove SYMBOL "ZDSecMgrDeviceRemove"
`??ZDSecMgrDeviceRemove::?relay` SYMBOL "?relay", ZDSecMgrDeviceRemove
ZDSecMgrDeviceRemoveByExtAddr SYMBOL "ZDSecMgrDeviceRemoveByExtAddr"
`??ZDSecMgrDeviceRemoveByExtAddr::?relay` SYMBOL "?relay", ZDSecMgrDeviceRemoveByExtAddr
ZDSecMgrDeviceValidate SYMBOL "ZDSecMgrDeviceValidate"
`??ZDSecMgrDeviceValidate::?relay` SYMBOL "?relay", ZDSecMgrDeviceValidate
ZDSecMgrDeviceValidateRM SYMBOL "ZDSecMgrDeviceValidateRM"
`??ZDSecMgrDeviceValidateRM::?relay` SYMBOL "?relay", ZDSecMgrDeviceValidateRM
ZDSecMgrEntryFree   SYMBOL "ZDSecMgrEntryFree"
`??ZDSecMgrEntryFree::?relay` SYMBOL "?relay", ZDSecMgrEntryFree
ZDSecMgrEntryInit   SYMBOL "ZDSecMgrEntryInit"
`??ZDSecMgrEntryInit::?relay` SYMBOL "?relay", ZDSecMgrEntryInit
ZDSecMgrEntryLookup SYMBOL "ZDSecMgrEntryLookup"
`??ZDSecMgrEntryLookup::?relay` SYMBOL "?relay", ZDSecMgrEntryLookup
ZDSecMgrEntryLookupAMI SYMBOL "ZDSecMgrEntryLookupAMI"
`??ZDSecMgrEntryLookupAMI::?relay` SYMBOL "?relay", ZDSecMgrEntryLookupAMI
ZDSecMgrEntryLookupAMIGetIndex SYMBOL "ZDSecMgrEntryLookupAMIGetIndex"
`??ZDSecMgrEntryLookupAMIGetIndex::?relay` SYMBOL "?relay", ZDSecMgrEntryLookupAMIGetIndex
ZDSecMgrEntryLookupExt SYMBOL "ZDSecMgrEntryLookupExt"
`??ZDSecMgrEntryLookupExt::?relay` SYMBOL "?relay", ZDSecMgrEntryLookupExt
ZDSecMgrEntryLookupExtGetIndex SYMBOL "ZDSecMgrEntryLookupExtGetIndex"
`??ZDSecMgrEntryLookupExtGetIndex::?relay` SYMBOL "?relay", ZDSecMgrEntryLookupExtGetIndex
ZDSecMgrEntryNew    SYMBOL "ZDSecMgrEntryNew"
`??ZDSecMgrEntryNew::?relay` SYMBOL "?relay", ZDSecMgrEntryNew
ZDSecMgrExtAddrLookup SYMBOL "ZDSecMgrExtAddrLookup"
`??ZDSecMgrExtAddrLookup::?relay` SYMBOL "?relay", ZDSecMgrExtAddrLookup
ZDSecMgrExtAddrStore SYMBOL "ZDSecMgrExtAddrStore"
`??ZDSecMgrExtAddrStore::?relay` SYMBOL "?relay", ZDSecMgrExtAddrStore
ZDSecMgrGenerateKeyFromSeed SYMBOL "ZDSecMgrGenerateKeyFromSeed"
`??ZDSecMgrGenerateKeyFromSeed::?relay` SYMBOL "?relay", ZDSecMgrGenerateKeyFromSeed
ZDSecMgrGenerateRndKey SYMBOL "ZDSecMgrGenerateRndKey"
`??ZDSecMgrGenerateRndKey::?relay` SYMBOL "?relay", ZDSecMgrGenerateRndKey
ZDSecMgrGenerateSeed SYMBOL "ZDSecMgrGenerateSeed"
`??ZDSecMgrGenerateSeed::?relay` SYMBOL "?relay", ZDSecMgrGenerateSeed
ZDSecMgrInit        SYMBOL "ZDSecMgrInit"
`??ZDSecMgrInit::?relay` SYMBOL "?relay", ZDSecMgrInit
ZDSecMgrInitNV      SYMBOL "ZDSecMgrInitNV"
`??ZDSecMgrInitNV::?relay` SYMBOL "?relay", ZDSecMgrInitNV
ZDSecMgrInitNVKeyTables SYMBOL "ZDSecMgrInitNVKeyTables"
`??ZDSecMgrInitNVKeyTables::?relay` SYMBOL "?relay", ZDSecMgrInitNVKeyTables
ZDSecMgrNewDeviceEvent SYMBOL "ZDSecMgrNewDeviceEvent"
`??ZDSecMgrNewDeviceEvent::?relay` SYMBOL "?relay", ZDSecMgrNewDeviceEvent
ZDSecMgrNwkKeyInit  SYMBOL "ZDSecMgrNwkKeyInit"
`??ZDSecMgrNwkKeyInit::?relay` SYMBOL "?relay", ZDSecMgrNwkKeyInit
ZDSecMgrPermitJoining SYMBOL "ZDSecMgrPermitJoining"
`??ZDSecMgrPermitJoining::?relay` SYMBOL "?relay", ZDSecMgrPermitJoining
ZDSecMgrPermitJoiningTimeout SYMBOL "ZDSecMgrPermitJoiningTimeout"
`??ZDSecMgrPermitJoiningTimeout::?relay` SYMBOL "?relay", ZDSecMgrPermitJoiningTimeout
ZDSecMgrReadKeyFromNv SYMBOL "ZDSecMgrReadKeyFromNv"
`??ZDSecMgrReadKeyFromNv::?relay` SYMBOL "?relay", ZDSecMgrReadKeyFromNv
ZDSecMgrRemoveDeviceInd SYMBOL "ZDSecMgrRemoveDeviceInd"
`??ZDSecMgrRemoveDeviceInd::?relay` SYMBOL "?relay", ZDSecMgrRemoveDeviceInd
ZDSecMgrRequestAppKey SYMBOL "ZDSecMgrRequestAppKey"
`??ZDSecMgrRequestAppKey::?relay` SYMBOL "?relay", ZDSecMgrRequestAppKey
ZDSecMgrRequestKeyInd SYMBOL "ZDSecMgrRequestKeyInd"
`??ZDSecMgrRequestKeyInd::?relay` SYMBOL "?relay", ZDSecMgrRequestKeyInd
ZDSecMgrSaveApsLinkKey SYMBOL "ZDSecMgrSaveApsLinkKey"
`??ZDSecMgrSaveApsLinkKey::?relay` SYMBOL "?relay", ZDSecMgrSaveApsLinkKey
ZDSecMgrSaveTCLinkKey SYMBOL "ZDSecMgrSaveTCLinkKey"
`??ZDSecMgrSaveTCLinkKey::?relay` SYMBOL "?relay", ZDSecMgrSaveTCLinkKey
ZDSecMgrSendNwkKey  SYMBOL "ZDSecMgrSendNwkKey"
`??ZDSecMgrSendNwkKey::?relay` SYMBOL "?relay", ZDSecMgrSendNwkKey
ZDSecMgrSetDefaultNV SYMBOL "ZDSecMgrSetDefaultNV"
`??ZDSecMgrSetDefaultNV::?relay` SYMBOL "?relay", ZDSecMgrSetDefaultNV
ZDSecMgrSetupPartner SYMBOL "ZDSecMgrSetupPartner"
`??ZDSecMgrSetupPartner::?relay` SYMBOL "?relay", ZDSecMgrSetupPartner
ZDSecMgrSwitchKeyInd SYMBOL "ZDSecMgrSwitchKeyInd"
`??ZDSecMgrSwitchKeyInd::?relay` SYMBOL "?relay", ZDSecMgrSwitchKeyInd
ZDSecMgrTCDataLoad  SYMBOL "ZDSecMgrTCDataLoad"
`??ZDSecMgrTCDataLoad::?relay` SYMBOL "?relay", ZDSecMgrTCDataLoad
ZDSecMgrTCExtAddrCheck SYMBOL "ZDSecMgrTCExtAddrCheck"
`??ZDSecMgrTCExtAddrCheck::?relay` SYMBOL "?relay", ZDSecMgrTCExtAddrCheck
ZDSecMgrTclkReq     SYMBOL "ZDSecMgrTclkReq"
`??ZDSecMgrTclkReq::?relay` SYMBOL "?relay", ZDSecMgrTclkReq
ZDSecMgrTransportKeyInd SYMBOL "ZDSecMgrTransportKeyInd"
`??ZDSecMgrTransportKeyInd::?relay` SYMBOL "?relay", ZDSecMgrTransportKeyInd
ZDSecMgrUpdateDeviceInd SYMBOL "ZDSecMgrUpdateDeviceInd"
`??ZDSecMgrUpdateDeviceInd::?relay` SYMBOL "?relay", ZDSecMgrUpdateDeviceInd
ZDSecMgrUpdateTCAddress SYMBOL "ZDSecMgrUpdateTCAddress"
`??ZDSecMgrUpdateTCAddress::?relay` SYMBOL "?relay", ZDSecMgrUpdateTCAddress
ZDSecMgrVerifyKeyInd SYMBOL "ZDSecMgrVerifyKeyInd"
`??ZDSecMgrVerifyKeyInd::?relay` SYMBOL "?relay", ZDSecMgrVerifyKeyInd

        EXTERN `??APSME_EraseICEntry::?relay`
        FUNCTION `??APSME_EraseICEntry::?relay`,00H
        EXTERN `??APSME_GetRequest::?relay`
        FUNCTION `??APSME_GetRequest::?relay`,00H
        EXTERN `??APSME_IsDistributedSecurity::?relay`
        FUNCTION `??APSME_IsDistributedSecurity::?relay`,00H
        EXTERN `??APSME_LookupExtAddr::?relay`
        FUNCTION `??APSME_LookupExtAddr::?relay`,00H
        EXTERN `??APSME_LookupNwkAddr::?relay`
        FUNCTION `??APSME_LookupNwkAddr::?relay`,00H
        EXTERN `??APSME_RemoveDeviceReq::?relay`
        FUNCTION `??APSME_RemoveDeviceReq::?relay`,00H
        EXTERN `??APSME_RequestKeyReq::?relay`
        FUNCTION `??APSME_RequestKeyReq::?relay`,00H
        EXTERN `??APSME_SearchTCLinkKeyEntry::?relay`
        FUNCTION `??APSME_SearchTCLinkKeyEntry::?relay`,00H
        EXTERN `??APSME_SecurityRM_ED::?relay`
        FUNCTION `??APSME_SecurityRM_ED::?relay`,00H
        EXTERN `??APSME_SetRequest::?relay`
        FUNCTION `??APSME_SetRequest::?relay`,00H
        EXTERN `??APSME_TransportKeyReq::?relay`
        FUNCTION `??APSME_TransportKeyReq::?relay`,00H
        EXTERN `??APSME_UpdateDeviceReq::?relay`
        FUNCTION `??APSME_UpdateDeviceReq::?relay`,00H
        EXTERN `??AddrMgrEntryGet::?relay`
        FUNCTION `??AddrMgrEntryGet::?relay`,00H
        EXTERN `??AddrMgrEntryLookupExt::?relay`
        FUNCTION `??AddrMgrEntryLookupExt::?relay`,00H
        EXTERN `??AddrMgrEntryLookupNwk::?relay`
        FUNCTION `??AddrMgrEntryLookupNwk::?relay`,00H
        EXTERN `??AddrMgrEntryRelease::?relay`
        FUNCTION `??AddrMgrEntryRelease::?relay`,00H
        EXTERN `??AddrMgrEntryUpdate::?relay`
        FUNCTION `??AddrMgrEntryUpdate::?relay`,00H
        EXTERN `??AddrMgrExtAddrSet::?relay`
        FUNCTION `??AddrMgrExtAddrSet::?relay`,00H
        EXTERN `??AddrMgrExtAddrValid::?relay`
        FUNCTION `??AddrMgrExtAddrValid::?relay`,00H
        EXTERN `??AssocGetWithExt::?relay`
        FUNCTION `??AssocGetWithExt::?relay`,00H
        EXTERN `??AssocGetWithShort::?relay`
        FUNCTION `??AssocGetWithShort::?relay`,00H
        EXTERN `??AssocRemove::?relay`
        FUNCTION `??AssocRemove::?relay`,00H
        EXTERN `??NLME_GetShortAddr::?relay`
        FUNCTION `??NLME_GetShortAddr::?relay`,00H
        EXTERN `??NLME_LeaveReq::?relay`
        FUNCTION `??NLME_LeaveReq::?relay`,00H
        EXTERN `??NLME_ReadNwkKeyInfo::?relay`
        FUNCTION `??NLME_ReadNwkKeyInfo::?relay`,00H
        EXTERN `??SSP_GetTrueRand::?relay`
        FUNCTION `??SSP_GetTrueRand::?relay`,00H
        EXTERN `??SSP_Init::?relay`
        FUNCTION `??SSP_Init::?relay`,00H
        EXTERN `??SSP_SwitchNwkKey::?relay`
        FUNCTION `??SSP_SwitchNwkKey::?relay`,00H
        EXTERN `??SSP_UpdateNwkKey::?relay`
        FUNCTION `??SSP_UpdateNwkKey::?relay`,00H
        EXTERN `??ZDApp_NVUpdate::?relay`
        FUNCTION `??ZDApp_NVUpdate::?relay`,00H
        EXTERN `??ZDP_IEEEAddrReq::?relay`
        FUNCTION `??ZDP_IEEEAddrReq::?relay`,00H
        EXTERN `??ZDP_NwkAddrReq::?relay`
        FUNCTION `??ZDP_NwkAddrReq::?relay`,00H
        EXTERN `??bdb_doTrustCenterRequireKeyExchange::?relay`
        FUNCTION `??bdb_doTrustCenterRequireKeyExchange::?relay`,00H
        EXTERN `??bdb_tcLinkKeyExchangeAttempt::?relay`
        FUNCTION `??bdb_tcLinkKeyExchangeAttempt::?relay`,00H
        EXTERN `??osal_isbufset::?relay`
        FUNCTION `??osal_isbufset::?relay`,00H
        EXTERN `??osal_mem_alloc::?relay`
        FUNCTION `??osal_mem_alloc::?relay`,00H
        EXTERN `??osal_mem_free::?relay`
        FUNCTION `??osal_mem_free::?relay`,00H
        EXTERN `??osal_memcmp::?relay`
        FUNCTION `??osal_memcmp::?relay`,00H
        EXTERN `??osal_memcpy::?relay`
        FUNCTION `??osal_memcpy::?relay`,00H
        EXTERN `??osal_memset::?relay`
        FUNCTION `??osal_memset::?relay`,00H
        EXTERN `??osal_nv_item_init::?relay`
        FUNCTION `??osal_nv_item_init::?relay`,00H
        EXTERN `??osal_nv_read::?relay`
        FUNCTION `??osal_nv_read::?relay`,00H
        EXTERN `??osal_nv_write::?relay`
        FUNCTION `??osal_nv_write::?relay`,00H
        EXTERN `??osal_rand::?relay`
        FUNCTION `??osal_rand::?relay`,00H
        EXTERN `??osal_set_event::?relay`
        FUNCTION `??osal_set_event::?relay`,00H
        EXTERN `??sAddrExtCmp::?relay`
        FUNCTION `??sAddrExtCmp::?relay`,00H
        EXTERN `??sAddrExtCpy::?relay`
        FUNCTION `??sAddrExtCpy::?relay`,00H
        EXTERN APSME_EraseICEntry
        FUNCTION APSME_EraseICEntry,0202H
        ARGFRAME ISTACK, 0, STACK
        ARGFRAME PSTACK, 0, STACK
        ARGFRAME XSTACK, 50, STACK
        ARGFRAME IOVERLAY, 0, STATIC
        ARGFRAME DOVERLAY, 0, STATIC
        EXTERN APSME_GetRequest
        FUNCTION APSME_GetRequest,0202H
        ARGFRAME ISTACK, 0, STACK
        ARGFRAME PSTACK, 0, STACK
        ARGFRAME XSTACK, 17, STACK
        ARGFRAME IOVERLAY, 0, STATIC
        ARGFRAME DOVERLAY, 0, STATIC
        EXTERN APSME_IsDistributedSecurity
        FUNCTION APSME_IsDistributedSecurity,0202H
        ARGFRAME ISTACK, 0, STACK
        ARGFRAME PSTACK, 0, STACK
        ARGFRAME XSTACK, 25, STACK
        ARGFRAME IOVERLAY, 0, STATIC
        ARGFRAME DOVERLAY, 0, STATIC
        EXTERN APSME_LookupExtAddr
        FUNCTION APSME_LookupExtAddr,0202H
        ARGFRAME ISTACK, 0, STACK
        ARGFRAME PSTACK, 0, STACK
        ARGFRAME XSTACK, 69, STACK
        ARGFRAME IOVERLAY, 0, STATIC
        ARGFRAME DOVERLAY, 0, STATIC
        EXTERN APSME_LookupNwkAddr
        FUNCTION APSME_LookupNwkAddr,0202H
        ARGFRAME ISTACK, 0, STACK
        ARGFRAME PSTACK, 0, STACK
        ARGFRAME XSTACK, 69, STACK
        ARGFRAME IOVERLAY, 0, STATIC
        ARGFRAME DOVERLAY, 0, STATIC
        EXTERN APSME_RemoveDeviceReq
        FUNCTION APSME_RemoveDeviceReq,0202H
        ARGFRAME ISTACK, 0, STACK
        ARGFRAME PSTACK, 0, STACK
        ARGFRAME XSTACK, 20, STACK
        ARGFRAME IOVERLAY, 0, STATIC
        ARGFRAME DOVERLAY, 0, STATIC
        EXTERN APSME_RequestKeyReq
        FUNCTION APSME_RequestKeyReq,0202H
        ARGFRAME ISTACK, 2, STACK
        ARGFRAME PSTACK, 0, STACK
        ARGFRAME XSTACK, 4, STACK
        ARGFRAME IOVERLAY, 0, STATIC
        ARGFRAME DOVERLAY, 0, STATIC
        EXTERN APSME_SearchTCLinkKeyEntry
        FUNCTION APSME_SearchTCLinkKeyEntry,0202H
        ARGFRAME ISTACK, 0, STACK
        ARGFRAME PSTACK, 0, STACK
        ARGFRAME XSTACK, 71, STACK
        ARGFRAME IOVERLAY, 0, STATIC
        ARGFRAME DOVERLAY, 0, STATIC
        EXTERN APSME_SecurityRM_ED
        FUNCTION APSME_SecurityRM_ED,0202H
        ARGFRAME ISTACK, 2, STACK
        ARGFRAME PSTACK, 0, STACK
        ARGFRAME XSTACK, 0, STACK
        ARGFRAME IOVERLAY, 0, STATIC
        ARGFRAME DOVERLAY, 0, STATIC
        EXTERN APSME_SetRequest
        FUNCTION APSME_SetRequest,0202H
        ARGFRAME ISTACK, 0, STACK
        ARGFRAME PSTACK, 0, STACK
        ARGFRAME XSTACK, 18, STACK
        ARGFRAME IOVERLAY, 0, STATIC
        ARGFRAME DOVERLAY, 0, STATIC
        EXTERN APSME_TransportKeyReq
        FUNCTION APSME_TransportKeyReq,0202H
        ARGFRAME ISTACK, 0, STACK
        ARGFRAME PSTACK, 0, STACK
        ARGFRAME XSTACK, 69, STACK
        ARGFRAME IOVERLAY, 0, STATIC
        ARGFRAME DOVERLAY, 0, STATIC
        EXTERN APSME_UpdateDeviceReq
        FUNCTION APSME_UpdateDeviceReq,0202H
        ARGFRAME ISTACK, 0, STACK
        ARGFRAME PSTACK, 0, STACK
        ARGFRAME XSTACK, 18, STACK
        ARGFRAME IOVERLAY, 0, STATIC
        ARGFRAME DOVERLAY, 0, STATIC
        EXTERN AddrMgrEntryGet
        FUNCTION AddrMgrEntryGet,0202H
        ARGFRAME ISTACK, 0, STACK
        ARGFRAME PSTACK, 0, STACK
        ARGFRAME XSTACK, 33, STACK
        ARGFRAME IOVERLAY, 0, STATIC
        ARGFRAME DOVERLAY, 0, STATIC
        EXTERN AddrMgrEntryLookupExt
        FUNCTION AddrMgrEntryLookupExt,0202H
        ARGFRAME ISTACK, 0, STACK
        ARGFRAME PSTACK, 0, STACK
        ARGFRAME XSTACK, 25, STACK
        ARGFRAME IOVERLAY, 0, STATIC
        ARGFRAME DOVERLAY, 0, STATIC
        EXTERN AddrMgrEntryLookupNwk
        FUNCTION AddrMgrEntryLookupNwk,0202H
        ARGFRAME ISTACK, 0, STACK
        ARGFRAME PSTACK, 0, STACK
        ARGFRAME XSTACK, 51, STACK
        ARGFRAME IOVERLAY, 0, STATIC
        ARGFRAME DOVERLAY, 0, STATIC
        EXTERN AddrMgrEntryRelease
        FUNCTION AddrMgrEntryRelease,0202H
        ARGFRAME ISTACK, 0, STACK
        ARGFRAME PSTACK, 0, STACK
        ARGFRAME XSTACK, 51, STACK
        ARGFRAME IOVERLAY, 0, STATIC
        ARGFRAME DOVERLAY, 0, STATIC
        EXTERN AddrMgrEntryUpdate
        FUNCTION AddrMgrEntryUpdate,0202H
        ARGFRAME ISTACK, 0, STACK
        ARGFRAME PSTACK, 0, STACK
        ARGFRAME XSTACK, 25, STACK
        ARGFRAME IOVERLAY, 0, STATIC
        ARGFRAME DOVERLAY, 0, STATIC
        EXTERN AddrMgrExtAddrSet
        FUNCTION AddrMgrExtAddrSet,0202H
        ARGFRAME ISTACK, 0, STACK
        ARGFRAME PSTACK, 0, STACK
        ARGFRAME XSTACK, 25, STACK
        ARGFRAME IOVERLAY, 0, STATIC
        ARGFRAME DOVERLAY, 0, STATIC
        EXTERN AddrMgrExtAddrValid
        FUNCTION AddrMgrExtAddrValid,0202H
        ARGFRAME ISTACK, 0, STACK
        ARGFRAME PSTACK, 0, STACK
        ARGFRAME XSTACK, 51, STACK
        ARGFRAME IOVERLAY, 0, STATIC
        ARGFRAME DOVERLAY, 0, STATIC
        EXTERN AssocGetWithExt
        FUNCTION AssocGetWithExt,0202H
        ARGFRAME ISTACK, 0, STACK
        ARGFRAME PSTACK, 0, STACK
        ARGFRAME XSTACK, 20, STACK
        ARGFRAME IOVERLAY, 0, STATIC
        ARGFRAME DOVERLAY, 0, STATIC
        EXTERN AssocGetWithShort
        FUNCTION AssocGetWithShort,0202H
        ARGFRAME ISTACK, 0, STACK
        ARGFRAME PSTACK, 0, STACK
        ARGFRAME XSTACK, 33, STACK
        ARGFRAME IOVERLAY, 0, STATIC
        ARGFRAME DOVERLAY, 0, STATIC
        EXTERN AssocRemove
        FUNCTION AssocRemove,0202H
        ARGFRAME ISTACK, 0, STACK
        ARGFRAME PSTACK, 0, STACK
        ARGFRAME XSTACK, 33, STACK
        ARGFRAME IOVERLAY, 0, STATIC
        ARGFRAME DOVERLAY, 0, STATIC
        EXTERN NLME_GetShortAddr
        FUNCTION NLME_GetShortAddr,0202H
        ARGFRAME ISTACK, 0, STACK
        ARGFRAME PSTACK, 0, STACK
        ARGFRAME XSTACK, 40, STACK
        ARGFRAME IOVERLAY, 0, STATIC
        ARGFRAME DOVERLAY, 0, STATIC
        EXTERN NLME_LeaveReq
        FUNCTION NLME_LeaveReq,0202H
        ARGFRAME ISTACK, 0, STACK
        ARGFRAME PSTACK, 0, STACK
        ARGFRAME XSTACK, 20, STACK
        ARGFRAME IOVERLAY, 0, STATIC
        ARGFRAME DOVERLAY, 0, STATIC
        EXTERN NLME_ReadNwkKeyInfo
        FUNCTION NLME_ReadNwkKeyInfo,0202H
        ARGFRAME ISTACK, 0, STACK
        ARGFRAME PSTACK, 0, STACK
        ARGFRAME XSTACK, 44, STACK
        ARGFRAME IOVERLAY, 0, STATIC
        ARGFRAME DOVERLAY, 0, STATIC
        EXTERN SSP_GetTrueRand
        FUNCTION SSP_GetTrueRand,0202H
        ARGFRAME ISTACK, 2, STACK
        ARGFRAME PSTACK, 0, STACK
        ARGFRAME XSTACK, 0, STACK
        ARGFRAME IOVERLAY, 0, STATIC
        ARGFRAME DOVERLAY, 0, STATIC
        EXTERN SSP_Init
        FUNCTION SSP_Init,0202H
        ARGFRAME ISTACK, 2, STACK
        ARGFRAME PSTACK, 0, STACK
        ARGFRAME XSTACK, 0, STACK
        ARGFRAME IOVERLAY, 0, STATIC
        ARGFRAME DOVERLAY, 0, STATIC
        EXTERN SSP_SwitchNwkKey
        FUNCTION SSP_SwitchNwkKey,0202H
        ARGFRAME ISTACK, 2, STACK
        ARGFRAME PSTACK, 0, STACK
        ARGFRAME XSTACK, 50, STACK
        ARGFRAME IOVERLAY, 0, STATIC
        ARGFRAME DOVERLAY, 0, STATIC
        EXTERN SSP_UpdateNwkKey
        FUNCTION SSP_UpdateNwkKey,0202H
        ARGFRAME ISTACK, 0, STACK
        ARGFRAME PSTACK, 0, STACK
        ARGFRAME XSTACK, 50, STACK
        ARGFRAME IOVERLAY, 0, STATIC
        ARGFRAME DOVERLAY, 0, STATIC
        EXTERN ZDAppTaskID
        EXTERN ZDApp_NVUpdate
        FUNCTION ZDApp_NVUpdate,0202H
        ARGFRAME ISTACK, 2, STACK
        ARGFRAME PSTACK, 0, STACK
        ARGFRAME XSTACK, 0, STACK
        ARGFRAME IOVERLAY, 0, STATIC
        ARGFRAME DOVERLAY, 0, STATIC
        EXTERN ZDP_IEEEAddrReq
        FUNCTION ZDP_IEEEAddrReq,0202H
        ARGFRAME ISTACK, 0, STACK
        ARGFRAME PSTACK, 0, STACK
        ARGFRAME XSTACK, 25, STACK
        ARGFRAME IOVERLAY, 0, STATIC
        ARGFRAME DOVERLAY, 0, STATIC
        EXTERN ZDP_NwkAddrReq
        FUNCTION ZDP_NwkAddrReq,0202H
        ARGFRAME ISTACK, 0, STACK
        ARGFRAME PSTACK, 0, STACK
        ARGFRAME XSTACK, 25, STACK
        ARGFRAME IOVERLAY, 0, STATIC
        ARGFRAME DOVERLAY, 0, STATIC
        EXTERN _NIB
        EXTERN bdb_doTrustCenterRequireKeyExchange
        FUNCTION bdb_doTrustCenterRequireKeyExchange,0202H
        ARGFRAME ISTACK, 0, STACK
        ARGFRAME PSTACK, 0, STACK
        ARGFRAME XSTACK, 46, STACK
        ARGFRAME IOVERLAY, 0, STATIC
        ARGFRAME DOVERLAY, 0, STATIC
        EXTERN bdb_tcLinkKeyExchangeAttempt
        FUNCTION bdb_tcLinkKeyExchangeAttempt,0202H
        ARGFRAME ISTACK, 0, STACK
        ARGFRAME PSTACK, 0, STACK
        ARGFRAME XSTACK, 50, STACK
        ARGFRAME IOVERLAY, 0, STATIC
        ARGFRAME DOVERLAY, 0, STATIC
        EXTERN defaultTCLinkKey
        EXTERN devState
        EXTERN distributedDefaultKey
        EXTERN gMAX_NWK_SEC_MATERIAL_TABLE_ENTRIES
        EXTERN osal_isbufset
        FUNCTION osal_isbufset,0202H
        ARGFRAME ISTACK, 2, STACK
        ARGFRAME PSTACK, 0, STACK
        ARGFRAME XSTACK, 0, STACK
        ARGFRAME IOVERLAY, 0, STATIC
        ARGFRAME DOVERLAY, 0, STATIC
        EXTERN osal_mem_alloc
        FUNCTION osal_mem_alloc,0202H
        ARGFRAME ISTACK, 2, STACK
        ARGFRAME PSTACK, 0, STACK
        ARGFRAME XSTACK, 33, STACK
        ARGFRAME IOVERLAY, 0, STATIC
        ARGFRAME DOVERLAY, 0, STATIC
        EXTERN osal_mem_free
        FUNCTION osal_mem_free,0202H
        ARGFRAME ISTACK, 0, STACK
        ARGFRAME PSTACK, 0, STACK
        ARGFRAME XSTACK, 33, STACK
        ARGFRAME IOVERLAY, 0, STATIC
        ARGFRAME DOVERLAY, 0, STATIC
        EXTERN osal_memcmp
        FUNCTION osal_memcmp,0202H
        ARGFRAME ISTACK, 0, STACK
        ARGFRAME PSTACK, 0, STACK
        ARGFRAME XSTACK, 36, STACK
        ARGFRAME IOVERLAY, 0, STATIC
        ARGFRAME DOVERLAY, 0, STATIC
        EXTERN osal_memcpy
        FUNCTION osal_memcpy,0202H
        ARGFRAME ISTACK, 0, STACK
        ARGFRAME PSTACK, 0, STACK
        ARGFRAME XSTACK, 54, STACK
        ARGFRAME IOVERLAY, 0, STATIC
        ARGFRAME DOVERLAY, 0, STATIC
        EXTERN osal_memset
        FUNCTION osal_memset,0202H
        ARGFRAME ISTACK, 0, STACK
        ARGFRAME PSTACK, 0, STACK
        ARGFRAME XSTACK, 69, STACK
        ARGFRAME IOVERLAY, 0, STATIC
        ARGFRAME DOVERLAY, 0, STATIC
        EXTERN osal_nv_item_init
        FUNCTION osal_nv_item_init,0202H
        ARGFRAME ISTACK, 0, STACK
        ARGFRAME PSTACK, 0, STACK
        ARGFRAME XSTACK, 64, STACK
        ARGFRAME IOVERLAY, 0, STATIC
        ARGFRAME DOVERLAY, 0, STATIC
        EXTERN osal_nv_read
        FUNCTION osal_nv_read,0202H
        ARGFRAME ISTACK, 0, STACK
        ARGFRAME PSTACK, 0, STACK
        ARGFRAME XSTACK, 43, STACK
        ARGFRAME IOVERLAY, 0, STATIC
        ARGFRAME DOVERLAY, 0, STATIC
        EXTERN osal_nv_write
        FUNCTION osal_nv_write,0202H
        ARGFRAME ISTACK, 0, STACK
        ARGFRAME PSTACK, 0, STACK
        ARGFRAME XSTACK, 66, STACK
        ARGFRAME IOVERLAY, 0, STATIC
        ARGFRAME DOVERLAY, 0, STATIC
        EXTERN osal_rand
        FUNCTION osal_rand,0202H
        ARGFRAME ISTACK, 0, STACK
        ARGFRAME PSTACK, 0, STACK
        ARGFRAME XSTACK, 51, STACK
        ARGFRAME IOVERLAY, 0, STATIC
        ARGFRAME DOVERLAY, 0, STATIC
        EXTERN osal_set_event
        FUNCTION osal_set_event,0202H
        ARGFRAME ISTACK, 2, STACK
        ARGFRAME PSTACK, 0, STACK
        ARGFRAME XSTACK, 0, STACK
        ARGFRAME IOVERLAY, 0, STATIC
        ARGFRAME DOVERLAY, 0, STATIC
        EXTERN sAddrExtCmp
        FUNCTION sAddrExtCmp,0202H
        ARGFRAME ISTACK, 0, STACK
        ARGFRAME PSTACK, 0, STACK
        ARGFRAME XSTACK, 17, STACK
        ARGFRAME IOVERLAY, 0, STATIC
        ARGFRAME DOVERLAY, 0, STATIC
        EXTERN sAddrExtCpy
        FUNCTION sAddrExtCpy,0202H
        ARGFRAME ISTACK, 0, STACK
        ARGFRAME PSTACK, 0, STACK
        ARGFRAME XSTACK, 25, STACK
        ARGFRAME IOVERLAY, 0, STATIC
        ARGFRAME DOVERLAY, 0, STATIC
        EXTERN zdoCBFunc
        EXTERN zgApsTrustCenterAddr
        EXTERN zgDeviceLogicalType
        EXTERN zgPreConfigKeys
        EXTERN zgSecurePermitJoin

// D:\project\Z-Stack 3.0.2\Components\stack\zdo\ZDSecMgr.c
//    1 /******************************************************************************
//    2   Filename:       ZDSecMgr.c
//    3   Revised:        $Date: 2014-06-05 11:25:00 -0700 (Thu, 05 Jun 2014) $
//    4   Revision:       $Revision: 38833 $
//    5 
//    6   Description:    The ZigBee Device Security Manager.
//    7 
//    8 
//    9   Copyright 2005-2014 Texas Instruments Incorporated. All rights reserved.
//   10 
//   11   IMPORTANT: Your use of this Software is limited to those specific rights
//   12   granted under the terms of a software license agreement between the user
//   13   who downloaded the software, his/her employer (which must be your employer)
//   14   and Texas Instruments Incorporated (the "License"). You may not use this
//   15   Software unless you agree to abide by the terms of the License. The License
//   16   limits your use, and you acknowledge, that the Software may not be modified,
//   17   copied or distributed unless embedded on a Texas Instruments microcontroller
//   18   or used solely and exclusively in conjunction with a Texas Instruments radio
//   19   frequency transceiver, which is integrated into your product. Other than for
//   20   the foregoing purpose, you may not use, reproduce, copy, prepare derivative
//   21   works of, modify, distribute, perform, display or sell this Software and/or
//   22   its documentation for any purpose.
//   23 
//   24   YOU FURTHER ACKNOWLEDGE AND AGREE THAT THE SOFTWARE AND DOCUMENTATION ARE
//   25   PROVIDED "AS IS" WITHOUT WARRANTY OF ANY KIND, EITHER EXPRESS OR IMPLIED,
//   26   INCLUDING WITHOUT LIMITATION, ANY WARRANTY OF MERCHANTABILITY, TITLE,
//   27   NON-INFRINGEMENT AND FITNESS FOR A PARTICULAR PURPOSE. IN NO EVENT SHALL
//   28   TEXAS INSTRUMENTS OR ITS LICENSORS BE LIABLE OR OBLIGATED UNDER CONTRACT,
//   29   NEGLIGENCE, STRICT LIABILITY, CONTRIBUTION, BREACH OF WARRANTY, OR OTHER
//   30   LEGAL EQUITABLE THEORY ANY DIRECT OR INDIRECT DAMAGES OR EXPENSES
//   31   INCLUDING BUT NOT LIMITED TO ANY INCIDENTAL, SPECIAL, INDIRECT, PUNITIVE
//   32   OR CONSEQUENTIAL DAMAGES, LOST PROFITS OR LOST DATA, COST OF PROCUREMENT
//   33   OF SUBSTITUTE GOODS, TECHNOLOGY, SERVICES, OR ANY CLAIMS BY THIRD PARTIES
//   34   (INCLUDING BUT NOT LIMITED TO ANY DEFENSE THEREOF), OR OTHER SIMILAR COSTS.
//   35 
//   36   Should you have any questions regarding your right to use this Software,
//   37   contact Texas Instruments Incorporated at www.TI.com.
//   38 ******************************************************************************/
//   39 
//   40 #ifdef __cplusplus
//   41 extern "C"
//   42 {
//   43 #endif
//   44 
//   45 /******************************************************************************
//   46  * INCLUDES
//   47  */
//   48 #include "ZComDef.h"
//   49 #include "OSAL.h"
//   50 #include "OSAL_Nv.h"
//   51 #include "ZGlobals.h"
//   52 #include "ssp.h"
//   53 #include "nwk_globals.h"
//   54 #include "nwk.h"
//   55 #include "NLMEDE.h"
//   56 #include "AddrMgr.h"
//   57 #include "AssocList.h"
//   58 #include "APSMEDE.h"
//   59 #include "ZDConfig.h"
//   60 #include "ZDSecMgr.h"
//   61   
//   62 #include "bdb.h"
//   63 #include "bdb_interface.h"
//   64 
//   65 /******************************************************************************
//   66  * CONSTANTS
//   67  */
//   68 // maximum number of devices managed by this Security Manager
//   69 #if !defined ( ZDSECMGR_DEVICE_MAX )
//   70   #define ZDSECMGR_DEVICE_MAX 3
//   71 #endif
//   72 
//   73 // maximum number of LINK keys this device may store
//   74 #define ZDSECMGR_ENTRY_MAX ZDSECMGR_DEVICE_MAX
//   75 
//   76 // total number of stored devices
//   77 #if !defined ( ZDSECMGR_STORED_DEVICES )
//   78   #define ZDSECMGR_STORED_DEVICES 3
//   79 #endif
//   80 
//   81 // Joining Device Policies: r21 spec 4.9.1
//   82 // This boolean indicates whether the device will request a new Trust Center Link key after joining.
//   83 // TC link key cannot be requested if join is performed on distributed nwk

        RSEG XDATA_I:XDATA:NOROOT(0)
//   84 bool  requestNewTrustCenterLinkKey = TRUE;  
requestNewTrustCenterLinkKey:
        DATA8
        DS 1
        REQUIRE `?<Initializer for requestNewTrustCenterLinkKey`
        REQUIRE __INIT_XDATA_I
//   85 //This integer indicates the maximum time in seconds that a device will wait for a response to a 
//   86 //request for a Trust Center link key.

        RSEG XDATA_I:XDATA:NOROOT(0)
//   87 uint32  requestLinkKeyTimeout = BDBC_TC_LINK_KEY_EXANGE_TIMEOUT;
requestLinkKeyTimeout:
        DATA32
        DS 4
        REQUIRE `?<Initializer for requestLinkKeyTimeout>`
        REQUIRE __INIT_XDATA_I
//   88  //bool acceptNewUnsolicitedApplicationLinkKey;   
//   89 
//   90 // APSME Stub Implementations
//   91 #define ZDSecMgrLinkKeySet       APSME_LinkKeySet
//   92 #define ZDSecMgrLinkKeyNVIdGet   APSME_LinkKeyNVIdGet
//   93 #define ZDSecMgrKeyFwdToChild    APSME_KeyFwdToChild
//   94 #define ZDSecMgrIsLinkKeyValid   APSME_IsLinkKeyValid
//   95 
//   96 
//   97 
//   98 /******************************************************************************
//   99  * TYPEDEFS
//  100  */
//  101 typedef struct
//  102 {
//  103   uint16            ami;
//  104   uint16            keyNvId;   // index to the Link Key table in NV
//  105   ZDSecMgr_Authentication_Option authenticateOption;
//  106 } ZDSecMgrEntry_t;
//  107 
//  108 typedef struct
//  109 {
//  110   uint16          nwkAddr;
//  111   uint8*          extAddr;
//  112   uint16          parentAddr;
//  113   uint8           secure;
//  114   uint8           devStatus;
//  115 } ZDSecMgrDevice_t;
//  116 
//  117 /******************************************************************************
//  118  * EXTERNAL VARIABLES
//  119  */
//  120 extern CONST uint8 gMAX_NWK_SEC_MATERIAL_TABLE_ENTRIES;
//  121 extern pfnZdoCb zdoCBFunc[MAX_ZDO_CB_FUNC];
//  122 
//  123 
//  124 /******************************************************************************
//  125  * EXTERNAL FUNCTIONS
//  126  */
//  127 extern void   ZDApp_ResetTimerCancel( void );
//  128 /******************************************************************************
//  129  * LOCAL VARIABLES
//  130  */
//  131 #if 0 // Taken out because the following functionality is only used for test
//  132       // purpose. A more efficient (above) way is used. It can be put
//  133       // back in if customers request for a white/black list feature.
//  134 uint8 ZDSecMgrStoredDeviceList[ZDSECMGR_STORED_DEVICES][Z_EXTADDR_LEN] =
//  135 {
//  136   { 0x01, 0x00, 0x00, 0x00, 0x00, 0x00, 0x00, 0x00 },
//  137   { 0x00, 0x00, 0x00, 0x00, 0x00, 0x00, 0x00, 0x01 },
//  138   { 0x00, 0x00, 0x00, 0x00, 0x00, 0x00, 0x00, 0x00 },
//  139 };
//  140 #endif
//  141 

        RSEG XDATA_Z:XDATA:NOROOT(0)
        DATA8
//  142 uint8 ZDSecMgrTCExtAddr[Z_EXTADDR_LEN]=
ZDSecMgrTCExtAddr:
        DS 8
        REQUIRE __INIT_XDATA_Z
//  143   { 0x00, 0x00, 0x00, 0x00, 0x00, 0x00, 0x00, 0x00 };
//  144 

        RSEG XDATA_Z:XDATA:NOROOT(0)
        DATA8
//  145 uint8 ZDSecMgrTCAuthenticated = FALSE;
ZDSecMgrTCAuthenticated:
        DS 1
        REQUIRE __INIT_XDATA_Z
//  146 

        RSEG XDATA_Z:XDATA:NOROOT(0)
        DATA16
//  147 ZDSecMgrEntry_t* ZDSecMgrEntries  = NULL;
ZDSecMgrEntries:
        DS 2
        REQUIRE __INIT_XDATA_Z
//  148 
//  149 void ZDSecMgrAddrMgrCB( uint8 update, AddrMgrEntry_t* newEntry, AddrMgrEntry_t* oldEntry );
//  150 

        RSEG XDATA_Z:XDATA:NOROOT(0)
        DATA8
//  151 uint8 ZDSecMgrPermitJoiningEnabled;
ZDSecMgrPermitJoiningEnabled:
        DS 1
        REQUIRE __INIT_XDATA_Z

        RSEG XDATA_Z:XDATA:NOROOT(0)
        DATA8
//  152 uint8 ZDSecMgrPermitJoiningTimed;
ZDSecMgrPermitJoiningTimed:
        DS 1
        REQUIRE __INIT_XDATA_Z
//  153 

        RSEG XDATA_Z:XDATA:NOROOT(0)
        DATA8
//  154 APSME_TCLKDevEntry_t TrustCenterLinkKey;
TrustCenterLinkKey:
        DS 19
        REQUIRE __INIT_XDATA_Z
//  155 

        RSEG XDATA_Z:XDATA:NOROOT(0)
        DATA8
//  156 APSME_ApsLinkKeyFrmCntr_t ApsLinkKeyFrmCntr[ZDSECMGR_ENTRY_MAX];
ApsLinkKeyFrmCntr:
        DS 27
        REQUIRE __INIT_XDATA_Z

        RSEG XDATA_Z:XDATA:NOROOT(0)
        DATA8
//  157 APSME_TCLinkKeyFrmCntr_t TCLinkKeyFrmCntr[ZDSECMGR_TC_DEVICE_MAX];
TCLinkKeyFrmCntr:
        DS 27
        REQUIRE __INIT_XDATA_Z
//  158 

        RSEG CODE_C:CODE:REORDER:NOROOT(0)
        DATA16
//  159  CONST uint16 gZDSECMGR_TC_DEVICE_MAX = ZDSECMGR_TC_DEVICE_MAX;
gZDSECMGR_TC_DEVICE_MAX:
        DW 3

        RSEG CODE_C:CODE:REORDER:NOROOT(0)
        DATA16
//  160  CONST uint16 gZDSECMGR_TC_DEVICE_IC_MAX = ZDSECMGR_TC_DEVICE_IC_MAX;
gZDSECMGR_TC_DEVICE_IC_MAX:
        DW 1

        RSEG XDATA_Z:XDATA:NOROOT(0)
        DATA8
//  161  uint8  gZDSECMGR_TC_ATTEMPT_DEFAULT_KEY = ZDSECMGR_TC_ATTEMPT_DEFAULT_KEY;
gZDSECMGR_TC_ATTEMPT_DEFAULT_KEY:
        DS 1
        REQUIRE __INIT_XDATA_Z
//  162 /******************************************************************************
//  163  * PRIVATE FUNCTIONS
//  164  *
//  165  *   ZDSecMgrAddrStore
//  166  *   ZDSecMgrExtAddrStore
//  167  *   ZDSecMgrExtAddrLookup
//  168  *   ZDSecMgrEntryInit
//  169  *   ZDSecMgrEntryLookup
//  170  *   ZDSecMgrEntryLookupAMI
//  171  *   ZDSecMgrEntryLookupExt
//  172  *   ZDSecMgrEntryLookupExtGetIndex
//  173  *   ZDSecMgrEntryFree
//  174  *   ZDSecMgrEntryNew
//  175  *   ZDSecMgrAppKeyGet
//  176  *   ZDSecMgrAppKeyReq
//  177  *   ZDSecMgrTclkReq
//  178  *   ZDSecMgrAppConfKeyReq 
//  179  *   ZDSecMgrSendNwkKey
//  180  *   ZDSecMgrDeviceRemove
//  181  *   ZDSecMgrDeviceValidateRM
//  182  *   ZDSecMgrDeviceValidate
//  183  *   ZDSecMgrDeviceJoin
//  184  *   ZDSecMgrDeviceJoinDirect
//  185  *   ZDSecMgrDeviceJoinFwd
//  186  *   ZDSecMgrDeviceNew
//  187  *   ZDSecMgrAssocDeviceAuth
//  188  *   ZDSecMgrAuthNwkKey
//  189  *   APSME_TCLinkKeyInit
//  190  *   APSME_IsDefaultTCLK
//  191  */
//  192 
//  193 //-----------------------------------------------------------------------------
//  194 // address management
//  195 //-----------------------------------------------------------------------------
//  196 ZStatus_t ZDSecMgrAddrStore( uint16 nwkAddr, uint8* extAddr, uint16* ami );
//  197 ZStatus_t ZDSecMgrExtAddrStore( uint16 nwkAddr, uint8* extAddr, uint16* ami );
//  198 ZStatus_t ZDSecMgrExtAddrLookup( uint8* extAddr, uint16* ami );
//  199 
//  200 //-----------------------------------------------------------------------------
//  201 // Trust Center management
//  202 //-----------------------------------------------------------------------------
//  203 uint8 ZDSecMgrTCExtAddrCheck( uint8* extAddr );
//  204 void ZDSecMgrTCDataLoad( uint8* extAddr );
//  205 
//  206 //-----------------------------------------------------------------------------
//  207 // entry data
//  208 //-----------------------------------------------------------------------------
//  209 void ZDSecMgrEntryInit(uint8 state);
//  210 ZStatus_t ZDSecMgrEntryLookup( uint16 nwkAddr, ZDSecMgrEntry_t** entry );
//  211 ZStatus_t ZDSecMgrEntryLookupAMI( uint16 ami, ZDSecMgrEntry_t** entry );
//  212 ZStatus_t ZDSecMgrEntryLookupExt( uint8* extAddr, ZDSecMgrEntry_t** entry );
//  213 ZStatus_t ZDSecMgrEntryLookupExtGetIndex( uint8* extAddr, ZDSecMgrEntry_t** entry, uint16* entryIndex );
//  214 ZStatus_t ZDSecMgrEntryLookupAMIGetIndex( uint16 ami, uint16* entryIndex );
//  215 void ZDSecMgrEntryFree( ZDSecMgrEntry_t* entry );
//  216 ZStatus_t ZDSecMgrEntryNew( ZDSecMgrEntry_t** entry );
//  217 ZStatus_t ZDSecMgrAuthenticationSet( uint8* extAddr, ZDSecMgr_Authentication_Option option );
//  218 void ZDSecMgrApsLinkKeyInit(uint8 setDefault);
//  219 #if defined ( NV_RESTORE )
//  220 static void ZDSecMgrWriteNV(void);
//  221 static void ZDSecMgrRestoreFromNV(void);
//  222 static void ZDSecMgrUpdateNV( uint16 index );
//  223 #endif
//  224 
//  225 //-----------------------------------------------------------------------------
//  226 // key support
//  227 //-----------------------------------------------------------------------------
//  228 ZStatus_t ZDSecMgrAppKeyGet( uint16  initNwkAddr,
//  229                              uint8*  initExtAddr,
//  230                              uint16  partNwkAddr,
//  231                              uint8*  partExtAddr,
//  232                              uint8** key,
//  233                              uint8*  keyType );
//  234 void ZDSecMgrAppKeyReq( ZDO_RequestKeyInd_t* ind );
//  235 void ZDSecMgrTclkReq( ZDO_RequestKeyInd_t* ind );
//  236 void ZDSecMgrAppConfKeyReq( ZDO_VerifyKeyInd_t* ind );
//  237 ZStatus_t ZDSecMgrSendNwkKey( ZDSecMgrDevice_t* device );
//  238 void ZDSecMgrNwkKeyInit(uint8 setDefault);
//  239 
//  240 //-----------------------------------------------------------------------------
//  241 // device management
//  242 //-----------------------------------------------------------------------------
//  243 void ZDSecMgrDeviceRemove( ZDSecMgrDevice_t* device );
//  244 ZStatus_t ZDSecMgrDeviceValidateRM( ZDSecMgrDevice_t* device );
//  245 ZStatus_t ZDSecMgrDeviceValidate( ZDSecMgrDevice_t* device );
//  246 ZStatus_t ZDSecMgrDeviceJoin( ZDSecMgrDevice_t* device );
//  247 ZStatus_t ZDSecMgrDeviceJoinDirect( ZDSecMgrDevice_t* device );
//  248 ZStatus_t ZDSecMgrDeviceJoinFwd( ZDSecMgrDevice_t* device );
//  249 ZStatus_t ZDSecMgrDeviceNew( ZDSecMgrDevice_t* device );
//  250 
//  251 //-----------------------------------------------------------------------------
//  252 // association management
//  253 //-----------------------------------------------------------------------------
//  254 void ZDSecMgrAssocDeviceAuth( associated_devices_t* assoc );
//  255 
//  256 //-----------------------------------------------------------------------------
//  257 // authentication management
//  258 //-----------------------------------------------------------------------------
//  259 void ZDSecMgrAuthNwkKey( void );
//  260 
//  261 //-----------------------------------------------------------------------------
//  262 // APSME function
//  263 //-----------------------------------------------------------------------------
//  264 void APSME_TCLinkKeyInit( uint8 setDefault );
//  265 uint8 APSME_IsDefaultTCLK( uint8 *extAddr );
//  266 void ZDSecMgrGenerateSeed(uint8 setDefault );
//  267 void ZDSecMgrGenerateKeyFromSeed(uint8 *extAddr, uint8 shift, uint8 *key);
//  268 /******************************************************************************
//  269  * @fn          ZDSecMgrAddrStore
//  270  *
//  271  * @brief       Store device addresses.
//  272  *
//  273  * @param       nwkAddr - [in] NWK address
//  274  * @param       extAddr - [in] EXT address
//  275  * @param       ami     - [out] Address Manager index
//  276  *
//  277  * @return      ZStatus_t
//  278  */

        RSEG BANKED_CODE:HUGECODE:NOROOT(0)
//  279 ZStatus_t ZDSecMgrAddrStore( uint16 nwkAddr, uint8* extAddr, uint16* ami )
ZDSecMgrAddrStore:
          CFI Block cfiBlock0 Using cfiCommon0
          CFI Function ZDSecMgrAddrStore
        CODE
//  280 {
        FUNCALL ZDSecMgrAddrStore, AddrMgrExtAddrSet
        LOCFRAME ISTACK, 0, STACK
        LOCFRAME PSTACK, 0, STACK
        LOCFRAME XSTACK, 22, STACK
        LOCFRAME IOVERLAY, 0, STATIC
        LOCFRAME DOVERLAY, 0, STATIC
        ARGFRAME ISTACK, 0, STACK
        ARGFRAME PSTACK, 0, STACK
        ARGFRAME XSTACK, 22, STACK
        ARGFRAME IOVERLAY, 0, STATIC
        ARGFRAME DOVERLAY, 0, STATIC
        FUNCALL ZDSecMgrAddrStore, AddrMgrEntryUpdate
        LOCFRAME ISTACK, 0, STACK
        LOCFRAME PSTACK, 0, STACK
        LOCFRAME XSTACK, 22, STACK
        LOCFRAME IOVERLAY, 0, STATIC
        LOCFRAME DOVERLAY, 0, STATIC
        ARGFRAME ISTACK, 0, STACK
        ARGFRAME PSTACK, 0, STACK
        ARGFRAME XSTACK, 22, STACK
        ARGFRAME IOVERLAY, 0, STATIC
        ARGFRAME DOVERLAY, 0, STATIC
        MOV       A,#-0x9
        LCALL     ?BANKED_ENTER_XDATA
          CFI DPH0 load(1, XDATA, add(CFA_XSP16, literal(-1)))
          CFI DPL0 load(1, XDATA, add(CFA_XSP16, literal(-2)))
          CFI ?BRET_EXT load(1, XDATA, add(CFA_XSP16, literal(-3)))
          CFI ?RET_HIGH load(1, XDATA, add(CFA_XSP16, literal(-4)))
          CFI ?RET_LOW load(1, XDATA, add(CFA_XSP16, literal(-5)))
          CFI R7 load(1, XDATA, add(CFA_XSP16, literal(-6)))
          CFI V0 load(1, XDATA, add(CFA_XSP16, literal(-7)))
          CFI VB load(1, XDATA, add(CFA_XSP16, literal(-8)))
          CFI R6 load(1, XDATA, add(CFA_XSP16, literal(-9)))
          CFI CFA_SP SP+0
          CFI CFA_XSP16 add(XSP16, 9)
        ; Saved register size: 9
        ; Auto size: 13
        MOV       A,#-0xd
        LCALL     ?ALLOC_XSTACK8
          CFI CFA_XSP16 add(XSP16, 22)
//  281   ZStatus_t      status;
//  282   AddrMgrEntry_t entry;
//  283 
//  284 
//  285   // add entry
//  286   entry.user    = ADDRMGR_USER_SECURITY;
        MOV       DPL,?XSP + 0
        MOV       DPH,?XSP + 1
        MOV       A,#0x2
        MOVX      @DPTR,A
//  287   entry.nwkAddr = nwkAddr;
        DEC       A
        LCALL     ?XSTACK_DISP0_8
        LCALL     ?Subroutine19 & 0xFFFF
//  288   AddrMgrExtAddrSet( entry.extAddr, extAddr );
??CrossCallReturnLabel_11:
        LCALL     ?XSTACK_DISP0_8
        MOV       R2,DPL
        MOV       R3,DPH
        LCALL     `??AddrMgrExtAddrSet::?relay`; Banked call to: AddrMgrExtAddrSet
        MOV       A,#0x16
        LCALL     ?XSTACK_DISP0_8
        LCALL     ?Subroutine27 & 0xFFFF
//  289 
//  290   if ( AddrMgrEntryUpdate( &entry ) == TRUE )
??CrossCallReturnLabel_23:
        LCALL     `??AddrMgrEntryUpdate::?relay`; Banked call to: AddrMgrEntryUpdate
        MOV       A,R1
        XRL       A,#0x1
        JNZ       ??ZDSecMgrAddrStore_0
//  291   {
//  292     // return successful results
//  293     *ami   = entry.index;
        MOV       A,#0xb
        LCALL     ?XSTACK_DISP0_8
        LCALL     ?Subroutine11 & 0xFFFF
//  294     status = ZSuccess;
//  295   }
??CrossCallReturnLabel_59:
        SJMP      ??CrossCallReturnLabel_14
//  296   else
//  297   {
//  298     // return failed results
//  299     *ami   = entry.index;
??ZDSecMgrAddrStore_0:
        MOV       A,#0xb
        LCALL     ?XSTACK_DISP0_8
        LCALL     ?Subroutine20 & 0xFFFF
//  300     status = ZNwkUnknownDevice;
//  301   }
//  302 
//  303   return status;
??CrossCallReturnLabel_14:
        LJMP      ?Subroutine0 & 0xFFFF
//  304 }
          CFI EndBlock cfiBlock0
//  305 
//  306 /******************************************************************************
//  307  * @fn          ZDSecMgrExtAddrStore
//  308  *
//  309  * @brief       Store EXT address.
//  310  *
//  311  * @param       extAddr - [in] EXT address
//  312  * @param       ami     - [out] Address Manager index
//  313  *
//  314  * @return      ZStatus_t
//  315  */

        RSEG BANKED_CODE:HUGECODE:NOROOT(0)
//  316 ZStatus_t ZDSecMgrExtAddrStore( uint16 nwkAddr, uint8* extAddr, uint16* ami )
ZDSecMgrExtAddrStore:
          CFI Block cfiBlock1 Using cfiCommon0
          CFI Function ZDSecMgrExtAddrStore
        CODE
//  317 {
        FUNCALL ZDSecMgrExtAddrStore, AddrMgrExtAddrSet
        LOCFRAME ISTACK, 0, STACK
        LOCFRAME PSTACK, 0, STACK
        LOCFRAME XSTACK, 22, STACK
        LOCFRAME IOVERLAY, 0, STATIC
        LOCFRAME DOVERLAY, 0, STATIC
        ARGFRAME ISTACK, 0, STACK
        ARGFRAME PSTACK, 0, STACK
        ARGFRAME XSTACK, 22, STACK
        ARGFRAME IOVERLAY, 0, STATIC
        ARGFRAME DOVERLAY, 0, STATIC
        FUNCALL ZDSecMgrExtAddrStore, AddrMgrEntryUpdate
        LOCFRAME ISTACK, 0, STACK
        LOCFRAME PSTACK, 0, STACK
        LOCFRAME XSTACK, 22, STACK
        LOCFRAME IOVERLAY, 0, STATIC
        LOCFRAME DOVERLAY, 0, STATIC
        ARGFRAME ISTACK, 0, STACK
        ARGFRAME PSTACK, 0, STACK
        ARGFRAME XSTACK, 22, STACK
        ARGFRAME IOVERLAY, 0, STATIC
        ARGFRAME DOVERLAY, 0, STATIC
        MOV       A,#-0x9
        LCALL     ?BANKED_ENTER_XDATA
          CFI DPH0 load(1, XDATA, add(CFA_XSP16, literal(-1)))
          CFI DPL0 load(1, XDATA, add(CFA_XSP16, literal(-2)))
          CFI ?BRET_EXT load(1, XDATA, add(CFA_XSP16, literal(-3)))
          CFI ?RET_HIGH load(1, XDATA, add(CFA_XSP16, literal(-4)))
          CFI ?RET_LOW load(1, XDATA, add(CFA_XSP16, literal(-5)))
          CFI R7 load(1, XDATA, add(CFA_XSP16, literal(-6)))
          CFI V0 load(1, XDATA, add(CFA_XSP16, literal(-7)))
          CFI VB load(1, XDATA, add(CFA_XSP16, literal(-8)))
          CFI R6 load(1, XDATA, add(CFA_XSP16, literal(-9)))
          CFI CFA_SP SP+0
          CFI CFA_XSP16 add(XSP16, 9)
        ; Saved register size: 9
        ; Auto size: 13
        MOV       A,#-0xd
        LCALL     ?ALLOC_XSTACK8
          CFI CFA_XSP16 add(XSP16, 22)
//  318   ZStatus_t      status;
//  319   AddrMgrEntry_t entry;
//  320 
//  321 
//  322   // add entry
//  323   entry.user    = ADDRMGR_USER_SECURITY;
        MOV       DPL,?XSP + 0
        MOV       DPH,?XSP + 1
        MOV       A,#0x2
        MOVX      @DPTR,A
//  324   entry.nwkAddr = nwkAddr;
        DEC       A
        LCALL     ?XSTACK_DISP0_8
        LCALL     ?Subroutine19 & 0xFFFF
//  325   AddrMgrExtAddrSet( entry.extAddr, extAddr );
??CrossCallReturnLabel_12:
        LCALL     ?XSTACK_DISP0_8
        MOV       R2,DPL
        MOV       R3,DPH
        LCALL     `??AddrMgrExtAddrSet::?relay`; Banked call to: AddrMgrExtAddrSet
        MOV       A,#0x16
        LCALL     ?XSTACK_DISP0_8
        LCALL     ?Subroutine27 & 0xFFFF
//  326 
//  327   if ( AddrMgrEntryUpdate( &entry ) == TRUE )
??CrossCallReturnLabel_24:
        LCALL     `??AddrMgrEntryUpdate::?relay`; Banked call to: AddrMgrEntryUpdate
        MOV       A,R1
        XRL       A,#0x1
        JNZ       ??ZDSecMgrExtAddrStore_0
//  328   {
//  329     // return successful results
//  330     *ami   = entry.index;
        MOV       A,#0xb
        LCALL     ?XSTACK_DISP0_8
        LCALL     ?Subroutine11 & 0xFFFF
//  331     status = ZSuccess;
//  332   }
??CrossCallReturnLabel_60:
        SJMP      ??CrossCallReturnLabel_15
//  333   else
//  334   {
//  335     // return failed results
//  336     *ami   = entry.index;
??ZDSecMgrExtAddrStore_0:
        MOV       A,#0xb
        LCALL     ?XSTACK_DISP0_8
        LCALL     ?Subroutine20 & 0xFFFF
//  337     status = ZNwkUnknownDevice;
//  338   }
//  339 
//  340   return status;
??CrossCallReturnLabel_15:
        LJMP      ?Subroutine0 & 0xFFFF
//  341 }
          CFI EndBlock cfiBlock1

        RSEG BANKED_CODE:HUGECODE:NOROOT(0)
?Subroutine27:
          CFI Block cfiCond2 Using cfiCommon0
          CFI Function ZDSecMgrAddrStore
          CFI Conditional ??CrossCallReturnLabel_23
          CFI R6 load(1, XDATA, add(CFA_XSP16, literal(-9)))
          CFI VB load(1, XDATA, add(CFA_XSP16, literal(-8)))
          CFI V0 load(1, XDATA, add(CFA_XSP16, literal(-7)))
          CFI R7 load(1, XDATA, add(CFA_XSP16, literal(-6)))
          CFI ?RET_LOW load(1, XDATA, add(CFA_XSP16, literal(-5)))
          CFI ?RET_HIGH load(1, XDATA, add(CFA_XSP16, literal(-4)))
          CFI ?BRET_EXT load(1, XDATA, add(CFA_XSP16, literal(-3)))
          CFI DPL0 load(1, XDATA, add(CFA_XSP16, literal(-2)))
          CFI DPH0 load(1, XDATA, add(CFA_XSP16, literal(-1)))
          CFI CFA_SP SP+-2
          CFI CFA_XSP16 add(XSP16, 22)
          CFI Block cfiCond3 Using cfiCommon0
          CFI (cfiCond3) Function ZDSecMgrExtAddrStore
          CFI (cfiCond3) Conditional ??CrossCallReturnLabel_24
          CFI (cfiCond3) R6 load(1, XDATA, add(CFA_XSP16, literal(-9)))
          CFI (cfiCond3) VB load(1, XDATA, add(CFA_XSP16, literal(-8)))
          CFI (cfiCond3) V0 load(1, XDATA, add(CFA_XSP16, literal(-7)))
          CFI (cfiCond3) R7 load(1, XDATA, add(CFA_XSP16, literal(-6)))
          CFI (cfiCond3) ?RET_LOW load(1, XDATA, add(CFA_XSP16, literal(-5)))
          CFI (cfiCond3) ?RET_HIGH load(1, XDATA, add(CFA_XSP16, literal(-4)))
          CFI (cfiCond3) ?BRET_EXT load(1, XDATA, add(CFA_XSP16, literal(-3)))
          CFI (cfiCond3) DPL0 load(1, XDATA, add(CFA_XSP16, literal(-2)))
          CFI (cfiCond3) DPH0 load(1, XDATA, add(CFA_XSP16, literal(-1)))
          CFI (cfiCond3) CFA_SP SP+-2
          CFI (cfiCond3) CFA_XSP16 add(XSP16, 22)
          CFI Block cfiPicker4 Using cfiCommon1
          CFI (cfiPicker4) NoFunction
          CFI (cfiPicker4) Picker
        LCALL     ?Subroutine45 & 0xFFFF
??CrossCallReturnLabel_157:
        MOV       R6,A
        MOV       A,R1
        MOV       R7,A
        ; Setup parameters for call to function AddrMgrEntryUpdate
        ; Setup parameters for call to function AddrMgrEntryUpdate
        MOV       R2,?XSP + 0
        MOV       R3,?XSP + 1
        RET
          CFI EndBlock cfiCond2
          CFI EndBlock cfiCond3
          CFI EndBlock cfiPicker4

        RSEG BANKED_CODE:HUGECODE:NOROOT(0)
?Subroutine20:
          CFI Block cfiCond5 Using cfiCommon0
          CFI Function ZDSecMgrAddrStore
          CFI Conditional ??CrossCallReturnLabel_14
          CFI R6 load(1, XDATA, add(CFA_XSP16, literal(-9)))
          CFI VB load(1, XDATA, add(CFA_XSP16, literal(-8)))
          CFI V0 load(1, XDATA, add(CFA_XSP16, literal(-7)))
          CFI R7 load(1, XDATA, add(CFA_XSP16, literal(-6)))
          CFI ?RET_LOW load(1, XDATA, add(CFA_XSP16, literal(-5)))
          CFI ?RET_HIGH load(1, XDATA, add(CFA_XSP16, literal(-4)))
          CFI ?BRET_EXT load(1, XDATA, add(CFA_XSP16, literal(-3)))
          CFI DPL0 load(1, XDATA, add(CFA_XSP16, literal(-2)))
          CFI DPH0 load(1, XDATA, add(CFA_XSP16, literal(-1)))
          CFI CFA_SP SP+-2
          CFI CFA_XSP16 add(XSP16, 22)
          CFI Block cfiCond6 Using cfiCommon0
          CFI (cfiCond6) Function ZDSecMgrExtAddrStore
          CFI (cfiCond6) Conditional ??CrossCallReturnLabel_15
          CFI (cfiCond6) R6 load(1, XDATA, add(CFA_XSP16, literal(-9)))
          CFI (cfiCond6) VB load(1, XDATA, add(CFA_XSP16, literal(-8)))
          CFI (cfiCond6) V0 load(1, XDATA, add(CFA_XSP16, literal(-7)))
          CFI (cfiCond6) R7 load(1, XDATA, add(CFA_XSP16, literal(-6)))
          CFI (cfiCond6) ?RET_LOW load(1, XDATA, add(CFA_XSP16, literal(-5)))
          CFI (cfiCond6) ?RET_HIGH load(1, XDATA, add(CFA_XSP16, literal(-4)))
          CFI (cfiCond6) ?BRET_EXT load(1, XDATA, add(CFA_XSP16, literal(-3)))
          CFI (cfiCond6) DPL0 load(1, XDATA, add(CFA_XSP16, literal(-2)))
          CFI (cfiCond6) DPH0 load(1, XDATA, add(CFA_XSP16, literal(-1)))
          CFI (cfiCond6) CFA_SP SP+-2
          CFI (cfiCond6) CFA_XSP16 add(XSP16, 22)
          CFI Block cfiCond7 Using cfiCommon0
          CFI (cfiCond7) Function ZDSecMgrExtAddrLookup
          CFI (cfiCond7) Conditional ??CrossCallReturnLabel_16
          CFI (cfiCond7) R6 load(1, XDATA, add(CFA_XSP16, literal(-9)))
          CFI (cfiCond7) VB load(1, XDATA, add(CFA_XSP16, literal(-8)))
          CFI (cfiCond7) V0 load(1, XDATA, add(CFA_XSP16, literal(-7)))
          CFI (cfiCond7) R7 load(1, XDATA, add(CFA_XSP16, literal(-6)))
          CFI (cfiCond7) ?RET_LOW load(1, XDATA, add(CFA_XSP16, literal(-5)))
          CFI (cfiCond7) ?RET_HIGH load(1, XDATA, add(CFA_XSP16, literal(-4)))
          CFI (cfiCond7) ?BRET_EXT load(1, XDATA, add(CFA_XSP16, literal(-3)))
          CFI (cfiCond7) DPL0 load(1, XDATA, add(CFA_XSP16, literal(-2)))
          CFI (cfiCond7) DPH0 load(1, XDATA, add(CFA_XSP16, literal(-1)))
          CFI (cfiCond7) CFA_SP SP+-2
          CFI (cfiCond7) CFA_XSP16 add(XSP16, 22)
          CFI Block cfiPicker8 Using cfiCommon1
          CFI (cfiPicker8) NoFunction
          CFI (cfiPicker8) Picker
        LCALL     ??Subroutine61_0 & 0xFFFF
??CrossCallReturnLabel_140:
        MOV       DPL,R6
        MOV       DPH,R7
        MOV       A,R0
        MOVX      @DPTR,A
        INC       DPTR
        MOV       A,R1
        MOVX      @DPTR,A
        MOV       R1,#-0x38
        RET
          CFI EndBlock cfiCond5
          CFI EndBlock cfiCond6
          CFI EndBlock cfiCond7
          CFI EndBlock cfiPicker8

        RSEG BANKED_CODE:HUGECODE:NOROOT(0)
?Subroutine19:
          CFI Block cfiCond9 Using cfiCommon0
          CFI Function ZDSecMgrAddrStore
          CFI Conditional ??CrossCallReturnLabel_11
          CFI R6 load(1, XDATA, add(CFA_XSP16, literal(-9)))
          CFI VB load(1, XDATA, add(CFA_XSP16, literal(-8)))
          CFI V0 load(1, XDATA, add(CFA_XSP16, literal(-7)))
          CFI R7 load(1, XDATA, add(CFA_XSP16, literal(-6)))
          CFI ?RET_LOW load(1, XDATA, add(CFA_XSP16, literal(-5)))
          CFI ?RET_HIGH load(1, XDATA, add(CFA_XSP16, literal(-4)))
          CFI ?BRET_EXT load(1, XDATA, add(CFA_XSP16, literal(-3)))
          CFI DPL0 load(1, XDATA, add(CFA_XSP16, literal(-2)))
          CFI DPH0 load(1, XDATA, add(CFA_XSP16, literal(-1)))
          CFI CFA_SP SP+-2
          CFI CFA_XSP16 add(XSP16, 22)
          CFI Block cfiCond10 Using cfiCommon0
          CFI (cfiCond10) Function ZDSecMgrExtAddrStore
          CFI (cfiCond10) Conditional ??CrossCallReturnLabel_12
          CFI (cfiCond10) R6 load(1, XDATA, add(CFA_XSP16, literal(-9)))
          CFI (cfiCond10) VB load(1, XDATA, add(CFA_XSP16, literal(-8)))
          CFI (cfiCond10) V0 load(1, XDATA, add(CFA_XSP16, literal(-7)))
          CFI (cfiCond10) R7 load(1, XDATA, add(CFA_XSP16, literal(-6)))
          CFI (cfiCond10) ?RET_LOW load(1, XDATA, add(CFA_XSP16, literal(-5)))
          CFI (cfiCond10) ?RET_HIGH load(1, XDATA, add(CFA_XSP16, literal(-4)))
          CFI (cfiCond10) ?BRET_EXT load(1, XDATA, add(CFA_XSP16, literal(-3)))
          CFI (cfiCond10) DPL0 load(1, XDATA, add(CFA_XSP16, literal(-2)))
          CFI (cfiCond10) DPH0 load(1, XDATA, add(CFA_XSP16, literal(-1)))
          CFI (cfiCond10) CFA_SP SP+-2
          CFI (cfiCond10) CFA_XSP16 add(XSP16, 22)
          CFI Block cfiCond11 Using cfiCommon0
          CFI (cfiCond11) Function ZDSecMgrSetupPartner
          CFI (cfiCond11) Conditional ??CrossCallReturnLabel_13
          CFI (cfiCond11) R6 load(1, XDATA, add(CFA_XSP16, literal(-12)))
          CFI (cfiCond11) VB load(1, XDATA, add(CFA_XSP16, literal(-11)))
          CFI (cfiCond11) V0 load(1, XDATA, add(CFA_XSP16, literal(-10)))
          CFI (cfiCond11) V1 load(1, XDATA, add(CFA_XSP16, literal(-9)))
          CFI (cfiCond11) V2 load(1, XDATA, add(CFA_XSP16, literal(-8)))
          CFI (cfiCond11) V3 load(1, XDATA, add(CFA_XSP16, literal(-7)))
          CFI (cfiCond11) R7 load(1, XDATA, add(CFA_XSP16, literal(-6)))
          CFI (cfiCond11) ?RET_LOW load(1, XDATA, add(CFA_XSP16, literal(-5)))
          CFI (cfiCond11) ?RET_HIGH load(1, XDATA, add(CFA_XSP16, literal(-4)))
          CFI (cfiCond11) ?BRET_EXT load(1, XDATA, add(CFA_XSP16, literal(-3)))
          CFI (cfiCond11) DPL0 load(1, XDATA, add(CFA_XSP16, literal(-2)))
          CFI (cfiCond11) DPH0 load(1, XDATA, add(CFA_XSP16, literal(-1)))
          CFI (cfiCond11) CFA_SP SP+-2
          CFI (cfiCond11) CFA_XSP16 add(XSP16, 25)
          CFI Block cfiPicker12 Using cfiCommon1
          CFI (cfiPicker12) NoFunction
          CFI (cfiPicker12) Picker
        MOV       A,R2
        MOVX      @DPTR,A
        INC       DPTR
        MOV       A,R3
        MOVX      @DPTR,A
        ; Setup parameters for call to function AddrMgrExtAddrSet
        ; Setup parameters for call to function AddrMgrExtAddrSet
        ; Setup parameters for call to function AddrMgrExtAddrSet
        MOV       A,#0x3
        RET
          CFI EndBlock cfiCond9
          CFI EndBlock cfiCond10
          CFI EndBlock cfiCond11
          CFI EndBlock cfiPicker12
//  342 
//  343 /******************************************************************************
//  344  * @fn          ZDSecMgrExtAddrLookup
//  345  *
//  346  * @brief       Lookup index for specified EXT address.
//  347  *
//  348  * @param       extAddr - [in] EXT address
//  349  * @param       ami     - [out] Address Manager index
//  350  *
//  351  * @return      ZStatus_t
//  352  */

        RSEG BANKED_CODE:HUGECODE:NOROOT(0)
//  353 ZStatus_t ZDSecMgrExtAddrLookup( uint8* extAddr, uint16* ami )
ZDSecMgrExtAddrLookup:
          CFI Block cfiBlock13 Using cfiCommon0
          CFI Function ZDSecMgrExtAddrLookup
        CODE
//  354 {
        FUNCALL ZDSecMgrExtAddrLookup, AddrMgrExtAddrSet
        LOCFRAME ISTACK, 0, STACK
        LOCFRAME PSTACK, 0, STACK
        LOCFRAME XSTACK, 22, STACK
        LOCFRAME IOVERLAY, 0, STATIC
        LOCFRAME DOVERLAY, 0, STATIC
        ARGFRAME ISTACK, 0, STACK
        ARGFRAME PSTACK, 0, STACK
        ARGFRAME XSTACK, 22, STACK
        ARGFRAME IOVERLAY, 0, STATIC
        ARGFRAME DOVERLAY, 0, STATIC
        FUNCALL ZDSecMgrExtAddrLookup, AddrMgrEntryLookupExt
        LOCFRAME ISTACK, 0, STACK
        LOCFRAME PSTACK, 0, STACK
        LOCFRAME XSTACK, 22, STACK
        LOCFRAME IOVERLAY, 0, STATIC
        LOCFRAME DOVERLAY, 0, STATIC
        ARGFRAME ISTACK, 0, STACK
        ARGFRAME PSTACK, 0, STACK
        ARGFRAME XSTACK, 22, STACK
        ARGFRAME IOVERLAY, 0, STATIC
        ARGFRAME DOVERLAY, 0, STATIC
        MOV       A,#-0x9
        LCALL     ?BANKED_ENTER_XDATA
          CFI DPH0 load(1, XDATA, add(CFA_XSP16, literal(-1)))
          CFI DPL0 load(1, XDATA, add(CFA_XSP16, literal(-2)))
          CFI ?BRET_EXT load(1, XDATA, add(CFA_XSP16, literal(-3)))
          CFI ?RET_HIGH load(1, XDATA, add(CFA_XSP16, literal(-4)))
          CFI ?RET_LOW load(1, XDATA, add(CFA_XSP16, literal(-5)))
          CFI R7 load(1, XDATA, add(CFA_XSP16, literal(-6)))
          CFI V0 load(1, XDATA, add(CFA_XSP16, literal(-7)))
          CFI VB load(1, XDATA, add(CFA_XSP16, literal(-8)))
          CFI R6 load(1, XDATA, add(CFA_XSP16, literal(-9)))
          CFI CFA_SP SP+0
          CFI CFA_XSP16 add(XSP16, 9)
        ; Saved register size: 9
        ; Auto size: 13
        MOV       A,#-0xd
        LCALL     ?ALLOC_XSTACK8
          CFI CFA_XSP16 add(XSP16, 22)
        MOV       A,R4
        MOV       R6,A
        MOV       A,R5
        MOV       R7,A
//  355   ZStatus_t      status;
//  356   AddrMgrEntry_t entry;
//  357 
//  358 
//  359   // lookup entry
//  360   entry.user = ADDRMGR_USER_SECURITY;
        MOV       DPL,?XSP + 0
        MOV       DPH,?XSP + 1
        MOV       A,#0x2
        MOVX      @DPTR,A
//  361   AddrMgrExtAddrSet( entry.extAddr, extAddr );
        ; Setup parameters for call to function AddrMgrExtAddrSet
        MOV       A,R2
        MOV       R4,A
        MOV       A,R3
        MOV       R5,A
        MOV       A,#0x3
        LCALL     ?XSTACK_DISP0_8
        MOV       R2,DPL
        MOV       R3,DPH
        LCALL     `??AddrMgrExtAddrSet::?relay`; Banked call to: AddrMgrExtAddrSet
//  362 
//  363   if ( AddrMgrEntryLookupExt( &entry ) == TRUE )
        ; Setup parameters for call to function AddrMgrEntryLookupExt
        MOV       R2,?XSP + 0
        MOV       R3,?XSP + 1
        LCALL     `??AddrMgrEntryLookupExt::?relay`; Banked call to: AddrMgrEntryLookupExt
        MOV       A,R1
        XRL       A,#0x1
        JNZ       ??ZDSecMgrExtAddrLookup_0
//  364   {
//  365     // return successful results
//  366     *ami   = entry.index;
        MOV       A,#0xb
        LCALL     ?XSTACK_DISP0_8
        LCALL     ?Subroutine11 & 0xFFFF
//  367     status = ZSuccess;
//  368   }
??CrossCallReturnLabel_61:
        SJMP      ??CrossCallReturnLabel_16
//  369   else
//  370   {
//  371     // return failed results
//  372     *ami   = entry.index;
??ZDSecMgrExtAddrLookup_0:
        MOV       A,#0xb
        LCALL     ?XSTACK_DISP0_8
        LCALL     ?Subroutine20 & 0xFFFF
//  373     status = ZNwkUnknownDevice;
//  374   }
//  375 
//  376   return status;
??CrossCallReturnLabel_16:
        LJMP      ?Subroutine0 & 0xFFFF
//  377 }
          CFI EndBlock cfiBlock13
//  378 
//  379 /******************************************************************************
//  380  * @fn          ZDSecMgrAddrClear
//  381  *
//  382  * @brief       Clear security bit from Address Manager for specific device.
//  383  *
//  384  * @param       extAddr - [in] EXT address
//  385  *
//  386  * @return      ZStatus_t
//  387  */

        RSEG BANKED_CODE:HUGECODE:NOROOT(0)
//  388 ZStatus_t ZDSecMgrAddrClear( uint8* extAddr )
ZDSecMgrAddrClear:
          CFI Block cfiBlock14 Using cfiCommon0
          CFI Function ZDSecMgrAddrClear
        CODE
//  389 {
        FUNCALL ZDSecMgrAddrClear, ZDSecMgrExtAddrLookup
        LOCFRAME ISTACK, 0, STACK
        LOCFRAME PSTACK, 0, STACK
        LOCFRAME XSTACK, 24, STACK
        LOCFRAME IOVERLAY, 0, STATIC
        LOCFRAME DOVERLAY, 0, STATIC
        ARGFRAME ISTACK, 0, STACK
        ARGFRAME PSTACK, 0, STACK
        ARGFRAME XSTACK, 24, STACK
        ARGFRAME IOVERLAY, 0, STATIC
        ARGFRAME DOVERLAY, 0, STATIC
        FUNCALL ZDSecMgrAddrClear, AddrMgrEntryRelease
        LOCFRAME ISTACK, 0, STACK
        LOCFRAME PSTACK, 0, STACK
        LOCFRAME XSTACK, 24, STACK
        LOCFRAME IOVERLAY, 0, STATIC
        LOCFRAME DOVERLAY, 0, STATIC
        ARGFRAME ISTACK, 0, STACK
        ARGFRAME PSTACK, 0, STACK
        ARGFRAME XSTACK, 24, STACK
        ARGFRAME IOVERLAY, 0, STATIC
        ARGFRAME DOVERLAY, 0, STATIC
        MOV       A,#-0x9
        LCALL     ?BANKED_ENTER_XDATA
          CFI DPH0 load(1, XDATA, add(CFA_XSP16, literal(-1)))
          CFI DPL0 load(1, XDATA, add(CFA_XSP16, literal(-2)))
          CFI ?BRET_EXT load(1, XDATA, add(CFA_XSP16, literal(-3)))
          CFI ?RET_HIGH load(1, XDATA, add(CFA_XSP16, literal(-4)))
          CFI ?RET_LOW load(1, XDATA, add(CFA_XSP16, literal(-5)))
          CFI R7 load(1, XDATA, add(CFA_XSP16, literal(-6)))
          CFI V0 load(1, XDATA, add(CFA_XSP16, literal(-7)))
          CFI VB load(1, XDATA, add(CFA_XSP16, literal(-8)))
          CFI R6 load(1, XDATA, add(CFA_XSP16, literal(-9)))
          CFI CFA_SP SP+0
          CFI CFA_XSP16 add(XSP16, 9)
        ; Saved register size: 9
        ; Auto size: 15
        MOV       A,#-0xf
        LCALL     ?ALLOC_XSTACK8
          CFI CFA_XSP16 add(XSP16, 24)
//  390   ZStatus_t status;
//  391   uint16 entryAmi;
//  392 
//  393   // get Address Manager Index
//  394   status = ZDSecMgrExtAddrLookup( extAddr, &entryAmi );
        ; Setup parameters for call to function ZDSecMgrExtAddrLookup
        MOV       R4,?XSP + 0
        MOV       R5,?XSP + 1
        LCALL     `??ZDSecMgrExtAddrLookup::?relay`; Banked call to: ZDSecMgrExtAddrLookup
        MOV       A,R1
        MOV       R6,A
//  395 
//  396   if ( status == ZSuccess )
        JNZ       ??ZDSecMgrAddrClear_0
//  397   {
//  398     AddrMgrEntry_t addrEntry;
//  399 
//  400     // Clear SECURITY User bit from the address manager
//  401     addrEntry.user = ADDRMGR_USER_SECURITY;
        MOV       A,#0x2
        LCALL     ?XSTACK_DISP0_8
        MOV       A,#0x2
        MOVX      @DPTR,A
//  402     addrEntry.index = entryAmi;
        MOV       DPL,?XSP + 0
        MOV       DPH,?XSP + 1
        LCALL     ??Subroutine68_0 & 0xFFFF
??CrossCallReturnLabel_134:
        MOV       A,#0xd
        LCALL     ?XSTACK_DISP0_8
        LCALL     ?Subroutine21 & 0xFFFF
//  403 
//  404     if ( AddrMgrEntryRelease( &addrEntry ) != TRUE )
??CrossCallReturnLabel_17:
        LCALL     ?XSTACK_DISP101_8
        LCALL     `??AddrMgrEntryRelease::?relay`; Banked call to: AddrMgrEntryRelease
        MOV       A,R1
        XRL       A,#0x1
        JZ        ??ZDSecMgrAddrClear_0
//  405     {
//  406       // return failure results
//  407       status = ZFailure;
        MOV       R6,#0x1
//  408     }
//  409   }
//  410 
//  411   return status;
??ZDSecMgrAddrClear_0:
        MOV       A,R6
        MOV       R1,A
        MOV       A,#0xf
        LJMP      ??Subroutine62_0 & 0xFFFF
//  412 }
          CFI EndBlock cfiBlock14
//  413 
//  414 /******************************************************************************
//  415  * @fn          ZDSecMgrEntryInit
//  416  *
//  417  * @brief       Initialize entry sub module
//  418  *
//  419  * @param       state - device initialization state
//  420  *
//  421  * @return      none
//  422  */

        RSEG BANKED_CODE:HUGECODE:NOROOT(0)
//  423 void ZDSecMgrEntryInit(uint8 state)
ZDSecMgrEntryInit:
          CFI Block cfiBlock15 Using cfiCommon0
          CFI Function ZDSecMgrEntryInit
        CODE
//  424 {
        FUNCALL ZDSecMgrEntryInit, osal_mem_alloc
        LOCFRAME ISTACK, 2, STACK
        LOCFRAME PSTACK, 0, STACK
        LOCFRAME XSTACK, 0, STACK
        LOCFRAME IOVERLAY, 0, STATIC
        LOCFRAME DOVERLAY, 0, STATIC
        ARGFRAME ISTACK, 2, STACK
        ARGFRAME PSTACK, 0, STACK
        ARGFRAME XSTACK, 0, STACK
        ARGFRAME IOVERLAY, 0, STATIC
        ARGFRAME DOVERLAY, 0, STATIC
        PUSH      DPL
          CFI DPL0 Frame(CFA_SP, 4)
          CFI CFA_SP SP+-4
        PUSH      DPH
          CFI DPH0 Frame(CFA_SP, 5)
          CFI CFA_SP SP+-5
        ; Saved register size: 2
        ; Auto size: 0
//  425   if (ZDSecMgrEntries == NULL)
        LCALL     ?Subroutine26 & 0xFFFF
??CrossCallReturnLabel_154:
        JNZ       ??ZDSecMgrEntryInit_0
//  426   {
//  427     uint16 index;
//  428 
//  429     if ((ZDSecMgrEntries = osal_mem_alloc(sizeof(ZDSecMgrEntry_t) * ZDSECMGR_ENTRY_MAX)) == NULL)
        ; Setup parameters for call to function osal_mem_alloc
        MOV       R2,#0xf
        MOV       R3,#0x0
        LCALL     `??osal_mem_alloc::?relay`; Banked call to: osal_mem_alloc
        MOV       DPTR,#ZDSecMgrEntries
        MOV       A,R2
        MOVX      @DPTR,A
        INC       DPTR
        MOV       A,R3
        LCALL     ??Subroutine52_0 & 0xFFFF
??CrossCallReturnLabel_75:
        JZ        ??ZDSecMgrEntryInit_0
//  430     {
//  431       return;
//  432     }
//  433 
//  434     for (index = 0; index < ZDSECMGR_ENTRY_MAX; index++)
        MOV       R0,#0x0
        MOV       R1,#0x0
//  435     {
//  436       ZDSecMgrEntries[index].ami = INVALID_NODE_ADDR;
??ZDSecMgrEntryInit_1:
        LCALL     ?Subroutine31 & 0xFFFF
//  437 
//  438       ZDSecMgrEntries[index].keyNvId = SEC_NO_KEY_NV_ID;
//  439     }
??CrossCallReturnLabel_28:
        MOV       A,#-0x2
        MOVX      @DPTR,A
        INC       DPTR
        INC       A
        LCALL     ?Subroutine43 & 0xFFFF
??CrossCallReturnLabel_49:
        INC       DPTR
        INC       DPTR
        CLR       A
        MOVX      @DPTR,A
        INC       DPTR
        MOVX      @DPTR,A
        INC       R0
        MOV       A,R0
        JNZ       ??ZDSecMgrEntryInit_2
        INC       R1
??ZDSecMgrEntryInit_2:
        LCALL     ?Subroutine36 & 0xFFFF
//  440   }
??CrossCallReturnLabel_67:
        JC        ??ZDSecMgrEntryInit_1
//  441 
//  442 #if defined NV_RESTORE
//  443   if (state == ZDO_INITDEV_RESTORED_NETWORK_STATE)
//  444   {
//  445     ZDSecMgrRestoreFromNV();
//  446   }
//  447 #else
//  448   (void)state;
//  449 #endif
//  450 }
??ZDSecMgrEntryInit_0:
        LJMP      ??Subroutine60_0 & 0xFFFF
          CFI EndBlock cfiBlock15
//  451 
//  452 /******************************************************************************
//  453  * @fn          ZDSecMgrEntryLookup
//  454  *
//  455  * @brief       Lookup entry index using specified NWK address.
//  456  *
//  457  * @param       nwkAddr - [in] NWK address
//  458  * @param       entry   - [out] valid entry
//  459  *
//  460  * @return      ZStatus_t
//  461  */

        RSEG BANKED_CODE:HUGECODE:NOROOT(0)
//  462 ZStatus_t ZDSecMgrEntryLookup( uint16 nwkAddr, ZDSecMgrEntry_t** entry )
ZDSecMgrEntryLookup:
          CFI Block cfiBlock16 Using cfiCommon0
          CFI Function ZDSecMgrEntryLookup
        CODE
//  463 {
        FUNCALL ZDSecMgrEntryLookup, AddrMgrEntryLookupNwk
        LOCFRAME ISTACK, 0, STACK
        LOCFRAME PSTACK, 0, STACK
        LOCFRAME XSTACK, 22, STACK
        LOCFRAME IOVERLAY, 0, STATIC
        LOCFRAME DOVERLAY, 0, STATIC
        ARGFRAME ISTACK, 0, STACK
        ARGFRAME PSTACK, 0, STACK
        ARGFRAME XSTACK, 22, STACK
        ARGFRAME IOVERLAY, 0, STATIC
        ARGFRAME DOVERLAY, 0, STATIC
        REQUIRE ?V0
        MOV       A,#-0x9
        LCALL     ?BANKED_ENTER_XDATA
          CFI DPH0 load(1, XDATA, add(CFA_XSP16, literal(-1)))
          CFI DPL0 load(1, XDATA, add(CFA_XSP16, literal(-2)))
          CFI ?BRET_EXT load(1, XDATA, add(CFA_XSP16, literal(-3)))
          CFI ?RET_HIGH load(1, XDATA, add(CFA_XSP16, literal(-4)))
          CFI ?RET_LOW load(1, XDATA, add(CFA_XSP16, literal(-5)))
          CFI R7 load(1, XDATA, add(CFA_XSP16, literal(-6)))
          CFI V0 load(1, XDATA, add(CFA_XSP16, literal(-7)))
          CFI VB load(1, XDATA, add(CFA_XSP16, literal(-8)))
          CFI R6 load(1, XDATA, add(CFA_XSP16, literal(-9)))
          CFI CFA_SP SP+0
          CFI CFA_XSP16 add(XSP16, 9)
        ; Saved register size: 9
        ; Auto size: 13
        MOV       A,#-0xd
        LCALL     ?ALLOC_XSTACK8
          CFI CFA_XSP16 add(XSP16, 22)
        MOV       A,R4
        MOV       R6,A
        MOV       A,R5
        MOV       R7,A
//  464   uint16         index;
//  465   AddrMgrEntry_t addrMgrEntry;
//  466 
//  467   // initialize results
//  468   *entry = NULL;
        MOV       DPL,R6
        MOV       DPH,R7
        LCALL     ?Subroutine10 & 0xFFFF
//  469 
//  470   // verify data is available
//  471   if ( ZDSecMgrEntries != NULL )
??CrossCallReturnLabel_72:
        JZ        ??ZDSecMgrEntryLookup_0
//  472   {
//  473     addrMgrEntry.user    = ADDRMGR_USER_SECURITY;
        MOV       DPL,?XSP + 0
        MOV       DPH,?XSP + 1
        MOV       A,#0x2
        MOVX      @DPTR,A
//  474     addrMgrEntry.nwkAddr = nwkAddr;
        DEC       A
        LCALL     ?XSTACK_DISP0_8
        LCALL     ?Subroutine13 & 0xFFFF
//  475 
//  476     if ( AddrMgrEntryLookupNwk( &addrMgrEntry ) == TRUE )
??CrossCallReturnLabel_119:
        LCALL     `??AddrMgrEntryLookupNwk::?relay`; Banked call to: AddrMgrEntryLookupNwk
        MOV       A,R1
        XRL       A,#0x1
        JNZ       ??ZDSecMgrEntryLookup_0
//  477     {
//  478       for ( index = 0; index < ZDSECMGR_ENTRY_MAX ; index++ )
        MOV       R0,#0x0
        MOV       R1,#0x0
//  479       {
//  480         if ( addrMgrEntry.index == ZDSecMgrEntries[index].ami )
??ZDSecMgrEntryLookup_1:
        LCALL     ?Subroutine48 & 0xFFFF
??CrossCallReturnLabel_57:
        MOV       A,#0xb
        LCALL     ?XSTACK_DISP0_8
        LCALL     ?Subroutine32 & 0xFFFF
??CrossCallReturnLabel_30:
        MOV       DPL,R2
        MOV       DPH,R3
        MOVX      A,@DPTR
        XRL       A,R4
        JNZ       ??ZDSecMgrEntryLookup_2
        INC       DPTR
        MOVX      A,@DPTR
        XRL       A,R5
??ZDSecMgrEntryLookup_2:
        JNZ       ??ZDSecMgrEntryLookup_3
//  481         {
//  482           // return successful results
//  483           *entry = &ZDSecMgrEntries[index];
        MOV       A,R2
        MOV       R0,A
        MOV       A,R3
        LCALL     ??Subroutine49_0 & 0xFFFF
//  484 
//  485           // break from loop
//  486           return ZSuccess;
//  487         }
//  488       }
??CrossCallReturnLabel_62:
        SJMP      ??ZDSecMgrEntryLookup_4
??ZDSecMgrEntryLookup_3:
        INC       R0
        MOV       A,R0
        JNZ       ??ZDSecMgrEntryLookup_5
        INC       R1
??ZDSecMgrEntryLookup_5:
        LCALL     ?Subroutine36 & 0xFFFF
//  489     }
//  490   }
??CrossCallReturnLabel_68:
        JC        ??ZDSecMgrEntryLookup_1
//  491 
//  492   return ZNwkUnknownDevice;
??ZDSecMgrEntryLookup_0:
        MOV       R1,#-0x38
??ZDSecMgrEntryLookup_4:
        LJMP      ?Subroutine0 & 0xFFFF
//  493 }
          CFI EndBlock cfiBlock16

        RSEG BANKED_CODE:HUGECODE:NOROOT(0)
?Subroutine11:
          CFI Block cfiCond17 Using cfiCommon0
          CFI Function ZDSecMgrAddrStore
          CFI Conditional ??CrossCallReturnLabel_59
          CFI R6 load(1, XDATA, add(CFA_XSP16, literal(-9)))
          CFI VB load(1, XDATA, add(CFA_XSP16, literal(-8)))
          CFI V0 load(1, XDATA, add(CFA_XSP16, literal(-7)))
          CFI R7 load(1, XDATA, add(CFA_XSP16, literal(-6)))
          CFI ?RET_LOW load(1, XDATA, add(CFA_XSP16, literal(-5)))
          CFI ?RET_HIGH load(1, XDATA, add(CFA_XSP16, literal(-4)))
          CFI ?BRET_EXT load(1, XDATA, add(CFA_XSP16, literal(-3)))
          CFI DPL0 load(1, XDATA, add(CFA_XSP16, literal(-2)))
          CFI DPH0 load(1, XDATA, add(CFA_XSP16, literal(-1)))
          CFI CFA_SP SP+-2
          CFI CFA_XSP16 add(XSP16, 22)
          CFI Block cfiCond18 Using cfiCommon0
          CFI (cfiCond18) Function ZDSecMgrExtAddrStore
          CFI (cfiCond18) Conditional ??CrossCallReturnLabel_60
          CFI (cfiCond18) R6 load(1, XDATA, add(CFA_XSP16, literal(-9)))
          CFI (cfiCond18) VB load(1, XDATA, add(CFA_XSP16, literal(-8)))
          CFI (cfiCond18) V0 load(1, XDATA, add(CFA_XSP16, literal(-7)))
          CFI (cfiCond18) R7 load(1, XDATA, add(CFA_XSP16, literal(-6)))
          CFI (cfiCond18) ?RET_LOW load(1, XDATA, add(CFA_XSP16, literal(-5)))
          CFI (cfiCond18) ?RET_HIGH load(1, XDATA, add(CFA_XSP16, literal(-4)))
          CFI (cfiCond18) ?BRET_EXT load(1, XDATA, add(CFA_XSP16, literal(-3)))
          CFI (cfiCond18) DPL0 load(1, XDATA, add(CFA_XSP16, literal(-2)))
          CFI (cfiCond18) DPH0 load(1, XDATA, add(CFA_XSP16, literal(-1)))
          CFI (cfiCond18) CFA_SP SP+-2
          CFI (cfiCond18) CFA_XSP16 add(XSP16, 22)
          CFI Block cfiCond19 Using cfiCommon0
          CFI (cfiCond19) Function ZDSecMgrExtAddrLookup
          CFI (cfiCond19) Conditional ??CrossCallReturnLabel_61
          CFI (cfiCond19) R6 load(1, XDATA, add(CFA_XSP16, literal(-9)))
          CFI (cfiCond19) VB load(1, XDATA, add(CFA_XSP16, literal(-8)))
          CFI (cfiCond19) V0 load(1, XDATA, add(CFA_XSP16, literal(-7)))
          CFI (cfiCond19) R7 load(1, XDATA, add(CFA_XSP16, literal(-6)))
          CFI (cfiCond19) ?RET_LOW load(1, XDATA, add(CFA_XSP16, literal(-5)))
          CFI (cfiCond19) ?RET_HIGH load(1, XDATA, add(CFA_XSP16, literal(-4)))
          CFI (cfiCond19) ?BRET_EXT load(1, XDATA, add(CFA_XSP16, literal(-3)))
          CFI (cfiCond19) DPL0 load(1, XDATA, add(CFA_XSP16, literal(-2)))
          CFI (cfiCond19) DPH0 load(1, XDATA, add(CFA_XSP16, literal(-1)))
          CFI (cfiCond19) CFA_SP SP+-2
          CFI (cfiCond19) CFA_XSP16 add(XSP16, 22)
          CFI Block cfiPicker20 Using cfiCommon1
          CFI (cfiPicker20) NoFunction
          CFI (cfiPicker20) Picker
        MOVX      A,@DPTR
        MOV       R0,A
        INC       DPTR
        MOVX      A,@DPTR
          CFI EndBlock cfiCond17
          CFI EndBlock cfiCond18
          CFI EndBlock cfiCond19
          CFI EndBlock cfiPicker20
        REQUIRE ??Subroutine49_0
        ; // Fall through to label ??Subroutine49_0

        RSEG BANKED_CODE:HUGECODE:NOROOT(0)
??Subroutine49_0:
          CFI Block cfiCond21 Using cfiCommon0
          CFI Function ZDSecMgrEntryLookup
          CFI Conditional ??CrossCallReturnLabel_62
          CFI R6 load(1, XDATA, add(CFA_XSP16, literal(-9)))
          CFI VB load(1, XDATA, add(CFA_XSP16, literal(-8)))
          CFI V0 load(1, XDATA, add(CFA_XSP16, literal(-7)))
          CFI R7 load(1, XDATA, add(CFA_XSP16, literal(-6)))
          CFI ?RET_LOW load(1, XDATA, add(CFA_XSP16, literal(-5)))
          CFI ?RET_HIGH load(1, XDATA, add(CFA_XSP16, literal(-4)))
          CFI ?BRET_EXT load(1, XDATA, add(CFA_XSP16, literal(-3)))
          CFI DPL0 load(1, XDATA, add(CFA_XSP16, literal(-2)))
          CFI DPH0 load(1, XDATA, add(CFA_XSP16, literal(-1)))
          CFI CFA_SP SP+-2
          CFI CFA_XSP16 add(XSP16, 22)
          CFI Block cfiCond22 Using cfiCommon0
          CFI (cfiCond22) Function ZDSecMgrAddrStore
          CFI (cfiCond22) Conditional ??CrossCallReturnLabel_59
          CFI (cfiCond22) R6 load(1, XDATA, add(CFA_XSP16, literal(-9)))
          CFI (cfiCond22) VB load(1, XDATA, add(CFA_XSP16, literal(-8)))
          CFI (cfiCond22) V0 load(1, XDATA, add(CFA_XSP16, literal(-7)))
          CFI (cfiCond22) R7 load(1, XDATA, add(CFA_XSP16, literal(-6)))
          CFI (cfiCond22) ?RET_LOW load(1, XDATA, add(CFA_XSP16, literal(-5)))
          CFI (cfiCond22) ?RET_HIGH load(1, XDATA, add(CFA_XSP16, literal(-4)))
          CFI (cfiCond22) ?BRET_EXT load(1, XDATA, add(CFA_XSP16, literal(-3)))
          CFI (cfiCond22) DPL0 load(1, XDATA, add(CFA_XSP16, literal(-2)))
          CFI (cfiCond22) DPH0 load(1, XDATA, add(CFA_XSP16, literal(-1)))
          CFI (cfiCond22) CFA_SP SP+-2
          CFI (cfiCond22) CFA_XSP16 add(XSP16, 22)
          CFI Block cfiCond23 Using cfiCommon0
          CFI (cfiCond23) Function ZDSecMgrExtAddrStore
          CFI (cfiCond23) Conditional ??CrossCallReturnLabel_60
          CFI (cfiCond23) R6 load(1, XDATA, add(CFA_XSP16, literal(-9)))
          CFI (cfiCond23) VB load(1, XDATA, add(CFA_XSP16, literal(-8)))
          CFI (cfiCond23) V0 load(1, XDATA, add(CFA_XSP16, literal(-7)))
          CFI (cfiCond23) R7 load(1, XDATA, add(CFA_XSP16, literal(-6)))
          CFI (cfiCond23) ?RET_LOW load(1, XDATA, add(CFA_XSP16, literal(-5)))
          CFI (cfiCond23) ?RET_HIGH load(1, XDATA, add(CFA_XSP16, literal(-4)))
          CFI (cfiCond23) ?BRET_EXT load(1, XDATA, add(CFA_XSP16, literal(-3)))
          CFI (cfiCond23) DPL0 load(1, XDATA, add(CFA_XSP16, literal(-2)))
          CFI (cfiCond23) DPH0 load(1, XDATA, add(CFA_XSP16, literal(-1)))
          CFI (cfiCond23) CFA_SP SP+-2
          CFI (cfiCond23) CFA_XSP16 add(XSP16, 22)
          CFI Block cfiCond24 Using cfiCommon0
          CFI (cfiCond24) Function ZDSecMgrExtAddrLookup
          CFI (cfiCond24) Conditional ??CrossCallReturnLabel_61
          CFI (cfiCond24) R6 load(1, XDATA, add(CFA_XSP16, literal(-9)))
          CFI (cfiCond24) VB load(1, XDATA, add(CFA_XSP16, literal(-8)))
          CFI (cfiCond24) V0 load(1, XDATA, add(CFA_XSP16, literal(-7)))
          CFI (cfiCond24) R7 load(1, XDATA, add(CFA_XSP16, literal(-6)))
          CFI (cfiCond24) ?RET_LOW load(1, XDATA, add(CFA_XSP16, literal(-5)))
          CFI (cfiCond24) ?RET_HIGH load(1, XDATA, add(CFA_XSP16, literal(-4)))
          CFI (cfiCond24) ?BRET_EXT load(1, XDATA, add(CFA_XSP16, literal(-3)))
          CFI (cfiCond24) DPL0 load(1, XDATA, add(CFA_XSP16, literal(-2)))
          CFI (cfiCond24) DPH0 load(1, XDATA, add(CFA_XSP16, literal(-1)))
          CFI (cfiCond24) CFA_SP SP+-2
          CFI (cfiCond24) CFA_XSP16 add(XSP16, 22)
          CFI Block cfiPicker25 Using cfiCommon1
          CFI (cfiPicker25) NoFunction
          CFI (cfiPicker25) Picker
        MOV       R1,A
        MOV       DPL,R6
        MOV       DPH,R7
          CFI EndBlock cfiCond21
          CFI EndBlock cfiCond22
          CFI EndBlock cfiCond23
          CFI EndBlock cfiCond24
          CFI EndBlock cfiPicker25
        REQUIRE ??Subroutine50_0
        ; // Fall through to label ??Subroutine50_0

        RSEG BANKED_CODE:HUGECODE:NOROOT(0)
??Subroutine50_0:
          CFI Block cfiCond26 Using cfiCommon0
          CFI Function ZDSecMgrEntryLookupAMI
          CFI Conditional ??CrossCallReturnLabel_63
          CFI R6 load(1, XDATA, add(CFA_XSP16, literal(-9)))
          CFI VB load(1, XDATA, add(CFA_XSP16, literal(-8)))
          CFI V0 load(1, XDATA, add(CFA_XSP16, literal(-7)))
          CFI R7 load(1, XDATA, add(CFA_XSP16, literal(-6)))
          CFI ?RET_LOW load(1, XDATA, add(CFA_XSP16, literal(-5)))
          CFI ?RET_HIGH load(1, XDATA, add(CFA_XSP16, literal(-4)))
          CFI ?BRET_EXT load(1, XDATA, add(CFA_XSP16, literal(-3)))
          CFI DPL0 load(1, XDATA, add(CFA_XSP16, literal(-2)))
          CFI DPH0 load(1, XDATA, add(CFA_XSP16, literal(-1)))
          CFI CFA_SP SP+-2
          CFI CFA_XSP16 add(XSP16, 9)
          CFI Block cfiCond27 Using cfiCommon0
          CFI (cfiCond27) Function ZDSecMgrEntryLookupExtGetIndex
          CFI (cfiCond27) Conditional ??CrossCallReturnLabel_64
          CFI (cfiCond27) R6 load(1, XDATA, add(CFA_XSP16, literal(-9)))
          CFI (cfiCond27) VB load(1, XDATA, add(CFA_XSP16, literal(-8)))
          CFI (cfiCond27) V0 load(1, XDATA, add(CFA_XSP16, literal(-7)))
          CFI (cfiCond27) R7 load(1, XDATA, add(CFA_XSP16, literal(-6)))
          CFI (cfiCond27) ?RET_LOW load(1, XDATA, add(CFA_XSP16, literal(-5)))
          CFI (cfiCond27) ?RET_HIGH load(1, XDATA, add(CFA_XSP16, literal(-4)))
          CFI (cfiCond27) ?BRET_EXT load(1, XDATA, add(CFA_XSP16, literal(-3)))
          CFI (cfiCond27) DPL0 load(1, XDATA, add(CFA_XSP16, literal(-2)))
          CFI (cfiCond27) DPH0 load(1, XDATA, add(CFA_XSP16, literal(-1)))
          CFI (cfiCond27) CFA_SP SP+-2
          CFI (cfiCond27) CFA_XSP16 add(XSP16, 11)
          CFI Block cfiCond28 Using cfiCommon0
          CFI (cfiCond28) Function ZDSecMgrEntryLookupAMIGetIndex
          CFI (cfiCond28) Conditional ??CrossCallReturnLabel_65
          CFI (cfiCond28) R6 load(1, XDATA, add(CFA_XSP16, literal(-9)))
          CFI (cfiCond28) VB load(1, XDATA, add(CFA_XSP16, literal(-8)))
          CFI (cfiCond28) V0 load(1, XDATA, add(CFA_XSP16, literal(-7)))
          CFI (cfiCond28) R7 load(1, XDATA, add(CFA_XSP16, literal(-6)))
          CFI (cfiCond28) ?RET_LOW load(1, XDATA, add(CFA_XSP16, literal(-5)))
          CFI (cfiCond28) ?RET_HIGH load(1, XDATA, add(CFA_XSP16, literal(-4)))
          CFI (cfiCond28) ?BRET_EXT load(1, XDATA, add(CFA_XSP16, literal(-3)))
          CFI (cfiCond28) DPL0 load(1, XDATA, add(CFA_XSP16, literal(-2)))
          CFI (cfiCond28) DPH0 load(1, XDATA, add(CFA_XSP16, literal(-1)))
          CFI (cfiCond28) CFA_SP SP+-2
          CFI (cfiCond28) CFA_XSP16 add(XSP16, 9)
          CFI Block cfiCond29 Using cfiCommon0
          CFI (cfiCond29) Function ZDSecMgrEntryLookup
          CFI (cfiCond29) Conditional ??CrossCallReturnLabel_62
          CFI (cfiCond29) R6 load(1, XDATA, add(CFA_XSP16, literal(-9)))
          CFI (cfiCond29) VB load(1, XDATA, add(CFA_XSP16, literal(-8)))
          CFI (cfiCond29) V0 load(1, XDATA, add(CFA_XSP16, literal(-7)))
          CFI (cfiCond29) R7 load(1, XDATA, add(CFA_XSP16, literal(-6)))
          CFI (cfiCond29) ?RET_LOW load(1, XDATA, add(CFA_XSP16, literal(-5)))
          CFI (cfiCond29) ?RET_HIGH load(1, XDATA, add(CFA_XSP16, literal(-4)))
          CFI (cfiCond29) ?BRET_EXT load(1, XDATA, add(CFA_XSP16, literal(-3)))
          CFI (cfiCond29) DPL0 load(1, XDATA, add(CFA_XSP16, literal(-2)))
          CFI (cfiCond29) DPH0 load(1, XDATA, add(CFA_XSP16, literal(-1)))
          CFI (cfiCond29) CFA_SP SP+-2
          CFI (cfiCond29) CFA_XSP16 add(XSP16, 22)
          CFI Block cfiCond30 Using cfiCommon0
          CFI (cfiCond30) Function ZDSecMgrAddrStore
          CFI (cfiCond30) Conditional ??CrossCallReturnLabel_59
          CFI (cfiCond30) R6 load(1, XDATA, add(CFA_XSP16, literal(-9)))
          CFI (cfiCond30) VB load(1, XDATA, add(CFA_XSP16, literal(-8)))
          CFI (cfiCond30) V0 load(1, XDATA, add(CFA_XSP16, literal(-7)))
          CFI (cfiCond30) R7 load(1, XDATA, add(CFA_XSP16, literal(-6)))
          CFI (cfiCond30) ?RET_LOW load(1, XDATA, add(CFA_XSP16, literal(-5)))
          CFI (cfiCond30) ?RET_HIGH load(1, XDATA, add(CFA_XSP16, literal(-4)))
          CFI (cfiCond30) ?BRET_EXT load(1, XDATA, add(CFA_XSP16, literal(-3)))
          CFI (cfiCond30) DPL0 load(1, XDATA, add(CFA_XSP16, literal(-2)))
          CFI (cfiCond30) DPH0 load(1, XDATA, add(CFA_XSP16, literal(-1)))
          CFI (cfiCond30) CFA_SP SP+-2
          CFI (cfiCond30) CFA_XSP16 add(XSP16, 22)
          CFI Block cfiCond31 Using cfiCommon0
          CFI (cfiCond31) Function ZDSecMgrExtAddrStore
          CFI (cfiCond31) Conditional ??CrossCallReturnLabel_60
          CFI (cfiCond31) R6 load(1, XDATA, add(CFA_XSP16, literal(-9)))
          CFI (cfiCond31) VB load(1, XDATA, add(CFA_XSP16, literal(-8)))
          CFI (cfiCond31) V0 load(1, XDATA, add(CFA_XSP16, literal(-7)))
          CFI (cfiCond31) R7 load(1, XDATA, add(CFA_XSP16, literal(-6)))
          CFI (cfiCond31) ?RET_LOW load(1, XDATA, add(CFA_XSP16, literal(-5)))
          CFI (cfiCond31) ?RET_HIGH load(1, XDATA, add(CFA_XSP16, literal(-4)))
          CFI (cfiCond31) ?BRET_EXT load(1, XDATA, add(CFA_XSP16, literal(-3)))
          CFI (cfiCond31) DPL0 load(1, XDATA, add(CFA_XSP16, literal(-2)))
          CFI (cfiCond31) DPH0 load(1, XDATA, add(CFA_XSP16, literal(-1)))
          CFI (cfiCond31) CFA_SP SP+-2
          CFI (cfiCond31) CFA_XSP16 add(XSP16, 22)
          CFI Block cfiCond32 Using cfiCommon0
          CFI (cfiCond32) Function ZDSecMgrExtAddrLookup
          CFI (cfiCond32) Conditional ??CrossCallReturnLabel_61
          CFI (cfiCond32) R6 load(1, XDATA, add(CFA_XSP16, literal(-9)))
          CFI (cfiCond32) VB load(1, XDATA, add(CFA_XSP16, literal(-8)))
          CFI (cfiCond32) V0 load(1, XDATA, add(CFA_XSP16, literal(-7)))
          CFI (cfiCond32) R7 load(1, XDATA, add(CFA_XSP16, literal(-6)))
          CFI (cfiCond32) ?RET_LOW load(1, XDATA, add(CFA_XSP16, literal(-5)))
          CFI (cfiCond32) ?RET_HIGH load(1, XDATA, add(CFA_XSP16, literal(-4)))
          CFI (cfiCond32) ?BRET_EXT load(1, XDATA, add(CFA_XSP16, literal(-3)))
          CFI (cfiCond32) DPL0 load(1, XDATA, add(CFA_XSP16, literal(-2)))
          CFI (cfiCond32) DPH0 load(1, XDATA, add(CFA_XSP16, literal(-1)))
          CFI (cfiCond32) CFA_SP SP+-2
          CFI (cfiCond32) CFA_XSP16 add(XSP16, 22)
          CFI Block cfiPicker33 Using cfiCommon1
          CFI (cfiPicker33) NoFunction
          CFI (cfiPicker33) Picker
        MOV       A,R0
        MOVX      @DPTR,A
        INC       DPTR
        MOV       A,R1
        MOVX      @DPTR,A
        MOV       R1,#0x0
        RET
          CFI EndBlock cfiCond26
          CFI EndBlock cfiCond27
          CFI EndBlock cfiCond28
          CFI EndBlock cfiCond29
          CFI EndBlock cfiCond30
          CFI EndBlock cfiCond31
          CFI EndBlock cfiCond32
          CFI EndBlock cfiPicker33
//  494 
//  495 /******************************************************************************
//  496  * @fn          ZDSecMgrEntryLookupAMI
//  497  *
//  498  * @brief       Lookup entry using specified address index
//  499  *
//  500  * @param       ami   - [in] Address Manager index
//  501  * @param       entry - [out] valid entry
//  502  *
//  503  * @return      ZStatus_t
//  504  */

        RSEG BANKED_CODE:HUGECODE:NOROOT(0)
//  505 ZStatus_t ZDSecMgrEntryLookupAMI( uint16 ami, ZDSecMgrEntry_t** entry )
ZDSecMgrEntryLookupAMI:
          CFI Block cfiBlock34 Using cfiCommon0
          CFI Function ZDSecMgrEntryLookupAMI
        CODE
//  506 {
        REQUIRE ?V0
        MOV       A,#-0x9
        LCALL     ?BANKED_ENTER_XDATA
          CFI DPH0 load(1, XDATA, add(CFA_XSP16, literal(-1)))
          CFI DPL0 load(1, XDATA, add(CFA_XSP16, literal(-2)))
          CFI ?BRET_EXT load(1, XDATA, add(CFA_XSP16, literal(-3)))
          CFI ?RET_HIGH load(1, XDATA, add(CFA_XSP16, literal(-4)))
          CFI ?RET_LOW load(1, XDATA, add(CFA_XSP16, literal(-5)))
          CFI R7 load(1, XDATA, add(CFA_XSP16, literal(-6)))
          CFI V0 load(1, XDATA, add(CFA_XSP16, literal(-7)))
          CFI VB load(1, XDATA, add(CFA_XSP16, literal(-8)))
          CFI R6 load(1, XDATA, add(CFA_XSP16, literal(-9)))
          CFI CFA_SP SP+0
          CFI CFA_XSP16 add(XSP16, 9)
        ; Saved register size: 9
        ; Auto size: 0
//  507   uint16 index;
//  508 
//  509   // initialize results
//  510   *entry = NULL;
        MOV       DPL,R4
        MOV       DPH,R5
        LCALL     ?Subroutine10 & 0xFFFF
//  511 
//  512   // verify data is available
//  513   if ( ZDSecMgrEntries != NULL )
??CrossCallReturnLabel_73:
        JZ        ??ZDSecMgrEntryLookupAMI_0
//  514   {
//  515     for ( index = 0; index < ZDSECMGR_ENTRY_MAX ; index++ )
        MOV       R0,#0x0
        MOV       R1,#0x0
//  516     {
//  517       if ( ZDSecMgrEntries[index].ami == ami )
??ZDSecMgrEntryLookupAMI_1:
        LCALL     ?Subroutine38 & 0xFFFF
??CrossCallReturnLabel_41:
        MOV       R6,A
        INC       DPTR
        MOVX      A,@DPTR
        ADDC      A,R7
        MOV       R7,A
        MOV       DPL,R6
        MOV       DPH,R7
        MOVX      A,@DPTR
        XRL       A,R2
        JNZ       ??ZDSecMgrEntryLookupAMI_2
        INC       DPTR
        MOVX      A,@DPTR
        XRL       A,R3
??ZDSecMgrEntryLookupAMI_2:
        JNZ       ??ZDSecMgrEntryLookupAMI_3
//  518       {
//  519         // return successful results
//  520         *entry = &ZDSecMgrEntries[index];
        MOV       A,R6
        MOV       R0,A
        MOV       A,R7
        MOV       R1,A
        MOV       DPL,R4
        MOV       DPH,R5
        LCALL     ??Subroutine50_0 & 0xFFFF
//  521 
//  522         // break from loop
//  523         return ZSuccess;
//  524       }
//  525     }
??CrossCallReturnLabel_63:
        SJMP      ??ZDSecMgrEntryLookupAMI_4
??ZDSecMgrEntryLookupAMI_3:
        INC       R0
        MOV       A,R0
        JNZ       ??ZDSecMgrEntryLookupAMI_5
        INC       R1
??ZDSecMgrEntryLookupAMI_5:
        LCALL     ?Subroutine36 & 0xFFFF
//  526   }
??CrossCallReturnLabel_69:
        JC        ??ZDSecMgrEntryLookupAMI_1
//  527 
//  528   return ZNwkUnknownDevice;
??ZDSecMgrEntryLookupAMI_0:
        MOV       R1,#-0x38
??ZDSecMgrEntryLookupAMI_4:
        LJMP      ??Subroutine63_0 & 0xFFFF
//  529 }
          CFI EndBlock cfiBlock34

        RSEG BANKED_CODE:HUGECODE:NOROOT(0)
?Subroutine36:
          CFI Block cfiCond35 Using cfiCommon0
          CFI Function ZDSecMgrEntryInit
          CFI Conditional ??CrossCallReturnLabel_67
          CFI DPL0 Frame(CFA_SP, 4)
          CFI DPH0 Frame(CFA_SP, 5)
          CFI CFA_SP SP+-7
          CFI Block cfiCond36 Using cfiCommon0
          CFI (cfiCond36) Function ZDSecMgrEntryLookup
          CFI (cfiCond36) Conditional ??CrossCallReturnLabel_68
          CFI (cfiCond36) R6 load(1, XDATA, add(CFA_XSP16, literal(-9)))
          CFI (cfiCond36) VB load(1, XDATA, add(CFA_XSP16, literal(-8)))
          CFI (cfiCond36) V0 load(1, XDATA, add(CFA_XSP16, literal(-7)))
          CFI (cfiCond36) R7 load(1, XDATA, add(CFA_XSP16, literal(-6)))
          CFI (cfiCond36) ?RET_LOW load(1, XDATA, add(CFA_XSP16, literal(-5)))
          CFI (cfiCond36) ?RET_HIGH load(1, XDATA, add(CFA_XSP16, literal(-4)))
          CFI (cfiCond36) ?BRET_EXT load(1, XDATA, add(CFA_XSP16, literal(-3)))
          CFI (cfiCond36) DPL0 load(1, XDATA, add(CFA_XSP16, literal(-2)))
          CFI (cfiCond36) DPH0 load(1, XDATA, add(CFA_XSP16, literal(-1)))
          CFI (cfiCond36) CFA_SP SP+-2
          CFI (cfiCond36) CFA_XSP16 add(XSP16, 22)
          CFI Block cfiCond37 Using cfiCommon0
          CFI (cfiCond37) Function ZDSecMgrEntryLookupAMI
          CFI (cfiCond37) Conditional ??CrossCallReturnLabel_69
          CFI (cfiCond37) R6 load(1, XDATA, add(CFA_XSP16, literal(-9)))
          CFI (cfiCond37) VB load(1, XDATA, add(CFA_XSP16, literal(-8)))
          CFI (cfiCond37) V0 load(1, XDATA, add(CFA_XSP16, literal(-7)))
          CFI (cfiCond37) R7 load(1, XDATA, add(CFA_XSP16, literal(-6)))
          CFI (cfiCond37) ?RET_LOW load(1, XDATA, add(CFA_XSP16, literal(-5)))
          CFI (cfiCond37) ?RET_HIGH load(1, XDATA, add(CFA_XSP16, literal(-4)))
          CFI (cfiCond37) ?BRET_EXT load(1, XDATA, add(CFA_XSP16, literal(-3)))
          CFI (cfiCond37) DPL0 load(1, XDATA, add(CFA_XSP16, literal(-2)))
          CFI (cfiCond37) DPH0 load(1, XDATA, add(CFA_XSP16, literal(-1)))
          CFI (cfiCond37) CFA_SP SP+-2
          CFI (cfiCond37) CFA_XSP16 add(XSP16, 9)
          CFI Block cfiCond38 Using cfiCommon0
          CFI (cfiCond38) Function ZDSecMgrEntryLookupExtGetIndex
          CFI (cfiCond38) Conditional ??CrossCallReturnLabel_70
          CFI (cfiCond38) R6 load(1, XDATA, add(CFA_XSP16, literal(-9)))
          CFI (cfiCond38) VB load(1, XDATA, add(CFA_XSP16, literal(-8)))
          CFI (cfiCond38) V0 load(1, XDATA, add(CFA_XSP16, literal(-7)))
          CFI (cfiCond38) R7 load(1, XDATA, add(CFA_XSP16, literal(-6)))
          CFI (cfiCond38) ?RET_LOW load(1, XDATA, add(CFA_XSP16, literal(-5)))
          CFI (cfiCond38) ?RET_HIGH load(1, XDATA, add(CFA_XSP16, literal(-4)))
          CFI (cfiCond38) ?BRET_EXT load(1, XDATA, add(CFA_XSP16, literal(-3)))
          CFI (cfiCond38) DPL0 load(1, XDATA, add(CFA_XSP16, literal(-2)))
          CFI (cfiCond38) DPH0 load(1, XDATA, add(CFA_XSP16, literal(-1)))
          CFI (cfiCond38) CFA_SP SP+-2
          CFI (cfiCond38) CFA_XSP16 add(XSP16, 11)
          CFI Block cfiCond39 Using cfiCommon0
          CFI (cfiCond39) Function ZDSecMgrEntryLookupAMIGetIndex
          CFI (cfiCond39) Conditional ??CrossCallReturnLabel_71
          CFI (cfiCond39) R6 load(1, XDATA, add(CFA_XSP16, literal(-9)))
          CFI (cfiCond39) VB load(1, XDATA, add(CFA_XSP16, literal(-8)))
          CFI (cfiCond39) V0 load(1, XDATA, add(CFA_XSP16, literal(-7)))
          CFI (cfiCond39) R7 load(1, XDATA, add(CFA_XSP16, literal(-6)))
          CFI (cfiCond39) ?RET_LOW load(1, XDATA, add(CFA_XSP16, literal(-5)))
          CFI (cfiCond39) ?RET_HIGH load(1, XDATA, add(CFA_XSP16, literal(-4)))
          CFI (cfiCond39) ?BRET_EXT load(1, XDATA, add(CFA_XSP16, literal(-3)))
          CFI (cfiCond39) DPL0 load(1, XDATA, add(CFA_XSP16, literal(-2)))
          CFI (cfiCond39) DPH0 load(1, XDATA, add(CFA_XSP16, literal(-1)))
          CFI (cfiCond39) CFA_SP SP+-2
          CFI (cfiCond39) CFA_XSP16 add(XSP16, 9)
          CFI Block cfiPicker40 Using cfiCommon1
          CFI (cfiPicker40) NoFunction
          CFI (cfiPicker40) Picker
        CLR       C
          CFI EndBlock cfiCond35
          CFI EndBlock cfiCond36
          CFI EndBlock cfiCond37
          CFI EndBlock cfiCond38
          CFI EndBlock cfiCond39
          CFI EndBlock cfiPicker40
        REQUIRE ??Subroutine51_0
        ; // Fall through to label ??Subroutine51_0

        RSEG BANKED_CODE:HUGECODE:NOROOT(0)
??Subroutine51_0:
          CFI Block cfiCond41 Using cfiCommon0
          CFI Function ZDSecMgrReadKeyFromNv
          CFI Conditional ??CrossCallReturnLabel_66
          CFI R6 load(1, XDATA, add(CFA_XSP16, literal(-15)))
          CFI VB load(1, XDATA, add(CFA_XSP16, literal(-14)))
          CFI V0 load(1, XDATA, add(CFA_XSP16, literal(-13)))
          CFI V1 load(1, XDATA, add(CFA_XSP16, literal(-12)))
          CFI V2 load(1, XDATA, add(CFA_XSP16, literal(-11)))
          CFI V3 load(1, XDATA, add(CFA_XSP16, literal(-10)))
          CFI V4 load(1, XDATA, add(CFA_XSP16, literal(-9)))
          CFI V5 load(1, XDATA, add(CFA_XSP16, literal(-8)))
          CFI V6 load(1, XDATA, add(CFA_XSP16, literal(-7)))
          CFI R7 load(1, XDATA, add(CFA_XSP16, literal(-6)))
          CFI ?RET_LOW load(1, XDATA, add(CFA_XSP16, literal(-5)))
          CFI ?RET_HIGH load(1, XDATA, add(CFA_XSP16, literal(-4)))
          CFI ?BRET_EXT load(1, XDATA, add(CFA_XSP16, literal(-3)))
          CFI DPL0 load(1, XDATA, add(CFA_XSP16, literal(-2)))
          CFI DPH0 load(1, XDATA, add(CFA_XSP16, literal(-1)))
          CFI CFA_SP SP+-2
          CFI CFA_XSP16 add(XSP16, 15)
          CFI Block cfiCond42 Using cfiCommon0
          CFI (cfiCond42) Function ZDSecMgrEntryInit
          CFI (cfiCond42) Conditional ??CrossCallReturnLabel_67
          CFI (cfiCond42) DPL0 Frame(CFA_SP, 4)
          CFI (cfiCond42) DPH0 Frame(CFA_SP, 5)
          CFI (cfiCond42) CFA_SP SP+-7
          CFI Block cfiCond43 Using cfiCommon0
          CFI (cfiCond43) Function ZDSecMgrEntryLookup
          CFI (cfiCond43) Conditional ??CrossCallReturnLabel_68
          CFI (cfiCond43) R6 load(1, XDATA, add(CFA_XSP16, literal(-9)))
          CFI (cfiCond43) VB load(1, XDATA, add(CFA_XSP16, literal(-8)))
          CFI (cfiCond43) V0 load(1, XDATA, add(CFA_XSP16, literal(-7)))
          CFI (cfiCond43) R7 load(1, XDATA, add(CFA_XSP16, literal(-6)))
          CFI (cfiCond43) ?RET_LOW load(1, XDATA, add(CFA_XSP16, literal(-5)))
          CFI (cfiCond43) ?RET_HIGH load(1, XDATA, add(CFA_XSP16, literal(-4)))
          CFI (cfiCond43) ?BRET_EXT load(1, XDATA, add(CFA_XSP16, literal(-3)))
          CFI (cfiCond43) DPL0 load(1, XDATA, add(CFA_XSP16, literal(-2)))
          CFI (cfiCond43) DPH0 load(1, XDATA, add(CFA_XSP16, literal(-1)))
          CFI (cfiCond43) CFA_SP SP+-2
          CFI (cfiCond43) CFA_XSP16 add(XSP16, 22)
          CFI Block cfiCond44 Using cfiCommon0
          CFI (cfiCond44) Function ZDSecMgrEntryLookupAMI
          CFI (cfiCond44) Conditional ??CrossCallReturnLabel_69
          CFI (cfiCond44) R6 load(1, XDATA, add(CFA_XSP16, literal(-9)))
          CFI (cfiCond44) VB load(1, XDATA, add(CFA_XSP16, literal(-8)))
          CFI (cfiCond44) V0 load(1, XDATA, add(CFA_XSP16, literal(-7)))
          CFI (cfiCond44) R7 load(1, XDATA, add(CFA_XSP16, literal(-6)))
          CFI (cfiCond44) ?RET_LOW load(1, XDATA, add(CFA_XSP16, literal(-5)))
          CFI (cfiCond44) ?RET_HIGH load(1, XDATA, add(CFA_XSP16, literal(-4)))
          CFI (cfiCond44) ?BRET_EXT load(1, XDATA, add(CFA_XSP16, literal(-3)))
          CFI (cfiCond44) DPL0 load(1, XDATA, add(CFA_XSP16, literal(-2)))
          CFI (cfiCond44) DPH0 load(1, XDATA, add(CFA_XSP16, literal(-1)))
          CFI (cfiCond44) CFA_SP SP+-2
          CFI (cfiCond44) CFA_XSP16 add(XSP16, 9)
          CFI Block cfiCond45 Using cfiCommon0
          CFI (cfiCond45) Function ZDSecMgrEntryLookupExtGetIndex
          CFI (cfiCond45) Conditional ??CrossCallReturnLabel_70
          CFI (cfiCond45) R6 load(1, XDATA, add(CFA_XSP16, literal(-9)))
          CFI (cfiCond45) VB load(1, XDATA, add(CFA_XSP16, literal(-8)))
          CFI (cfiCond45) V0 load(1, XDATA, add(CFA_XSP16, literal(-7)))
          CFI (cfiCond45) R7 load(1, XDATA, add(CFA_XSP16, literal(-6)))
          CFI (cfiCond45) ?RET_LOW load(1, XDATA, add(CFA_XSP16, literal(-5)))
          CFI (cfiCond45) ?RET_HIGH load(1, XDATA, add(CFA_XSP16, literal(-4)))
          CFI (cfiCond45) ?BRET_EXT load(1, XDATA, add(CFA_XSP16, literal(-3)))
          CFI (cfiCond45) DPL0 load(1, XDATA, add(CFA_XSP16, literal(-2)))
          CFI (cfiCond45) DPH0 load(1, XDATA, add(CFA_XSP16, literal(-1)))
          CFI (cfiCond45) CFA_SP SP+-2
          CFI (cfiCond45) CFA_XSP16 add(XSP16, 11)
          CFI Block cfiCond46 Using cfiCommon0
          CFI (cfiCond46) Function ZDSecMgrEntryLookupAMIGetIndex
          CFI (cfiCond46) Conditional ??CrossCallReturnLabel_71
          CFI (cfiCond46) R6 load(1, XDATA, add(CFA_XSP16, literal(-9)))
          CFI (cfiCond46) VB load(1, XDATA, add(CFA_XSP16, literal(-8)))
          CFI (cfiCond46) V0 load(1, XDATA, add(CFA_XSP16, literal(-7)))
          CFI (cfiCond46) R7 load(1, XDATA, add(CFA_XSP16, literal(-6)))
          CFI (cfiCond46) ?RET_LOW load(1, XDATA, add(CFA_XSP16, literal(-5)))
          CFI (cfiCond46) ?RET_HIGH load(1, XDATA, add(CFA_XSP16, literal(-4)))
          CFI (cfiCond46) ?BRET_EXT load(1, XDATA, add(CFA_XSP16, literal(-3)))
          CFI (cfiCond46) DPL0 load(1, XDATA, add(CFA_XSP16, literal(-2)))
          CFI (cfiCond46) DPH0 load(1, XDATA, add(CFA_XSP16, literal(-1)))
          CFI (cfiCond46) CFA_SP SP+-2
          CFI (cfiCond46) CFA_XSP16 add(XSP16, 9)
          CFI Block cfiPicker47 Using cfiCommon1
          CFI (cfiPicker47) NoFunction
          CFI (cfiPicker47) Picker
        SUBB      A,#0x3
        MOV       A,R1
        SUBB      A,#0x0
        RET
          CFI EndBlock cfiCond41
          CFI EndBlock cfiCond42
          CFI EndBlock cfiCond43
          CFI EndBlock cfiCond44
          CFI EndBlock cfiCond45
          CFI EndBlock cfiCond46
          CFI EndBlock cfiPicker47

        RSEG BANKED_CODE:HUGECODE:NOROOT(0)
?Subroutine10:
          CFI Block cfiCond48 Using cfiCommon0
          CFI Function ZDSecMgrEntryLookup
          CFI Conditional ??CrossCallReturnLabel_72
          CFI R6 load(1, XDATA, add(CFA_XSP16, literal(-9)))
          CFI VB load(1, XDATA, add(CFA_XSP16, literal(-8)))
          CFI V0 load(1, XDATA, add(CFA_XSP16, literal(-7)))
          CFI R7 load(1, XDATA, add(CFA_XSP16, literal(-6)))
          CFI ?RET_LOW load(1, XDATA, add(CFA_XSP16, literal(-5)))
          CFI ?RET_HIGH load(1, XDATA, add(CFA_XSP16, literal(-4)))
          CFI ?BRET_EXT load(1, XDATA, add(CFA_XSP16, literal(-3)))
          CFI DPL0 load(1, XDATA, add(CFA_XSP16, literal(-2)))
          CFI DPH0 load(1, XDATA, add(CFA_XSP16, literal(-1)))
          CFI CFA_SP SP+-2
          CFI CFA_XSP16 add(XSP16, 22)
          CFI Block cfiCond49 Using cfiCommon0
          CFI (cfiCond49) Function ZDSecMgrEntryLookupAMI
          CFI (cfiCond49) Conditional ??CrossCallReturnLabel_73
          CFI (cfiCond49) R6 load(1, XDATA, add(CFA_XSP16, literal(-9)))
          CFI (cfiCond49) VB load(1, XDATA, add(CFA_XSP16, literal(-8)))
          CFI (cfiCond49) V0 load(1, XDATA, add(CFA_XSP16, literal(-7)))
          CFI (cfiCond49) R7 load(1, XDATA, add(CFA_XSP16, literal(-6)))
          CFI (cfiCond49) ?RET_LOW load(1, XDATA, add(CFA_XSP16, literal(-5)))
          CFI (cfiCond49) ?RET_HIGH load(1, XDATA, add(CFA_XSP16, literal(-4)))
          CFI (cfiCond49) ?BRET_EXT load(1, XDATA, add(CFA_XSP16, literal(-3)))
          CFI (cfiCond49) DPL0 load(1, XDATA, add(CFA_XSP16, literal(-2)))
          CFI (cfiCond49) DPH0 load(1, XDATA, add(CFA_XSP16, literal(-1)))
          CFI (cfiCond49) CFA_SP SP+-2
          CFI (cfiCond49) CFA_XSP16 add(XSP16, 9)
          CFI Block cfiCond50 Using cfiCommon0
          CFI (cfiCond50) Function ZDSecMgrEntryNew
          CFI (cfiCond50) Conditional ??CrossCallReturnLabel_74
          CFI (cfiCond50) R6 load(1, XDATA, add(CFA_XSP16, literal(-9)))
          CFI (cfiCond50) VB load(1, XDATA, add(CFA_XSP16, literal(-8)))
          CFI (cfiCond50) V0 load(1, XDATA, add(CFA_XSP16, literal(-7)))
          CFI (cfiCond50) R7 load(1, XDATA, add(CFA_XSP16, literal(-6)))
          CFI (cfiCond50) ?RET_LOW load(1, XDATA, add(CFA_XSP16, literal(-5)))
          CFI (cfiCond50) ?RET_HIGH load(1, XDATA, add(CFA_XSP16, literal(-4)))
          CFI (cfiCond50) ?BRET_EXT load(1, XDATA, add(CFA_XSP16, literal(-3)))
          CFI (cfiCond50) DPL0 load(1, XDATA, add(CFA_XSP16, literal(-2)))
          CFI (cfiCond50) DPH0 load(1, XDATA, add(CFA_XSP16, literal(-1)))
          CFI (cfiCond50) CFA_SP SP+-2
          CFI (cfiCond50) CFA_XSP16 add(XSP16, 9)
          CFI Block cfiPicker51 Using cfiCommon1
          CFI (cfiPicker51) NoFunction
          CFI (cfiPicker51) Picker
        CLR       A
        MOVX      @DPTR,A
        INC       DPTR
          CFI EndBlock cfiCond48
          CFI EndBlock cfiCond49
          CFI EndBlock cfiCond50
          CFI EndBlock cfiPicker51
        REQUIRE ??Subroutine52_0
        ; // Fall through to label ??Subroutine52_0

        RSEG BANKED_CODE:HUGECODE:NOROOT(0)
??Subroutine52_0:
          CFI Block cfiCond52 Using cfiCommon0
          CFI Function ZDSecMgrEntryInit
          CFI Conditional ??CrossCallReturnLabel_75
          CFI DPL0 Frame(CFA_SP, 4)
          CFI DPH0 Frame(CFA_SP, 5)
          CFI CFA_SP SP+-7
          CFI Block cfiCond53 Using cfiCommon0
          CFI (cfiCond53) Function ZDSecMgrEntryLookup
          CFI (cfiCond53) Conditional ??CrossCallReturnLabel_72
          CFI (cfiCond53) R6 load(1, XDATA, add(CFA_XSP16, literal(-9)))
          CFI (cfiCond53) VB load(1, XDATA, add(CFA_XSP16, literal(-8)))
          CFI (cfiCond53) V0 load(1, XDATA, add(CFA_XSP16, literal(-7)))
          CFI (cfiCond53) R7 load(1, XDATA, add(CFA_XSP16, literal(-6)))
          CFI (cfiCond53) ?RET_LOW load(1, XDATA, add(CFA_XSP16, literal(-5)))
          CFI (cfiCond53) ?RET_HIGH load(1, XDATA, add(CFA_XSP16, literal(-4)))
          CFI (cfiCond53) ?BRET_EXT load(1, XDATA, add(CFA_XSP16, literal(-3)))
          CFI (cfiCond53) DPL0 load(1, XDATA, add(CFA_XSP16, literal(-2)))
          CFI (cfiCond53) DPH0 load(1, XDATA, add(CFA_XSP16, literal(-1)))
          CFI (cfiCond53) CFA_SP SP+-2
          CFI (cfiCond53) CFA_XSP16 add(XSP16, 22)
          CFI Block cfiCond54 Using cfiCommon0
          CFI (cfiCond54) Function ZDSecMgrEntryLookupAMI
          CFI (cfiCond54) Conditional ??CrossCallReturnLabel_73
          CFI (cfiCond54) R6 load(1, XDATA, add(CFA_XSP16, literal(-9)))
          CFI (cfiCond54) VB load(1, XDATA, add(CFA_XSP16, literal(-8)))
          CFI (cfiCond54) V0 load(1, XDATA, add(CFA_XSP16, literal(-7)))
          CFI (cfiCond54) R7 load(1, XDATA, add(CFA_XSP16, literal(-6)))
          CFI (cfiCond54) ?RET_LOW load(1, XDATA, add(CFA_XSP16, literal(-5)))
          CFI (cfiCond54) ?RET_HIGH load(1, XDATA, add(CFA_XSP16, literal(-4)))
          CFI (cfiCond54) ?BRET_EXT load(1, XDATA, add(CFA_XSP16, literal(-3)))
          CFI (cfiCond54) DPL0 load(1, XDATA, add(CFA_XSP16, literal(-2)))
          CFI (cfiCond54) DPH0 load(1, XDATA, add(CFA_XSP16, literal(-1)))
          CFI (cfiCond54) CFA_SP SP+-2
          CFI (cfiCond54) CFA_XSP16 add(XSP16, 9)
          CFI Block cfiCond55 Using cfiCommon0
          CFI (cfiCond55) Function ZDSecMgrEntryNew
          CFI (cfiCond55) Conditional ??CrossCallReturnLabel_74
          CFI (cfiCond55) R6 load(1, XDATA, add(CFA_XSP16, literal(-9)))
          CFI (cfiCond55) VB load(1, XDATA, add(CFA_XSP16, literal(-8)))
          CFI (cfiCond55) V0 load(1, XDATA, add(CFA_XSP16, literal(-7)))
          CFI (cfiCond55) R7 load(1, XDATA, add(CFA_XSP16, literal(-6)))
          CFI (cfiCond55) ?RET_LOW load(1, XDATA, add(CFA_XSP16, literal(-5)))
          CFI (cfiCond55) ?RET_HIGH load(1, XDATA, add(CFA_XSP16, literal(-4)))
          CFI (cfiCond55) ?BRET_EXT load(1, XDATA, add(CFA_XSP16, literal(-3)))
          CFI (cfiCond55) DPL0 load(1, XDATA, add(CFA_XSP16, literal(-2)))
          CFI (cfiCond55) DPH0 load(1, XDATA, add(CFA_XSP16, literal(-1)))
          CFI (cfiCond55) CFA_SP SP+-2
          CFI (cfiCond55) CFA_XSP16 add(XSP16, 9)
          CFI Block cfiPicker56 Using cfiCommon1
          CFI (cfiPicker56) NoFunction
          CFI (cfiPicker56) Picker
        MOVX      @DPTR,A
        MOV       DPTR,#ZDSecMgrEntries
        LCALL     ?Subroutine45 & 0xFFFF
??CrossCallReturnLabel_158:
        ORL       A,R1
        RET
          CFI EndBlock cfiCond52
          CFI EndBlock cfiCond53
          CFI EndBlock cfiCond54
          CFI EndBlock cfiCond55
          CFI EndBlock cfiPicker56

        RSEG BANKED_CODE:HUGECODE:NOROOT(0)
?Subroutine45:
          CFI Block cfiCond57 Using cfiCommon0
          CFI Function ZDSecMgrAddrStore
          CFI Conditional ??CrossCallReturnLabel_157, ??CrossCallReturnLabel_23
          CFI R6 load(1, XDATA, add(CFA_XSP16, literal(-9)))
          CFI VB load(1, XDATA, add(CFA_XSP16, literal(-8)))
          CFI V0 load(1, XDATA, add(CFA_XSP16, literal(-7)))
          CFI R7 load(1, XDATA, add(CFA_XSP16, literal(-6)))
          CFI ?RET_LOW load(1, XDATA, add(CFA_XSP16, literal(-5)))
          CFI ?RET_HIGH load(1, XDATA, add(CFA_XSP16, literal(-4)))
          CFI ?BRET_EXT load(1, XDATA, add(CFA_XSP16, literal(-3)))
          CFI DPL0 load(1, XDATA, add(CFA_XSP16, literal(-2)))
          CFI DPH0 load(1, XDATA, add(CFA_XSP16, literal(-1)))
          CFI CFA_SP SP+-4
          CFI CFA_XSP16 add(XSP16, 22)
          CFI Block cfiCond58 Using cfiCommon0
          CFI (cfiCond58) Function ZDSecMgrExtAddrStore
          CFI (cfiCond58) Conditional ??CrossCallReturnLabel_157, ??CrossCallReturnLabel_24
          CFI (cfiCond58) R6 load(1, XDATA, add(CFA_XSP16, literal(-9)))
          CFI (cfiCond58) VB load(1, XDATA, add(CFA_XSP16, literal(-8)))
          CFI (cfiCond58) V0 load(1, XDATA, add(CFA_XSP16, literal(-7)))
          CFI (cfiCond58) R7 load(1, XDATA, add(CFA_XSP16, literal(-6)))
          CFI (cfiCond58) ?RET_LOW load(1, XDATA, add(CFA_XSP16, literal(-5)))
          CFI (cfiCond58) ?RET_HIGH load(1, XDATA, add(CFA_XSP16, literal(-4)))
          CFI (cfiCond58) ?BRET_EXT load(1, XDATA, add(CFA_XSP16, literal(-3)))
          CFI (cfiCond58) DPL0 load(1, XDATA, add(CFA_XSP16, literal(-2)))
          CFI (cfiCond58) DPH0 load(1, XDATA, add(CFA_XSP16, literal(-1)))
          CFI (cfiCond58) CFA_SP SP+-4
          CFI (cfiCond58) CFA_XSP16 add(XSP16, 22)
          CFI Block cfiCond59 Using cfiCommon0
          CFI (cfiCond59) Function ZDSecMgrEntryLookup
          CFI (cfiCond59) Conditional ??CrossCallReturnLabel_158, ??CrossCallReturnLabel_72
          CFI (cfiCond59) R6 load(1, XDATA, add(CFA_XSP16, literal(-9)))
          CFI (cfiCond59) VB load(1, XDATA, add(CFA_XSP16, literal(-8)))
          CFI (cfiCond59) V0 load(1, XDATA, add(CFA_XSP16, literal(-7)))
          CFI (cfiCond59) R7 load(1, XDATA, add(CFA_XSP16, literal(-6)))
          CFI (cfiCond59) ?RET_LOW load(1, XDATA, add(CFA_XSP16, literal(-5)))
          CFI (cfiCond59) ?RET_HIGH load(1, XDATA, add(CFA_XSP16, literal(-4)))
          CFI (cfiCond59) ?BRET_EXT load(1, XDATA, add(CFA_XSP16, literal(-3)))
          CFI (cfiCond59) DPL0 load(1, XDATA, add(CFA_XSP16, literal(-2)))
          CFI (cfiCond59) DPH0 load(1, XDATA, add(CFA_XSP16, literal(-1)))
          CFI (cfiCond59) CFA_SP SP+-4
          CFI (cfiCond59) CFA_XSP16 add(XSP16, 22)
          CFI Block cfiCond60 Using cfiCommon0
          CFI (cfiCond60) Function ZDSecMgrEntryLookupAMI
          CFI (cfiCond60) Conditional ??CrossCallReturnLabel_158, ??CrossCallReturnLabel_73
          CFI (cfiCond60) R6 load(1, XDATA, add(CFA_XSP16, literal(-9)))
          CFI (cfiCond60) VB load(1, XDATA, add(CFA_XSP16, literal(-8)))
          CFI (cfiCond60) V0 load(1, XDATA, add(CFA_XSP16, literal(-7)))
          CFI (cfiCond60) R7 load(1, XDATA, add(CFA_XSP16, literal(-6)))
          CFI (cfiCond60) ?RET_LOW load(1, XDATA, add(CFA_XSP16, literal(-5)))
          CFI (cfiCond60) ?RET_HIGH load(1, XDATA, add(CFA_XSP16, literal(-4)))
          CFI (cfiCond60) ?BRET_EXT load(1, XDATA, add(CFA_XSP16, literal(-3)))
          CFI (cfiCond60) DPL0 load(1, XDATA, add(CFA_XSP16, literal(-2)))
          CFI (cfiCond60) DPH0 load(1, XDATA, add(CFA_XSP16, literal(-1)))
          CFI (cfiCond60) CFA_SP SP+-4
          CFI (cfiCond60) CFA_XSP16 add(XSP16, 9)
          CFI Block cfiCond61 Using cfiCommon0
          CFI (cfiCond61) Function ZDSecMgrEntryNew
          CFI (cfiCond61) Conditional ??CrossCallReturnLabel_158, ??CrossCallReturnLabel_74
          CFI (cfiCond61) R6 load(1, XDATA, add(CFA_XSP16, literal(-9)))
          CFI (cfiCond61) VB load(1, XDATA, add(CFA_XSP16, literal(-8)))
          CFI (cfiCond61) V0 load(1, XDATA, add(CFA_XSP16, literal(-7)))
          CFI (cfiCond61) R7 load(1, XDATA, add(CFA_XSP16, literal(-6)))
          CFI (cfiCond61) ?RET_LOW load(1, XDATA, add(CFA_XSP16, literal(-5)))
          CFI (cfiCond61) ?RET_HIGH load(1, XDATA, add(CFA_XSP16, literal(-4)))
          CFI (cfiCond61) ?BRET_EXT load(1, XDATA, add(CFA_XSP16, literal(-3)))
          CFI (cfiCond61) DPL0 load(1, XDATA, add(CFA_XSP16, literal(-2)))
          CFI (cfiCond61) DPH0 load(1, XDATA, add(CFA_XSP16, literal(-1)))
          CFI (cfiCond61) CFA_SP SP+-4
          CFI (cfiCond61) CFA_XSP16 add(XSP16, 9)
          CFI Block cfiCond62 Using cfiCommon0
          CFI (cfiCond62) Function ZDSecMgrEntryInit
          CFI (cfiCond62) Conditional ??CrossCallReturnLabel_158, ??CrossCallReturnLabel_75
          CFI (cfiCond62) DPL0 Frame(CFA_SP, 4)
          CFI (cfiCond62) DPH0 Frame(CFA_SP, 5)
          CFI (cfiCond62) CFA_SP SP+-9
          CFI Block cfiCond63 Using cfiCommon0
          CFI (cfiCond63) Function ZDSecMgrEntryInit
          CFI (cfiCond63) Conditional ??CrossCallReturnLabel_159, ??CrossCallReturnLabel_154
          CFI (cfiCond63) DPL0 Frame(CFA_SP, 4)
          CFI (cfiCond63) DPH0 Frame(CFA_SP, 5)
          CFI (cfiCond63) CFA_SP SP+-9
          CFI Block cfiCond64 Using cfiCommon0
          CFI (cfiCond64) Function ZDSecMgrEntryLookupExtGetIndex
          CFI (cfiCond64) Conditional ??CrossCallReturnLabel_159, ??CrossCallReturnLabel_155
          CFI (cfiCond64) R6 load(1, XDATA, add(CFA_XSP16, literal(-9)))
          CFI (cfiCond64) VB load(1, XDATA, add(CFA_XSP16, literal(-8)))
          CFI (cfiCond64) V0 load(1, XDATA, add(CFA_XSP16, literal(-7)))
          CFI (cfiCond64) R7 load(1, XDATA, add(CFA_XSP16, literal(-6)))
          CFI (cfiCond64) ?RET_LOW load(1, XDATA, add(CFA_XSP16, literal(-5)))
          CFI (cfiCond64) ?RET_HIGH load(1, XDATA, add(CFA_XSP16, literal(-4)))
          CFI (cfiCond64) ?BRET_EXT load(1, XDATA, add(CFA_XSP16, literal(-3)))
          CFI (cfiCond64) DPL0 load(1, XDATA, add(CFA_XSP16, literal(-2)))
          CFI (cfiCond64) DPH0 load(1, XDATA, add(CFA_XSP16, literal(-1)))
          CFI (cfiCond64) CFA_SP SP+-4
          CFI (cfiCond64) CFA_XSP16 add(XSP16, 11)
          CFI Block cfiCond65 Using cfiCommon0
          CFI (cfiCond65) Function ZDSecMgrEntryLookupAMIGetIndex
          CFI (cfiCond65) Conditional ??CrossCallReturnLabel_159, ??CrossCallReturnLabel_156
          CFI (cfiCond65) R6 load(1, XDATA, add(CFA_XSP16, literal(-9)))
          CFI (cfiCond65) VB load(1, XDATA, add(CFA_XSP16, literal(-8)))
          CFI (cfiCond65) V0 load(1, XDATA, add(CFA_XSP16, literal(-7)))
          CFI (cfiCond65) R7 load(1, XDATA, add(CFA_XSP16, literal(-6)))
          CFI (cfiCond65) ?RET_LOW load(1, XDATA, add(CFA_XSP16, literal(-5)))
          CFI (cfiCond65) ?RET_HIGH load(1, XDATA, add(CFA_XSP16, literal(-4)))
          CFI (cfiCond65) ?BRET_EXT load(1, XDATA, add(CFA_XSP16, literal(-3)))
          CFI (cfiCond65) DPL0 load(1, XDATA, add(CFA_XSP16, literal(-2)))
          CFI (cfiCond65) DPH0 load(1, XDATA, add(CFA_XSP16, literal(-1)))
          CFI (cfiCond65) CFA_SP SP+-4
          CFI (cfiCond65) CFA_XSP16 add(XSP16, 9)
          CFI Block cfiCond66 Using cfiCommon0
          CFI (cfiCond66) Function ZDSecMgrDeviceJoin
          CFI (cfiCond66) Conditional ??CrossCallReturnLabel_159, ??CrossCallReturnLabel_149
          CFI (cfiCond66) R6 load(1, XDATA, add(CFA_XSP16, literal(-16)))
          CFI (cfiCond66) VB load(1, XDATA, add(CFA_XSP16, literal(-15)))
          CFI (cfiCond66) V0 load(1, XDATA, add(CFA_XSP16, literal(-14)))
          CFI (cfiCond66) V1 load(1, XDATA, add(CFA_XSP16, literal(-13)))
          CFI (cfiCond66) V2 load(1, XDATA, add(CFA_XSP16, literal(-12)))
          CFI (cfiCond66) V3 load(1, XDATA, add(CFA_XSP16, literal(-11)))
          CFI (cfiCond66) V4 load(1, XDATA, add(CFA_XSP16, literal(-10)))
          CFI (cfiCond66) V5 load(1, XDATA, add(CFA_XSP16, literal(-9)))
          CFI (cfiCond66) V6 load(1, XDATA, add(CFA_XSP16, literal(-8)))
          CFI (cfiCond66) V7 load(1, XDATA, add(CFA_XSP16, literal(-7)))
          CFI (cfiCond66) R7 load(1, XDATA, add(CFA_XSP16, literal(-6)))
          CFI (cfiCond66) ?RET_LOW load(1, XDATA, add(CFA_XSP16, literal(-5)))
          CFI (cfiCond66) ?RET_HIGH load(1, XDATA, add(CFA_XSP16, literal(-4)))
          CFI (cfiCond66) ?BRET_EXT load(1, XDATA, add(CFA_XSP16, literal(-3)))
          CFI (cfiCond66) DPL0 load(1, XDATA, add(CFA_XSP16, literal(-2)))
          CFI (cfiCond66) DPH0 load(1, XDATA, add(CFA_XSP16, literal(-1)))
          CFI (cfiCond66) CFA_SP SP+-4
          CFI (cfiCond66) CFA_XSP16 add(XSP16, 30)
          CFI Block cfiCond67 Using cfiCommon0
          CFI (cfiCond67) Function ZDSecMgrRemoveDeviceInd
          CFI (cfiCond67) Conditional ??CrossCallReturnLabel_159, ??CrossCallReturnLabel_150
          CFI (cfiCond67) R6 load(1, XDATA, add(CFA_XSP16, literal(-9)))
          CFI (cfiCond67) VB load(1, XDATA, add(CFA_XSP16, literal(-8)))
          CFI (cfiCond67) V0 load(1, XDATA, add(CFA_XSP16, literal(-7)))
          CFI (cfiCond67) R7 load(1, XDATA, add(CFA_XSP16, literal(-6)))
          CFI (cfiCond67) ?RET_LOW load(1, XDATA, add(CFA_XSP16, literal(-5)))
          CFI (cfiCond67) ?RET_HIGH load(1, XDATA, add(CFA_XSP16, literal(-4)))
          CFI (cfiCond67) ?BRET_EXT load(1, XDATA, add(CFA_XSP16, literal(-3)))
          CFI (cfiCond67) DPL0 load(1, XDATA, add(CFA_XSP16, literal(-2)))
          CFI (cfiCond67) DPH0 load(1, XDATA, add(CFA_XSP16, literal(-1)))
          CFI (cfiCond67) CFA_SP SP+-4
          CFI (cfiCond67) CFA_XSP16 add(XSP16, 17)
          CFI Block cfiCond68 Using cfiCommon0
          CFI (cfiCond68) Function APSME_IsLinkKeyValid
          CFI (cfiCond68) Conditional ??CrossCallReturnLabel_159, ??CrossCallReturnLabel_151
          CFI (cfiCond68) R6 load(1, XDATA, add(CFA_XSP16, literal(-15)))
          CFI (cfiCond68) VB load(1, XDATA, add(CFA_XSP16, literal(-14)))
          CFI (cfiCond68) V0 load(1, XDATA, add(CFA_XSP16, literal(-13)))
          CFI (cfiCond68) V1 load(1, XDATA, add(CFA_XSP16, literal(-12)))
          CFI (cfiCond68) V2 load(1, XDATA, add(CFA_XSP16, literal(-11)))
          CFI (cfiCond68) V3 load(1, XDATA, add(CFA_XSP16, literal(-10)))
          CFI (cfiCond68) V4 load(1, XDATA, add(CFA_XSP16, literal(-9)))
          CFI (cfiCond68) V5 load(1, XDATA, add(CFA_XSP16, literal(-8)))
          CFI (cfiCond68) V6 load(1, XDATA, add(CFA_XSP16, literal(-7)))
          CFI (cfiCond68) R7 load(1, XDATA, add(CFA_XSP16, literal(-6)))
          CFI (cfiCond68) ?RET_LOW load(1, XDATA, add(CFA_XSP16, literal(-5)))
          CFI (cfiCond68) ?RET_HIGH load(1, XDATA, add(CFA_XSP16, literal(-4)))
          CFI (cfiCond68) ?BRET_EXT load(1, XDATA, add(CFA_XSP16, literal(-3)))
          CFI (cfiCond68) DPL0 load(1, XDATA, add(CFA_XSP16, literal(-2)))
          CFI (cfiCond68) DPH0 load(1, XDATA, add(CFA_XSP16, literal(-1)))
          CFI (cfiCond68) CFA_SP SP+-4
          CFI (cfiCond68) CFA_XSP16 add(XSP16, 33)
          CFI Block cfiCond69 Using cfiCommon0
          CFI (cfiCond69) Function APSME_KeyFwdToChild
          CFI (cfiCond69) Conditional ??CrossCallReturnLabel_159, ??CrossCallReturnLabel_152
          CFI (cfiCond69) R6 load(1, XDATA, add(CFA_XSP16, literal(-10)))
          CFI (cfiCond69) VB load(1, XDATA, add(CFA_XSP16, literal(-9)))
          CFI (cfiCond69) V0 load(1, XDATA, add(CFA_XSP16, literal(-8)))
          CFI (cfiCond69) V1 load(1, XDATA, add(CFA_XSP16, literal(-7)))
          CFI (cfiCond69) R7 load(1, XDATA, add(CFA_XSP16, literal(-6)))
          CFI (cfiCond69) ?RET_LOW load(1, XDATA, add(CFA_XSP16, literal(-5)))
          CFI (cfiCond69) ?RET_HIGH load(1, XDATA, add(CFA_XSP16, literal(-4)))
          CFI (cfiCond69) ?BRET_EXT load(1, XDATA, add(CFA_XSP16, literal(-3)))
          CFI (cfiCond69) DPL0 load(1, XDATA, add(CFA_XSP16, literal(-2)))
          CFI (cfiCond69) DPH0 load(1, XDATA, add(CFA_XSP16, literal(-1)))
          CFI (cfiCond69) CFA_SP SP+-4
          CFI (cfiCond69) CFA_XSP16 add(XSP16, 10)
          CFI Block cfiCond70 Using cfiCommon0
          CFI (cfiCond70) Function ZDSecMgrAddLinkKey
          CFI (cfiCond70) Conditional ??CrossCallReturnLabel_159, ??CrossCallReturnLabel_153
          CFI (cfiCond70) R6 load(1, XDATA, add(CFA_XSP16, literal(-10)))
          CFI (cfiCond70) VB load(1, XDATA, add(CFA_XSP16, literal(-9)))
          CFI (cfiCond70) V0 load(1, XDATA, add(CFA_XSP16, literal(-8)))
          CFI (cfiCond70) V1 load(1, XDATA, add(CFA_XSP16, literal(-7)))
          CFI (cfiCond70) R7 load(1, XDATA, add(CFA_XSP16, literal(-6)))
          CFI (cfiCond70) ?RET_LOW load(1, XDATA, add(CFA_XSP16, literal(-5)))
          CFI (cfiCond70) ?RET_HIGH load(1, XDATA, add(CFA_XSP16, literal(-4)))
          CFI (cfiCond70) ?BRET_EXT load(1, XDATA, add(CFA_XSP16, literal(-3)))
          CFI (cfiCond70) DPL0 load(1, XDATA, add(CFA_XSP16, literal(-2)))
          CFI (cfiCond70) DPH0 load(1, XDATA, add(CFA_XSP16, literal(-1)))
          CFI (cfiCond70) CFA_SP SP+-4
          CFI (cfiCond70) CFA_XSP16 add(XSP16, 14)
          CFI Block cfiPicker71 Using cfiCommon1
          CFI (cfiPicker71) NoFunction
          CFI (cfiPicker71) Picker
        MOVX      A,@DPTR
        MOV       R0,A
        INC       DPTR
        MOVX      A,@DPTR
        MOV       R1,A
        MOV       A,R0
        RET
          CFI EndBlock cfiCond57
          CFI EndBlock cfiCond58
          CFI EndBlock cfiCond59
          CFI EndBlock cfiCond60
          CFI EndBlock cfiCond61
          CFI EndBlock cfiCond62
          CFI EndBlock cfiCond63
          CFI EndBlock cfiCond64
          CFI EndBlock cfiCond65
          CFI EndBlock cfiCond66
          CFI EndBlock cfiCond67
          CFI EndBlock cfiCond68
          CFI EndBlock cfiCond69
          CFI EndBlock cfiCond70
          CFI EndBlock cfiPicker71
//  530 
//  531 /******************************************************************************
//  532  * @fn          ZDSecMgrEntryLookupExt
//  533  *
//  534  * @brief       Lookup entry index using specified EXT address.
//  535  *
//  536  * @param       extAddr - [in] EXT address
//  537  * @param       entry   - [out] valid entry
//  538  *
//  539  * @return      ZStatus_t
//  540  */

        RSEG BANKED_CODE:HUGECODE:NOROOT(0)
//  541 ZStatus_t ZDSecMgrEntryLookupExt( uint8* extAddr, ZDSecMgrEntry_t** entry )
ZDSecMgrEntryLookupExt:
          CFI Block cfiBlock72 Using cfiCommon0
          CFI Function ZDSecMgrEntryLookupExt
        CODE
//  542 {
        FUNCALL ZDSecMgrEntryLookupExt, ZDSecMgrExtAddrLookup
        LOCFRAME ISTACK, 0, STACK
        LOCFRAME PSTACK, 0, STACK
        LOCFRAME XSTACK, 11, STACK
        LOCFRAME IOVERLAY, 0, STATIC
        LOCFRAME DOVERLAY, 0, STATIC
        ARGFRAME ISTACK, 0, STACK
        ARGFRAME PSTACK, 0, STACK
        ARGFRAME XSTACK, 11, STACK
        ARGFRAME IOVERLAY, 0, STATIC
        ARGFRAME DOVERLAY, 0, STATIC
        FUNCALL ZDSecMgrEntryLookupExt, ZDSecMgrEntryLookupAMI
        LOCFRAME ISTACK, 0, STACK
        LOCFRAME PSTACK, 0, STACK
        LOCFRAME XSTACK, 11, STACK
        LOCFRAME IOVERLAY, 0, STATIC
        LOCFRAME DOVERLAY, 0, STATIC
        ARGFRAME ISTACK, 0, STACK
        ARGFRAME PSTACK, 0, STACK
        ARGFRAME XSTACK, 11, STACK
        ARGFRAME IOVERLAY, 0, STATIC
        ARGFRAME DOVERLAY, 0, STATIC
        REQUIRE ?V0
        MOV       A,#-0x9
        LCALL     ?BANKED_ENTER_XDATA
          CFI DPH0 load(1, XDATA, add(CFA_XSP16, literal(-1)))
          CFI DPL0 load(1, XDATA, add(CFA_XSP16, literal(-2)))
          CFI ?BRET_EXT load(1, XDATA, add(CFA_XSP16, literal(-3)))
          CFI ?RET_HIGH load(1, XDATA, add(CFA_XSP16, literal(-4)))
          CFI ?RET_LOW load(1, XDATA, add(CFA_XSP16, literal(-5)))
          CFI R7 load(1, XDATA, add(CFA_XSP16, literal(-6)))
          CFI V0 load(1, XDATA, add(CFA_XSP16, literal(-7)))
          CFI VB load(1, XDATA, add(CFA_XSP16, literal(-8)))
          CFI R6 load(1, XDATA, add(CFA_XSP16, literal(-9)))
          CFI CFA_SP SP+0
          CFI CFA_XSP16 add(XSP16, 9)
        ; Saved register size: 9
        ; Auto size: 2
        MOV       A,#-0x2
        LCALL     ?ALLOC_XSTACK8
          CFI CFA_XSP16 add(XSP16, 11)
        MOV       A,R4
        MOV       R6,A
        MOV       A,R5
        MOV       R7,A
//  543   ZStatus_t status;
//  544   uint16    ami;
//  545 
//  546   // initialize results
//  547   *entry = NULL;
        MOV       DPL,R6
        MOV       DPH,R7
        CLR       A
        MOVX      @DPTR,A
        INC       DPTR
        MOVX      @DPTR,A
//  548   status = ZNwkUnknownDevice;
        MOV       ?V0,#-0x38
//  549 
//  550   // lookup address index
//  551   if ( ZDSecMgrExtAddrLookup( extAddr, &ami ) == ZSuccess )
        ; Setup parameters for call to function ZDSecMgrExtAddrLookup
        MOV       R4,?XSP + 0
        MOV       R5,?XSP + 1
        LCALL     `??ZDSecMgrExtAddrLookup::?relay`; Banked call to: ZDSecMgrExtAddrLookup
        MOV       A,R1
        JNZ       ??ZDSecMgrEntryLookupExt_0
//  552   {
//  553     status = ZDSecMgrEntryLookupAMI( ami, entry );
        ; Setup parameters for call to function ZDSecMgrEntryLookupAMI
        MOV       A,R6
        MOV       R4,A
        MOV       A,R7
        MOV       R5,A
        MOV       DPL,?XSP + 0
        MOV       DPH,?XSP + 1
        LCALL     ??Subroutine57_0 & 0xFFFF
//  554   }
??CrossCallReturnLabel_79:
        LCALL     `??ZDSecMgrEntryLookupAMI::?relay`; Banked call to: ZDSecMgrEntryLookupAMI
        MOV       A,R1
        MOV       ?V0,A
//  555 
//  556   return status;
??ZDSecMgrEntryLookupExt_0:
        MOV       R1,?V0
        LJMP      ?Subroutine7 & 0xFFFF
//  557 }
          CFI EndBlock cfiBlock72
//  558 
//  559 /******************************************************************************
//  560  * @fn          ZDSecMgrEntryLookupExtGetIndex
//  561  *
//  562  * @brief       Lookup entry index using specified EXT address.
//  563  *
//  564  * @param       extAddr - [in] EXT address
//  565  * @param       entryIndex - [out] valid index to the entry table
//  566  *
//  567  * @return      ZStatus_t
//  568  */

        RSEG BANKED_CODE:HUGECODE:NOROOT(0)
//  569 ZStatus_t ZDSecMgrEntryLookupExtGetIndex( uint8* extAddr, ZDSecMgrEntry_t** entry, uint16* entryIndex )
ZDSecMgrEntryLookupExtGetIndex:
          CFI Block cfiBlock73 Using cfiCommon0
          CFI Function ZDSecMgrEntryLookupExtGetIndex
        CODE
//  570 {
        FUNCALL ZDSecMgrEntryLookupExtGetIndex, ZDSecMgrExtAddrLookup
        LOCFRAME ISTACK, 0, STACK
        LOCFRAME PSTACK, 0, STACK
        LOCFRAME XSTACK, 11, STACK
        LOCFRAME IOVERLAY, 0, STATIC
        LOCFRAME DOVERLAY, 0, STATIC
        ARGFRAME ISTACK, 0, STACK
        ARGFRAME PSTACK, 0, STACK
        ARGFRAME XSTACK, 11, STACK
        ARGFRAME IOVERLAY, 0, STATIC
        ARGFRAME DOVERLAY, 0, STATIC
        MOV       A,#-0x9
        LCALL     ?BANKED_ENTER_XDATA
          CFI DPH0 load(1, XDATA, add(CFA_XSP16, literal(-1)))
          CFI DPL0 load(1, XDATA, add(CFA_XSP16, literal(-2)))
          CFI ?BRET_EXT load(1, XDATA, add(CFA_XSP16, literal(-3)))
          CFI ?RET_HIGH load(1, XDATA, add(CFA_XSP16, literal(-4)))
          CFI ?RET_LOW load(1, XDATA, add(CFA_XSP16, literal(-5)))
          CFI R7 load(1, XDATA, add(CFA_XSP16, literal(-6)))
          CFI V0 load(1, XDATA, add(CFA_XSP16, literal(-7)))
          CFI VB load(1, XDATA, add(CFA_XSP16, literal(-8)))
          CFI R6 load(1, XDATA, add(CFA_XSP16, literal(-9)))
          CFI CFA_SP SP+0
          CFI CFA_XSP16 add(XSP16, 9)
        ; Saved register size: 9
        ; Auto size: 2
        MOV       A,#-0x2
        LCALL     ?ALLOC_XSTACK8
          CFI CFA_XSP16 add(XSP16, 11)
        MOV       A,R4
        MOV       R6,A
        MOV       A,R5
        MOV       R7,A
//  571   uint16 ami;
//  572   uint16 index;
//  573 
//  574   // lookup address index
//  575   if ( ZDSecMgrExtAddrLookup( extAddr, &ami ) == ZSuccess )
        ; Setup parameters for call to function ZDSecMgrExtAddrLookup
        MOV       R4,?XSP + 0
        MOV       R5,?XSP + 1
        LCALL     `??ZDSecMgrExtAddrLookup::?relay`; Banked call to: ZDSecMgrExtAddrLookup
        MOV       A,R1
        JNZ       ??ZDSecMgrEntryLookupExtGetIndex_0
//  576   {
//  577     // verify data is available
//  578     if ( ZDSecMgrEntries != NULL )
        LCALL     ?Subroutine26 & 0xFFFF
??CrossCallReturnLabel_155:
        JZ        ??ZDSecMgrEntryLookupExtGetIndex_0
//  579     {
//  580       for ( index = 0; index < ZDSECMGR_ENTRY_MAX ; index++ )
        MOV       R0,#0x0
        MOV       R1,#0x0
//  581       {
//  582         if ( ZDSecMgrEntries[index].ami == ami )
??ZDSecMgrEntryLookupExtGetIndex_1:
        LCALL     ?Subroutine31 & 0xFFFF
??CrossCallReturnLabel_29:
        LCALL     ?Subroutine32 & 0xFFFF
??CrossCallReturnLabel_31:
        MOV       DPL,?XSP + 0
        MOV       DPH,?XSP + 1
        MOVX      A,@DPTR
        XRL       A,R4
        JNZ       ??ZDSecMgrEntryLookupExtGetIndex_2
        INC       DPTR
        MOVX      A,@DPTR
        XRL       A,R5
??ZDSecMgrEntryLookupExtGetIndex_2:
        JNZ       ??ZDSecMgrEntryLookupExtGetIndex_3
//  583         {
//  584           // return successful results
//  585           *entry = &ZDSecMgrEntries[index];
        MOV       DPL,R6
        MOV       DPH,R7
        MOV       A,R2
        MOVX      @DPTR,A
        INC       DPTR
        MOV       A,R3
        MOVX      @DPTR,A
//  586           *entryIndex = index;
        MOV       A,#0xb
        LCALL     ?XSTACK_DISP0_8
        LCALL     ??Subroutine69_0 & 0xFFFF
//  587 
//  588           // break from loop
//  589           return ZSuccess;
//  590         }
//  591       }
??CrossCallReturnLabel_146:
        LCALL     ??Subroutine50_0 & 0xFFFF
??CrossCallReturnLabel_64:
        SJMP      ??ZDSecMgrEntryLookupExtGetIndex_4
??ZDSecMgrEntryLookupExtGetIndex_3:
        INC       R0
        MOV       A,R0
        JNZ       ??ZDSecMgrEntryLookupExtGetIndex_5
        INC       R1
??ZDSecMgrEntryLookupExtGetIndex_5:
        LCALL     ?Subroutine36 & 0xFFFF
//  592     }
//  593   }
??CrossCallReturnLabel_70:
        JC        ??ZDSecMgrEntryLookupExtGetIndex_1
//  594 
//  595   return ZNwkUnknownDevice;
??ZDSecMgrEntryLookupExtGetIndex_0:
        MOV       R1,#-0x38
??ZDSecMgrEntryLookupExtGetIndex_4:
        LJMP      ?Subroutine7 & 0xFFFF
//  596 }
          CFI EndBlock cfiBlock73

        RSEG BANKED_CODE:HUGECODE:NOROOT(0)
?Subroutine31:
          CFI Block cfiCond74 Using cfiCommon0
          CFI Function ZDSecMgrEntryInit
          CFI Conditional ??CrossCallReturnLabel_28
          CFI DPL0 Frame(CFA_SP, 4)
          CFI DPH0 Frame(CFA_SP, 5)
          CFI CFA_SP SP+-7
          CFI Block cfiCond75 Using cfiCommon0
          CFI (cfiCond75) Function ZDSecMgrEntryLookupExtGetIndex
          CFI (cfiCond75) Conditional ??CrossCallReturnLabel_29
          CFI (cfiCond75) R6 load(1, XDATA, add(CFA_XSP16, literal(-9)))
          CFI (cfiCond75) VB load(1, XDATA, add(CFA_XSP16, literal(-8)))
          CFI (cfiCond75) V0 load(1, XDATA, add(CFA_XSP16, literal(-7)))
          CFI (cfiCond75) R7 load(1, XDATA, add(CFA_XSP16, literal(-6)))
          CFI (cfiCond75) ?RET_LOW load(1, XDATA, add(CFA_XSP16, literal(-5)))
          CFI (cfiCond75) ?RET_HIGH load(1, XDATA, add(CFA_XSP16, literal(-4)))
          CFI (cfiCond75) ?BRET_EXT load(1, XDATA, add(CFA_XSP16, literal(-3)))
          CFI (cfiCond75) DPL0 load(1, XDATA, add(CFA_XSP16, literal(-2)))
          CFI (cfiCond75) DPH0 load(1, XDATA, add(CFA_XSP16, literal(-1)))
          CFI (cfiCond75) CFA_SP SP+-2
          CFI (cfiCond75) CFA_XSP16 add(XSP16, 11)
          CFI Block cfiPicker76 Using cfiCommon1
          CFI (cfiPicker76) NoFunction
          CFI (cfiPicker76) Picker
        LCALL     ?Subroutine48 & 0xFFFF
??CrossCallReturnLabel_58:
        MOV       DPL,R2
        MOV       DPH,R3
        RET
          CFI EndBlock cfiCond74
          CFI EndBlock cfiCond75
          CFI EndBlock cfiPicker76

        RSEG BANKED_CODE:HUGECODE:NOROOT(0)
?Subroutine48:
          CFI Block cfiCond77 Using cfiCommon0
          CFI Function ZDSecMgrEntryLookup
          CFI Conditional ??CrossCallReturnLabel_57
          CFI R6 load(1, XDATA, add(CFA_XSP16, literal(-9)))
          CFI VB load(1, XDATA, add(CFA_XSP16, literal(-8)))
          CFI V0 load(1, XDATA, add(CFA_XSP16, literal(-7)))
          CFI R7 load(1, XDATA, add(CFA_XSP16, literal(-6)))
          CFI ?RET_LOW load(1, XDATA, add(CFA_XSP16, literal(-5)))
          CFI ?RET_HIGH load(1, XDATA, add(CFA_XSP16, literal(-4)))
          CFI ?BRET_EXT load(1, XDATA, add(CFA_XSP16, literal(-3)))
          CFI DPL0 load(1, XDATA, add(CFA_XSP16, literal(-2)))
          CFI DPH0 load(1, XDATA, add(CFA_XSP16, literal(-1)))
          CFI CFA_SP SP+-2
          CFI CFA_XSP16 add(XSP16, 22)
          CFI Block cfiCond78 Using cfiCommon0
          CFI (cfiCond78) Function ZDSecMgrEntryInit
          CFI (cfiCond78) Conditional ??CrossCallReturnLabel_58, ??CrossCallReturnLabel_28
          CFI (cfiCond78) DPL0 Frame(CFA_SP, 4)
          CFI (cfiCond78) DPH0 Frame(CFA_SP, 5)
          CFI (cfiCond78) CFA_SP SP+-9
          CFI Block cfiCond79 Using cfiCommon0
          CFI (cfiCond79) Function ZDSecMgrEntryLookupExtGetIndex
          CFI (cfiCond79) Conditional ??CrossCallReturnLabel_58, ??CrossCallReturnLabel_29
          CFI (cfiCond79) R6 load(1, XDATA, add(CFA_XSP16, literal(-9)))
          CFI (cfiCond79) VB load(1, XDATA, add(CFA_XSP16, literal(-8)))
          CFI (cfiCond79) V0 load(1, XDATA, add(CFA_XSP16, literal(-7)))
          CFI (cfiCond79) R7 load(1, XDATA, add(CFA_XSP16, literal(-6)))
          CFI (cfiCond79) ?RET_LOW load(1, XDATA, add(CFA_XSP16, literal(-5)))
          CFI (cfiCond79) ?RET_HIGH load(1, XDATA, add(CFA_XSP16, literal(-4)))
          CFI (cfiCond79) ?BRET_EXT load(1, XDATA, add(CFA_XSP16, literal(-3)))
          CFI (cfiCond79) DPL0 load(1, XDATA, add(CFA_XSP16, literal(-2)))
          CFI (cfiCond79) DPH0 load(1, XDATA, add(CFA_XSP16, literal(-1)))
          CFI (cfiCond79) CFA_SP SP+-4
          CFI (cfiCond79) CFA_XSP16 add(XSP16, 11)
          CFI Block cfiPicker80 Using cfiCommon1
          CFI (cfiPicker80) NoFunction
          CFI (cfiPicker80) Picker
        MOV       A,R0
        MOV       R2,A
        MOV       A,R1
        MOV       R3,A
        MOV       A,R2
        MOV       B,#0x5
        MUL       AB
        MOV       R2,A
        MOV       R4,B
        MOV       B,#0x5
        MOV       A,R3
        MUL       AB
        ADD       A,R4
        MOV       R3,A
        MOV       DPTR,#ZDSecMgrEntries
        MOVX      A,@DPTR
        ADD       A,R2
        MOV       R2,A
        INC       DPTR
        MOVX      A,@DPTR
        ADDC      A,R3
        MOV       R3,A
        RET
          CFI EndBlock cfiCond77
          CFI EndBlock cfiCond78
          CFI EndBlock cfiCond79
          CFI EndBlock cfiPicker80
//  597 
//  598 /******************************************************************************
//  599  * @fn          ZDSecMgrEntryLookupAMIGetIndex
//  600  *
//  601  * @brief       Lookup entry using specified address index
//  602  *
//  603  * @param       ami   - [in] Address Manager index
//  604  * @param       entryIndex - [out] valid index to the entry table
//  605  *
//  606  * @return      ZStatus_t
//  607  */

        RSEG BANKED_CODE:HUGECODE:NOROOT(0)
//  608 ZStatus_t ZDSecMgrEntryLookupAMIGetIndex( uint16 ami, uint16* entryIndex )
ZDSecMgrEntryLookupAMIGetIndex:
          CFI Block cfiBlock81 Using cfiCommon0
          CFI Function ZDSecMgrEntryLookupAMIGetIndex
        CODE
//  609 {
        REQUIRE ?V0
        MOV       A,#-0x9
        LCALL     ?BANKED_ENTER_XDATA
          CFI DPH0 load(1, XDATA, add(CFA_XSP16, literal(-1)))
          CFI DPL0 load(1, XDATA, add(CFA_XSP16, literal(-2)))
          CFI ?BRET_EXT load(1, XDATA, add(CFA_XSP16, literal(-3)))
          CFI ?RET_HIGH load(1, XDATA, add(CFA_XSP16, literal(-4)))
          CFI ?RET_LOW load(1, XDATA, add(CFA_XSP16, literal(-5)))
          CFI R7 load(1, XDATA, add(CFA_XSP16, literal(-6)))
          CFI V0 load(1, XDATA, add(CFA_XSP16, literal(-7)))
          CFI VB load(1, XDATA, add(CFA_XSP16, literal(-8)))
          CFI R6 load(1, XDATA, add(CFA_XSP16, literal(-9)))
          CFI CFA_SP SP+0
          CFI CFA_XSP16 add(XSP16, 9)
        ; Saved register size: 9
        ; Auto size: 0
//  610   uint16 index;
//  611 
//  612   // verify data is available
//  613   if ( ZDSecMgrEntries != NULL )
        LCALL     ?Subroutine26 & 0xFFFF
??CrossCallReturnLabel_156:
        JZ        ??ZDSecMgrEntryLookupAMIGetIndex_0
//  614   {
//  615     for ( index = 0; index < ZDSECMGR_ENTRY_MAX ; index++ )
        MOV       R0,#0x0
        MOV       R1,#0x0
//  616     {
//  617       if ( ZDSecMgrEntries[index].ami == ami )
??ZDSecMgrEntryLookupAMIGetIndex_1:
        LCALL     ?Subroutine38 & 0xFFFF
??CrossCallReturnLabel_42:
        MOV       ?V0,A
        INC       DPTR
        MOVX      A,@DPTR
        ADDC      A,R7
        MOV       DPL,?V0
        MOV       DPH,A
        MOVX      A,@DPTR
        XRL       A,R2
        JNZ       ??ZDSecMgrEntryLookupAMIGetIndex_2
        INC       DPTR
        MOVX      A,@DPTR
        XRL       A,R3
??ZDSecMgrEntryLookupAMIGetIndex_2:
        JNZ       ??ZDSecMgrEntryLookupAMIGetIndex_3
//  618       {
//  619         // return successful results
//  620         *entryIndex = index;
        MOV       DPL,R4
        MOV       DPH,R5
        LCALL     ??Subroutine50_0 & 0xFFFF
//  621 
//  622         // break from loop
//  623         return ZSuccess;
//  624       }
//  625     }
??CrossCallReturnLabel_65:
        SJMP      ??ZDSecMgrEntryLookupAMIGetIndex_4
??ZDSecMgrEntryLookupAMIGetIndex_3:
        INC       R0
        MOV       A,R0
        JNZ       ??ZDSecMgrEntryLookupAMIGetIndex_5
        INC       R1
??ZDSecMgrEntryLookupAMIGetIndex_5:
        LCALL     ?Subroutine36 & 0xFFFF
//  626   }
??CrossCallReturnLabel_71:
        JC        ??ZDSecMgrEntryLookupAMIGetIndex_1
//  627 
//  628   return ZNwkUnknownDevice;
??ZDSecMgrEntryLookupAMIGetIndex_0:
        MOV       R1,#-0x38
??ZDSecMgrEntryLookupAMIGetIndex_4:
        LJMP      ??Subroutine63_0 & 0xFFFF
//  629 }
          CFI EndBlock cfiBlock81

        RSEG BANKED_CODE:HUGECODE:NOROOT(0)
?Subroutine38:
          CFI Block cfiCond82 Using cfiCommon0
          CFI Function ZDSecMgrEntryLookupAMI
          CFI Conditional ??CrossCallReturnLabel_41
          CFI R6 load(1, XDATA, add(CFA_XSP16, literal(-9)))
          CFI VB load(1, XDATA, add(CFA_XSP16, literal(-8)))
          CFI V0 load(1, XDATA, add(CFA_XSP16, literal(-7)))
          CFI R7 load(1, XDATA, add(CFA_XSP16, literal(-6)))
          CFI ?RET_LOW load(1, XDATA, add(CFA_XSP16, literal(-5)))
          CFI ?RET_HIGH load(1, XDATA, add(CFA_XSP16, literal(-4)))
          CFI ?BRET_EXT load(1, XDATA, add(CFA_XSP16, literal(-3)))
          CFI DPL0 load(1, XDATA, add(CFA_XSP16, literal(-2)))
          CFI DPH0 load(1, XDATA, add(CFA_XSP16, literal(-1)))
          CFI CFA_SP SP+-2
          CFI CFA_XSP16 add(XSP16, 9)
          CFI Block cfiCond83 Using cfiCommon0
          CFI (cfiCond83) Function ZDSecMgrEntryLookupAMIGetIndex
          CFI (cfiCond83) Conditional ??CrossCallReturnLabel_42
          CFI (cfiCond83) R6 load(1, XDATA, add(CFA_XSP16, literal(-9)))
          CFI (cfiCond83) VB load(1, XDATA, add(CFA_XSP16, literal(-8)))
          CFI (cfiCond83) V0 load(1, XDATA, add(CFA_XSP16, literal(-7)))
          CFI (cfiCond83) R7 load(1, XDATA, add(CFA_XSP16, literal(-6)))
          CFI (cfiCond83) ?RET_LOW load(1, XDATA, add(CFA_XSP16, literal(-5)))
          CFI (cfiCond83) ?RET_HIGH load(1, XDATA, add(CFA_XSP16, literal(-4)))
          CFI (cfiCond83) ?BRET_EXT load(1, XDATA, add(CFA_XSP16, literal(-3)))
          CFI (cfiCond83) DPL0 load(1, XDATA, add(CFA_XSP16, literal(-2)))
          CFI (cfiCond83) DPH0 load(1, XDATA, add(CFA_XSP16, literal(-1)))
          CFI (cfiCond83) CFA_SP SP+-2
          CFI (cfiCond83) CFA_XSP16 add(XSP16, 9)
          CFI Block cfiPicker84 Using cfiCommon1
          CFI (cfiPicker84) NoFunction
          CFI (cfiPicker84) Picker
        MOV       A,R0
        MOV       R6,A
        MOV       A,R1
        MOV       R7,A
        MOV       A,R6
        MOV       B,#0x5
        MUL       AB
        MOV       R6,A
        MOV       ?V0,B
        MOV       B,#0x5
        MOV       A,R7
        MUL       AB
        ADD       A,?V0
        MOV       R7,A
        MOV       DPTR,#ZDSecMgrEntries
        MOVX      A,@DPTR
        ADD       A,R6
        RET
          CFI EndBlock cfiCond82
          CFI EndBlock cfiCond83
          CFI EndBlock cfiPicker84
//  630 
//  631 /******************************************************************************
//  632  * @fn          ZDSecMgrEntryFree
//  633  *
//  634  * @brief       Free entry.
//  635  *
//  636  * @param       entry - [in] valid entry
//  637  *
//  638  * @return      ZStatus_t
//  639  */

        RSEG BANKED_CODE:HUGECODE:NOROOT(0)
//  640 void ZDSecMgrEntryFree( ZDSecMgrEntry_t* entry )
ZDSecMgrEntryFree:
          CFI Block cfiBlock85 Using cfiCommon0
          CFI Function ZDSecMgrEntryFree
        CODE
//  641 {
        FUNCALL ZDSecMgrEntryFree, osal_mem_alloc
        LOCFRAME ISTACK, 0, STACK
        LOCFRAME PSTACK, 0, STACK
        LOCFRAME XSTACK, 14, STACK
        LOCFRAME IOVERLAY, 0, STATIC
        LOCFRAME DOVERLAY, 0, STATIC
        ARGFRAME ISTACK, 0, STACK
        ARGFRAME PSTACK, 0, STACK
        ARGFRAME XSTACK, 14, STACK
        ARGFRAME IOVERLAY, 0, STATIC
        ARGFRAME DOVERLAY, 0, STATIC
        FUNCALL ZDSecMgrEntryFree, osal_memset
        LOCFRAME ISTACK, 0, STACK
        LOCFRAME PSTACK, 0, STACK
        LOCFRAME XSTACK, 14, STACK
        LOCFRAME IOVERLAY, 0, STATIC
        LOCFRAME DOVERLAY, 0, STATIC
        ARGFRAME ISTACK, 0, STACK
        ARGFRAME PSTACK, 0, STACK
        ARGFRAME XSTACK, 14, STACK
        ARGFRAME IOVERLAY, 0, STATIC
        ARGFRAME DOVERLAY, 0, STATIC
        FUNCALL ZDSecMgrEntryFree, osal_nv_write
        LOCFRAME ISTACK, 0, STACK
        LOCFRAME PSTACK, 0, STACK
        LOCFRAME XSTACK, 18, STACK
        LOCFRAME IOVERLAY, 0, STATIC
        LOCFRAME DOVERLAY, 0, STATIC
        ARGFRAME ISTACK, 0, STACK
        ARGFRAME PSTACK, 0, STACK
        ARGFRAME XSTACK, 18, STACK
        ARGFRAME IOVERLAY, 0, STATIC
        ARGFRAME DOVERLAY, 0, STATIC
        FUNCALL ZDSecMgrEntryFree, osal_mem_free
        LOCFRAME ISTACK, 0, STACK
        LOCFRAME PSTACK, 0, STACK
        LOCFRAME XSTACK, 14, STACK
        LOCFRAME IOVERLAY, 0, STATIC
        LOCFRAME DOVERLAY, 0, STATIC
        ARGFRAME ISTACK, 0, STACK
        ARGFRAME PSTACK, 0, STACK
        ARGFRAME XSTACK, 14, STACK
        ARGFRAME IOVERLAY, 0, STATIC
        ARGFRAME DOVERLAY, 0, STATIC
        REQUIRE ?V0
        REQUIRE ?V1
        REQUIRE ?V2
        REQUIRE ?V3
        REQUIRE ?V4
        REQUIRE ?V5
        MOV       A,#-0xe
        LCALL     ?BANKED_ENTER_XDATA
          CFI DPH0 load(1, XDATA, add(CFA_XSP16, literal(-1)))
          CFI DPL0 load(1, XDATA, add(CFA_XSP16, literal(-2)))
          CFI ?BRET_EXT load(1, XDATA, add(CFA_XSP16, literal(-3)))
          CFI ?RET_HIGH load(1, XDATA, add(CFA_XSP16, literal(-4)))
          CFI ?RET_LOW load(1, XDATA, add(CFA_XSP16, literal(-5)))
          CFI R7 load(1, XDATA, add(CFA_XSP16, literal(-6)))
          CFI V5 load(1, XDATA, add(CFA_XSP16, literal(-7)))
          CFI V4 load(1, XDATA, add(CFA_XSP16, literal(-8)))
          CFI V3 load(1, XDATA, add(CFA_XSP16, literal(-9)))
          CFI V2 load(1, XDATA, add(CFA_XSP16, literal(-10)))
          CFI V1 load(1, XDATA, add(CFA_XSP16, literal(-11)))
          CFI V0 load(1, XDATA, add(CFA_XSP16, literal(-12)))
          CFI VB load(1, XDATA, add(CFA_XSP16, literal(-13)))
          CFI R6 load(1, XDATA, add(CFA_XSP16, literal(-14)))
          CFI CFA_SP SP+0
          CFI CFA_XSP16 add(XSP16, 14)
        ; Saved register size: 14
        ; Auto size: 0
        MOV       A,R2
        MOV       R6,A
        MOV       A,R3
        MOV       R7,A
//  642   APSME_LinkKeyData_t   *pApsLinkKey = NULL;
//  643 
//  644 #if defined ( NV_RESTORE )
//  645   ZStatus_t status;
//  646   uint16 entryIndex;
//  647 
//  648   status = ZDSecMgrEntryLookupAMIGetIndex( entry->ami, &entryIndex );
//  649 #endif
//  650 
//  651   pApsLinkKey = (APSME_LinkKeyData_t *)osal_mem_alloc(sizeof(APSME_LinkKeyData_t));
        ; Setup parameters for call to function osal_mem_alloc
        MOV       R2,#0x18
        MOV       R3,#0x0
        LCALL     `??osal_mem_alloc::?relay`; Banked call to: osal_mem_alloc
        MOV       ?V2,R2
        MOV       ?V3,R3
//  652 
//  653   if (pApsLinkKey != NULL)
        MOV       A,R2
        ORL       A,?V3
        JZ        ??ZDSecMgrEntryFree_0
//  654   {
//  655     osal_memset( pApsLinkKey, 0x00, sizeof(APSME_LinkKeyData_t) );
        ; Setup parameters for call to function osal_memset
        MOV       R4,#0x18
        MOV       R5,#0x0
        MOV       R1,#0x0
        LCALL     `??osal_memset::?relay`; Banked call to: osal_memset
//  656 
//  657     // Clear the APS Link key in NV
//  658     osal_nv_write( entry->keyNvId, 0,
//  659                         sizeof(APSME_LinkKeyData_t), pApsLinkKey);
        MOV       A,R6
        ADD       A,#0x2
        MOV       R0,A
        CLR       A
        ADDC      A,R7
        MOV       R1,A
        MOV       ?V0,R0
        MOV       ?V1,R1
        ; Setup parameters for call to function osal_nv_write
        MOV       R0,#?V2
        LCALL     ?PUSH_XSTACK_I_TWO
          CFI CFA_XSP16 add(XSP16, 16)
        MOV       ?V4,#0x18
        MOV       ?V5,#0x0
        MOV       R0,#?V4
        LCALL     ?PUSH_XSTACK_I_TWO
          CFI CFA_XSP16 add(XSP16, 18)
        MOV       R4,#0x0
        MOV       R5,#0x0
        MOV       DPL,?V0
        MOV       DPH,R1
        LCALL     ??Subroutine57_0 & 0xFFFF
??CrossCallReturnLabel_80:
        LCALL     `??osal_nv_write::?relay`; Banked call to: osal_nv_write
        MOV       A,#0x4
        LCALL     ?DEALLOC_XSTACK8
          CFI CFA_XSP16 add(XSP16, 14)
//  660 
//  661     // set entry to invalid Key
//  662     entry->keyNvId = SEC_NO_KEY_NV_ID;
        MOV       DPL,?V0
        MOV       DPH,?V1
        CLR       A
        MOVX      @DPTR,A
        INC       DPTR
        MOVX      @DPTR,A
//  663 
//  664     osal_mem_free(pApsLinkKey);
        ; Setup parameters for call to function osal_mem_free
        MOV       R2,?V2
        MOV       R3,?V3
        LCALL     `??osal_mem_free::?relay`; Banked call to: osal_mem_free
//  665   }
//  666 
//  667   // marking the entry as INVALID_NODE_ADDR
//  668   entry->ami = INVALID_NODE_ADDR;
??ZDSecMgrEntryFree_0:
        MOV       DPL,R6
        MOV       DPH,R7
        MOV       A,#-0x2
        MOVX      @DPTR,A
        INC       DPTR
        INC       A
        LCALL     ?Subroutine44 & 0xFFFF
//  669 
//  670   // set to default value
//  671   entry->authenticateOption = ZDSecMgr_Not_Authenticated;
??CrossCallReturnLabel_53:
        INC       DPTR
        INC       DPTR
        INC       DPTR
        INC       DPTR
        CLR       A
        MOVX      @DPTR,A
//  672 
//  673 #if defined ( NV_RESTORE )
//  674   if ( status == ZSuccess )
//  675   {
//  676     ZDSecMgrUpdateNV(entryIndex);
//  677   }
//  678 #endif
//  679 }
          CFI EndBlock cfiBlock85
        REQUIRE ?Subroutine2
        ; // Fall through to label ?Subroutine2

        RSEG BANKED_CODE:HUGECODE:NOROOT(0)
?Subroutine2:
          CFI Block cfiBlock86 Using cfiCommon0
          CFI NoFunction
          CFI CFA_SP SP+0
          CFI CFA_XSP16 add(XSP16, 14)
          CFI VB load(1, XDATA, add(CFA_XSP16, literal(-13)))
          CFI DPL0 load(1, XDATA, add(CFA_XSP16, literal(-2)))
          CFI DPH0 load(1, XDATA, add(CFA_XSP16, literal(-1)))
          CFI R6 load(1, XDATA, add(CFA_XSP16, literal(-14)))
          CFI R7 load(1, XDATA, add(CFA_XSP16, literal(-6)))
          CFI V0 load(1, XDATA, add(CFA_XSP16, literal(-12)))
          CFI V1 load(1, XDATA, add(CFA_XSP16, literal(-11)))
          CFI V2 load(1, XDATA, add(CFA_XSP16, literal(-10)))
          CFI V3 load(1, XDATA, add(CFA_XSP16, literal(-9)))
          CFI V4 load(1, XDATA, add(CFA_XSP16, literal(-8)))
          CFI V5 load(1, XDATA, add(CFA_XSP16, literal(-7)))
          CFI ?BRET_EXT load(1, XDATA, add(CFA_XSP16, literal(-3)))
          CFI ?RET_HIGH load(1, XDATA, add(CFA_XSP16, literal(-4)))
          CFI ?RET_LOW load(1, XDATA, add(CFA_XSP16, literal(-5)))
        MOV       R7,#0x6
        LJMP      ?BANKED_LEAVE_XDATA
          CFI EndBlock cfiBlock86
//  680 
//  681 /******************************************************************************
//  682  * @fn          ZDSecMgrEntryNew
//  683  *
//  684  * @brief       Get a new entry.
//  685  *
//  686  * @param       entry - [out] valid entry
//  687  *
//  688  * @return      ZStatus_t
//  689  */

        RSEG BANKED_CODE:HUGECODE:NOROOT(0)
//  690 ZStatus_t ZDSecMgrEntryNew( ZDSecMgrEntry_t** entry )
ZDSecMgrEntryNew:
          CFI Block cfiBlock87 Using cfiCommon0
          CFI Function ZDSecMgrEntryNew
        CODE
//  691 {
        REQUIRE ?V0
        MOV       A,#-0x9
        LCALL     ?BANKED_ENTER_XDATA
          CFI DPH0 load(1, XDATA, add(CFA_XSP16, literal(-1)))
          CFI DPL0 load(1, XDATA, add(CFA_XSP16, literal(-2)))
          CFI ?BRET_EXT load(1, XDATA, add(CFA_XSP16, literal(-3)))
          CFI ?RET_HIGH load(1, XDATA, add(CFA_XSP16, literal(-4)))
          CFI ?RET_LOW load(1, XDATA, add(CFA_XSP16, literal(-5)))
          CFI R7 load(1, XDATA, add(CFA_XSP16, literal(-6)))
          CFI V0 load(1, XDATA, add(CFA_XSP16, literal(-7)))
          CFI VB load(1, XDATA, add(CFA_XSP16, literal(-8)))
          CFI R6 load(1, XDATA, add(CFA_XSP16, literal(-9)))
          CFI CFA_SP SP+0
          CFI CFA_XSP16 add(XSP16, 9)
        ; Saved register size: 9
        ; Auto size: 0
//  692   uint16 index;
//  693 
//  694   // initialize results
//  695   *entry = NULL;
        MOV       DPL,R2
        MOV       DPH,R3
        LCALL     ?Subroutine10 & 0xFFFF
//  696 
//  697   // verify data is available
//  698   if ( ZDSecMgrEntries != NULL )
??CrossCallReturnLabel_74:
        JZ        ??ZDSecMgrEntryNew_0
//  699   {
//  700     // find available entry
//  701     for ( index = 0; index < ZDSECMGR_ENTRY_MAX ; index++ )
        MOV       R4,#0x0
        MOV       R5,#0x0
//  702     {
//  703       if ( ZDSecMgrEntries[index].ami == INVALID_NODE_ADDR )
??ZDSecMgrEntryNew_1:
        MOV       A,R4
        MOV       R0,A
        MOV       A,R5
        MOV       R1,A
        MOV       A,R0
        MOV       B,#0x5
        MUL       AB
        MOV       R0,A
        MOV       R6,B
        MOV       B,#0x5
        MOV       A,R1
        MUL       AB
        ADD       A,R6
        MOV       R1,A
        MOV       DPTR,#ZDSecMgrEntries
        MOVX      A,@DPTR
        ADD       A,R0
        MOV       R6,A
        INC       DPTR
        MOVX      A,@DPTR
        ADDC      A,R1
        MOV       R7,A
        MOV       DPL,R6
        MOV       DPH,R7
        MOVX      A,@DPTR
        XRL       A,#0xfe
        JNZ       ??ZDSecMgrEntryNew_2
        INC       DPTR
        MOVX      A,@DPTR
        CPL       A
??ZDSecMgrEntryNew_2:
        JNZ       ??ZDSecMgrEntryNew_3
//  704       {
//  705         // return successful result
//  706         *entry = &ZDSecMgrEntries[index];
        MOV       A,R6
        MOV       R4,A
        MOV       A,R7
        MOV       R5,A
        MOV       DPL,R2
        MOV       DPH,R3
        MOV       A,R4
        MOVX      @DPTR,A
        INC       DPTR
        MOV       A,R5
        MOVX      @DPTR,A
//  707 
//  708         // Set the authentication option to default
//  709         ZDSecMgrEntries[index].authenticateOption = ZDSecMgr_Not_Authenticated;
        MOV       DPTR,#ZDSecMgrEntries
        MOVX      A,@DPTR
        ADD       A,R0
        MOV       R2,A
        INC       DPTR
        MOVX      A,@DPTR
        ADDC      A,R1
        MOV       DPL,R2
        MOV       DPH,A
        INC       DPTR
        INC       DPTR
        INC       DPTR
        INC       DPTR
        CLR       A
        MOVX      @DPTR,A
//  710 
//  711         // break from loop
//  712         return ZSuccess;
        MOV       R1,A
        SJMP      ??ZDSecMgrEntryNew_4
//  713       }
//  714     }
??ZDSecMgrEntryNew_3:
        INC       R4
        MOV       A,R4
        JNZ       ??ZDSecMgrEntryNew_5
        INC       R5
??ZDSecMgrEntryNew_5:
        CLR       C
        SUBB      A,#0x3
        MOV       A,R5
        SUBB      A,#0x0
        JC        ??ZDSecMgrEntryNew_1
//  715   }
//  716 
//  717   return ZNwkUnknownDevice;
??ZDSecMgrEntryNew_0:
        MOV       R1,#-0x38
??ZDSecMgrEntryNew_4:
        LJMP      ??Subroutine63_0 & 0xFFFF
//  718 }
          CFI EndBlock cfiBlock87
//  719 
//  720 /******************************************************************************
//  721  * @fn          ZDSecMgrAppKeyGet
//  722  *
//  723  * @brief       get an APP key - option APP(MASTER or LINK) key
//  724  *
//  725  * @param       initNwkAddr - [in] NWK address of initiator device
//  726  * @param       initExtAddr - [in] EXT address of initiator device
//  727  * @param       partNwkAddr - [in] NWK address of partner device
//  728  * @param       partExtAddr - [in] EXT address of partner device
//  729  * @param       key         - [out] APP(MASTER or LINK) key
//  730  * @param       keyType     - [out] APP(MASTER or LINK) key type
//  731  *
//  732  * @return      ZStatus_t
//  733  */

        RSEG XDATA_I:XDATA:NOROOT(0)
//  734 uint8 ZDSecMgrAppKeyType = KEY_TYPE_APP_LINK;    // Set the default key type
ZDSecMgrAppKeyType:
        DATA8
        DS 1
        REQUIRE `?<Initializer for ZDSecMgrAppKeyType>`
        REQUIRE __INIT_XDATA_I
//  735                                                  // to KEY_TYPE_APP_LINK since
//  736                                                  // only specific requirement
//  737                                                  // right now comes from SE profile

        RSEG BANKED_CODE:HUGECODE:NOROOT(0)
//  738 ZStatus_t ZDSecMgrAppKeyGet( uint16  initNwkAddr,
ZDSecMgrAppKeyGet:
          CFI Block cfiBlock88 Using cfiCommon0
          CFI Function ZDSecMgrAppKeyGet
        CODE
//  739                              uint8*  initExtAddr,
//  740                              uint16  partNwkAddr,
//  741                              uint8*  partExtAddr,
//  742                              uint8** key,
//  743                              uint8*  keyType )
//  744 {
        FUNCALL ZDSecMgrAppKeyGet, SSP_GetTrueRand
        LOCFRAME ISTACK, 2, STACK
        LOCFRAME PSTACK, 0, STACK
        LOCFRAME XSTACK, 0, STACK
        LOCFRAME IOVERLAY, 0, STATIC
        LOCFRAME DOVERLAY, 0, STATIC
        ARGFRAME ISTACK, 2, STACK
        ARGFRAME PSTACK, 0, STACK
        ARGFRAME XSTACK, 0, STACK
        ARGFRAME IOVERLAY, 0, STATIC
        ARGFRAME DOVERLAY, 0, STATIC
        PUSH      DPL
          CFI DPL0 Frame(CFA_SP, 4)
          CFI CFA_SP SP+-4
        PUSH      DPH
          CFI DPH0 Frame(CFA_SP, 5)
          CFI CFA_SP SP+-5
        ; Saved register size: 2
        ; Auto size: 0
//  745   // Intentionally unreferenced parameters
//  746   (void)initNwkAddr;
//  747   (void)initExtAddr;
//  748   (void)partNwkAddr;
//  749   (void)partExtAddr;
//  750 
//  751   //---------------------------------------------------------------------------
//  752   // note:
//  753   // should use a robust mechanism to generate keys, for example
//  754   // combine EXT addresses and call a hash function
//  755   //---------------------------------------------------------------------------
//  756   SSP_GetTrueRand( SEC_KEY_LEN, *key );
        ; Setup parameters for call to function SSP_GetTrueRand
        MOV       A,#0x4
        LCALL     ?XSTACK_DISP0_8
        LCALL     ??Subroutine67_0 & 0xFFFF
??CrossCallReturnLabel_126:
        LCALL     ??Subroutine57_0 & 0xFFFF
??CrossCallReturnLabel_81:
        MOV       R1,#0x10
        LCALL     `??SSP_GetTrueRand::?relay`; Banked call to: SSP_GetTrueRand
//  757 
//  758   *keyType = ZDSecMgrAppKeyType;
        MOV       DPTR,#ZDSecMgrAppKeyType
        MOVX      A,@DPTR
        PUSH      A
          CFI CFA_SP SP+-6
        MOV       A,#0x6
        LCALL     ?XSTACK_DISP0_8
        LCALL     ??Subroutine67_0 & 0xFFFF
??CrossCallReturnLabel_127:
        POP       A
          CFI CFA_SP SP+-5
        MOVX      @DPTR,A
//  759 
//  760   return ZSuccess;
        MOV       R1,#0x0
        LJMP      ??Subroutine60_0 & 0xFFFF
//  761 }
          CFI EndBlock cfiBlock88
//  762 
//  763 
//  764 
//  765 
//  766 /******************************************************************************
//  767  * @fn          ZDSecMgrAppKeyReq
//  768  *
//  769  * @brief       Process request for APP key between two devices.
//  770  *
//  771  * @param       device - [in] ZDO_RequestKeyInd_t, request info
//  772  *
//  773  * @return      none
//  774  */

        RSEG BANKED_CODE:HUGECODE:NOROOT(0)
//  775 void ZDSecMgrAppKeyReq( ZDO_RequestKeyInd_t* ind )
ZDSecMgrAppKeyReq:
          CFI Block cfiBlock89 Using cfiCommon0
          CFI Function ZDSecMgrAppKeyReq
        CODE
//  776 {
        FUNCALL ZDSecMgrAppKeyReq, APSME_LookupNwkAddr
        LOCFRAME ISTACK, 0, STACK
        LOCFRAME PSTACK, 0, STACK
        LOCFRAME XSTACK, 51, STACK
        LOCFRAME IOVERLAY, 0, STATIC
        LOCFRAME DOVERLAY, 0, STATIC
        ARGFRAME ISTACK, 0, STACK
        ARGFRAME PSTACK, 0, STACK
        ARGFRAME XSTACK, 51, STACK
        ARGFRAME IOVERLAY, 0, STATIC
        ARGFRAME DOVERLAY, 0, STATIC
        FUNCALL ZDSecMgrAppKeyReq, APSME_LookupExtAddr
        LOCFRAME ISTACK, 0, STACK
        LOCFRAME PSTACK, 0, STACK
        LOCFRAME XSTACK, 51, STACK
        LOCFRAME IOVERLAY, 0, STATIC
        LOCFRAME DOVERLAY, 0, STATIC
        ARGFRAME ISTACK, 0, STACK
        ARGFRAME PSTACK, 0, STACK
        ARGFRAME XSTACK, 51, STACK
        ARGFRAME IOVERLAY, 0, STATIC
        ARGFRAME DOVERLAY, 0, STATIC
        FUNCALL ZDSecMgrAppKeyReq, ZDSecMgrAppKeyGet
        LOCFRAME ISTACK, 0, STACK
        LOCFRAME PSTACK, 0, STACK
        LOCFRAME XSTACK, 59, STACK
        LOCFRAME IOVERLAY, 0, STATIC
        LOCFRAME DOVERLAY, 0, STATIC
        ARGFRAME ISTACK, 0, STACK
        ARGFRAME PSTACK, 0, STACK
        ARGFRAME XSTACK, 59, STACK
        ARGFRAME IOVERLAY, 0, STATIC
        ARGFRAME DOVERLAY, 0, STATIC
        FUNCALL ZDSecMgrAppKeyReq, APSME_TransportKeyReq
        LOCFRAME ISTACK, 0, STACK
        LOCFRAME PSTACK, 0, STACK
        LOCFRAME XSTACK, 51, STACK
        LOCFRAME IOVERLAY, 0, STATIC
        LOCFRAME DOVERLAY, 0, STATIC
        ARGFRAME ISTACK, 0, STACK
        ARGFRAME PSTACK, 0, STACK
        ARGFRAME XSTACK, 51, STACK
        ARGFRAME IOVERLAY, 0, STATIC
        ARGFRAME DOVERLAY, 0, STATIC
        FUNCALL ZDSecMgrAppKeyReq, APSME_TransportKeyReq
        LOCFRAME ISTACK, 0, STACK
        LOCFRAME PSTACK, 0, STACK
        LOCFRAME XSTACK, 51, STACK
        LOCFRAME IOVERLAY, 0, STATIC
        LOCFRAME DOVERLAY, 0, STATIC
        ARGFRAME ISTACK, 0, STACK
        ARGFRAME PSTACK, 0, STACK
        ARGFRAME XSTACK, 51, STACK
        ARGFRAME IOVERLAY, 0, STATIC
        ARGFRAME DOVERLAY, 0, STATIC
        FUNCALL ZDSecMgrAppKeyReq, osal_memset
        LOCFRAME ISTACK, 0, STACK
        LOCFRAME PSTACK, 0, STACK
        LOCFRAME XSTACK, 51, STACK
        LOCFRAME IOVERLAY, 0, STATIC
        LOCFRAME DOVERLAY, 0, STATIC
        ARGFRAME ISTACK, 0, STACK
        ARGFRAME PSTACK, 0, STACK
        ARGFRAME XSTACK, 51, STACK
        ARGFRAME IOVERLAY, 0, STATIC
        ARGFRAME DOVERLAY, 0, STATIC
        REQUIRE ?V0
        REQUIRE ?V1
        REQUIRE ?V2
        REQUIRE ?V3
        MOV       A,#-0xc
        LCALL     ?BANKED_ENTER_XDATA
          CFI DPH0 load(1, XDATA, add(CFA_XSP16, literal(-1)))
          CFI DPL0 load(1, XDATA, add(CFA_XSP16, literal(-2)))
          CFI ?BRET_EXT load(1, XDATA, add(CFA_XSP16, literal(-3)))
          CFI ?RET_HIGH load(1, XDATA, add(CFA_XSP16, literal(-4)))
          CFI ?RET_LOW load(1, XDATA, add(CFA_XSP16, literal(-5)))
          CFI R7 load(1, XDATA, add(CFA_XSP16, literal(-6)))
          CFI V3 load(1, XDATA, add(CFA_XSP16, literal(-7)))
          CFI V2 load(1, XDATA, add(CFA_XSP16, literal(-8)))
          CFI V1 load(1, XDATA, add(CFA_XSP16, literal(-9)))
          CFI V0 load(1, XDATA, add(CFA_XSP16, literal(-10)))
          CFI VB load(1, XDATA, add(CFA_XSP16, literal(-11)))
          CFI R6 load(1, XDATA, add(CFA_XSP16, literal(-12)))
          CFI CFA_SP SP+0
          CFI CFA_XSP16 add(XSP16, 12)
        ; Saved register size: 12
        ; Auto size: 39
        MOV       A,#-0x27
        LCALL     ?ALLOC_XSTACK8
          CFI CFA_XSP16 add(XSP16, 51)
        MOV       A,R2
        MOV       R6,A
        MOV       A,R3
        MOV       R7,A
//  777   APSME_TransportKeyReq_t req;
//  778   uint8                   initExtAddr[Z_EXTADDR_LEN];
//  779   uint16                  partNwkAddr;
//  780   uint8                   key[SEC_KEY_LEN];
//  781 
//  782 
//  783   // validate initiator and partner
//  784   if ( ( APSME_LookupNwkAddr( ind->partExtAddr, &partNwkAddr ) == TRUE ) &&
//  785        ( APSME_LookupExtAddr( ind->srcAddr, initExtAddr ) == TRUE      )   )
        MOV       A,R6
        ADD       A,#0x5
        MOV       ?V0,A
        CLR       A
        ADDC      A,R7
        MOV       ?V1,A
        ; Setup parameters for call to function APSME_LookupNwkAddr
        MOV       R4,?XSP + 0
        MOV       R5,?XSP + 1
        MOV       R2,?V0
        MOV       R3,A
        LCALL     `??APSME_LookupNwkAddr::?relay`; Banked call to: APSME_LookupNwkAddr
        MOV       A,R1
        XRL       A,#0x1
        JZ        $+5
        LJMP      ??ZDSecMgrAppKeyReq_0 & 0xFFFF
        MOV       A,R6
        ADD       A,#0x2
        CLR       A
        ADDC      A,R7
        INC       R6
        INC       R6
        MOV       R7,A
        ; Setup parameters for call to function APSME_LookupExtAddr
        MOV       A,#0xf
        LCALL     ?XSTACK_DISP102_8
        MOV       DPL,R6
        MOV       DPH,R7
        LCALL     ??Subroutine57_0 & 0xFFFF
??CrossCallReturnLabel_82:
        LCALL     `??APSME_LookupExtAddr::?relay`; Banked call to: APSME_LookupExtAddr
        MOV       A,R1
        XRL       A,#0x1
        JZ        $+5
        LJMP      ??ZDSecMgrAppKeyReq_0 & 0xFFFF
//  786   {
//  787     // point the key to some memory
//  788     req.key = key;
        MOV       A,#0x17
        LCALL     ?XSTACK_DISP100_8
        MOV       A,#0x6
        LCALL     ?XSTACK_DISP0_8
        LCALL     ??Subroutine59_0 & 0xFFFF
//  789 
//  790     // get an APP key - option APP (MASTER or LINK) key
//  791     if ( ZDSecMgrAppKeyGet( ind->srcAddr,
//  792                             initExtAddr,
//  793                             partNwkAddr,
//  794                             ind->partExtAddr,
//  795                             &req.key,
//  796                             &req.keyType ) == ZSuccess )
??CrossCallReturnLabel_99:
        ; Setup parameters for call to function ZDSecMgrAppKeyGet
        MOV       A,#0x4
        LCALL     ?XSTACK_DISP0_8
        MOV       ?V2,DPL
        MOV       ?V3,DPH
        MOV       R0,#?V2
        LCALL     ?PUSH_XSTACK_I_TWO
          CFI CFA_XSP16 add(XSP16, 53)
        MOV       A,#0x8
        LCALL     ?XSTACK_DISP0_8
        MOV       ?V2,DPL
        MOV       ?V3,DPH
        MOV       R0,#?V2
        LCALL     ?PUSH_XSTACK_I_TWO
          CFI CFA_XSP16 add(XSP16, 55)
        MOV       R0,#?V0
        LCALL     ?PUSH_XSTACK_I_TWO
          CFI CFA_XSP16 add(XSP16, 57)
        MOV       A,#0x6
        LCALL     ?XSTACK_DISP0_8
        LCALL     ?PUSH_XSTACK8_X_TWO
          CFI CFA_XSP16 add(XSP16, 59)
        MOV       A,#0x17
        LCALL     ?XSTACK_DISP102_8
        MOV       DPL,R6
        MOV       DPH,R7
        LCALL     ??Subroutine57_0 & 0xFFFF
??CrossCallReturnLabel_83:
        LCALL     `??ZDSecMgrAppKeyGet::?relay`; Banked call to: ZDSecMgrAppKeyGet
        MOV       A,#0x8
        LCALL     ?DEALLOC_XSTACK8
          CFI CFA_XSP16 add(XSP16, 51)
        MOV       A,R1
        JNZ       ??ZDSecMgrAppKeyReq_0
//  797     {
//  798       // always secure
//  799       req.nwkSecure = TRUE;
        MOV       A,#0xc
        LCALL     ?XSTACK_DISP0_8
        MOV       A,#0x1
        MOVX      @DPTR,A
//  800       req.apsSecure = TRUE;
        MOV       A,#0xb
        LCALL     ?XSTACK_DISP0_8
        MOV       A,#0x1
        MOVX      @DPTR,A
//  801       req.tunnel    = NULL;
        MOV       A,#0xd
        LCALL     ?XSTACK_DISP0_8
        LCALL     ?Subroutine17 & 0xFFFF
//  802 
//  803       // send key to initiator device
//  804       req.dstAddr   = ind->srcAddr;
??CrossCallReturnLabel_7:
        MOV       A,#0x2
        LCALL     ?XSTACK_DISP0_8
        LCALL     ??Subroutine59_0 & 0xFFFF
//  805       req.extAddr   = ind->partExtAddr;
??CrossCallReturnLabel_100:
        MOV       A,#0x8
        LCALL     ?XSTACK_DISP0_8
        MOV       A,?V0
        MOVX      @DPTR,A
        INC       DPTR
        MOV       A,?V1
        MOVX      @DPTR,A
//  806       req.initiator = TRUE;
        MOV       A,#0xa
        LCALL     ?XSTACK_DISP0_8
        MOV       A,#0x1
        MOVX      @DPTR,A
//  807       APSME_TransportKeyReq( &req );
        ; Setup parameters for call to function APSME_TransportKeyReq
        INC       A
        LCALL     ?XSTACK_DISP101_8
        LCALL     `??APSME_TransportKeyReq::?relay`; Banked call to: APSME_TransportKeyReq
//  808 
//  809       // send key to partner device
//  810       req.dstAddr   = partNwkAddr;
        MOV       DPL,?XSP + 0
        MOV       DPH,?XSP + 1
        LCALL     ?Subroutine29 & 0xFFFF
??CrossCallReturnLabel_25:
        LCALL     ?XSTACK_DISP0_8
        LCALL     ??Subroutine59_0 & 0xFFFF
//  811       req.extAddr   = initExtAddr;
??CrossCallReturnLabel_101:
        MOV       A,#0xf
        LCALL     ?XSTACK_DISP100_8
        MOV       A,#0x8
        LCALL     ?XSTACK_DISP0_8
        LCALL     ??Subroutine59_0 & 0xFFFF
//  812       req.initiator = FALSE;
??CrossCallReturnLabel_102:
        MOV       A,#0xa
        LCALL     ?XSTACK_DISP0_8
        CLR       A
        MOVX      @DPTR,A
//  813 
//  814       APSME_TransportKeyReq( &req );
        ; Setup parameters for call to function APSME_TransportKeyReq
        MOV       A,#0x2
        LCALL     ?XSTACK_DISP101_8
        LCALL     `??APSME_TransportKeyReq::?relay`; Banked call to: APSME_TransportKeyReq
//  815 
//  816       // clear copy of key in RAM
//  817       osal_memset( key, 0x00, SEC_KEY_LEN);
        ; Setup parameters for call to function osal_memset
        MOV       R4,#0x10
        MOV       R5,#0x0
        MOV       R1,#0x0
        MOV       A,#0x17
        LCALL     ?XSTACK_DISP101_8
        LCALL     `??osal_memset::?relay`; Banked call to: osal_memset
//  818 
//  819     }
//  820   }
//  821 }
??ZDSecMgrAppKeyReq_0:
        MOV       A,#0x27
        LJMP      ?Subroutine3 & 0xFFFF
          CFI EndBlock cfiBlock89
//  822 
//  823 /******************************************************************************
//  824  * @fn          ZDSecMgrTclkReq
//  825  *
//  826  * @brief       Process request for TCLK.
//  827  *
//  828  * @param       device - [in] ZDO_RequestKeyInd_t, request info
//  829  *
//  830  * @return      none
//  831  */

        RSEG BANKED_CODE:HUGECODE:NOROOT(0)
//  832 void ZDSecMgrTclkReq( ZDO_RequestKeyInd_t* ind )
ZDSecMgrTclkReq:
          CFI Block cfiBlock90 Using cfiCommon0
          CFI Function ZDSecMgrTclkReq
        CODE
//  833 {
        FUNCALL ZDSecMgrTclkReq, APSME_LookupNwkAddr
        LOCFRAME ISTACK, 0, STACK
        LOCFRAME PSTACK, 0, STACK
        LOCFRAME XSTACK, 69, STACK
        LOCFRAME IOVERLAY, 0, STATIC
        LOCFRAME DOVERLAY, 0, STATIC
        ARGFRAME ISTACK, 0, STACK
        ARGFRAME PSTACK, 0, STACK
        ARGFRAME XSTACK, 69, STACK
        ARGFRAME IOVERLAY, 0, STATIC
        ARGFRAME DOVERLAY, 0, STATIC
        FUNCALL ZDSecMgrTclkReq, APSME_LookupExtAddr
        LOCFRAME ISTACK, 0, STACK
        LOCFRAME PSTACK, 0, STACK
        LOCFRAME XSTACK, 69, STACK
        LOCFRAME IOVERLAY, 0, STATIC
        LOCFRAME DOVERLAY, 0, STATIC
        ARGFRAME ISTACK, 0, STACK
        ARGFRAME PSTACK, 0, STACK
        ARGFRAME XSTACK, 69, STACK
        ARGFRAME IOVERLAY, 0, STATIC
        ARGFRAME DOVERLAY, 0, STATIC
        FUNCALL ZDSecMgrTclkReq, APSME_SearchTCLinkKeyEntry
        LOCFRAME ISTACK, 0, STACK
        LOCFRAME PSTACK, 0, STACK
        LOCFRAME XSTACK, 71, STACK
        LOCFRAME IOVERLAY, 0, STATIC
        LOCFRAME DOVERLAY, 0, STATIC
        ARGFRAME ISTACK, 0, STACK
        ARGFRAME PSTACK, 0, STACK
        ARGFRAME XSTACK, 71, STACK
        ARGFRAME IOVERLAY, 0, STATIC
        ARGFRAME DOVERLAY, 0, STATIC
        FUNCALL ZDSecMgrTclkReq, ZDSecMgrGenerateKeyFromSeed
        LOCFRAME ISTACK, 0, STACK
        LOCFRAME PSTACK, 0, STACK
        LOCFRAME XSTACK, 69, STACK
        LOCFRAME IOVERLAY, 0, STATIC
        LOCFRAME DOVERLAY, 0, STATIC
        ARGFRAME ISTACK, 0, STACK
        ARGFRAME PSTACK, 0, STACK
        ARGFRAME XSTACK, 69, STACK
        ARGFRAME IOVERLAY, 0, STATIC
        ARGFRAME DOVERLAY, 0, STATIC
        FUNCALL ZDSecMgrTclkReq, APSME_TransportKeyReq
        LOCFRAME ISTACK, 0, STACK
        LOCFRAME PSTACK, 0, STACK
        LOCFRAME XSTACK, 69, STACK
        LOCFRAME IOVERLAY, 0, STATIC
        LOCFRAME DOVERLAY, 0, STATIC
        ARGFRAME ISTACK, 0, STACK
        ARGFRAME PSTACK, 0, STACK
        ARGFRAME XSTACK, 69, STACK
        ARGFRAME IOVERLAY, 0, STATIC
        ARGFRAME DOVERLAY, 0, STATIC
        FUNCALL ZDSecMgrTclkReq, osal_memset
        LOCFRAME ISTACK, 0, STACK
        LOCFRAME PSTACK, 0, STACK
        LOCFRAME XSTACK, 69, STACK
        LOCFRAME IOVERLAY, 0, STATIC
        LOCFRAME DOVERLAY, 0, STATIC
        ARGFRAME ISTACK, 0, STACK
        ARGFRAME PSTACK, 0, STACK
        ARGFRAME XSTACK, 69, STACK
        ARGFRAME IOVERLAY, 0, STATIC
        ARGFRAME DOVERLAY, 0, STATIC
        REQUIRE ?V0
        REQUIRE ?V1
        MOV       A,#-0xa
        LCALL     ?BANKED_ENTER_XDATA
          CFI DPH0 load(1, XDATA, add(CFA_XSP16, literal(-1)))
          CFI DPL0 load(1, XDATA, add(CFA_XSP16, literal(-2)))
          CFI ?BRET_EXT load(1, XDATA, add(CFA_XSP16, literal(-3)))
          CFI ?RET_HIGH load(1, XDATA, add(CFA_XSP16, literal(-4)))
          CFI ?RET_LOW load(1, XDATA, add(CFA_XSP16, literal(-5)))
          CFI R7 load(1, XDATA, add(CFA_XSP16, literal(-6)))
          CFI V1 load(1, XDATA, add(CFA_XSP16, literal(-7)))
          CFI V0 load(1, XDATA, add(CFA_XSP16, literal(-8)))
          CFI VB load(1, XDATA, add(CFA_XSP16, literal(-9)))
          CFI R6 load(1, XDATA, add(CFA_XSP16, literal(-10)))
          CFI CFA_SP SP+0
          CFI CFA_XSP16 add(XSP16, 10)
        ; Saved register size: 10
        ; Auto size: 59
        MOV       A,#-0x3b
        LCALL     ?ALLOC_XSTACK8
          CFI CFA_XSP16 add(XSP16, 69)
        MOV       A,R2
        MOV       R6,A
        MOV       A,R3
        MOV       R7,A
//  834   APSME_TransportKeyReq_t req;
//  835   uint8                   initExtAddr[Z_EXTADDR_LEN];
//  836   uint16                  partNwkAddr;
//  837   uint8                   key[SEC_KEY_LEN];
//  838   APSME_TCLKDevEntry_t    TCLKDevEntry;
//  839   uint8                   found;
//  840     
//  841   // validate initiator and partner
//  842   if ( ( ( APSME_LookupNwkAddr( ind->partExtAddr, &partNwkAddr ) == TRUE ) || ( ind->keyType != KEY_TYPE_APP_MASTER ) ) &&
//  843        (   APSME_LookupExtAddr( ind->srcAddr, initExtAddr )      == TRUE ) )
        ; Setup parameters for call to function APSME_LookupNwkAddr
        MOV       A,#0x1
        LCALL     ?XSTACK_DISP102_8
        MOV       A,R6
        ADD       A,#0x5
        MOV       R2,A
        CLR       A
        ADDC      A,R7
        MOV       R3,A
        LCALL     `??APSME_LookupNwkAddr::?relay`; Banked call to: APSME_LookupNwkAddr
        MOV       A,R1
        XRL       A,#0x1
        JZ        ??ZDSecMgrTclkReq_0
        MOV       DPL,R6
        MOV       DPH,R7
        INC       DPTR
        INC       DPTR
        INC       DPTR
        INC       DPTR
        MOVX      A,@DPTR
        XRL       A,#0x2
        JNZ       $+5
        LJMP      ??ZDSecMgrTclkReq_1 & 0xFFFF
??ZDSecMgrTclkReq_0:
        MOV       A,R6
        ADD       A,#0x2
        CLR       A
        ADDC      A,R7
        INC       R6
        INC       R6
        MOV       R7,A
        ; Setup parameters for call to function APSME_LookupExtAddr
        MOV       A,#0x10
        LCALL     ?XSTACK_DISP102_8
        MOV       DPL,R6
        MOV       DPH,R7
        LCALL     ??Subroutine57_0 & 0xFFFF
??CrossCallReturnLabel_84:
        LCALL     `??APSME_LookupExtAddr::?relay`; Banked call to: APSME_LookupExtAddr
        MOV       A,R1
        XRL       A,#0x1
        JZ        $+5
        LJMP      ??ZDSecMgrTclkReq_1 & 0xFFFF
//  844   {
//  845     // point the key to some memory
//  846     req.key = key;
        MOV       A,#0x2b
        LCALL     ?XSTACK_DISP100_8
        MOV       A,#0x7
        LCALL     ?XSTACK_DISP0_8
        LCALL     ??Subroutine59_0 & 0xFFFF
//  847 
//  848     //Search for the entry
//  849     APSME_SearchTCLinkKeyEntry(initExtAddr,&found, &TCLKDevEntry);
??CrossCallReturnLabel_103:
        ; Setup parameters for call to function APSME_SearchTCLinkKeyEntry
        MOV       A,#0x18
        LCALL     ?XSTACK_DISP100_8
        MOV       ?V0,R0
        MOV       ?V1,R1
        MOV       R0,#?V0
        LCALL     ?PUSH_XSTACK_I_TWO
          CFI CFA_XSP16 add(XSP16, 71)
        MOV       A,#0x2
        LCALL     ?XSTACK_DISP102_8
        MOV       A,#0x12
        LCALL     ?XSTACK_DISP101_8
        LCALL     `??APSME_SearchTCLinkKeyEntry::?relay`; Banked call to: APSME_SearchTCLinkKeyEntry
        MOV       A,#0x2
        LCALL     ?DEALLOC_XSTACK8
          CFI CFA_XSP16 add(XSP16, 69)
//  850 
//  851     //If found, generate the key accordingly to the key attribute
//  852     if(found)
        MOV       DPL,?XSP + 0
        MOV       DPH,?XSP + 1
        MOVX      A,@DPTR
        JZ        ??ZDSecMgrTclkReq_1
//  853     {
//  854       //Generate key from the seed, which would be the unique key
//  855       ZDSecMgrGenerateKeyFromSeed(TCLKDevEntry.extAddr,TCLKDevEntry.SeedShift_IcIndex,req.key);
        ; Setup parameters for call to function ZDSecMgrGenerateKeyFromSeed
        MOV       A,#0x7
        LCALL     ?XSTACK_DISP0_8
        LCALL     ?Subroutine32 & 0xFFFF
??CrossCallReturnLabel_32:
        MOV       A,#0x2a
        LCALL     ?XSTACK_DISP0_8
        MOVX      A,@DPTR
        MOV       R1,A
        MOV       A,#0x20
        LCALL     ?XSTACK_DISP0_8
        MOV       R2,DPL
        MOV       R3,DPH
        LCALL     `??ZDSecMgrGenerateKeyFromSeed::?relay`; Banked call to: ZDSecMgrGenerateKeyFromSeed
//  856     
//  857       // always secure
//  858       req.nwkSecure = TRUE;
        MOV       A,#0xd
        LCALL     ?XSTACK_DISP0_8
        MOV       A,#0x1
        MOVX      @DPTR,A
//  859       req.apsSecure = TRUE;
        MOV       A,#0xc
        LCALL     ?XSTACK_DISP0_8
        MOV       A,#0x1
        MOVX      @DPTR,A
//  860       req.tunnel    = NULL;
        MOV       A,#0xe
        LCALL     ?XSTACK_DISP0_8
        LCALL     ?Subroutine17 & 0xFFFF
//  861 
//  862       // send key to initiator device
//  863       req.dstAddr   = ind->srcAddr;
??CrossCallReturnLabel_8:
        MOV       A,#0x3
        LCALL     ?XSTACK_DISP0_8
        LCALL     ??Subroutine59_0 & 0xFFFF
//  864       req.extAddr   = initExtAddr;
??CrossCallReturnLabel_104:
        MOV       A,#0x10
        LCALL     ?XSTACK_DISP100_8
        MOV       A,#0x9
        LCALL     ?XSTACK_DISP0_8
        LCALL     ??Subroutine59_0 & 0xFFFF
//  865       req.initiator = TRUE;
??CrossCallReturnLabel_105:
        MOV       A,#0xb
        LCALL     ?XSTACK_DISP0_8
        MOV       A,#0x1
        MOVX      @DPTR,A
//  866       req.keyType   = KEY_TYPE_TC_LINK;
        MOV       A,#0x5
        LCALL     ?XSTACK_DISP0_8
        MOV       A,#0x4
        MOVX      @DPTR,A
//  867         
//  868       APSME_TransportKeyReq( &req );
        ; Setup parameters for call to function APSME_TransportKeyReq
        DEC       A
        LCALL     ?XSTACK_DISP101_8
        LCALL     `??APSME_TransportKeyReq::?relay`; Banked call to: APSME_TransportKeyReq
//  869         
//  870       // clear copy of key in RAM
//  871       osal_memset( key, 0x00, SEC_KEY_LEN);
        ; Setup parameters for call to function osal_memset
        MOV       R4,#0x10
        MOV       R5,#0x0
        MOV       R1,#0x0
        MOV       A,#0x2b
        LCALL     ?XSTACK_DISP101_8
        LCALL     `??osal_memset::?relay`; Banked call to: osal_memset
//  872     
//  873     }
//  874   }
//  875 }
??ZDSecMgrTclkReq_1:
        MOV       A,#0x3b
        LJMP      ??Subroutine54_0 & 0xFFFF
          CFI EndBlock cfiBlock90

        RSEG BANKED_CODE:HUGECODE:NOROOT(0)
?Subroutine32:
          CFI Block cfiCond91 Using cfiCommon0
          CFI Function ZDSecMgrEntryLookup
          CFI Conditional ??CrossCallReturnLabel_30
          CFI R6 load(1, XDATA, add(CFA_XSP16, literal(-9)))
          CFI VB load(1, XDATA, add(CFA_XSP16, literal(-8)))
          CFI V0 load(1, XDATA, add(CFA_XSP16, literal(-7)))
          CFI R7 load(1, XDATA, add(CFA_XSP16, literal(-6)))
          CFI ?RET_LOW load(1, XDATA, add(CFA_XSP16, literal(-5)))
          CFI ?RET_HIGH load(1, XDATA, add(CFA_XSP16, literal(-4)))
          CFI ?BRET_EXT load(1, XDATA, add(CFA_XSP16, literal(-3)))
          CFI DPL0 load(1, XDATA, add(CFA_XSP16, literal(-2)))
          CFI DPH0 load(1, XDATA, add(CFA_XSP16, literal(-1)))
          CFI CFA_SP SP+-2
          CFI CFA_XSP16 add(XSP16, 22)
          CFI Block cfiCond92 Using cfiCommon0
          CFI (cfiCond92) Function ZDSecMgrEntryLookupExtGetIndex
          CFI (cfiCond92) Conditional ??CrossCallReturnLabel_31
          CFI (cfiCond92) R6 load(1, XDATA, add(CFA_XSP16, literal(-9)))
          CFI (cfiCond92) VB load(1, XDATA, add(CFA_XSP16, literal(-8)))
          CFI (cfiCond92) V0 load(1, XDATA, add(CFA_XSP16, literal(-7)))
          CFI (cfiCond92) R7 load(1, XDATA, add(CFA_XSP16, literal(-6)))
          CFI (cfiCond92) ?RET_LOW load(1, XDATA, add(CFA_XSP16, literal(-5)))
          CFI (cfiCond92) ?RET_HIGH load(1, XDATA, add(CFA_XSP16, literal(-4)))
          CFI (cfiCond92) ?BRET_EXT load(1, XDATA, add(CFA_XSP16, literal(-3)))
          CFI (cfiCond92) DPL0 load(1, XDATA, add(CFA_XSP16, literal(-2)))
          CFI (cfiCond92) DPH0 load(1, XDATA, add(CFA_XSP16, literal(-1)))
          CFI (cfiCond92) CFA_SP SP+-2
          CFI (cfiCond92) CFA_XSP16 add(XSP16, 11)
          CFI Block cfiCond93 Using cfiCommon0
          CFI (cfiCond93) Function ZDSecMgrTclkReq
          CFI (cfiCond93) Conditional ??CrossCallReturnLabel_32
          CFI (cfiCond93) R6 load(1, XDATA, add(CFA_XSP16, literal(-10)))
          CFI (cfiCond93) VB load(1, XDATA, add(CFA_XSP16, literal(-9)))
          CFI (cfiCond93) V0 load(1, XDATA, add(CFA_XSP16, literal(-8)))
          CFI (cfiCond93) V1 load(1, XDATA, add(CFA_XSP16, literal(-7)))
          CFI (cfiCond93) R7 load(1, XDATA, add(CFA_XSP16, literal(-6)))
          CFI (cfiCond93) ?RET_LOW load(1, XDATA, add(CFA_XSP16, literal(-5)))
          CFI (cfiCond93) ?RET_HIGH load(1, XDATA, add(CFA_XSP16, literal(-4)))
          CFI (cfiCond93) ?BRET_EXT load(1, XDATA, add(CFA_XSP16, literal(-3)))
          CFI (cfiCond93) DPL0 load(1, XDATA, add(CFA_XSP16, literal(-2)))
          CFI (cfiCond93) DPH0 load(1, XDATA, add(CFA_XSP16, literal(-1)))
          CFI (cfiCond93) CFA_SP SP+-2
          CFI (cfiCond93) CFA_XSP16 add(XSP16, 69)
          CFI Block cfiCond94 Using cfiCommon0
          CFI (cfiCond94) Function ZDSecMgrDeviceJoin
          CFI (cfiCond94) Conditional ??CrossCallReturnLabel_33
          CFI (cfiCond94) R6 load(1, XDATA, add(CFA_XSP16, literal(-16)))
          CFI (cfiCond94) VB load(1, XDATA, add(CFA_XSP16, literal(-15)))
          CFI (cfiCond94) V0 load(1, XDATA, add(CFA_XSP16, literal(-14)))
          CFI (cfiCond94) V1 load(1, XDATA, add(CFA_XSP16, literal(-13)))
          CFI (cfiCond94) V2 load(1, XDATA, add(CFA_XSP16, literal(-12)))
          CFI (cfiCond94) V3 load(1, XDATA, add(CFA_XSP16, literal(-11)))
          CFI (cfiCond94) V4 load(1, XDATA, add(CFA_XSP16, literal(-10)))
          CFI (cfiCond94) V5 load(1, XDATA, add(CFA_XSP16, literal(-9)))
          CFI (cfiCond94) V6 load(1, XDATA, add(CFA_XSP16, literal(-8)))
          CFI (cfiCond94) V7 load(1, XDATA, add(CFA_XSP16, literal(-7)))
          CFI (cfiCond94) R7 load(1, XDATA, add(CFA_XSP16, literal(-6)))
          CFI (cfiCond94) ?RET_LOW load(1, XDATA, add(CFA_XSP16, literal(-5)))
          CFI (cfiCond94) ?RET_HIGH load(1, XDATA, add(CFA_XSP16, literal(-4)))
          CFI (cfiCond94) ?BRET_EXT load(1, XDATA, add(CFA_XSP16, literal(-3)))
          CFI (cfiCond94) DPL0 load(1, XDATA, add(CFA_XSP16, literal(-2)))
          CFI (cfiCond94) DPH0 load(1, XDATA, add(CFA_XSP16, literal(-1)))
          CFI (cfiCond94) CFA_SP SP+-2
          CFI (cfiCond94) CFA_XSP16 add(XSP16, 32)
          CFI Block cfiCond95 Using cfiCommon0
          CFI (cfiCond95) Function ZDSecMgrAddLinkKey
          CFI (cfiCond95) Conditional ??CrossCallReturnLabel_34
          CFI (cfiCond95) R6 load(1, XDATA, add(CFA_XSP16, literal(-10)))
          CFI (cfiCond95) VB load(1, XDATA, add(CFA_XSP16, literal(-9)))
          CFI (cfiCond95) V0 load(1, XDATA, add(CFA_XSP16, literal(-8)))
          CFI (cfiCond95) V1 load(1, XDATA, add(CFA_XSP16, literal(-7)))
          CFI (cfiCond95) R7 load(1, XDATA, add(CFA_XSP16, literal(-6)))
          CFI (cfiCond95) ?RET_LOW load(1, XDATA, add(CFA_XSP16, literal(-5)))
          CFI (cfiCond95) ?RET_HIGH load(1, XDATA, add(CFA_XSP16, literal(-4)))
          CFI (cfiCond95) ?BRET_EXT load(1, XDATA, add(CFA_XSP16, literal(-3)))
          CFI (cfiCond95) DPL0 load(1, XDATA, add(CFA_XSP16, literal(-2)))
          CFI (cfiCond95) DPH0 load(1, XDATA, add(CFA_XSP16, literal(-1)))
          CFI (cfiCond95) CFA_SP SP+-2
          CFI (cfiCond95) CFA_XSP16 add(XSP16, 14)
          CFI Block cfiPicker96 Using cfiCommon1
          CFI (cfiPicker96) NoFunction
          CFI (cfiPicker96) Picker
        MOVX      A,@DPTR
        MOV       R4,A
        INC       DPTR
        MOVX      A,@DPTR
        MOV       R5,A
        RET
          CFI EndBlock cfiCond91
          CFI EndBlock cfiCond92
          CFI EndBlock cfiCond93
          CFI EndBlock cfiCond94
          CFI EndBlock cfiCond95
          CFI EndBlock cfiPicker96

        RSEG BANKED_CODE:HUGECODE:NOROOT(0)
?Subroutine17:
          CFI Block cfiCond97 Using cfiCommon0
          CFI Function ZDSecMgrAppKeyReq
          CFI Conditional ??CrossCallReturnLabel_7
          CFI R6 load(1, XDATA, add(CFA_XSP16, literal(-12)))
          CFI VB load(1, XDATA, add(CFA_XSP16, literal(-11)))
          CFI V0 load(1, XDATA, add(CFA_XSP16, literal(-10)))
          CFI V1 load(1, XDATA, add(CFA_XSP16, literal(-9)))
          CFI V2 load(1, XDATA, add(CFA_XSP16, literal(-8)))
          CFI V3 load(1, XDATA, add(CFA_XSP16, literal(-7)))
          CFI R7 load(1, XDATA, add(CFA_XSP16, literal(-6)))
          CFI ?RET_LOW load(1, XDATA, add(CFA_XSP16, literal(-5)))
          CFI ?RET_HIGH load(1, XDATA, add(CFA_XSP16, literal(-4)))
          CFI ?BRET_EXT load(1, XDATA, add(CFA_XSP16, literal(-3)))
          CFI DPL0 load(1, XDATA, add(CFA_XSP16, literal(-2)))
          CFI DPH0 load(1, XDATA, add(CFA_XSP16, literal(-1)))
          CFI CFA_SP SP+-2
          CFI CFA_XSP16 add(XSP16, 51)
          CFI Block cfiCond98 Using cfiCommon0
          CFI (cfiCond98) Function ZDSecMgrTclkReq
          CFI (cfiCond98) Conditional ??CrossCallReturnLabel_8
          CFI (cfiCond98) R6 load(1, XDATA, add(CFA_XSP16, literal(-10)))
          CFI (cfiCond98) VB load(1, XDATA, add(CFA_XSP16, literal(-9)))
          CFI (cfiCond98) V0 load(1, XDATA, add(CFA_XSP16, literal(-8)))
          CFI (cfiCond98) V1 load(1, XDATA, add(CFA_XSP16, literal(-7)))
          CFI (cfiCond98) R7 load(1, XDATA, add(CFA_XSP16, literal(-6)))
          CFI (cfiCond98) ?RET_LOW load(1, XDATA, add(CFA_XSP16, literal(-5)))
          CFI (cfiCond98) ?RET_HIGH load(1, XDATA, add(CFA_XSP16, literal(-4)))
          CFI (cfiCond98) ?BRET_EXT load(1, XDATA, add(CFA_XSP16, literal(-3)))
          CFI (cfiCond98) DPL0 load(1, XDATA, add(CFA_XSP16, literal(-2)))
          CFI (cfiCond98) DPH0 load(1, XDATA, add(CFA_XSP16, literal(-1)))
          CFI (cfiCond98) CFA_SP SP+-2
          CFI (cfiCond98) CFA_XSP16 add(XSP16, 69)
          CFI Block cfiPicker99 Using cfiCommon1
          CFI (cfiPicker99) NoFunction
          CFI (cfiPicker99) Picker
        CLR       A
        MOVX      @DPTR,A
        INC       DPTR
        LCALL     ?Subroutine44 & 0xFFFF
??CrossCallReturnLabel_54:
        LCALL     ??Subroutine61_0 & 0xFFFF
??CrossCallReturnLabel_139:
        RET
          CFI EndBlock cfiCond97
          CFI EndBlock cfiCond98
          CFI EndBlock cfiPicker99
//  876 
//  877 /******************************************************************************
//  878  * @fn          ZDSecMgrAppConfKeyReq
//  879  *
//  880  * @brief       Process request for APP key between two devices.
//  881  *
//  882  * @param       device - [in] ZDO_VerifyKeyInd_t, request info
//  883  *
//  884  * @return      none
//  885  */

        RSEG BANKED_CODE:HUGECODE:NOROOT(0)
//  886 void ZDSecMgrAppConfKeyReq( ZDO_VerifyKeyInd_t* ind )
ZDSecMgrAppConfKeyReq:
          CFI Block cfiBlock100 Using cfiCommon0
          CFI Function ZDSecMgrAppConfKeyReq
        CODE
//  887 {
        ; Saved register size: 0
        ; Auto size: 0
//  888   APSME_ConfirmKeyReq_t   req;
//  889 
//  890   // send key to initiator device
//  891   req.dstAddr      = ind->srcAddr;
//  892   req.status       = ind->verifyKeyStatus;
//  893   req.dstExtAddr   = ind->extAddr;
//  894   req.keyType      = ind->keyType;
//  895 
//  896   if ( ( ZSTACK_DEVICE_BUILD & DEVICE_BUILD_COORDINATOR ) != 0 )
//  897   {
//  898     APSME_ConfirmKeyReq( &req );
//  899   }
//  900   
//  901 }
        LJMP      ?BRET
          CFI EndBlock cfiBlock100
//  902 
//  903 
//  904 /******************************************************************************
//  905  * @fn          ZDSecMgrSendNwkKey
//  906  *
//  907  * @brief       Send NWK key to device joining network.
//  908  *
//  909  * @param       device - [in] ZDSecMgrDevice_t, device info
//  910  *
//  911  * @return      ZStatus_t
//  912  */

        RSEG BANKED_CODE:HUGECODE:NOROOT(0)
//  913 ZStatus_t ZDSecMgrSendNwkKey( ZDSecMgrDevice_t* device )
ZDSecMgrSendNwkKey:
          CFI Block cfiBlock101 Using cfiCommon0
          CFI Function ZDSecMgrSendNwkKey
        CODE
//  914 {
        FUNCALL ZDSecMgrSendNwkKey, NLME_ReadNwkKeyInfo
        LOCFRAME ISTACK, 0, STACK
        LOCFRAME PSTACK, 0, STACK
        LOCFRAME XSTACK, 44, STACK
        LOCFRAME IOVERLAY, 0, STATIC
        LOCFRAME DOVERLAY, 0, STATIC
        ARGFRAME ISTACK, 0, STACK
        ARGFRAME PSTACK, 0, STACK
        ARGFRAME XSTACK, 44, STACK
        ARGFRAME IOVERLAY, 0, STATIC
        ARGFRAME DOVERLAY, 0, STATIC
        FUNCALL ZDSecMgrSendNwkKey, osal_memset
        LOCFRAME ISTACK, 0, STACK
        LOCFRAME PSTACK, 0, STACK
        LOCFRAME XSTACK, 40, STACK
        LOCFRAME IOVERLAY, 0, STATIC
        LOCFRAME DOVERLAY, 0, STATIC
        ARGFRAME ISTACK, 0, STACK
        ARGFRAME PSTACK, 0, STACK
        ARGFRAME XSTACK, 40, STACK
        ARGFRAME IOVERLAY, 0, STATIC
        ARGFRAME DOVERLAY, 0, STATIC
        FUNCALL ZDSecMgrSendNwkKey, NLME_GetShortAddr
        LOCFRAME ISTACK, 0, STACK
        LOCFRAME PSTACK, 0, STACK
        LOCFRAME XSTACK, 40, STACK
        LOCFRAME IOVERLAY, 0, STATIC
        LOCFRAME DOVERLAY, 0, STATIC
        ARGFRAME ISTACK, 0, STACK
        ARGFRAME PSTACK, 0, STACK
        ARGFRAME XSTACK, 40, STACK
        ARGFRAME IOVERLAY, 0, STATIC
        ARGFRAME DOVERLAY, 0, STATIC
        FUNCALL ZDSecMgrSendNwkKey, NLME_GetShortAddr
        LOCFRAME ISTACK, 0, STACK
        LOCFRAME PSTACK, 0, STACK
        LOCFRAME XSTACK, 40, STACK
        LOCFRAME IOVERLAY, 0, STATIC
        LOCFRAME DOVERLAY, 0, STATIC
        ARGFRAME ISTACK, 0, STACK
        ARGFRAME PSTACK, 0, STACK
        ARGFRAME XSTACK, 40, STACK
        ARGFRAME IOVERLAY, 0, STATIC
        ARGFRAME DOVERLAY, 0, STATIC
        FUNCALL ZDSecMgrSendNwkKey, APSME_TransportKeyReq
        LOCFRAME ISTACK, 0, STACK
        LOCFRAME PSTACK, 0, STACK
        LOCFRAME XSTACK, 40, STACK
        LOCFRAME IOVERLAY, 0, STATIC
        LOCFRAME DOVERLAY, 0, STATIC
        ARGFRAME ISTACK, 0, STACK
        ARGFRAME PSTACK, 0, STACK
        ARGFRAME XSTACK, 40, STACK
        ARGFRAME IOVERLAY, 0, STATIC
        ARGFRAME DOVERLAY, 0, STATIC
        FUNCALL ZDSecMgrSendNwkKey, osal_memset
        LOCFRAME ISTACK, 0, STACK
        LOCFRAME PSTACK, 0, STACK
        LOCFRAME XSTACK, 40, STACK
        LOCFRAME IOVERLAY, 0, STATIC
        LOCFRAME DOVERLAY, 0, STATIC
        ARGFRAME ISTACK, 0, STACK
        ARGFRAME PSTACK, 0, STACK
        ARGFRAME XSTACK, 40, STACK
        ARGFRAME IOVERLAY, 0, STATIC
        ARGFRAME DOVERLAY, 0, STATIC
        REQUIRE ?V0
        REQUIRE ?V1
        MOV       A,#-0xa
        LCALL     ?BANKED_ENTER_XDATA
          CFI DPH0 load(1, XDATA, add(CFA_XSP16, literal(-1)))
          CFI DPL0 load(1, XDATA, add(CFA_XSP16, literal(-2)))
          CFI ?BRET_EXT load(1, XDATA, add(CFA_XSP16, literal(-3)))
          CFI ?RET_HIGH load(1, XDATA, add(CFA_XSP16, literal(-4)))
          CFI ?RET_LOW load(1, XDATA, add(CFA_XSP16, literal(-5)))
          CFI R7 load(1, XDATA, add(CFA_XSP16, literal(-6)))
          CFI V1 load(1, XDATA, add(CFA_XSP16, literal(-7)))
          CFI V0 load(1, XDATA, add(CFA_XSP16, literal(-8)))
          CFI VB load(1, XDATA, add(CFA_XSP16, literal(-9)))
          CFI R6 load(1, XDATA, add(CFA_XSP16, literal(-10)))
          CFI CFA_SP SP+0
          CFI CFA_XSP16 add(XSP16, 10)
        ; Saved register size: 10
        ; Auto size: 30
        MOV       A,#-0x1e
        LCALL     ?ALLOC_XSTACK8
          CFI CFA_XSP16 add(XSP16, 40)
        MOV       A,R2
        MOV       R6,A
        MOV       A,R3
        LCALL     ?Subroutine30 & 0xFFFF
//  915   ZStatus_t status;
//  916   APSME_TransportKeyReq_t req;
//  917   APSDE_FrameTunnel_t tunnel;
//  918   nwkKeyDesc tmpKey;
//  919 
//  920   req.dstAddr   = device->nwkAddr;
??CrossCallReturnLabel_133:
        MOV       DPL,?XSP + 0
        MOV       DPH,?XSP + 1
        MOV       A,R0
        MOVX      @DPTR,A
        INC       DPTR
        MOV       A,R1
        LCALL     ?Subroutine18 & 0xFFFF
//  921   req.extAddr   = device->extAddr;
??CrossCallReturnLabel_9:
        MOV       A,#0x6
        LCALL     ?XSTACK_DISP0_8
        LCALL     ?Subroutine21 & 0xFFFF
//  922 
//  923   req.keyType   = KEY_TYPE_NWK;
??CrossCallReturnLabel_18:
        LCALL     ?XSTACK_DISP0_8
        MOV       A,#0x1
        MOVX      @DPTR,A
//  924 
//  925   // get the Active Key into a local variable
//  926   if ( NLME_ReadNwkKeyInfo( 0, sizeof(tmpKey), &tmpKey,
//  927                            ZCD_NV_NWK_ACTIVE_KEY_INFO ) != SUCCESS )
        ; Setup parameters for call to function NLME_ReadNwkKeyInfo
        MOV       ?V0,#0x3a
        MOV       ?V1,#0x0
        MOV       R0,#?V0
        LCALL     ?PUSH_XSTACK_I_TWO
          CFI CFA_XSP16 add(XSP16, 42)
        MOV       A,#0xf
        LCALL     ?XSTACK_DISP100_8
        MOV       ?V0,R0
        MOV       ?V1,R1
        MOV       R0,#?V0
        LCALL     ?PUSH_XSTACK_I_TWO
          CFI CFA_XSP16 add(XSP16, 44)
        MOV       R4,#0x11
        MOV       R5,#0x0
        MOV       R2,#0x0
        MOV       R3,#0x0
        LCALL     `??NLME_ReadNwkKeyInfo::?relay`; Banked call to: NLME_ReadNwkKeyInfo
        MOV       A,#0x4
        LCALL     ?DEALLOC_XSTACK8
          CFI CFA_XSP16 add(XSP16, 40)
        MOV       A,R1
        JZ        ??ZDSecMgrSendNwkKey_0
//  928   {
//  929     // set key data to all 0s if NV read fails
//  930     osal_memset(&tmpKey, 0x00, sizeof(tmpKey));
        ; Setup parameters for call to function osal_memset
        MOV       R4,#0x11
        MOV       R5,#0x0
        MOV       R1,#0x0
        MOV       A,#0xd
        LCALL     ?XSTACK_DISP101_8
        LCALL     `??osal_memset::?relay`; Banked call to: osal_memset
//  931   }
//  932 
//  933   if ( ZG_CHECK_SECURITY_MODE == ZG_SECURITY_SE_STANDARD )
//  934   {
//  935     // set values
//  936     req.keySeqNum = tmpKey.keySeqNum;
//  937     req.key       = tmpKey.key;
//  938 
//  939     //devtag.pro.security.todo - make sure that if there is no link key the NWK
//  940     //key isn't used to secure the frame at the APS layer -- since the receiving
//  941     //device may not have a NWK key yet
//  942     req.apsSecure = TRUE;
//  943 
//  944     // check if using secure hop to parent
//  945     if ( device->parentAddr == NLME_GetShortAddr() )
//  946     {
//  947       req.nwkSecure = FALSE;
//  948       req.tunnel    = NULL;
//  949     }
//  950     else
//  951     {
//  952       req.nwkSecure   = TRUE;
//  953       req.tunnel      = &tunnel;
//  954       req.tunnel->tna = device->parentAddr;
//  955       req.tunnel->dea = device->extAddr;
//  956     }
//  957   }
//  958   else
//  959   {
//  960     // default values
//  961     //devtag.0604.verify
//  962     req.nwkSecure = TRUE;
??ZDSecMgrSendNwkKey_0:
        MOV       A,#0xa
        LCALL     ?XSTACK_DISP0_8
        MOV       A,#0x1
        MOVX      @DPTR,A
//  963     req.apsSecure = FALSE;
        MOV       A,#0x9
        LCALL     ?XSTACK_DISP0_8
        CLR       A
        MOVX      @DPTR,A
//  964     req.tunnel    = NULL;
        MOV       A,#0xb
        LCALL     ?XSTACK_DISP0_8
        CLR       A
        MOVX      @DPTR,A
        INC       DPTR
        MOVX      @DPTR,A
//  965 
//  966     if ( device->parentAddr != NLME_GetShortAddr() )
        ; Setup parameters for call to function NLME_GetShortAddr
        LCALL     `??NLME_GetShortAddr::?relay`; Banked call to: NLME_GetShortAddr
        MOV       A,R6
        ADD       A,#0x4
        MOV       R0,A
        CLR       A
        ADDC      A,R7
        MOV       R1,A
        MOV       A,R0
        MOV       R6,A
        MOV       A,R1
        LCALL     ?Subroutine30 & 0xFFFF
??CrossCallReturnLabel_138:
        MOV       A,R2
        XRL       A,R0
        JNZ       ??ZDSecMgrSendNwkKey_1
        MOV       A,R3
        XRL       A,R1
??ZDSecMgrSendNwkKey_1:
        JZ        ??CrossCallReturnLabel_116
//  967     {
//  968       req.dstAddr = device->parentAddr;
        LCALL     ??Subroutine58_0 & 0xFFFF
//  969     }
//  970 
//  971     // send the real key
//  972     if ( zgPreConfigKeys == FALSE )
??CrossCallReturnLabel_116:
        MOV       DPTR,#zgPreConfigKeys
        MOVX      A,@DPTR
        JNZ       ??ZDSecMgrSendNwkKey_2
//  973     {
//  974       req.keySeqNum = tmpKey.keySeqNum;
        MOV       A,#0xd
        LCALL     ?XSTACK_DISP0_8
        MOVX      A,@DPTR
        PUSH      A
          CFI CFA_SP SP+-1
        MOV       A,#0x3
        LCALL     ?XSTACK_DISP0_8
        POP       A
          CFI CFA_SP SP+0
        MOVX      @DPTR,A
//  975       req.key       = tmpKey.key;
        MOV       A,#0xe
        LCALL     ?XSTACK_DISP0_8
        MOV       R0,DPL
        MOV       R1,DPH
        MOV       A,#0x4
        LCALL     ?XSTACK_DISP0_8
        LCALL     ??Subroutine59_0 & 0xFFFF
//  976 
//  977       // check if using secure hop to to parent
//  978       if ( device->parentAddr == NLME_GetShortAddr() )
??CrossCallReturnLabel_106:
        ; Setup parameters for call to function NLME_GetShortAddr
        LCALL     `??NLME_GetShortAddr::?relay`; Banked call to: NLME_GetShortAddr
        MOV       ?V0,R2
        MOV       ?V1,R3
        MOV       R0,?V0
        MOV       R1,?V1
        MOV       DPL,R6
        MOV       DPH,R7
        MOVX      A,@DPTR
        XRL       A,R0
        JNZ       ??ZDSecMgrSendNwkKey_3
        INC       DPTR
        MOVX      A,@DPTR
        XRL       A,R1
??ZDSecMgrSendNwkKey_3:
        JNZ       ??ZDSecMgrSendNwkKey_4
//  979       {
//  980         req.nwkSecure = FALSE;
        MOV       A,#0xa
        SJMP      ??ZDSecMgrSendNwkKey_5
//  981       }
//  982     }
//  983     else
//  984     {
//  985       // this is to send the all zero key when the NWK key has been preconfigured
//  986       req.key       = NULL;
??ZDSecMgrSendNwkKey_2:
        MOV       A,#0x4
        LCALL     ?XSTACK_DISP0_8
        CLR       A
        MOVX      @DPTR,A
        INC       DPTR
        MOVX      @DPTR,A
//  987       req.keySeqNum = 0;
        MOV       A,#0x3
??ZDSecMgrSendNwkKey_5:
        LCALL     ?XSTACK_DISP0_8
        CLR       A
        MOVX      @DPTR,A
//  988     }
//  989   }
//  990 
//  991   status = APSME_TransportKeyReq( &req );
??ZDSecMgrSendNwkKey_4:
        ; Setup parameters for call to function APSME_TransportKeyReq
        MOV       R2,?XSP + 0
        MOV       R3,?XSP + 1
        LCALL     `??APSME_TransportKeyReq::?relay`; Banked call to: APSME_TransportKeyReq
        MOV       A,R1
        MOV       R6,A
//  992 
//  993   // clear copy of key in RAM before return
//  994   osal_memset( &tmpKey, 0x00, sizeof(nwkKeyDesc) );
        ; Setup parameters for call to function osal_memset
        MOV       R4,#0x11
        MOV       R5,#0x0
        MOV       R1,#0x0
        MOV       A,#0xd
        LCALL     ?XSTACK_DISP101_8
        LCALL     `??osal_memset::?relay`; Banked call to: osal_memset
//  995 
//  996   return status;
        MOV       A,R6
        MOV       R1,A
        MOV       A,#0x1e
        LJMP      ??Subroutine54_0 & 0xFFFF
//  997 }
          CFI EndBlock cfiBlock101

        RSEG BANKED_CODE:HUGECODE:NOROOT(0)
?Subroutine21:
          CFI Block cfiCond102 Using cfiCommon0
          CFI Function ZDSecMgrAddrClear
          CFI Conditional ??CrossCallReturnLabel_17
          CFI R6 load(1, XDATA, add(CFA_XSP16, literal(-9)))
          CFI VB load(1, XDATA, add(CFA_XSP16, literal(-8)))
          CFI V0 load(1, XDATA, add(CFA_XSP16, literal(-7)))
          CFI R7 load(1, XDATA, add(CFA_XSP16, literal(-6)))
          CFI ?RET_LOW load(1, XDATA, add(CFA_XSP16, literal(-5)))
          CFI ?RET_HIGH load(1, XDATA, add(CFA_XSP16, literal(-4)))
          CFI ?BRET_EXT load(1, XDATA, add(CFA_XSP16, literal(-3)))
          CFI DPL0 load(1, XDATA, add(CFA_XSP16, literal(-2)))
          CFI DPH0 load(1, XDATA, add(CFA_XSP16, literal(-1)))
          CFI CFA_SP SP+-2
          CFI CFA_XSP16 add(XSP16, 24)
          CFI Block cfiCond103 Using cfiCommon0
          CFI (cfiCond103) Function ZDSecMgrSendNwkKey
          CFI (cfiCond103) Conditional ??CrossCallReturnLabel_18
          CFI (cfiCond103) R6 load(1, XDATA, add(CFA_XSP16, literal(-10)))
          CFI (cfiCond103) VB load(1, XDATA, add(CFA_XSP16, literal(-9)))
          CFI (cfiCond103) V0 load(1, XDATA, add(CFA_XSP16, literal(-8)))
          CFI (cfiCond103) V1 load(1, XDATA, add(CFA_XSP16, literal(-7)))
          CFI (cfiCond103) R7 load(1, XDATA, add(CFA_XSP16, literal(-6)))
          CFI (cfiCond103) ?RET_LOW load(1, XDATA, add(CFA_XSP16, literal(-5)))
          CFI (cfiCond103) ?RET_HIGH load(1, XDATA, add(CFA_XSP16, literal(-4)))
          CFI (cfiCond103) ?BRET_EXT load(1, XDATA, add(CFA_XSP16, literal(-3)))
          CFI (cfiCond103) DPL0 load(1, XDATA, add(CFA_XSP16, literal(-2)))
          CFI (cfiCond103) DPH0 load(1, XDATA, add(CFA_XSP16, literal(-1)))
          CFI (cfiCond103) CFA_SP SP+-2
          CFI (cfiCond103) CFA_XSP16 add(XSP16, 40)
          CFI Block cfiCond104 Using cfiCommon0
          CFI (cfiCond104) Function ZDSecMgrDeviceJoin
          CFI (cfiCond104) Conditional ??CrossCallReturnLabel_19
          CFI (cfiCond104) R6 load(1, XDATA, add(CFA_XSP16, literal(-16)))
          CFI (cfiCond104) VB load(1, XDATA, add(CFA_XSP16, literal(-15)))
          CFI (cfiCond104) V0 load(1, XDATA, add(CFA_XSP16, literal(-14)))
          CFI (cfiCond104) V1 load(1, XDATA, add(CFA_XSP16, literal(-13)))
          CFI (cfiCond104) V2 load(1, XDATA, add(CFA_XSP16, literal(-12)))
          CFI (cfiCond104) V3 load(1, XDATA, add(CFA_XSP16, literal(-11)))
          CFI (cfiCond104) V4 load(1, XDATA, add(CFA_XSP16, literal(-10)))
          CFI (cfiCond104) V5 load(1, XDATA, add(CFA_XSP16, literal(-9)))
          CFI (cfiCond104) V6 load(1, XDATA, add(CFA_XSP16, literal(-8)))
          CFI (cfiCond104) V7 load(1, XDATA, add(CFA_XSP16, literal(-7)))
          CFI (cfiCond104) R7 load(1, XDATA, add(CFA_XSP16, literal(-6)))
          CFI (cfiCond104) ?RET_LOW load(1, XDATA, add(CFA_XSP16, literal(-5)))
          CFI (cfiCond104) ?RET_HIGH load(1, XDATA, add(CFA_XSP16, literal(-4)))
          CFI (cfiCond104) ?BRET_EXT load(1, XDATA, add(CFA_XSP16, literal(-3)))
          CFI (cfiCond104) DPL0 load(1, XDATA, add(CFA_XSP16, literal(-2)))
          CFI (cfiCond104) DPH0 load(1, XDATA, add(CFA_XSP16, literal(-1)))
          CFI (cfiCond104) CFA_SP SP+-2
          CFI (cfiCond104) CFA_XSP16 add(XSP16, 30)
          CFI Block cfiPicker105 Using cfiCommon1
          CFI (cfiPicker105) NoFunction
          CFI (cfiPicker105) Picker
        MOV       A,R0
        MOVX      @DPTR,A
        INC       DPTR
        MOV       A,R1
        MOVX      @DPTR,A
        ; Setup parameters for call to function AddrMgrEntryRelease
        ; Setup parameters for indirect call
        MOV       A,#0x2
        RET
          CFI EndBlock cfiCond102
          CFI EndBlock cfiCond103
          CFI EndBlock cfiCond104
          CFI EndBlock cfiPicker105
//  998 
//  999 /******************************************************************************
// 1000  * @fn          ZDSecMgrDeviceRemoveByExtAddr
// 1001  *
// 1002  * @brief       Remove device entry by its ext address.
// 1003  *
// 1004  * @param       pAddr - pointer to the extended address
// 1005  *
// 1006  * @return      ZStatus_t
// 1007  */

        RSEG BANKED_CODE:HUGECODE:NOROOT(0)
// 1008 ZStatus_t ZDSecMgrDeviceRemoveByExtAddr( uint8 *pAddr )
ZDSecMgrDeviceRemoveByExtAddr:
          CFI Block cfiBlock106 Using cfiCommon0
          CFI Function ZDSecMgrDeviceRemoveByExtAddr
        CODE
// 1009 {
        FUNCALL ZDSecMgrDeviceRemoveByExtAddr, ZDSecMgrEntryLookupExt
        LOCFRAME ISTACK, 0, STACK
        LOCFRAME PSTACK, 0, STACK
        LOCFRAME XSTACK, 11, STACK
        LOCFRAME IOVERLAY, 0, STATIC
        LOCFRAME DOVERLAY, 0, STATIC
        ARGFRAME ISTACK, 0, STACK
        ARGFRAME PSTACK, 0, STACK
        ARGFRAME XSTACK, 11, STACK
        ARGFRAME IOVERLAY, 0, STATIC
        ARGFRAME DOVERLAY, 0, STATIC
        FUNCALL ZDSecMgrDeviceRemoveByExtAddr, ZDSecMgrEntryFree
        LOCFRAME ISTACK, 0, STACK
        LOCFRAME PSTACK, 0, STACK
        LOCFRAME XSTACK, 11, STACK
        LOCFRAME IOVERLAY, 0, STATIC
        LOCFRAME DOVERLAY, 0, STATIC
        ARGFRAME ISTACK, 0, STACK
        ARGFRAME PSTACK, 0, STACK
        ARGFRAME XSTACK, 11, STACK
        ARGFRAME IOVERLAY, 0, STATIC
        ARGFRAME DOVERLAY, 0, STATIC
        MOV       A,#-0x9
        LCALL     ?BANKED_ENTER_XDATA
          CFI DPH0 load(1, XDATA, add(CFA_XSP16, literal(-1)))
          CFI DPL0 load(1, XDATA, add(CFA_XSP16, literal(-2)))
          CFI ?BRET_EXT load(1, XDATA, add(CFA_XSP16, literal(-3)))
          CFI ?RET_HIGH load(1, XDATA, add(CFA_XSP16, literal(-4)))
          CFI ?RET_LOW load(1, XDATA, add(CFA_XSP16, literal(-5)))
          CFI R7 load(1, XDATA, add(CFA_XSP16, literal(-6)))
          CFI V0 load(1, XDATA, add(CFA_XSP16, literal(-7)))
          CFI VB load(1, XDATA, add(CFA_XSP16, literal(-8)))
          CFI R6 load(1, XDATA, add(CFA_XSP16, literal(-9)))
          CFI CFA_SP SP+0
          CFI CFA_XSP16 add(XSP16, 9)
        ; Saved register size: 9
        ; Auto size: 2
        MOV       A,#-0x2
        LCALL     ?ALLOC_XSTACK8
          CFI CFA_XSP16 add(XSP16, 11)
// 1010   ZDSecMgrEntry_t *pEntry;
// 1011   uint8           retValue;
// 1012 
// 1013   retValue = (uint8)ZDSecMgrEntryLookupExt( pAddr, &pEntry );
        ; Setup parameters for call to function ZDSecMgrEntryLookupExt
        MOV       R4,?XSP + 0
        MOV       R5,?XSP + 1
        LCALL     `??ZDSecMgrEntryLookupExt::?relay`; Banked call to: ZDSecMgrEntryLookupExt
        MOV       A,R1
        MOV       R6,A
// 1014 
// 1015   if( retValue == ZSuccess )
        JNZ       ??ZDSecMgrDeviceRemoveByExtAddr_0
// 1016   {
// 1017     // remove device from entry data
// 1018     ZDSecMgrEntryFree( pEntry );
        ; Setup parameters for call to function ZDSecMgrEntryFree
        MOV       DPL,?XSP + 0
        MOV       DPH,?XSP + 1
        LCALL     ??Subroutine57_0 & 0xFFFF
// 1019   }
??CrossCallReturnLabel_85:
        LCALL     `??ZDSecMgrEntryFree::?relay`; Banked call to: ZDSecMgrEntryFree
// 1020 
// 1021   return retValue;
??ZDSecMgrDeviceRemoveByExtAddr_0:
        MOV       A,R6
        MOV       R1,A
          CFI EndBlock cfiBlock106
        REQUIRE ?Subroutine7
        ; // Fall through to label ?Subroutine7
// 1022 }

        RSEG BANKED_CODE:HUGECODE:NOROOT(0)
?Subroutine7:
          CFI Block cfiBlock107 Using cfiCommon0
          CFI NoFunction
          CFI CFA_SP SP+0
          CFI CFA_XSP16 add(XSP16, 11)
          CFI VB load(1, XDATA, add(CFA_XSP16, literal(-8)))
          CFI DPL0 load(1, XDATA, add(CFA_XSP16, literal(-2)))
          CFI DPH0 load(1, XDATA, add(CFA_XSP16, literal(-1)))
          CFI R6 load(1, XDATA, add(CFA_XSP16, literal(-9)))
          CFI R7 load(1, XDATA, add(CFA_XSP16, literal(-6)))
          CFI V0 load(1, XDATA, add(CFA_XSP16, literal(-7)))
          CFI ?BRET_EXT load(1, XDATA, add(CFA_XSP16, literal(-3)))
          CFI ?RET_HIGH load(1, XDATA, add(CFA_XSP16, literal(-4)))
          CFI ?RET_LOW load(1, XDATA, add(CFA_XSP16, literal(-5)))
        MOV       A,#0x2
        LJMP      ??Subroutine62_0 & 0xFFFF
          CFI EndBlock cfiBlock107
// 1023 
// 1024 /******************************************************************************
// 1025  * @fn          ZDSecMgrDeviceRemove
// 1026  *
// 1027  * @brief       Remove device from network.
// 1028  *
// 1029  * @param       device - [in] ZDSecMgrDevice_t, device info
// 1030  *
// 1031  * @return      none
// 1032  */

        RSEG BANKED_CODE:HUGECODE:NOROOT(0)
// 1033 void ZDSecMgrDeviceRemove( ZDSecMgrDevice_t* device )
ZDSecMgrDeviceRemove:
          CFI Block cfiBlock108 Using cfiCommon0
          CFI Function ZDSecMgrDeviceRemove
        CODE
// 1034 {
        FUNCALL ZDSecMgrDeviceRemove, NLME_GetShortAddr
        LOCFRAME ISTACK, 0, STACK
        LOCFRAME PSTACK, 0, STACK
        LOCFRAME XSTACK, 20, STACK
        LOCFRAME IOVERLAY, 0, STATIC
        LOCFRAME DOVERLAY, 0, STATIC
        ARGFRAME ISTACK, 0, STACK
        ARGFRAME PSTACK, 0, STACK
        ARGFRAME XSTACK, 20, STACK
        ARGFRAME IOVERLAY, 0, STATIC
        ARGFRAME DOVERLAY, 0, STATIC
        FUNCALL ZDSecMgrDeviceRemove, AssocGetWithExt
        LOCFRAME ISTACK, 0, STACK
        LOCFRAME PSTACK, 0, STACK
        LOCFRAME XSTACK, 20, STACK
        LOCFRAME IOVERLAY, 0, STATIC
        LOCFRAME DOVERLAY, 0, STATIC
        ARGFRAME ISTACK, 0, STACK
        ARGFRAME PSTACK, 0, STACK
        ARGFRAME XSTACK, 20, STACK
        ARGFRAME IOVERLAY, 0, STATIC
        ARGFRAME DOVERLAY, 0, STATIC
        FUNCALL ZDSecMgrDeviceRemove, NLME_LeaveReq
        LOCFRAME ISTACK, 0, STACK
        LOCFRAME PSTACK, 0, STACK
        LOCFRAME XSTACK, 20, STACK
        LOCFRAME IOVERLAY, 0, STATIC
        LOCFRAME DOVERLAY, 0, STATIC
        ARGFRAME ISTACK, 0, STACK
        ARGFRAME PSTACK, 0, STACK
        ARGFRAME XSTACK, 20, STACK
        ARGFRAME IOVERLAY, 0, STATIC
        ARGFRAME DOVERLAY, 0, STATIC
        FUNCALL ZDSecMgrDeviceRemove, NLME_GetShortAddr
        LOCFRAME ISTACK, 0, STACK
        LOCFRAME PSTACK, 0, STACK
        LOCFRAME XSTACK, 20, STACK
        LOCFRAME IOVERLAY, 0, STATIC
        LOCFRAME DOVERLAY, 0, STATIC
        ARGFRAME ISTACK, 0, STACK
        ARGFRAME PSTACK, 0, STACK
        ARGFRAME XSTACK, 20, STACK
        ARGFRAME IOVERLAY, 0, STATIC
        ARGFRAME DOVERLAY, 0, STATIC
        FUNCALL ZDSecMgrDeviceRemove, NLME_LeaveReq
        LOCFRAME ISTACK, 0, STACK
        LOCFRAME PSTACK, 0, STACK
        LOCFRAME XSTACK, 20, STACK
        LOCFRAME IOVERLAY, 0, STATIC
        LOCFRAME DOVERLAY, 0, STATIC
        ARGFRAME ISTACK, 0, STACK
        ARGFRAME PSTACK, 0, STACK
        ARGFRAME XSTACK, 20, STACK
        ARGFRAME IOVERLAY, 0, STATIC
        ARGFRAME DOVERLAY, 0, STATIC
        FUNCALL ZDSecMgrDeviceRemove, APSME_RemoveDeviceReq
        LOCFRAME ISTACK, 0, STACK
        LOCFRAME PSTACK, 0, STACK
        LOCFRAME XSTACK, 20, STACK
        LOCFRAME IOVERLAY, 0, STATIC
        LOCFRAME DOVERLAY, 0, STATIC
        ARGFRAME ISTACK, 0, STACK
        ARGFRAME PSTACK, 0, STACK
        ARGFRAME XSTACK, 20, STACK
        ARGFRAME IOVERLAY, 0, STATIC
        ARGFRAME DOVERLAY, 0, STATIC
        REQUIRE ?V0
        REQUIRE ?V1
        MOV       A,#-0xa
        LCALL     ?BANKED_ENTER_XDATA
          CFI DPH0 load(1, XDATA, add(CFA_XSP16, literal(-1)))
          CFI DPL0 load(1, XDATA, add(CFA_XSP16, literal(-2)))
          CFI ?BRET_EXT load(1, XDATA, add(CFA_XSP16, literal(-3)))
          CFI ?RET_HIGH load(1, XDATA, add(CFA_XSP16, literal(-4)))
          CFI ?RET_LOW load(1, XDATA, add(CFA_XSP16, literal(-5)))
          CFI R7 load(1, XDATA, add(CFA_XSP16, literal(-6)))
          CFI V1 load(1, XDATA, add(CFA_XSP16, literal(-7)))
          CFI V0 load(1, XDATA, add(CFA_XSP16, literal(-8)))
          CFI VB load(1, XDATA, add(CFA_XSP16, literal(-9)))
          CFI R6 load(1, XDATA, add(CFA_XSP16, literal(-10)))
          CFI CFA_SP SP+0
          CFI CFA_XSP16 add(XSP16, 10)
        ; Saved register size: 10
        ; Auto size: 10
        MOV       A,#-0xa
        LCALL     ?ALLOC_XSTACK8
          CFI CFA_XSP16 add(XSP16, 20)
        MOV       A,R2
        MOV       R6,A
        MOV       A,R3
        MOV       R7,A
// 1035   APSME_RemoveDeviceReq_t remDevReq;
// 1036   NLME_LeaveReq_t         leaveReq;
// 1037   associated_devices_t*   assoc;
// 1038   uint8 TC_ExtAddr[Z_EXTADDR_LEN];
// 1039 
// 1040   // check if parent, remove the device
// 1041   if ( device->parentAddr == NLME_GetShortAddr() )
        ; Setup parameters for call to function NLME_GetShortAddr
        LCALL     `??NLME_GetShortAddr::?relay`; Banked call to: NLME_GetShortAddr
        MOV       ?V0,R2
        MOV       ?V1,R3
        MOV       DPL,R6
        MOV       DPH,R7
        INC       DPTR
        INC       DPTR
        LCALL     ??Subroutine56_0 & 0xFFFF
??CrossCallReturnLabel_93:
        MOV       A,R6
        ADD       A,#0x2
        MOV       R0,A
        CLR       A
        ADDC      A,R7
        MOV       R1,A
        MOV       A,?V0
        XRL       A,R2
        JNZ       ??ZDSecMgrDeviceRemove_0
        MOV       A,?V1
        XRL       A,R3
??ZDSecMgrDeviceRemove_0:
        JZ        $+5
        LJMP      ??ZDSecMgrDeviceRemove_1 & 0xFFFF
// 1042   {
// 1043     // this is the parent of the device
// 1044     leaveReq.extAddr        = device->extAddr;
        MOV       DPL,R0
        MOV       DPH,R1
        LCALL     ??Subroutine57_0 & 0xFFFF
??CrossCallReturnLabel_86:
        LCALL     ?Subroutine23 & 0xFFFF
// 1045     leaveReq.removeChildren = FALSE;
??CrossCallReturnLabel_76:
        LCALL     ?XSTACK_DISP0_8
        CLR       A
        MOVX      @DPTR,A
// 1046     leaveReq.rejoin         = FALSE;
        MOV       A,#0x3
        LCALL     ?XSTACK_DISP0_8
        CLR       A
        LCALL     ?Subroutine24 & 0xFFFF
// 1047 
// 1048     // find child association
// 1049     assoc = AssocGetWithExt( device->extAddr );
??CrossCallReturnLabel_20:
        MOV       R2,A
        INC       DPTR
        MOVX      A,@DPTR
        MOV       R3,A
        LCALL     `??AssocGetWithExt::?relay`; Banked call to: AssocGetWithExt
        MOV       ?V0,R2
        MOV       ?V1,R3
        MOV       R0,?V0
        MOV       R1,?V1
// 1050 
// 1051     if ( ( assoc != NULL                            ) &&
// 1052          ( assoc->nodeRelation >= CHILD_RFD         ) &&
// 1053          ( assoc->nodeRelation <= CHILD_FFD_RX_IDLE )    )
        MOV       A,R0
        ORL       A,R1
        JZ        ??ZDSecMgrDeviceRemove_2
        MOV       DPL,R0
        MOV       DPH,R1
        INC       DPTR
        INC       DPTR
        INC       DPTR
        INC       DPTR
        MOVX      A,@DPTR
        JZ        ??ZDSecMgrDeviceRemove_2
        CLR       C
        SUBB      A,#0x5
        JNC       ??ZDSecMgrDeviceRemove_2
// 1054     {
// 1055       // check if associated device is authenticated
// 1056       if ( assoc->devStatus & DEV_SEC_AUTH_STATUS )
        MOV       DPL,R0
        MOV       DPH,R1
        INC       DPTR
        INC       DPTR
        INC       DPTR
        INC       DPTR
        INC       DPTR
        MOVX      A,@DPTR
        MOV       C,0xE0 /* A   */.3
        MOV       A,#0x4
        JC        ??ZDSecMgrDeviceRemove_3
// 1057       {
// 1058         leaveReq.silent = FALSE;
// 1059       }
// 1060       else
// 1061       {
// 1062         leaveReq.silent = TRUE;
        LCALL     ?XSTACK_DISP0_8
        MOV       A,#0x1
        SJMP      ??ZDSecMgrDeviceRemove_4
        ; Setup parameters for call to function NLME_LeaveReq
// 1063       }
// 1064 
// 1065       NLME_LeaveReq( &leaveReq );
// 1066     }
// 1067     else if ( device->nwkAddr == NLME_GetShortAddr() )
??ZDSecMgrDeviceRemove_2:
        ; Setup parameters for call to function NLME_GetShortAddr
        LCALL     `??NLME_GetShortAddr::?relay`; Banked call to: NLME_GetShortAddr
        MOV       ?V0,R2
        MOV       ?V1,R3
        MOV       R0,?V0
        MOV       R1,?V1
        MOV       DPL,R6
        MOV       DPH,R7
        MOVX      A,@DPTR
        XRL       A,R0
        JNZ       ??ZDSecMgrDeviceRemove_5
        INC       DPTR
        MOVX      A,@DPTR
        XRL       A,R1
??ZDSecMgrDeviceRemove_5:
        JNZ       ??ZDSecMgrDeviceRemove_6
// 1068     {
// 1069       // this is when ZC wants that ZR removes itself from the network
// 1070       leaveReq.extAddr = NULL;
        MOV       DPL,?XSP + 0
        MOV       DPH,?XSP + 1
        CLR       A
        MOVX      @DPTR,A
        INC       DPTR
        MOVX      @DPTR,A
// 1071       leaveReq.silent = FALSE;
        MOV       A,#0x4
??ZDSecMgrDeviceRemove_3:
        LCALL     ?XSTACK_DISP0_8
        CLR       A
// 1072 
// 1073       NLME_LeaveReq( &leaveReq );
// 1074     }
// 1075   }
??ZDSecMgrDeviceRemove_4:
        LCALL     ??Subroutine65_0 & 0xFFFF
??CrossCallReturnLabel_121:
        LCALL     `??NLME_LeaveReq::?relay`; Banked call to: NLME_LeaveReq
        SJMP      ??ZDSecMgrDeviceRemove_6
// 1076   else
// 1077   {
// 1078     // this is not the parent of the device
// 1079     remDevReq.parentAddr   = device->parentAddr;
??ZDSecMgrDeviceRemove_1:
        MOV       A,#0x5
        LCALL     ?XSTACK_DISP0_8
        MOV       A,R2
        MOVX      @DPTR,A
        INC       DPTR
        MOV       A,R3
        LCALL     ?Subroutine24 & 0xFFFF
// 1080     remDevReq.childExtAddr = device->extAddr;
??CrossCallReturnLabel_21:
        MOV       R0,A
        INC       DPTR
        MOVX      A,@DPTR
        MOV       R1,A
        MOV       A,#0x7
        LCALL     ?XSTACK_DISP0_8
        LCALL     ??Subroutine59_0 & 0xFFFF
// 1081 
// 1082     if ( ZG_CHECK_SECURITY_MODE == ZG_SECURITY_SE_STANDARD )
// 1083     {
// 1084       uint8 found;
// 1085       APSME_GetRequest( apsTrustCenterAddress,0, TC_ExtAddr );
// 1086       
// 1087       APSME_SearchTCLinkKeyEntry(TC_ExtAddr,&found,NULL);
// 1088       
// 1089       // For ZG_GLOBAL_LINK_KEY the message has to be sent twice, one
// 1090       // APS un-encrypted and one APS encrypted, to make sure that it can interoperate
// 1091       // with legacy Coordinator devices which can only handle one or the other.
// 1092 #if defined ( APP_TP2_TEST_MODE )
// 1093       if ( ( zgApsLinkKeyType == ZG_GLOBAL_LINK_KEY ) && ( guTxApsSecON != TRUE ) )
// 1094 #else
// 1095       if ( ( zgApsLinkKeyType == ZG_GLOBAL_LINK_KEY ) && ( found == FALSE ) )
// 1096 #endif
// 1097       {
// 1098         remDevReq.apsSecure = FALSE;
// 1099 
// 1100         APSME_RemoveDeviceReq( &remDevReq );
// 1101       }
// 1102 
// 1103 #if defined ( APP_TP2_TEST_MODE )
// 1104       if ( guTxApsSecON != FALSE )
// 1105       {
// 1106         remDevReq.apsSecure = TRUE;
// 1107 
// 1108         APSME_RemoveDeviceReq( &remDevReq );
// 1109       }
// 1110 #else
// 1111       remDevReq.apsSecure = TRUE;
// 1112 
// 1113       APSME_RemoveDeviceReq( &remDevReq );
// 1114 #endif
// 1115     }
// 1116     else
// 1117     {
// 1118       remDevReq.apsSecure = FALSE;
??CrossCallReturnLabel_107:
        MOV       A,#0x9
        LCALL     ?XSTACK_DISP0_8
        CLR       A
        MOVX      @DPTR,A
// 1119 
// 1120       APSME_RemoveDeviceReq( &remDevReq );
        ; Setup parameters for call to function APSME_RemoveDeviceReq
        MOV       A,#0x5
        LCALL     ?XSTACK_DISP101_8
        LCALL     `??APSME_RemoveDeviceReq::?relay`; Banked call to: APSME_RemoveDeviceReq
// 1121     }
// 1122   }
// 1123 }
??ZDSecMgrDeviceRemove_6:
        MOV       A,#0xa
        SJMP      ??Subroutine54_0
          CFI EndBlock cfiBlock108

        RSEG BANKED_CODE:HUGECODE:NOROOT(0)
?Subroutine23:
          CFI Block cfiCond109 Using cfiCommon0
          CFI Function ZDSecMgrDeviceRemove
          CFI Conditional ??CrossCallReturnLabel_76
          CFI R6 load(1, XDATA, add(CFA_XSP16, literal(-10)))
          CFI VB load(1, XDATA, add(CFA_XSP16, literal(-9)))
          CFI V0 load(1, XDATA, add(CFA_XSP16, literal(-8)))
          CFI V1 load(1, XDATA, add(CFA_XSP16, literal(-7)))
          CFI R7 load(1, XDATA, add(CFA_XSP16, literal(-6)))
          CFI ?RET_LOW load(1, XDATA, add(CFA_XSP16, literal(-5)))
          CFI ?RET_HIGH load(1, XDATA, add(CFA_XSP16, literal(-4)))
          CFI ?BRET_EXT load(1, XDATA, add(CFA_XSP16, literal(-3)))
          CFI DPL0 load(1, XDATA, add(CFA_XSP16, literal(-2)))
          CFI DPH0 load(1, XDATA, add(CFA_XSP16, literal(-1)))
          CFI CFA_SP SP+-2
          CFI CFA_XSP16 add(XSP16, 20)
          CFI Block cfiCond110 Using cfiCommon0
          CFI (cfiCond110) Function ZDSecMgrAPSRemove
          CFI (cfiCond110) Conditional ??CrossCallReturnLabel_77
          CFI (cfiCond110) DPL0 Frame(CFA_SP, 4)
          CFI (cfiCond110) DPH0 Frame(CFA_SP, 5)
          CFI (cfiCond110) CFA_SP SP+-7
          CFI (cfiCond110) CFA_XSP16 add(XSP16, 8)
          CFI Block cfiPicker111 Using cfiCommon1
          CFI (cfiPicker111) NoFunction
          CFI (cfiPicker111) Picker
        MOV       DPL,?XSP + 0
        MOV       DPH,?XSP + 1
          CFI EndBlock cfiCond109
          CFI EndBlock cfiCond110
          CFI EndBlock cfiPicker111
        REQUIRE ??Subroutine53_0
        ; // Fall through to label ??Subroutine53_0

        RSEG BANKED_CODE:HUGECODE:NOROOT(0)
??Subroutine53_0:
          CFI Block cfiCond112 Using cfiCommon0
          CFI Function ZDSecMgrRemoveDeviceInd
          CFI Conditional ??CrossCallReturnLabel_78
          CFI R6 load(1, XDATA, add(CFA_XSP16, literal(-9)))
          CFI VB load(1, XDATA, add(CFA_XSP16, literal(-8)))
          CFI V0 load(1, XDATA, add(CFA_XSP16, literal(-7)))
          CFI R7 load(1, XDATA, add(CFA_XSP16, literal(-6)))
          CFI ?RET_LOW load(1, XDATA, add(CFA_XSP16, literal(-5)))
          CFI ?RET_HIGH load(1, XDATA, add(CFA_XSP16, literal(-4)))
          CFI ?BRET_EXT load(1, XDATA, add(CFA_XSP16, literal(-3)))
          CFI DPL0 load(1, XDATA, add(CFA_XSP16, literal(-2)))
          CFI DPH0 load(1, XDATA, add(CFA_XSP16, literal(-1)))
          CFI CFA_SP SP+-2
          CFI CFA_XSP16 add(XSP16, 17)
          CFI Block cfiCond113 Using cfiCommon0
          CFI (cfiCond113) Function ZDSecMgrDeviceRemove
          CFI (cfiCond113) Conditional ??CrossCallReturnLabel_76
          CFI (cfiCond113) R6 load(1, XDATA, add(CFA_XSP16, literal(-10)))
          CFI (cfiCond113) VB load(1, XDATA, add(CFA_XSP16, literal(-9)))
          CFI (cfiCond113) V0 load(1, XDATA, add(CFA_XSP16, literal(-8)))
          CFI (cfiCond113) V1 load(1, XDATA, add(CFA_XSP16, literal(-7)))
          CFI (cfiCond113) R7 load(1, XDATA, add(CFA_XSP16, literal(-6)))
          CFI (cfiCond113) ?RET_LOW load(1, XDATA, add(CFA_XSP16, literal(-5)))
          CFI (cfiCond113) ?RET_HIGH load(1, XDATA, add(CFA_XSP16, literal(-4)))
          CFI (cfiCond113) ?BRET_EXT load(1, XDATA, add(CFA_XSP16, literal(-3)))
          CFI (cfiCond113) DPL0 load(1, XDATA, add(CFA_XSP16, literal(-2)))
          CFI (cfiCond113) DPH0 load(1, XDATA, add(CFA_XSP16, literal(-1)))
          CFI (cfiCond113) CFA_SP SP+-2
          CFI (cfiCond113) CFA_XSP16 add(XSP16, 20)
          CFI Block cfiCond114 Using cfiCommon0
          CFI (cfiCond114) Function ZDSecMgrAPSRemove
          CFI (cfiCond114) Conditional ??CrossCallReturnLabel_77
          CFI (cfiCond114) DPL0 Frame(CFA_SP, 4)
          CFI (cfiCond114) DPH0 Frame(CFA_SP, 5)
          CFI (cfiCond114) CFA_SP SP+-7
          CFI (cfiCond114) CFA_XSP16 add(XSP16, 8)
          CFI Block cfiPicker115 Using cfiCommon1
          CFI (cfiPicker115) NoFunction
          CFI (cfiPicker115) Picker
        MOV       A,R2
        MOVX      @DPTR,A
        INC       DPTR
        MOV       A,R3
        MOVX      @DPTR,A
        MOV       A,#0x2
        RET
          CFI EndBlock cfiCond112
          CFI EndBlock cfiCond113
          CFI EndBlock cfiCond114
          CFI EndBlock cfiPicker115

        RSEG BANKED_CODE:HUGECODE:NOROOT(0)
?Subroutine4:
          CFI Block cfiBlock116 Using cfiCommon0
          CFI NoFunction
          CFI CFA_SP SP+0
          CFI CFA_XSP16 add(XSP16, 18)
          CFI VB load(1, XDATA, add(CFA_XSP16, literal(-9)))
          CFI DPL0 load(1, XDATA, add(CFA_XSP16, literal(-2)))
          CFI DPH0 load(1, XDATA, add(CFA_XSP16, literal(-1)))
          CFI R6 load(1, XDATA, add(CFA_XSP16, literal(-10)))
          CFI R7 load(1, XDATA, add(CFA_XSP16, literal(-6)))
          CFI V0 load(1, XDATA, add(CFA_XSP16, literal(-8)))
          CFI V1 load(1, XDATA, add(CFA_XSP16, literal(-7)))
          CFI ?BRET_EXT load(1, XDATA, add(CFA_XSP16, literal(-3)))
          CFI ?RET_HIGH load(1, XDATA, add(CFA_XSP16, literal(-4)))
          CFI ?RET_LOW load(1, XDATA, add(CFA_XSP16, literal(-5)))
        MOV       A,#0x8
          CFI EndBlock cfiBlock116
        REQUIRE ??Subroutine54_0
        ; // Fall through to label ??Subroutine54_0

        RSEG BANKED_CODE:HUGECODE:NOROOT(0)
??Subroutine54_0:
          CFI Block cfiBlock117 Using cfiCommon0
          CFI NoFunction
          CFI CFA_SP SP+0
          CFI CFA_XSP16 add(XSP16, 69)
          CFI VB load(1, XDATA, add(CFA_XSP16, literal(-9)))
          CFI DPL0 load(1, XDATA, add(CFA_XSP16, literal(-2)))
          CFI DPH0 load(1, XDATA, add(CFA_XSP16, literal(-1)))
          CFI R6 load(1, XDATA, add(CFA_XSP16, literal(-10)))
          CFI R7 load(1, XDATA, add(CFA_XSP16, literal(-6)))
          CFI V0 load(1, XDATA, add(CFA_XSP16, literal(-8)))
          CFI V1 load(1, XDATA, add(CFA_XSP16, literal(-7)))
          CFI ?BRET_EXT load(1, XDATA, add(CFA_XSP16, literal(-3)))
          CFI ?RET_HIGH load(1, XDATA, add(CFA_XSP16, literal(-4)))
          CFI ?RET_LOW load(1, XDATA, add(CFA_XSP16, literal(-5)))
          CFI Invalid
        LCALL     ?DEALLOC_XSTACK8
          CFI EndBlock cfiBlock117
        REQUIRE ??Subroutine55_0
        ; // Fall through to label ??Subroutine55_0

        RSEG BANKED_CODE:HUGECODE:NOROOT(0)
??Subroutine55_0:
          CFI Block cfiBlock118 Using cfiCommon0
          CFI NoFunction
          CFI CFA_SP SP+0
          CFI CFA_XSP16 add(XSP16, 10)
          CFI VB load(1, XDATA, add(CFA_XSP16, literal(-9)))
          CFI DPL0 load(1, XDATA, add(CFA_XSP16, literal(-2)))
          CFI DPH0 load(1, XDATA, add(CFA_XSP16, literal(-1)))
          CFI R6 load(1, XDATA, add(CFA_XSP16, literal(-10)))
          CFI R7 load(1, XDATA, add(CFA_XSP16, literal(-6)))
          CFI V0 load(1, XDATA, add(CFA_XSP16, literal(-8)))
          CFI V1 load(1, XDATA, add(CFA_XSP16, literal(-7)))
          CFI ?BRET_EXT load(1, XDATA, add(CFA_XSP16, literal(-3)))
          CFI ?RET_HIGH load(1, XDATA, add(CFA_XSP16, literal(-4)))
          CFI ?RET_LOW load(1, XDATA, add(CFA_XSP16, literal(-5)))
        MOV       R7,#0x2
        LJMP      ?BANKED_LEAVE_XDATA
          CFI EndBlock cfiBlock118
// 1124 
// 1125 /******************************************************************************
// 1126  * @fn          ZDSecMgrDeviceValidateRM (RESIDENTIAL MODE)
// 1127  *
// 1128  * @brief       Decide whether device is allowed.
// 1129  *
// 1130  * @param       device - [in] ZDSecMgrDevice_t, device info
// 1131  *
// 1132  * @return      ZStatus_t
// 1133  */

        RSEG BANKED_CODE:HUGECODE:NOROOT(0)
// 1134 ZStatus_t ZDSecMgrDeviceValidateRM( ZDSecMgrDevice_t* device )
ZDSecMgrDeviceValidateRM:
          CFI Block cfiBlock119 Using cfiCommon0
          CFI Function ZDSecMgrDeviceValidateRM
        CODE
// 1135 {
        PUSH      DPL
          CFI DPL0 Frame(CFA_SP, 4)
          CFI CFA_SP SP+-4
        PUSH      DPH
          CFI DPH0 Frame(CFA_SP, 5)
          CFI CFA_SP SP+-5
        ; Saved register size: 2
        ; Auto size: 0
// 1136   ZStatus_t status;
// 1137 
// 1138   status = ZSuccess;
        MOV       R1,#0x0
// 1139 
// 1140   (void)device;  // Intentionally unreferenced parameter
// 1141 
// 1142   // For test purpose, turning off the zgSecurePermitJoin flag will force
// 1143   // the trust center to reject any newly joining devices by sending
// 1144   // Remove-device to the parents.
// 1145   if ( zgSecurePermitJoin == FALSE )
        MOV       DPTR,#zgSecurePermitJoin
        MOVX      A,@DPTR
        JNZ       ??ZDSecMgrDeviceValidateRM_0
// 1146   {
// 1147     status = ZNwkUnknownDevice;
        MOV       R1,#-0x38
// 1148   }
// 1149 
// 1150 
// 1151 
// 1152 #if 0  // Taken out because the following functionality is only used for test
// 1153        // purpose. A more efficient (above) way is used. It can be put
// 1154        // back in if customers request for a white/black list feature.
// 1155        // ZDSecMgrStoredDeviceList[] is defined in ZDSecMgr.c
// 1156 
// 1157   // The following code processes the device black list (stored device list)
// 1158   // If the joining device is not part of the forbidden device list
// 1159   // Return ZSuccess. Otherwise, return ZNwkUnknownDevice. The trust center
// 1160   // will send Remove-device and ban the device from joining.
// 1161 
// 1162   uint8     index;
// 1163   uint8*    restricted;
// 1164 
// 1165   // Look through the stored device list - used for restricted devices
// 1166   for ( index = 0; index < ZDSECMGR_STORED_DEVICES; index++ )
// 1167   {
// 1168     restricted = ZDSecMgrStoredDeviceList[index];
// 1169 
// 1170     if ( AddrMgrExtAddrEqual( restricted, device->extAddr )  == TRUE )
// 1171     {
// 1172       // return as unknown device in regards to validation
// 1173       status = ZNwkUnknownDevice;
// 1174 
// 1175       // break from loop
// 1176       index = ZDSECMGR_STORED_DEVICES;
// 1177     }
// 1178   }
// 1179 
// 1180 #endif
// 1181 
// 1182   return status;
??ZDSecMgrDeviceValidateRM_0:
        LJMP      ??Subroutine60_0 & 0xFFFF
// 1183 }
          CFI EndBlock cfiBlock119
// 1184 
// 1185 /******************************************************************************
// 1186  * @fn          ZDSecMgrDeviceValidate
// 1187  *
// 1188  * @brief       Decide whether device is allowed.
// 1189  *
// 1190  * @param       device - [in] ZDSecMgrDevice_t, device info
// 1191  *
// 1192  * @return      ZStatus_t
// 1193  */

        RSEG BANKED_CODE:HUGECODE:NOROOT(0)
// 1194 ZStatus_t ZDSecMgrDeviceValidate( ZDSecMgrDevice_t* device )
ZDSecMgrDeviceValidate:
          CFI Block cfiBlock120 Using cfiCommon0
          CFI Function ZDSecMgrDeviceValidate
        CODE
// 1195 {
        FUNCALL ZDSecMgrDeviceValidate, ZDSecMgrDeviceValidateRM
        LOCFRAME ISTACK, 2, STACK
        LOCFRAME PSTACK, 0, STACK
        LOCFRAME XSTACK, 0, STACK
        LOCFRAME IOVERLAY, 0, STATIC
        LOCFRAME DOVERLAY, 0, STATIC
        ARGFRAME ISTACK, 2, STACK
        ARGFRAME PSTACK, 0, STACK
        ARGFRAME XSTACK, 0, STACK
        ARGFRAME IOVERLAY, 0, STATIC
        ARGFRAME DOVERLAY, 0, STATIC
        PUSH      DPL
          CFI DPL0 Frame(CFA_SP, 4)
          CFI CFA_SP SP+-4
        PUSH      DPH
          CFI DPH0 Frame(CFA_SP, 5)
          CFI CFA_SP SP+-5
        ; Saved register size: 2
        ; Auto size: 0
// 1196   ZStatus_t status;
// 1197 
// 1198   if ( ZDSecMgrPermitJoiningEnabled == TRUE )
        MOV       DPTR,#ZDSecMgrPermitJoiningEnabled
        MOVX      A,@DPTR
        XRL       A,#0x1
        JNZ       ??ZDSecMgrDeviceValidate_0
// 1199   {
// 1200     status = ZDSecMgrDeviceValidateRM( device );
        ; Setup parameters for call to function ZDSecMgrDeviceValidateRM
        LCALL     `??ZDSecMgrDeviceValidateRM::?relay`; Banked call to: ZDSecMgrDeviceValidateRM
        MOV       A,R1
        MOV       R1,A
        SJMP      ??ZDSecMgrDeviceValidate_1
// 1201   }
// 1202   else
// 1203   {
// 1204     status = ZNwkUnknownDevice;
??ZDSecMgrDeviceValidate_0:
        MOV       R1,#-0x38
// 1205   }
// 1206 
// 1207   return status;
??ZDSecMgrDeviceValidate_1:
        LJMP      ??Subroutine60_0 & 0xFFFF
// 1208 }
          CFI EndBlock cfiBlock120
// 1209 
// 1210 /******************************************************************************
// 1211  * @fn          ZDSecMgrDeviceJoin
// 1212  *
// 1213  * @brief       Try to join this device.
// 1214  *
// 1215  * @param       device - [in] ZDSecMgrDevice_t, device info
// 1216  *
// 1217  * @return      ZStatus_t
// 1218  */

        RSEG BANKED_CODE:HUGECODE:NOROOT(0)
// 1219 ZStatus_t ZDSecMgrDeviceJoin( ZDSecMgrDevice_t* device )
ZDSecMgrDeviceJoin:
          CFI Block cfiBlock121 Using cfiCommon0
          CFI Function ZDSecMgrDeviceJoin
        CODE
// 1220 {
        FUNCALL ZDSecMgrDeviceJoin, ZDSecMgrDeviceValidate
        LOCFRAME ISTACK, 0, STACK
        LOCFRAME PSTACK, 0, STACK
        LOCFRAME XSTACK, 30, STACK
        LOCFRAME IOVERLAY, 0, STATIC
        LOCFRAME DOVERLAY, 0, STATIC
        ARGFRAME ISTACK, 0, STACK
        ARGFRAME PSTACK, 0, STACK
        ARGFRAME XSTACK, 30, STACK
        ARGFRAME IOVERLAY, 0, STATIC
        ARGFRAME DOVERLAY, 0, STATIC
        FUNCALL ZDSecMgrDeviceJoin, ZDSecMgrAddrStore
        LOCFRAME ISTACK, 0, STACK
        LOCFRAME PSTACK, 0, STACK
        LOCFRAME XSTACK, 32, STACK
        LOCFRAME IOVERLAY, 0, STATIC
        LOCFRAME DOVERLAY, 0, STATIC
        ARGFRAME ISTACK, 0, STACK
        ARGFRAME PSTACK, 0, STACK
        ARGFRAME XSTACK, 32, STACK
        ARGFRAME IOVERLAY, 0, STATIC
        ARGFRAME DOVERLAY, 0, STATIC
        FUNCALL ZDSecMgrDeviceJoin, ZDSecMgrSendNwkKey
        LOCFRAME ISTACK, 0, STACK
        LOCFRAME PSTACK, 0, STACK
        LOCFRAME XSTACK, 30, STACK
        LOCFRAME IOVERLAY, 0, STATIC
        LOCFRAME DOVERLAY, 0, STATIC
        ARGFRAME ISTACK, 0, STACK
        ARGFRAME PSTACK, 0, STACK
        ARGFRAME XSTACK, 30, STACK
        ARGFRAME IOVERLAY, 0, STATIC
        ARGFRAME DOVERLAY, 0, STATIC
        FUNCALL ZDSecMgrDeviceJoin, ZDSecMgrAddrClear
        LOCFRAME ISTACK, 0, STACK
        LOCFRAME PSTACK, 0, STACK
        LOCFRAME XSTACK, 30, STACK
        LOCFRAME IOVERLAY, 0, STATIC
        LOCFRAME DOVERLAY, 0, STATIC
        ARGFRAME ISTACK, 0, STACK
        ARGFRAME PSTACK, 0, STACK
        ARGFRAME XSTACK, 30, STACK
        ARGFRAME IOVERLAY, 0, STATIC
        ARGFRAME DOVERLAY, 0, STATIC
        FUNCALL ZDSecMgrDeviceJoin, ZDSecMgrDeviceRemove
        LOCFRAME ISTACK, 0, STACK
        LOCFRAME PSTACK, 0, STACK
        LOCFRAME XSTACK, 30, STACK
        LOCFRAME IOVERLAY, 0, STATIC
        LOCFRAME DOVERLAY, 0, STATIC
        ARGFRAME ISTACK, 0, STACK
        ARGFRAME PSTACK, 0, STACK
        ARGFRAME XSTACK, 30, STACK
        ARGFRAME IOVERLAY, 0, STATIC
        ARGFRAME DOVERLAY, 0, STATIC
        FUNCALL ZDSecMgrDeviceJoin, osal_memcpy
        LOCFRAME ISTACK, 0, STACK
        LOCFRAME PSTACK, 0, STACK
        LOCFRAME XSTACK, 33, STACK
        LOCFRAME IOVERLAY, 0, STATIC
        LOCFRAME DOVERLAY, 0, STATIC
        ARGFRAME ISTACK, 0, STACK
        ARGFRAME PSTACK, 0, STACK
        ARGFRAME XSTACK, 33, STACK
        ARGFRAME IOVERLAY, 0, STATIC
        ARGFRAME DOVERLAY, 0, STATIC
        REQUIRE ?V0
        REQUIRE ?V1
        REQUIRE ?V2
        REQUIRE ?V3
        REQUIRE ?V4
        REQUIRE ?V6
        REQUIRE ?V7
        MOV       A,#-0x10
        LCALL     ?BANKED_ENTER_XDATA
          CFI DPH0 load(1, XDATA, add(CFA_XSP16, literal(-1)))
          CFI DPL0 load(1, XDATA, add(CFA_XSP16, literal(-2)))
          CFI ?BRET_EXT load(1, XDATA, add(CFA_XSP16, literal(-3)))
          CFI ?RET_HIGH load(1, XDATA, add(CFA_XSP16, literal(-4)))
          CFI ?RET_LOW load(1, XDATA, add(CFA_XSP16, literal(-5)))
          CFI R7 load(1, XDATA, add(CFA_XSP16, literal(-6)))
          CFI V7 load(1, XDATA, add(CFA_XSP16, literal(-7)))
          CFI V6 load(1, XDATA, add(CFA_XSP16, literal(-8)))
          CFI V5 load(1, XDATA, add(CFA_XSP16, literal(-9)))
          CFI V4 load(1, XDATA, add(CFA_XSP16, literal(-10)))
          CFI V3 load(1, XDATA, add(CFA_XSP16, literal(-11)))
          CFI V2 load(1, XDATA, add(CFA_XSP16, literal(-12)))
          CFI V1 load(1, XDATA, add(CFA_XSP16, literal(-13)))
          CFI V0 load(1, XDATA, add(CFA_XSP16, literal(-14)))
          CFI VB load(1, XDATA, add(CFA_XSP16, literal(-15)))
          CFI R6 load(1, XDATA, add(CFA_XSP16, literal(-16)))
          CFI CFA_SP SP+0
          CFI CFA_XSP16 add(XSP16, 16)
        ; Saved register size: 16
        ; Auto size: 14
        MOV       A,#-0xe
        LCALL     ?ALLOC_XSTACK8
          CFI CFA_XSP16 add(XSP16, 30)
        MOV       A,R2
        MOV       R6,A
        MOV       A,R3
        MOV       R7,A
// 1221   ZStatus_t status = ZSuccess;
        MOV       ?V4,#0x0
// 1222   uint16    ami;
// 1223 
// 1224   // attempt to validate device that joined/rejoined without security
// 1225   if ( device->secure == FALSE )
        MOV       A,R6
        ADD       A,#0x2
        MOV       ?V0,A
        CLR       A
        ADDC      A,R7
        MOV       ?V1,A
        MOV       A,R6
        ADD       A,#0x6
        MOV       R0,A
        CLR       A
        ADDC      A,R7
        MOV       R1,A
        MOV       ?V2,R0
        MOV       ?V3,R1
        MOV       DPL,R0
        MOV       DPH,A
        MOVX      A,@DPTR
        JNZ       ??ZDSecMgrDeviceJoin_0
// 1226   {
// 1227     status = ZDSecMgrDeviceValidate( device );
        ; Setup parameters for call to function ZDSecMgrDeviceValidate
        LCALL     `??ZDSecMgrDeviceValidate::?relay`; Banked call to: ZDSecMgrDeviceValidate
        MOV       A,R1
        MOV       ?V4,A
// 1228   }
// 1229 
// 1230   if ( status == ZSuccess )
        JNZ       ??ZDSecMgrDeviceJoin_1
// 1231   {
// 1232     // Add the device to the address manager
// 1233     ZDSecMgrAddrStore( device->nwkAddr, device->extAddr, &ami );
??ZDSecMgrDeviceJoin_0:
        ; Setup parameters for call to function ZDSecMgrAddrStore
        MOV       R0,?XSP + 0
        MOV       R1,?XSP + 1
        MOV       ?V6,R0
        MOV       ?V7,R1
        MOV       R0,#?V6
        LCALL     ?PUSH_XSTACK_I_TWO
          CFI CFA_XSP16 add(XSP16, 32)
        MOV       DPL,?V0
        MOV       DPH,?V1
        LCALL     ?Subroutine32 & 0xFFFF
??CrossCallReturnLabel_33:
        MOV       DPL,R6
        MOV       DPH,R7
        LCALL     ??Subroutine57_0 & 0xFFFF
??CrossCallReturnLabel_87:
        LCALL     `??ZDSecMgrAddrStore::?relay`; Banked call to: ZDSecMgrAddrStore
        MOV       A,#0x2
        LCALL     ?DEALLOC_XSTACK8
          CFI CFA_XSP16 add(XSP16, 30)
// 1234 
// 1235     // Only send the key to devices that have not been authenticated
// 1236     if ( ( device->devStatus & DEV_SEC_INIT_STATUS ) &&
// 1237          ( device->secure == FALSE ) )
        MOV       DPL,R6
        MOV       DPH,R7
        INC       DPTR
        INC       DPTR
        INC       DPTR
        INC       DPTR
        INC       DPTR
        INC       DPTR
        INC       DPTR
        MOVX      A,@DPTR
        MOV       C,0xE0 /* A   */.2
        JNC       ??ZDSecMgrDeviceJoin_1
        MOV       DPL,?V2
        MOV       DPH,?V3
        MOVX      A,@DPTR
        JNZ       ??ZDSecMgrDeviceJoin_1
// 1238     {
// 1239       //send the nwk key data to the joining device
// 1240       status = ZDSecMgrSendNwkKey( device );
        ; Setup parameters for call to function ZDSecMgrSendNwkKey
        MOV       A,R6
        MOV       R2,A
        MOV       A,R7
        MOV       R3,A
        LCALL     `??ZDSecMgrSendNwkKey::?relay`; Banked call to: ZDSecMgrSendNwkKey
        MOV       A,R1
        MOV       ?V4,A
// 1241     }
// 1242 
// 1243     if ( status != ZSuccess )
        JZ        ??ZDSecMgrDeviceJoin_2
// 1244     {
// 1245       ZDSecMgrAddrClear( device->extAddr );
        ; Setup parameters for call to function ZDSecMgrAddrClear
        MOV       DPL,?V0
        MOV       DPH,?V1
        LCALL     ??Subroutine57_0 & 0xFFFF
// 1246     }
// 1247   }
??CrossCallReturnLabel_88:
        LCALL     `??ZDSecMgrAddrClear::?relay`; Banked call to: ZDSecMgrAddrClear
        SJMP      ??ZDSecMgrDeviceJoin_3
// 1248 
// 1249   if ( status != ZSuccess )
??ZDSecMgrDeviceJoin_1:
        MOV       A,?V4
        JZ        ??ZDSecMgrDeviceJoin_2
// 1250   {
// 1251     // not allowed or transport key failed, remove the device
// 1252     ZDSecMgrDeviceRemove( device );
??ZDSecMgrDeviceJoin_3:
        ; Setup parameters for call to function ZDSecMgrDeviceRemove
        MOV       A,R6
        MOV       R2,A
        MOV       A,R7
        MOV       R3,A
        LCALL     `??ZDSecMgrDeviceRemove::?relay`; Banked call to: ZDSecMgrDeviceRemove
        SJMP      ??ZDSecMgrDeviceJoin_4
// 1253   }
// 1254   else
// 1255   {
// 1256     // Pass the Trust Center Device Indication to higher layer if callback registered
// 1257     if (zdoCBFunc[ZDO_TC_DEVICE_CBID] != NULL )
??ZDSecMgrDeviceJoin_2:
        MOV       DPTR,#zdoCBFunc + 16
        LCALL     ??Subroutine70_0 & 0xFFFF
??CrossCallReturnLabel_149:
        JZ        ??ZDSecMgrDeviceJoin_4
// 1258     {
// 1259       ZDO_TC_Device_t dev;
// 1260 
// 1261       dev.nwkAddr = device->nwkAddr;
        MOV       DPL,R6
        MOV       DPH,R7
        LCALL     ?Subroutine29 & 0xFFFF
??CrossCallReturnLabel_26:
        LCALL     ?XSTACK_DISP0_8
        LCALL     ??Subroutine59_0 & 0xFFFF
// 1262       osal_memcpy( dev.extAddr, device->extAddr, Z_EXTADDR_LEN );
??CrossCallReturnLabel_108:
        ; Setup parameters for call to function osal_memcpy
        MOV       DPL,?V0
        MOV       DPH,?V1
        MOVX      A,@DPTR
        MOV       ?V0,A
        INC       DPTR
        MOVX      A,@DPTR
        MOV       ?V1,A
        MOV       ?V2,#0x0
        MOV       R0,#?V0
        LCALL     ?PUSH_XSTACK_I_THREE
          CFI CFA_XSP16 add(XSP16, 33)
        MOV       R4,#0x8
        MOV       R5,#0x0
        MOV       A,#0x7
        LCALL     ?XSTACK_DISP0_8
        MOV       R2,DPL
        MOV       R3,DPH
        LCALL     `??osal_memcpy::?relay`; Banked call to: osal_memcpy
        MOV       A,#0x3
        LCALL     ?DEALLOC_XSTACK8
          CFI CFA_XSP16 add(XSP16, 30)
// 1263       dev.parentAddr = device->parentAddr;
        MOV       DPL,R6
        MOV       DPH,R7
        INC       DPTR
        INC       DPTR
        INC       DPTR
        INC       DPTR
        LCALL     ??Subroutine68_0 & 0xFFFF
// 1264 
// 1265       zdoCBFunc[ZDO_TC_DEVICE_CBID]( (void*)&dev );
// 1266     }
// 1267   }
??CrossCallReturnLabel_135:
        MOV       A,#0xc
        LCALL     ?XSTACK_DISP0_8
        LCALL     ?Subroutine21 & 0xFFFF
??CrossCallReturnLabel_19:
        LCALL     ?XSTACK_DISP101_8
        MOV       DPTR,#zdoCBFunc + 16
        LCALL     ??Subroutine67_0 & 0xFFFF
??CrossCallReturnLabel_128:
        LCALL     ?CALL_IND
// 1268       
// 1269       
// 1270 
// 1271   return status;
??ZDSecMgrDeviceJoin_4:
        MOV       R1,?V4
        MOV       A,#0xe
        LCALL     ?DEALLOC_XSTACK8
          CFI CFA_XSP16 add(XSP16, 16)
        MOV       R7,#0x8
        LJMP      ?BANKED_LEAVE_XDATA
// 1272 }
          CFI EndBlock cfiBlock121

        RSEG BANKED_CODE:HUGECODE:NOROOT(0)
?Subroutine29:
          CFI Block cfiCond122 Using cfiCommon0
          CFI Function ZDSecMgrAppKeyReq
          CFI Conditional ??CrossCallReturnLabel_25
          CFI R6 load(1, XDATA, add(CFA_XSP16, literal(-12)))
          CFI VB load(1, XDATA, add(CFA_XSP16, literal(-11)))
          CFI V0 load(1, XDATA, add(CFA_XSP16, literal(-10)))
          CFI V1 load(1, XDATA, add(CFA_XSP16, literal(-9)))
          CFI V2 load(1, XDATA, add(CFA_XSP16, literal(-8)))
          CFI V3 load(1, XDATA, add(CFA_XSP16, literal(-7)))
          CFI R7 load(1, XDATA, add(CFA_XSP16, literal(-6)))
          CFI ?RET_LOW load(1, XDATA, add(CFA_XSP16, literal(-5)))
          CFI ?RET_HIGH load(1, XDATA, add(CFA_XSP16, literal(-4)))
          CFI ?BRET_EXT load(1, XDATA, add(CFA_XSP16, literal(-3)))
          CFI DPL0 load(1, XDATA, add(CFA_XSP16, literal(-2)))
          CFI DPH0 load(1, XDATA, add(CFA_XSP16, literal(-1)))
          CFI CFA_SP SP+-2
          CFI CFA_XSP16 add(XSP16, 51)
          CFI Block cfiCond123 Using cfiCommon0
          CFI (cfiCond123) Function ZDSecMgrDeviceJoin
          CFI (cfiCond123) Conditional ??CrossCallReturnLabel_26
          CFI (cfiCond123) R6 load(1, XDATA, add(CFA_XSP16, literal(-16)))
          CFI (cfiCond123) VB load(1, XDATA, add(CFA_XSP16, literal(-15)))
          CFI (cfiCond123) V0 load(1, XDATA, add(CFA_XSP16, literal(-14)))
          CFI (cfiCond123) V1 load(1, XDATA, add(CFA_XSP16, literal(-13)))
          CFI (cfiCond123) V2 load(1, XDATA, add(CFA_XSP16, literal(-12)))
          CFI (cfiCond123) V3 load(1, XDATA, add(CFA_XSP16, literal(-11)))
          CFI (cfiCond123) V4 load(1, XDATA, add(CFA_XSP16, literal(-10)))
          CFI (cfiCond123) V5 load(1, XDATA, add(CFA_XSP16, literal(-9)))
          CFI (cfiCond123) V6 load(1, XDATA, add(CFA_XSP16, literal(-8)))
          CFI (cfiCond123) V7 load(1, XDATA, add(CFA_XSP16, literal(-7)))
          CFI (cfiCond123) R7 load(1, XDATA, add(CFA_XSP16, literal(-6)))
          CFI (cfiCond123) ?RET_LOW load(1, XDATA, add(CFA_XSP16, literal(-5)))
          CFI (cfiCond123) ?RET_HIGH load(1, XDATA, add(CFA_XSP16, literal(-4)))
          CFI (cfiCond123) ?BRET_EXT load(1, XDATA, add(CFA_XSP16, literal(-3)))
          CFI (cfiCond123) DPL0 load(1, XDATA, add(CFA_XSP16, literal(-2)))
          CFI (cfiCond123) DPH0 load(1, XDATA, add(CFA_XSP16, literal(-1)))
          CFI (cfiCond123) CFA_SP SP+-2
          CFI (cfiCond123) CFA_XSP16 add(XSP16, 30)
          CFI Block cfiCond124 Using cfiCommon0
          CFI (cfiCond124) Function ZDSecMgrDeviceJoinFwd
          CFI (cfiCond124) Conditional ??CrossCallReturnLabel_27
          CFI (cfiCond124) R6 load(1, XDATA, add(CFA_XSP16, literal(-10)))
          CFI (cfiCond124) VB load(1, XDATA, add(CFA_XSP16, literal(-9)))
          CFI (cfiCond124) V0 load(1, XDATA, add(CFA_XSP16, literal(-8)))
          CFI (cfiCond124) V1 load(1, XDATA, add(CFA_XSP16, literal(-7)))
          CFI (cfiCond124) R7 load(1, XDATA, add(CFA_XSP16, literal(-6)))
          CFI (cfiCond124) ?RET_LOW load(1, XDATA, add(CFA_XSP16, literal(-5)))
          CFI (cfiCond124) ?RET_HIGH load(1, XDATA, add(CFA_XSP16, literal(-4)))
          CFI (cfiCond124) ?BRET_EXT load(1, XDATA, add(CFA_XSP16, literal(-3)))
          CFI (cfiCond124) DPL0 load(1, XDATA, add(CFA_XSP16, literal(-2)))
          CFI (cfiCond124) DPH0 load(1, XDATA, add(CFA_XSP16, literal(-1)))
          CFI (cfiCond124) CFA_SP SP+-2
          CFI (cfiCond124) CFA_XSP16 add(XSP16, 18)
          CFI Block cfiPicker125 Using cfiCommon1
          CFI (cfiPicker125) NoFunction
          CFI (cfiPicker125) Picker
        LCALL     ??Subroutine61_0 & 0xFFFF
??CrossCallReturnLabel_142:
        MOV       A,#0x2
        RET
          CFI EndBlock cfiCond122
          CFI EndBlock cfiCond123
          CFI EndBlock cfiCond124
          CFI EndBlock cfiPicker125

        RSEG BANKED_CODE:HUGECODE:NOROOT(0)
?Subroutine25:
          CFI Block cfiCond126 Using cfiCommon0
          CFI Function APSME_LinkKeySet
          CFI Conditional ??CrossCallReturnLabel_96
          CFI R6 load(1, XDATA, add(CFA_XSP16, literal(-15)))
          CFI VB load(1, XDATA, add(CFA_XSP16, literal(-14)))
          CFI V0 load(1, XDATA, add(CFA_XSP16, literal(-13)))
          CFI V1 load(1, XDATA, add(CFA_XSP16, literal(-12)))
          CFI V2 load(1, XDATA, add(CFA_XSP16, literal(-11)))
          CFI V3 load(1, XDATA, add(CFA_XSP16, literal(-10)))
          CFI V4 load(1, XDATA, add(CFA_XSP16, literal(-9)))
          CFI V5 load(1, XDATA, add(CFA_XSP16, literal(-8)))
          CFI V6 load(1, XDATA, add(CFA_XSP16, literal(-7)))
          CFI R7 load(1, XDATA, add(CFA_XSP16, literal(-6)))
          CFI ?RET_LOW load(1, XDATA, add(CFA_XSP16, literal(-5)))
          CFI ?RET_HIGH load(1, XDATA, add(CFA_XSP16, literal(-4)))
          CFI ?BRET_EXT load(1, XDATA, add(CFA_XSP16, literal(-3)))
          CFI DPL0 load(1, XDATA, add(CFA_XSP16, literal(-2)))
          CFI DPH0 load(1, XDATA, add(CFA_XSP16, literal(-1)))
          CFI CFA_SP SP+-2
          CFI CFA_XSP16 add(XSP16, 23)
          CFI Block cfiCond127 Using cfiCommon0
          CFI (cfiCond127) Function APSME_LinkKeySet
          CFI (cfiCond127) Conditional ??CrossCallReturnLabel_97
          CFI (cfiCond127) R6 load(1, XDATA, add(CFA_XSP16, literal(-15)))
          CFI (cfiCond127) VB load(1, XDATA, add(CFA_XSP16, literal(-14)))
          CFI (cfiCond127) V0 load(1, XDATA, add(CFA_XSP16, literal(-13)))
          CFI (cfiCond127) V1 load(1, XDATA, add(CFA_XSP16, literal(-12)))
          CFI (cfiCond127) V2 load(1, XDATA, add(CFA_XSP16, literal(-11)))
          CFI (cfiCond127) V3 load(1, XDATA, add(CFA_XSP16, literal(-10)))
          CFI (cfiCond127) V4 load(1, XDATA, add(CFA_XSP16, literal(-9)))
          CFI (cfiCond127) V5 load(1, XDATA, add(CFA_XSP16, literal(-8)))
          CFI (cfiCond127) V6 load(1, XDATA, add(CFA_XSP16, literal(-7)))
          CFI (cfiCond127) R7 load(1, XDATA, add(CFA_XSP16, literal(-6)))
          CFI (cfiCond127) ?RET_LOW load(1, XDATA, add(CFA_XSP16, literal(-5)))
          CFI (cfiCond127) ?RET_HIGH load(1, XDATA, add(CFA_XSP16, literal(-4)))
          CFI (cfiCond127) ?BRET_EXT load(1, XDATA, add(CFA_XSP16, literal(-3)))
          CFI (cfiCond127) DPL0 load(1, XDATA, add(CFA_XSP16, literal(-2)))
          CFI (cfiCond127) DPH0 load(1, XDATA, add(CFA_XSP16, literal(-1)))
          CFI (cfiCond127) CFA_SP SP+-2
          CFI (cfiCond127) CFA_XSP16 add(XSP16, 23)
          CFI Block cfiCond128 Using cfiCommon0
          CFI (cfiCond128) Function APSME_LinkKeyNVIdGet
          CFI (cfiCond128) Conditional ??CrossCallReturnLabel_98
          CFI (cfiCond128) R6 load(1, XDATA, add(CFA_XSP16, literal(-9)))
          CFI (cfiCond128) VB load(1, XDATA, add(CFA_XSP16, literal(-8)))
          CFI (cfiCond128) V0 load(1, XDATA, add(CFA_XSP16, literal(-7)))
          CFI (cfiCond128) R7 load(1, XDATA, add(CFA_XSP16, literal(-6)))
          CFI (cfiCond128) ?RET_LOW load(1, XDATA, add(CFA_XSP16, literal(-5)))
          CFI (cfiCond128) ?RET_HIGH load(1, XDATA, add(CFA_XSP16, literal(-4)))
          CFI (cfiCond128) ?BRET_EXT load(1, XDATA, add(CFA_XSP16, literal(-3)))
          CFI (cfiCond128) DPL0 load(1, XDATA, add(CFA_XSP16, literal(-2)))
          CFI (cfiCond128) DPH0 load(1, XDATA, add(CFA_XSP16, literal(-1)))
          CFI (cfiCond128) CFA_SP SP+-2
          CFI (cfiCond128) CFA_XSP16 add(XSP16, 11)
          CFI Block cfiPicker129 Using cfiCommon1
          CFI (cfiPicker129) NoFunction
          CFI (cfiPicker129) Picker
        LCALL     ?Subroutine47 & 0xFFFF
??CrossCallReturnLabel_131:
          CFI EndBlock cfiCond126
          CFI EndBlock cfiCond127
          CFI EndBlock cfiCond128
          CFI EndBlock cfiPicker129
        REQUIRE ??Subroutine56_0
        ; // Fall through to label ??Subroutine56_0

        RSEG BANKED_CODE:HUGECODE:NOROOT(0)
??Subroutine56_0:
          CFI Block cfiCond130 Using cfiCommon0
          CFI Function ZDSecMgrDeviceRemove
          CFI Conditional ??CrossCallReturnLabel_93
          CFI R6 load(1, XDATA, add(CFA_XSP16, literal(-10)))
          CFI VB load(1, XDATA, add(CFA_XSP16, literal(-9)))
          CFI V0 load(1, XDATA, add(CFA_XSP16, literal(-8)))
          CFI V1 load(1, XDATA, add(CFA_XSP16, literal(-7)))
          CFI R7 load(1, XDATA, add(CFA_XSP16, literal(-6)))
          CFI ?RET_LOW load(1, XDATA, add(CFA_XSP16, literal(-5)))
          CFI ?RET_HIGH load(1, XDATA, add(CFA_XSP16, literal(-4)))
          CFI ?BRET_EXT load(1, XDATA, add(CFA_XSP16, literal(-3)))
          CFI DPL0 load(1, XDATA, add(CFA_XSP16, literal(-2)))
          CFI DPH0 load(1, XDATA, add(CFA_XSP16, literal(-1)))
          CFI CFA_SP SP+-2
          CFI CFA_XSP16 add(XSP16, 20)
          CFI Block cfiCond131 Using cfiCommon0
          CFI (cfiCond131) Function ZDSecMgrDeviceJoinDirect
          CFI (cfiCond131) Conditional ??CrossCallReturnLabel_94
          CFI (cfiCond131) R6 load(1, XDATA, add(CFA_XSP16, literal(-12)))
          CFI (cfiCond131) VB load(1, XDATA, add(CFA_XSP16, literal(-11)))
          CFI (cfiCond131) V0 load(1, XDATA, add(CFA_XSP16, literal(-10)))
          CFI (cfiCond131) V1 load(1, XDATA, add(CFA_XSP16, literal(-9)))
          CFI (cfiCond131) V2 load(1, XDATA, add(CFA_XSP16, literal(-8)))
          CFI (cfiCond131) V3 load(1, XDATA, add(CFA_XSP16, literal(-7)))
          CFI (cfiCond131) R7 load(1, XDATA, add(CFA_XSP16, literal(-6)))
          CFI (cfiCond131) ?RET_LOW load(1, XDATA, add(CFA_XSP16, literal(-5)))
          CFI (cfiCond131) ?RET_HIGH load(1, XDATA, add(CFA_XSP16, literal(-4)))
          CFI (cfiCond131) ?BRET_EXT load(1, XDATA, add(CFA_XSP16, literal(-3)))
          CFI (cfiCond131) DPL0 load(1, XDATA, add(CFA_XSP16, literal(-2)))
          CFI (cfiCond131) DPH0 load(1, XDATA, add(CFA_XSP16, literal(-1)))
          CFI (cfiCond131) CFA_SP SP+-2
          CFI (cfiCond131) CFA_XSP16 add(XSP16, 34)
          CFI Block cfiCond132 Using cfiCommon0
          CFI (cfiCond132) Function APSME_KeyFwdToChild
          CFI (cfiCond132) Conditional ??CrossCallReturnLabel_95
          CFI (cfiCond132) R6 load(1, XDATA, add(CFA_XSP16, literal(-10)))
          CFI (cfiCond132) VB load(1, XDATA, add(CFA_XSP16, literal(-9)))
          CFI (cfiCond132) V0 load(1, XDATA, add(CFA_XSP16, literal(-8)))
          CFI (cfiCond132) V1 load(1, XDATA, add(CFA_XSP16, literal(-7)))
          CFI (cfiCond132) R7 load(1, XDATA, add(CFA_XSP16, literal(-6)))
          CFI (cfiCond132) ?RET_LOW load(1, XDATA, add(CFA_XSP16, literal(-5)))
          CFI (cfiCond132) ?RET_HIGH load(1, XDATA, add(CFA_XSP16, literal(-4)))
          CFI (cfiCond132) ?BRET_EXT load(1, XDATA, add(CFA_XSP16, literal(-3)))
          CFI (cfiCond132) DPL0 load(1, XDATA, add(CFA_XSP16, literal(-2)))
          CFI (cfiCond132) DPH0 load(1, XDATA, add(CFA_XSP16, literal(-1)))
          CFI (cfiCond132) CFA_SP SP+-2
          CFI (cfiCond132) CFA_XSP16 add(XSP16, 10)
          CFI Block cfiCond133 Using cfiCommon0
          CFI (cfiCond133) Function APSME_LinkKeySet
          CFI (cfiCond133) Conditional ??CrossCallReturnLabel_96
          CFI (cfiCond133) R6 load(1, XDATA, add(CFA_XSP16, literal(-15)))
          CFI (cfiCond133) VB load(1, XDATA, add(CFA_XSP16, literal(-14)))
          CFI (cfiCond133) V0 load(1, XDATA, add(CFA_XSP16, literal(-13)))
          CFI (cfiCond133) V1 load(1, XDATA, add(CFA_XSP16, literal(-12)))
          CFI (cfiCond133) V2 load(1, XDATA, add(CFA_XSP16, literal(-11)))
          CFI (cfiCond133) V3 load(1, XDATA, add(CFA_XSP16, literal(-10)))
          CFI (cfiCond133) V4 load(1, XDATA, add(CFA_XSP16, literal(-9)))
          CFI (cfiCond133) V5 load(1, XDATA, add(CFA_XSP16, literal(-8)))
          CFI (cfiCond133) V6 load(1, XDATA, add(CFA_XSP16, literal(-7)))
          CFI (cfiCond133) R7 load(1, XDATA, add(CFA_XSP16, literal(-6)))
          CFI (cfiCond133) ?RET_LOW load(1, XDATA, add(CFA_XSP16, literal(-5)))
          CFI (cfiCond133) ?RET_HIGH load(1, XDATA, add(CFA_XSP16, literal(-4)))
          CFI (cfiCond133) ?BRET_EXT load(1, XDATA, add(CFA_XSP16, literal(-3)))
          CFI (cfiCond133) DPL0 load(1, XDATA, add(CFA_XSP16, literal(-2)))
          CFI (cfiCond133) DPH0 load(1, XDATA, add(CFA_XSP16, literal(-1)))
          CFI (cfiCond133) CFA_SP SP+-2
          CFI (cfiCond133) CFA_XSP16 add(XSP16, 23)
          CFI Block cfiCond134 Using cfiCommon0
          CFI (cfiCond134) Function APSME_LinkKeySet
          CFI (cfiCond134) Conditional ??CrossCallReturnLabel_97
          CFI (cfiCond134) R6 load(1, XDATA, add(CFA_XSP16, literal(-15)))
          CFI (cfiCond134) VB load(1, XDATA, add(CFA_XSP16, literal(-14)))
          CFI (cfiCond134) V0 load(1, XDATA, add(CFA_XSP16, literal(-13)))
          CFI (cfiCond134) V1 load(1, XDATA, add(CFA_XSP16, literal(-12)))
          CFI (cfiCond134) V2 load(1, XDATA, add(CFA_XSP16, literal(-11)))
          CFI (cfiCond134) V3 load(1, XDATA, add(CFA_XSP16, literal(-10)))
          CFI (cfiCond134) V4 load(1, XDATA, add(CFA_XSP16, literal(-9)))
          CFI (cfiCond134) V5 load(1, XDATA, add(CFA_XSP16, literal(-8)))
          CFI (cfiCond134) V6 load(1, XDATA, add(CFA_XSP16, literal(-7)))
          CFI (cfiCond134) R7 load(1, XDATA, add(CFA_XSP16, literal(-6)))
          CFI (cfiCond134) ?RET_LOW load(1, XDATA, add(CFA_XSP16, literal(-5)))
          CFI (cfiCond134) ?RET_HIGH load(1, XDATA, add(CFA_XSP16, literal(-4)))
          CFI (cfiCond134) ?BRET_EXT load(1, XDATA, add(CFA_XSP16, literal(-3)))
          CFI (cfiCond134) DPL0 load(1, XDATA, add(CFA_XSP16, literal(-2)))
          CFI (cfiCond134) DPH0 load(1, XDATA, add(CFA_XSP16, literal(-1)))
          CFI (cfiCond134) CFA_SP SP+-2
          CFI (cfiCond134) CFA_XSP16 add(XSP16, 23)
          CFI Block cfiCond135 Using cfiCommon0
          CFI (cfiCond135) Function APSME_LinkKeyNVIdGet
          CFI (cfiCond135) Conditional ??CrossCallReturnLabel_98
          CFI (cfiCond135) R6 load(1, XDATA, add(CFA_XSP16, literal(-9)))
          CFI (cfiCond135) VB load(1, XDATA, add(CFA_XSP16, literal(-8)))
          CFI (cfiCond135) V0 load(1, XDATA, add(CFA_XSP16, literal(-7)))
          CFI (cfiCond135) R7 load(1, XDATA, add(CFA_XSP16, literal(-6)))
          CFI (cfiCond135) ?RET_LOW load(1, XDATA, add(CFA_XSP16, literal(-5)))
          CFI (cfiCond135) ?RET_HIGH load(1, XDATA, add(CFA_XSP16, literal(-4)))
          CFI (cfiCond135) ?BRET_EXT load(1, XDATA, add(CFA_XSP16, literal(-3)))
          CFI (cfiCond135) DPL0 load(1, XDATA, add(CFA_XSP16, literal(-2)))
          CFI (cfiCond135) DPH0 load(1, XDATA, add(CFA_XSP16, literal(-1)))
          CFI (cfiCond135) CFA_SP SP+-2
          CFI (cfiCond135) CFA_XSP16 add(XSP16, 11)
          CFI Block cfiPicker136 Using cfiCommon1
          CFI (cfiPicker136) NoFunction
          CFI (cfiPicker136) Picker
        INC       DPTR
        INC       DPTR
          CFI EndBlock cfiCond130
          CFI EndBlock cfiCond131
          CFI EndBlock cfiCond132
          CFI EndBlock cfiCond133
          CFI EndBlock cfiCond134
          CFI EndBlock cfiCond135
          CFI EndBlock cfiPicker136
        REQUIRE ??Subroutine57_0
        ; // Fall through to label ??Subroutine57_0

        RSEG BANKED_CODE:HUGECODE:NOROOT(0)
??Subroutine57_0:
          CFI Block cfiCond137 Using cfiCommon0
          CFI Function ZDSecMgrEntryLookupExt
          CFI Conditional ??CrossCallReturnLabel_79
          CFI R6 load(1, XDATA, add(CFA_XSP16, literal(-9)))
          CFI VB load(1, XDATA, add(CFA_XSP16, literal(-8)))
          CFI V0 load(1, XDATA, add(CFA_XSP16, literal(-7)))
          CFI R7 load(1, XDATA, add(CFA_XSP16, literal(-6)))
          CFI ?RET_LOW load(1, XDATA, add(CFA_XSP16, literal(-5)))
          CFI ?RET_HIGH load(1, XDATA, add(CFA_XSP16, literal(-4)))
          CFI ?BRET_EXT load(1, XDATA, add(CFA_XSP16, literal(-3)))
          CFI DPL0 load(1, XDATA, add(CFA_XSP16, literal(-2)))
          CFI DPH0 load(1, XDATA, add(CFA_XSP16, literal(-1)))
          CFI CFA_SP SP+-2
          CFI CFA_XSP16 add(XSP16, 11)
          CFI Block cfiCond138 Using cfiCommon0
          CFI (cfiCond138) Function ZDSecMgrEntryFree
          CFI (cfiCond138) Conditional ??CrossCallReturnLabel_80
          CFI (cfiCond138) R6 load(1, XDATA, add(CFA_XSP16, literal(-14)))
          CFI (cfiCond138) VB load(1, XDATA, add(CFA_XSP16, literal(-13)))
          CFI (cfiCond138) V0 load(1, XDATA, add(CFA_XSP16, literal(-12)))
          CFI (cfiCond138) V1 load(1, XDATA, add(CFA_XSP16, literal(-11)))
          CFI (cfiCond138) V2 load(1, XDATA, add(CFA_XSP16, literal(-10)))
          CFI (cfiCond138) V3 load(1, XDATA, add(CFA_XSP16, literal(-9)))
          CFI (cfiCond138) V4 load(1, XDATA, add(CFA_XSP16, literal(-8)))
          CFI (cfiCond138) V5 load(1, XDATA, add(CFA_XSP16, literal(-7)))
          CFI (cfiCond138) R7 load(1, XDATA, add(CFA_XSP16, literal(-6)))
          CFI (cfiCond138) ?RET_LOW load(1, XDATA, add(CFA_XSP16, literal(-5)))
          CFI (cfiCond138) ?RET_HIGH load(1, XDATA, add(CFA_XSP16, literal(-4)))
          CFI (cfiCond138) ?BRET_EXT load(1, XDATA, add(CFA_XSP16, literal(-3)))
          CFI (cfiCond138) DPL0 load(1, XDATA, add(CFA_XSP16, literal(-2)))
          CFI (cfiCond138) DPH0 load(1, XDATA, add(CFA_XSP16, literal(-1)))
          CFI (cfiCond138) CFA_SP SP+-2
          CFI (cfiCond138) CFA_XSP16 add(XSP16, 18)
          CFI Block cfiCond139 Using cfiCommon0
          CFI (cfiCond139) Function ZDSecMgrAppKeyGet
          CFI (cfiCond139) Conditional ??CrossCallReturnLabel_81
          CFI (cfiCond139) DPL0 Frame(CFA_SP, 4)
          CFI (cfiCond139) DPH0 Frame(CFA_SP, 5)
          CFI (cfiCond139) CFA_SP SP+-7
          CFI Block cfiCond140 Using cfiCommon0
          CFI (cfiCond140) Function ZDSecMgrAppKeyReq
          CFI (cfiCond140) Conditional ??CrossCallReturnLabel_82
          CFI (cfiCond140) R6 load(1, XDATA, add(CFA_XSP16, literal(-12)))
          CFI (cfiCond140) VB load(1, XDATA, add(CFA_XSP16, literal(-11)))
          CFI (cfiCond140) V0 load(1, XDATA, add(CFA_XSP16, literal(-10)))
          CFI (cfiCond140) V1 load(1, XDATA, add(CFA_XSP16, literal(-9)))
          CFI (cfiCond140) V2 load(1, XDATA, add(CFA_XSP16, literal(-8)))
          CFI (cfiCond140) V3 load(1, XDATA, add(CFA_XSP16, literal(-7)))
          CFI (cfiCond140) R7 load(1, XDATA, add(CFA_XSP16, literal(-6)))
          CFI (cfiCond140) ?RET_LOW load(1, XDATA, add(CFA_XSP16, literal(-5)))
          CFI (cfiCond140) ?RET_HIGH load(1, XDATA, add(CFA_XSP16, literal(-4)))
          CFI (cfiCond140) ?BRET_EXT load(1, XDATA, add(CFA_XSP16, literal(-3)))
          CFI (cfiCond140) DPL0 load(1, XDATA, add(CFA_XSP16, literal(-2)))
          CFI (cfiCond140) DPH0 load(1, XDATA, add(CFA_XSP16, literal(-1)))
          CFI (cfiCond140) CFA_SP SP+-2
          CFI (cfiCond140) CFA_XSP16 add(XSP16, 51)
          CFI Block cfiCond141 Using cfiCommon0
          CFI (cfiCond141) Function ZDSecMgrAppKeyReq
          CFI (cfiCond141) Conditional ??CrossCallReturnLabel_83
          CFI (cfiCond141) R6 load(1, XDATA, add(CFA_XSP16, literal(-12)))
          CFI (cfiCond141) VB load(1, XDATA, add(CFA_XSP16, literal(-11)))
          CFI (cfiCond141) V0 load(1, XDATA, add(CFA_XSP16, literal(-10)))
          CFI (cfiCond141) V1 load(1, XDATA, add(CFA_XSP16, literal(-9)))
          CFI (cfiCond141) V2 load(1, XDATA, add(CFA_XSP16, literal(-8)))
          CFI (cfiCond141) V3 load(1, XDATA, add(CFA_XSP16, literal(-7)))
          CFI (cfiCond141) R7 load(1, XDATA, add(CFA_XSP16, literal(-6)))
          CFI (cfiCond141) ?RET_LOW load(1, XDATA, add(CFA_XSP16, literal(-5)))
          CFI (cfiCond141) ?RET_HIGH load(1, XDATA, add(CFA_XSP16, literal(-4)))
          CFI (cfiCond141) ?BRET_EXT load(1, XDATA, add(CFA_XSP16, literal(-3)))
          CFI (cfiCond141) DPL0 load(1, XDATA, add(CFA_XSP16, literal(-2)))
          CFI (cfiCond141) DPH0 load(1, XDATA, add(CFA_XSP16, literal(-1)))
          CFI (cfiCond141) CFA_SP SP+-2
          CFI (cfiCond141) CFA_XSP16 add(XSP16, 59)
          CFI Block cfiCond142 Using cfiCommon0
          CFI (cfiCond142) Function ZDSecMgrTclkReq
          CFI (cfiCond142) Conditional ??CrossCallReturnLabel_84
          CFI (cfiCond142) R6 load(1, XDATA, add(CFA_XSP16, literal(-10)))
          CFI (cfiCond142) VB load(1, XDATA, add(CFA_XSP16, literal(-9)))
          CFI (cfiCond142) V0 load(1, XDATA, add(CFA_XSP16, literal(-8)))
          CFI (cfiCond142) V1 load(1, XDATA, add(CFA_XSP16, literal(-7)))
          CFI (cfiCond142) R7 load(1, XDATA, add(CFA_XSP16, literal(-6)))
          CFI (cfiCond142) ?RET_LOW load(1, XDATA, add(CFA_XSP16, literal(-5)))
          CFI (cfiCond142) ?RET_HIGH load(1, XDATA, add(CFA_XSP16, literal(-4)))
          CFI (cfiCond142) ?BRET_EXT load(1, XDATA, add(CFA_XSP16, literal(-3)))
          CFI (cfiCond142) DPL0 load(1, XDATA, add(CFA_XSP16, literal(-2)))
          CFI (cfiCond142) DPH0 load(1, XDATA, add(CFA_XSP16, literal(-1)))
          CFI (cfiCond142) CFA_SP SP+-2
          CFI (cfiCond142) CFA_XSP16 add(XSP16, 69)
          CFI Block cfiCond143 Using cfiCommon0
          CFI (cfiCond143) Function ZDSecMgrDeviceRemoveByExtAddr
          CFI (cfiCond143) Conditional ??CrossCallReturnLabel_85
          CFI (cfiCond143) R6 load(1, XDATA, add(CFA_XSP16, literal(-9)))
          CFI (cfiCond143) VB load(1, XDATA, add(CFA_XSP16, literal(-8)))
          CFI (cfiCond143) V0 load(1, XDATA, add(CFA_XSP16, literal(-7)))
          CFI (cfiCond143) R7 load(1, XDATA, add(CFA_XSP16, literal(-6)))
          CFI (cfiCond143) ?RET_LOW load(1, XDATA, add(CFA_XSP16, literal(-5)))
          CFI (cfiCond143) ?RET_HIGH load(1, XDATA, add(CFA_XSP16, literal(-4)))
          CFI (cfiCond143) ?BRET_EXT load(1, XDATA, add(CFA_XSP16, literal(-3)))
          CFI (cfiCond143) DPL0 load(1, XDATA, add(CFA_XSP16, literal(-2)))
          CFI (cfiCond143) DPH0 load(1, XDATA, add(CFA_XSP16, literal(-1)))
          CFI (cfiCond143) CFA_SP SP+-2
          CFI (cfiCond143) CFA_XSP16 add(XSP16, 11)
          CFI Block cfiCond144 Using cfiCommon0
          CFI (cfiCond144) Function ZDSecMgrDeviceRemove
          CFI (cfiCond144) Conditional ??CrossCallReturnLabel_86
          CFI (cfiCond144) R6 load(1, XDATA, add(CFA_XSP16, literal(-10)))
          CFI (cfiCond144) VB load(1, XDATA, add(CFA_XSP16, literal(-9)))
          CFI (cfiCond144) V0 load(1, XDATA, add(CFA_XSP16, literal(-8)))
          CFI (cfiCond144) V1 load(1, XDATA, add(CFA_XSP16, literal(-7)))
          CFI (cfiCond144) R7 load(1, XDATA, add(CFA_XSP16, literal(-6)))
          CFI (cfiCond144) ?RET_LOW load(1, XDATA, add(CFA_XSP16, literal(-5)))
          CFI (cfiCond144) ?RET_HIGH load(1, XDATA, add(CFA_XSP16, literal(-4)))
          CFI (cfiCond144) ?BRET_EXT load(1, XDATA, add(CFA_XSP16, literal(-3)))
          CFI (cfiCond144) DPL0 load(1, XDATA, add(CFA_XSP16, literal(-2)))
          CFI (cfiCond144) DPH0 load(1, XDATA, add(CFA_XSP16, literal(-1)))
          CFI (cfiCond144) CFA_SP SP+-2
          CFI (cfiCond144) CFA_XSP16 add(XSP16, 20)
          CFI Block cfiCond145 Using cfiCommon0
          CFI (cfiCond145) Function ZDSecMgrDeviceJoin
          CFI (cfiCond145) Conditional ??CrossCallReturnLabel_87
          CFI (cfiCond145) R6 load(1, XDATA, add(CFA_XSP16, literal(-16)))
          CFI (cfiCond145) VB load(1, XDATA, add(CFA_XSP16, literal(-15)))
          CFI (cfiCond145) V0 load(1, XDATA, add(CFA_XSP16, literal(-14)))
          CFI (cfiCond145) V1 load(1, XDATA, add(CFA_XSP16, literal(-13)))
          CFI (cfiCond145) V2 load(1, XDATA, add(CFA_XSP16, literal(-12)))
          CFI (cfiCond145) V3 load(1, XDATA, add(CFA_XSP16, literal(-11)))
          CFI (cfiCond145) V4 load(1, XDATA, add(CFA_XSP16, literal(-10)))
          CFI (cfiCond145) V5 load(1, XDATA, add(CFA_XSP16, literal(-9)))
          CFI (cfiCond145) V6 load(1, XDATA, add(CFA_XSP16, literal(-8)))
          CFI (cfiCond145) V7 load(1, XDATA, add(CFA_XSP16, literal(-7)))
          CFI (cfiCond145) R7 load(1, XDATA, add(CFA_XSP16, literal(-6)))
          CFI (cfiCond145) ?RET_LOW load(1, XDATA, add(CFA_XSP16, literal(-5)))
          CFI (cfiCond145) ?RET_HIGH load(1, XDATA, add(CFA_XSP16, literal(-4)))
          CFI (cfiCond145) ?BRET_EXT load(1, XDATA, add(CFA_XSP16, literal(-3)))
          CFI (cfiCond145) DPL0 load(1, XDATA, add(CFA_XSP16, literal(-2)))
          CFI (cfiCond145) DPH0 load(1, XDATA, add(CFA_XSP16, literal(-1)))
          CFI (cfiCond145) CFA_SP SP+-2
          CFI (cfiCond145) CFA_XSP16 add(XSP16, 32)
          CFI Block cfiCond146 Using cfiCommon0
          CFI (cfiCond146) Function ZDSecMgrDeviceJoin
          CFI (cfiCond146) Conditional ??CrossCallReturnLabel_88
          CFI (cfiCond146) R6 load(1, XDATA, add(CFA_XSP16, literal(-16)))
          CFI (cfiCond146) VB load(1, XDATA, add(CFA_XSP16, literal(-15)))
          CFI (cfiCond146) V0 load(1, XDATA, add(CFA_XSP16, literal(-14)))
          CFI (cfiCond146) V1 load(1, XDATA, add(CFA_XSP16, literal(-13)))
          CFI (cfiCond146) V2 load(1, XDATA, add(CFA_XSP16, literal(-12)))
          CFI (cfiCond146) V3 load(1, XDATA, add(CFA_XSP16, literal(-11)))
          CFI (cfiCond146) V4 load(1, XDATA, add(CFA_XSP16, literal(-10)))
          CFI (cfiCond146) V5 load(1, XDATA, add(CFA_XSP16, literal(-9)))
          CFI (cfiCond146) V6 load(1, XDATA, add(CFA_XSP16, literal(-8)))
          CFI (cfiCond146) V7 load(1, XDATA, add(CFA_XSP16, literal(-7)))
          CFI (cfiCond146) R7 load(1, XDATA, add(CFA_XSP16, literal(-6)))
          CFI (cfiCond146) ?RET_LOW load(1, XDATA, add(CFA_XSP16, literal(-5)))
          CFI (cfiCond146) ?RET_HIGH load(1, XDATA, add(CFA_XSP16, literal(-4)))
          CFI (cfiCond146) ?BRET_EXT load(1, XDATA, add(CFA_XSP16, literal(-3)))
          CFI (cfiCond146) DPL0 load(1, XDATA, add(CFA_XSP16, literal(-2)))
          CFI (cfiCond146) DPH0 load(1, XDATA, add(CFA_XSP16, literal(-1)))
          CFI (cfiCond146) CFA_SP SP+-2
          CFI (cfiCond146) CFA_XSP16 add(XSP16, 30)
          CFI Block cfiCond147 Using cfiCommon0
          CFI (cfiCond147) Function ZDSecMgrDeviceJoinDirect
          CFI (cfiCond147) Conditional ??CrossCallReturnLabel_89
          CFI (cfiCond147) R6 load(1, XDATA, add(CFA_XSP16, literal(-12)))
          CFI (cfiCond147) VB load(1, XDATA, add(CFA_XSP16, literal(-11)))
          CFI (cfiCond147) V0 load(1, XDATA, add(CFA_XSP16, literal(-10)))
          CFI (cfiCond147) V1 load(1, XDATA, add(CFA_XSP16, literal(-9)))
          CFI (cfiCond147) V2 load(1, XDATA, add(CFA_XSP16, literal(-8)))
          CFI (cfiCond147) V3 load(1, XDATA, add(CFA_XSP16, literal(-7)))
          CFI (cfiCond147) R7 load(1, XDATA, add(CFA_XSP16, literal(-6)))
          CFI (cfiCond147) ?RET_LOW load(1, XDATA, add(CFA_XSP16, literal(-5)))
          CFI (cfiCond147) ?RET_HIGH load(1, XDATA, add(CFA_XSP16, literal(-4)))
          CFI (cfiCond147) ?BRET_EXT load(1, XDATA, add(CFA_XSP16, literal(-3)))
          CFI (cfiCond147) DPL0 load(1, XDATA, add(CFA_XSP16, literal(-2)))
          CFI (cfiCond147) DPH0 load(1, XDATA, add(CFA_XSP16, literal(-1)))
          CFI (cfiCond147) CFA_SP SP+-2
          CFI (cfiCond147) CFA_XSP16 add(XSP16, 32)
          CFI Block cfiCond148 Using cfiCommon0
          CFI (cfiCond148) Function ZDSecMgrDeviceJoinFwd
          CFI (cfiCond148) Conditional ??CrossCallReturnLabel_90
          CFI (cfiCond148) R6 load(1, XDATA, add(CFA_XSP16, literal(-10)))
          CFI (cfiCond148) VB load(1, XDATA, add(CFA_XSP16, literal(-9)))
          CFI (cfiCond148) V0 load(1, XDATA, add(CFA_XSP16, literal(-8)))
          CFI (cfiCond148) V1 load(1, XDATA, add(CFA_XSP16, literal(-7)))
          CFI (cfiCond148) R7 load(1, XDATA, add(CFA_XSP16, literal(-6)))
          CFI (cfiCond148) ?RET_LOW load(1, XDATA, add(CFA_XSP16, literal(-5)))
          CFI (cfiCond148) ?RET_HIGH load(1, XDATA, add(CFA_XSP16, literal(-4)))
          CFI (cfiCond148) ?BRET_EXT load(1, XDATA, add(CFA_XSP16, literal(-3)))
          CFI (cfiCond148) DPL0 load(1, XDATA, add(CFA_XSP16, literal(-2)))
          CFI (cfiCond148) DPH0 load(1, XDATA, add(CFA_XSP16, literal(-1)))
          CFI (cfiCond148) CFA_SP SP+-2
          CFI (cfiCond148) CFA_XSP16 add(XSP16, 18)
          CFI Block cfiCond149 Using cfiCommon0
          CFI (cfiCond149) Function APSME_IsLinkKeyValid
          CFI (cfiCond149) Conditional ??CrossCallReturnLabel_91
          CFI (cfiCond149) R6 load(1, XDATA, add(CFA_XSP16, literal(-15)))
          CFI (cfiCond149) VB load(1, XDATA, add(CFA_XSP16, literal(-14)))
          CFI (cfiCond149) V0 load(1, XDATA, add(CFA_XSP16, literal(-13)))
          CFI (cfiCond149) V1 load(1, XDATA, add(CFA_XSP16, literal(-12)))
          CFI (cfiCond149) V2 load(1, XDATA, add(CFA_XSP16, literal(-11)))
          CFI (cfiCond149) V3 load(1, XDATA, add(CFA_XSP16, literal(-10)))
          CFI (cfiCond149) V4 load(1, XDATA, add(CFA_XSP16, literal(-9)))
          CFI (cfiCond149) V5 load(1, XDATA, add(CFA_XSP16, literal(-8)))
          CFI (cfiCond149) V6 load(1, XDATA, add(CFA_XSP16, literal(-7)))
          CFI (cfiCond149) R7 load(1, XDATA, add(CFA_XSP16, literal(-6)))
          CFI (cfiCond149) ?RET_LOW load(1, XDATA, add(CFA_XSP16, literal(-5)))
          CFI (cfiCond149) ?RET_HIGH load(1, XDATA, add(CFA_XSP16, literal(-4)))
          CFI (cfiCond149) ?BRET_EXT load(1, XDATA, add(CFA_XSP16, literal(-3)))
          CFI (cfiCond149) DPL0 load(1, XDATA, add(CFA_XSP16, literal(-2)))
          CFI (cfiCond149) DPH0 load(1, XDATA, add(CFA_XSP16, literal(-1)))
          CFI (cfiCond149) CFA_SP SP+-2
          CFI (cfiCond149) CFA_XSP16 add(XSP16, 37)
          CFI Block cfiCond150 Using cfiCommon0
          CFI (cfiCond150) Function ZDSecMgrAddLinkKey
          CFI (cfiCond150) Conditional ??CrossCallReturnLabel_92
          CFI (cfiCond150) R6 load(1, XDATA, add(CFA_XSP16, literal(-10)))
          CFI (cfiCond150) VB load(1, XDATA, add(CFA_XSP16, literal(-9)))
          CFI (cfiCond150) V0 load(1, XDATA, add(CFA_XSP16, literal(-8)))
          CFI (cfiCond150) V1 load(1, XDATA, add(CFA_XSP16, literal(-7)))
          CFI (cfiCond150) R7 load(1, XDATA, add(CFA_XSP16, literal(-6)))
          CFI (cfiCond150) ?RET_LOW load(1, XDATA, add(CFA_XSP16, literal(-5)))
          CFI (cfiCond150) ?RET_HIGH load(1, XDATA, add(CFA_XSP16, literal(-4)))
          CFI (cfiCond150) ?BRET_EXT load(1, XDATA, add(CFA_XSP16, literal(-3)))
          CFI (cfiCond150) DPL0 load(1, XDATA, add(CFA_XSP16, literal(-2)))
          CFI (cfiCond150) DPH0 load(1, XDATA, add(CFA_XSP16, literal(-1)))
          CFI (cfiCond150) CFA_SP SP+-2
          CFI (cfiCond150) CFA_XSP16 add(XSP16, 14)
          CFI Block cfiCond151 Using cfiCommon0
          CFI (cfiCond151) Function ZDSecMgrDeviceRemove
          CFI (cfiCond151) Conditional ??CrossCallReturnLabel_93
          CFI (cfiCond151) R6 load(1, XDATA, add(CFA_XSP16, literal(-10)))
          CFI (cfiCond151) VB load(1, XDATA, add(CFA_XSP16, literal(-9)))
          CFI (cfiCond151) V0 load(1, XDATA, add(CFA_XSP16, literal(-8)))
          CFI (cfiCond151) V1 load(1, XDATA, add(CFA_XSP16, literal(-7)))
          CFI (cfiCond151) R7 load(1, XDATA, add(CFA_XSP16, literal(-6)))
          CFI (cfiCond151) ?RET_LOW load(1, XDATA, add(CFA_XSP16, literal(-5)))
          CFI (cfiCond151) ?RET_HIGH load(1, XDATA, add(CFA_XSP16, literal(-4)))
          CFI (cfiCond151) ?BRET_EXT load(1, XDATA, add(CFA_XSP16, literal(-3)))
          CFI (cfiCond151) DPL0 load(1, XDATA, add(CFA_XSP16, literal(-2)))
          CFI (cfiCond151) DPH0 load(1, XDATA, add(CFA_XSP16, literal(-1)))
          CFI (cfiCond151) CFA_SP SP+-2
          CFI (cfiCond151) CFA_XSP16 add(XSP16, 20)
          CFI Block cfiCond152 Using cfiCommon0
          CFI (cfiCond152) Function ZDSecMgrDeviceJoinDirect
          CFI (cfiCond152) Conditional ??CrossCallReturnLabel_94
          CFI (cfiCond152) R6 load(1, XDATA, add(CFA_XSP16, literal(-12)))
          CFI (cfiCond152) VB load(1, XDATA, add(CFA_XSP16, literal(-11)))
          CFI (cfiCond152) V0 load(1, XDATA, add(CFA_XSP16, literal(-10)))
          CFI (cfiCond152) V1 load(1, XDATA, add(CFA_XSP16, literal(-9)))
          CFI (cfiCond152) V2 load(1, XDATA, add(CFA_XSP16, literal(-8)))
          CFI (cfiCond152) V3 load(1, XDATA, add(CFA_XSP16, literal(-7)))
          CFI (cfiCond152) R7 load(1, XDATA, add(CFA_XSP16, literal(-6)))
          CFI (cfiCond152) ?RET_LOW load(1, XDATA, add(CFA_XSP16, literal(-5)))
          CFI (cfiCond152) ?RET_HIGH load(1, XDATA, add(CFA_XSP16, literal(-4)))
          CFI (cfiCond152) ?BRET_EXT load(1, XDATA, add(CFA_XSP16, literal(-3)))
          CFI (cfiCond152) DPL0 load(1, XDATA, add(CFA_XSP16, literal(-2)))
          CFI (cfiCond152) DPH0 load(1, XDATA, add(CFA_XSP16, literal(-1)))
          CFI (cfiCond152) CFA_SP SP+-2
          CFI (cfiCond152) CFA_XSP16 add(XSP16, 34)
          CFI Block cfiCond153 Using cfiCommon0
          CFI (cfiCond153) Function APSME_KeyFwdToChild
          CFI (cfiCond153) Conditional ??CrossCallReturnLabel_95
          CFI (cfiCond153) R6 load(1, XDATA, add(CFA_XSP16, literal(-10)))
          CFI (cfiCond153) VB load(1, XDATA, add(CFA_XSP16, literal(-9)))
          CFI (cfiCond153) V0 load(1, XDATA, add(CFA_XSP16, literal(-8)))
          CFI (cfiCond153) V1 load(1, XDATA, add(CFA_XSP16, literal(-7)))
          CFI (cfiCond153) R7 load(1, XDATA, add(CFA_XSP16, literal(-6)))
          CFI (cfiCond153) ?RET_LOW load(1, XDATA, add(CFA_XSP16, literal(-5)))
          CFI (cfiCond153) ?RET_HIGH load(1, XDATA, add(CFA_XSP16, literal(-4)))
          CFI (cfiCond153) ?BRET_EXT load(1, XDATA, add(CFA_XSP16, literal(-3)))
          CFI (cfiCond153) DPL0 load(1, XDATA, add(CFA_XSP16, literal(-2)))
          CFI (cfiCond153) DPH0 load(1, XDATA, add(CFA_XSP16, literal(-1)))
          CFI (cfiCond153) CFA_SP SP+-2
          CFI (cfiCond153) CFA_XSP16 add(XSP16, 10)
          CFI Block cfiCond154 Using cfiCommon0
          CFI (cfiCond154) Function APSME_LinkKeySet
          CFI (cfiCond154) Conditional ??CrossCallReturnLabel_96
          CFI (cfiCond154) R6 load(1, XDATA, add(CFA_XSP16, literal(-15)))
          CFI (cfiCond154) VB load(1, XDATA, add(CFA_XSP16, literal(-14)))
          CFI (cfiCond154) V0 load(1, XDATA, add(CFA_XSP16, literal(-13)))
          CFI (cfiCond154) V1 load(1, XDATA, add(CFA_XSP16, literal(-12)))
          CFI (cfiCond154) V2 load(1, XDATA, add(CFA_XSP16, literal(-11)))
          CFI (cfiCond154) V3 load(1, XDATA, add(CFA_XSP16, literal(-10)))
          CFI (cfiCond154) V4 load(1, XDATA, add(CFA_XSP16, literal(-9)))
          CFI (cfiCond154) V5 load(1, XDATA, add(CFA_XSP16, literal(-8)))
          CFI (cfiCond154) V6 load(1, XDATA, add(CFA_XSP16, literal(-7)))
          CFI (cfiCond154) R7 load(1, XDATA, add(CFA_XSP16, literal(-6)))
          CFI (cfiCond154) ?RET_LOW load(1, XDATA, add(CFA_XSP16, literal(-5)))
          CFI (cfiCond154) ?RET_HIGH load(1, XDATA, add(CFA_XSP16, literal(-4)))
          CFI (cfiCond154) ?BRET_EXT load(1, XDATA, add(CFA_XSP16, literal(-3)))
          CFI (cfiCond154) DPL0 load(1, XDATA, add(CFA_XSP16, literal(-2)))
          CFI (cfiCond154) DPH0 load(1, XDATA, add(CFA_XSP16, literal(-1)))
          CFI (cfiCond154) CFA_SP SP+-2
          CFI (cfiCond154) CFA_XSP16 add(XSP16, 23)
          CFI Block cfiCond155 Using cfiCommon0
          CFI (cfiCond155) Function APSME_LinkKeySet
          CFI (cfiCond155) Conditional ??CrossCallReturnLabel_97
          CFI (cfiCond155) R6 load(1, XDATA, add(CFA_XSP16, literal(-15)))
          CFI (cfiCond155) VB load(1, XDATA, add(CFA_XSP16, literal(-14)))
          CFI (cfiCond155) V0 load(1, XDATA, add(CFA_XSP16, literal(-13)))
          CFI (cfiCond155) V1 load(1, XDATA, add(CFA_XSP16, literal(-12)))
          CFI (cfiCond155) V2 load(1, XDATA, add(CFA_XSP16, literal(-11)))
          CFI (cfiCond155) V3 load(1, XDATA, add(CFA_XSP16, literal(-10)))
          CFI (cfiCond155) V4 load(1, XDATA, add(CFA_XSP16, literal(-9)))
          CFI (cfiCond155) V5 load(1, XDATA, add(CFA_XSP16, literal(-8)))
          CFI (cfiCond155) V6 load(1, XDATA, add(CFA_XSP16, literal(-7)))
          CFI (cfiCond155) R7 load(1, XDATA, add(CFA_XSP16, literal(-6)))
          CFI (cfiCond155) ?RET_LOW load(1, XDATA, add(CFA_XSP16, literal(-5)))
          CFI (cfiCond155) ?RET_HIGH load(1, XDATA, add(CFA_XSP16, literal(-4)))
          CFI (cfiCond155) ?BRET_EXT load(1, XDATA, add(CFA_XSP16, literal(-3)))
          CFI (cfiCond155) DPL0 load(1, XDATA, add(CFA_XSP16, literal(-2)))
          CFI (cfiCond155) DPH0 load(1, XDATA, add(CFA_XSP16, literal(-1)))
          CFI (cfiCond155) CFA_SP SP+-2
          CFI (cfiCond155) CFA_XSP16 add(XSP16, 23)
          CFI Block cfiCond156 Using cfiCommon0
          CFI (cfiCond156) Function APSME_LinkKeyNVIdGet
          CFI (cfiCond156) Conditional ??CrossCallReturnLabel_98
          CFI (cfiCond156) R6 load(1, XDATA, add(CFA_XSP16, literal(-9)))
          CFI (cfiCond156) VB load(1, XDATA, add(CFA_XSP16, literal(-8)))
          CFI (cfiCond156) V0 load(1, XDATA, add(CFA_XSP16, literal(-7)))
          CFI (cfiCond156) R7 load(1, XDATA, add(CFA_XSP16, literal(-6)))
          CFI (cfiCond156) ?RET_LOW load(1, XDATA, add(CFA_XSP16, literal(-5)))
          CFI (cfiCond156) ?RET_HIGH load(1, XDATA, add(CFA_XSP16, literal(-4)))
          CFI (cfiCond156) ?BRET_EXT load(1, XDATA, add(CFA_XSP16, literal(-3)))
          CFI (cfiCond156) DPL0 load(1, XDATA, add(CFA_XSP16, literal(-2)))
          CFI (cfiCond156) DPH0 load(1, XDATA, add(CFA_XSP16, literal(-1)))
          CFI (cfiCond156) CFA_SP SP+-2
          CFI (cfiCond156) CFA_XSP16 add(XSP16, 11)
          CFI Block cfiPicker157 Using cfiCommon1
          CFI (cfiPicker157) NoFunction
          CFI (cfiPicker157) Picker
        MOVX      A,@DPTR
        MOV       R2,A
        INC       DPTR
        MOVX      A,@DPTR
        MOV       R3,A
        RET
          CFI EndBlock cfiCond137
          CFI EndBlock cfiCond138
          CFI EndBlock cfiCond139
          CFI EndBlock cfiCond140
          CFI EndBlock cfiCond141
          CFI EndBlock cfiCond142
          CFI EndBlock cfiCond143
          CFI EndBlock cfiCond144
          CFI EndBlock cfiCond145
          CFI EndBlock cfiCond146
          CFI EndBlock cfiCond147
          CFI EndBlock cfiCond148
          CFI EndBlock cfiCond149
          CFI EndBlock cfiCond150
          CFI EndBlock cfiCond151
          CFI EndBlock cfiCond152
          CFI EndBlock cfiCond153
          CFI EndBlock cfiCond154
          CFI EndBlock cfiCond155
          CFI EndBlock cfiCond156
          CFI EndBlock cfiPicker157
// 1273 
// 1274 /******************************************************************************
// 1275  * @fn          ZDSecMgrDeviceJoinDirect
// 1276  *
// 1277  * @brief       Try to join this device as a direct child.
// 1278  *
// 1279  * @param       device - [in] ZDSecMgrDevice_t, device info
// 1280  *
// 1281  * @return      ZStatus_t
// 1282  */

        RSEG BANKED_CODE:HUGECODE:NOROOT(0)
// 1283 ZStatus_t ZDSecMgrDeviceJoinDirect( ZDSecMgrDevice_t* device )
ZDSecMgrDeviceJoinDirect:
          CFI Block cfiBlock158 Using cfiCommon0
          CFI Function ZDSecMgrDeviceJoinDirect
        CODE
// 1284 {
        FUNCALL ZDSecMgrDeviceJoinDirect, APSME_SearchTCLinkKeyEntry
        LOCFRAME ISTACK, 0, STACK
        LOCFRAME PSTACK, 0, STACK
        LOCFRAME XSTACK, 34, STACK
        LOCFRAME IOVERLAY, 0, STATIC
        LOCFRAME DOVERLAY, 0, STATIC
        ARGFRAME ISTACK, 0, STACK
        ARGFRAME PSTACK, 0, STACK
        ARGFRAME XSTACK, 34, STACK
        ARGFRAME IOVERLAY, 0, STATIC
        ARGFRAME DOVERLAY, 0, STATIC
        FUNCALL ZDSecMgrDeviceJoinDirect, osal_nv_write
        LOCFRAME ISTACK, 0, STACK
        LOCFRAME PSTACK, 0, STACK
        LOCFRAME XSTACK, 36, STACK
        LOCFRAME IOVERLAY, 0, STATIC
        LOCFRAME DOVERLAY, 0, STATIC
        ARGFRAME ISTACK, 0, STACK
        ARGFRAME PSTACK, 0, STACK
        ARGFRAME XSTACK, 36, STACK
        ARGFRAME IOVERLAY, 0, STATIC
        ARGFRAME DOVERLAY, 0, STATIC
        FUNCALL ZDSecMgrDeviceJoinDirect, ZDSecMgrDeviceJoin
        LOCFRAME ISTACK, 0, STACK
        LOCFRAME PSTACK, 0, STACK
        LOCFRAME XSTACK, 32, STACK
        LOCFRAME IOVERLAY, 0, STATIC
        LOCFRAME DOVERLAY, 0, STATIC
        ARGFRAME ISTACK, 0, STACK
        ARGFRAME PSTACK, 0, STACK
        ARGFRAME XSTACK, 32, STACK
        ARGFRAME IOVERLAY, 0, STATIC
        ARGFRAME DOVERLAY, 0, STATIC
        FUNCALL ZDSecMgrDeviceJoinDirect, AssocGetWithShort
        LOCFRAME ISTACK, 0, STACK
        LOCFRAME PSTACK, 0, STACK
        LOCFRAME XSTACK, 32, STACK
        LOCFRAME IOVERLAY, 0, STATIC
        LOCFRAME DOVERLAY, 0, STATIC
        ARGFRAME ISTACK, 0, STACK
        ARGFRAME PSTACK, 0, STACK
        ARGFRAME XSTACK, 32, STACK
        ARGFRAME IOVERLAY, 0, STATIC
        ARGFRAME DOVERLAY, 0, STATIC
        FUNCALL ZDSecMgrDeviceJoinDirect, ZDSecMgrAssocDeviceAuth
        LOCFRAME ISTACK, 0, STACK
        LOCFRAME PSTACK, 0, STACK
        LOCFRAME XSTACK, 32, STACK
        LOCFRAME IOVERLAY, 0, STATIC
        LOCFRAME DOVERLAY, 0, STATIC
        ARGFRAME ISTACK, 0, STACK
        ARGFRAME PSTACK, 0, STACK
        ARGFRAME XSTACK, 32, STACK
        ARGFRAME IOVERLAY, 0, STATIC
        ARGFRAME DOVERLAY, 0, STATIC
        REQUIRE ?V0
        REQUIRE ?V1
        REQUIRE ?V2
        REQUIRE ?V3
        MOV       A,#-0xc
        LCALL     ?BANKED_ENTER_XDATA
          CFI DPH0 load(1, XDATA, add(CFA_XSP16, literal(-1)))
          CFI DPL0 load(1, XDATA, add(CFA_XSP16, literal(-2)))
          CFI ?BRET_EXT load(1, XDATA, add(CFA_XSP16, literal(-3)))
          CFI ?RET_HIGH load(1, XDATA, add(CFA_XSP16, literal(-4)))
          CFI ?RET_LOW load(1, XDATA, add(CFA_XSP16, literal(-5)))
          CFI R7 load(1, XDATA, add(CFA_XSP16, literal(-6)))
          CFI V3 load(1, XDATA, add(CFA_XSP16, literal(-7)))
          CFI V2 load(1, XDATA, add(CFA_XSP16, literal(-8)))
          CFI V1 load(1, XDATA, add(CFA_XSP16, literal(-9)))
          CFI V0 load(1, XDATA, add(CFA_XSP16, literal(-10)))
          CFI VB load(1, XDATA, add(CFA_XSP16, literal(-11)))
          CFI R6 load(1, XDATA, add(CFA_XSP16, literal(-12)))
          CFI CFA_SP SP+0
          CFI CFA_XSP16 add(XSP16, 12)
        ; Saved register size: 12
        ; Auto size: 20
        MOV       A,#-0x14
        LCALL     ?ALLOC_XSTACK8
          CFI CFA_XSP16 add(XSP16, 32)
        MOV       A,R2
        MOV       R6,A
        MOV       A,R3
        MOV       R7,A
// 1285   ZStatus_t status;
// 1286   
// 1287   if(device->secure == FALSE)
        MOV       DPL,R6
        MOV       DPH,R7
        INC       DPTR
        INC       DPTR
        INC       DPTR
        INC       DPTR
        INC       DPTR
        INC       DPTR
        MOVX      A,@DPTR
        JZ        $+5
        LJMP      ??ZDSecMgrDeviceJoinDirect_0 & 0xFFFF
// 1288   {  
// 1289     uint8  found;
// 1290     uint16 keyNvIndex;
// 1291     APSME_TCLKDevEntry_t TCLKDevEntry;
// 1292     
// 1293     keyNvIndex = APSME_SearchTCLinkKeyEntry(device->extAddr,&found, &TCLKDevEntry);
        ; Setup parameters for call to function APSME_SearchTCLinkKeyEntry
        MOV       A,#0x1
        LCALL     ?XSTACK_DISP100_8
        MOV       ?V0,R0
        MOV       ?V1,R1
        MOV       R0,#?V0
        LCALL     ?PUSH_XSTACK_I_TWO
          CFI CFA_XSP16 add(XSP16, 34)
        MOV       A,#0x2
        LCALL     ?XSTACK_DISP102_8
        MOV       DPL,R6
        MOV       DPH,R7
        LCALL     ??Subroutine56_0 & 0xFFFF
??CrossCallReturnLabel_94:
        LCALL     `??APSME_SearchTCLinkKeyEntry::?relay`; Banked call to: APSME_SearchTCLinkKeyEntry
        MOV       A,#0x2
        LCALL     ?DEALLOC_XSTACK8
          CFI CFA_XSP16 add(XSP16, 32)
// 1294     
// 1295     //If found and it was verified, then allow it to join in a fresh state by erasing the key entry
// 1296     if((found == TRUE) && (TCLKDevEntry.keyAttributes == ZG_VERIFIED_KEY))
        MOV       DPL,?XSP + 0
        MOV       DPH,?XSP + 1
        MOVX      A,@DPTR
        XRL       A,#0x1
        JNZ       ??ZDSecMgrDeviceJoinDirect_0
        MOV       A,#0x11
        LCALL     ?XSTACK_DISP0_8
        MOVX      A,@DPTR
        XRL       A,#0x2
        JNZ       ??ZDSecMgrDeviceJoinDirect_0
// 1297     {
// 1298       uint16 index;
// 1299       TCLKDevEntry.keyAttributes = ZG_DEFAULT_KEY;
        MOV       A,#-0x1
        MOVX      @DPTR,A
// 1300       //Increase the shift by one. Validate the maximum shift of the seed which is 15
// 1301       TCLKDevEntry.SeedShift_IcIndex++;
// 1302       TCLKDevEntry.SeedShift_IcIndex &= 0x0F;
        MOV       A,#0x13
        LCALL     ?XSTACK_DISP0_8
        MOVX      A,@DPTR
        INC       A
        ANL       A,#0xf
        MOVX      @DPTR,A
// 1303       
// 1304       TCLKDevEntry.rxFrmCntr = 0;
        MOV       A,#0x5
        LCALL     ?XSTACK_DISP0_8
        LCALL     ?Subroutine14 & 0xFFFF
// 1305       TCLKDevEntry.txFrmCntr = 0;
??CrossCallReturnLabel_2:
        LCALL     ?XSTACK_DISP0_8
        LCALL     ??Subroutine73_0 & 0xFFFF
// 1306       
// 1307       index = keyNvIndex - ZCD_NV_TCLK_TABLE_START;
??CrossCallReturnLabel_161:
        LCALL     ?Subroutine39 & 0xFFFF
// 1308       
// 1309       TCLinkKeyFrmCntr[index].rxFrmCntr = 0;
??CrossCallReturnLabel_43:
        MOV       R4,B
        MOV       B,#0x9
        MOV       A,R1
        MUL       AB
        ADD       A,R4
        MOV       R1,A
        MOV       A,#TCLinkKeyFrmCntr & 0xff
        ADD       A,R0
        MOV       R0,A
        MOV       A,#(TCLinkKeyFrmCntr >> 8) & 0xff
        ADDC      A,R1
        MOV       R1,A
        MOV       DPL,R0
        MOV       DPH,R1
        INC       DPTR
        INC       DPTR
        INC       DPTR
        INC       DPTR
        LCALL     ??Subroutine73_0 & 0xFFFF
// 1310       TCLinkKeyFrmCntr[index].txFrmCntr = 0;
??CrossCallReturnLabel_162:
        MOV       DPL,R0
        MOV       DPH,R1
        LCALL     ??Subroutine74_0 & 0xFFFF
// 1311       
// 1312       //Update the entry
// 1313       osal_nv_write(keyNvIndex,0,sizeof(APSME_TCLKDevEntry_t), &TCLKDevEntry );
??CrossCallReturnLabel_160:
        ; Setup parameters for call to function osal_nv_write
        MOV       R0,#?V0
        LCALL     ?PUSH_XSTACK_I_TWO
          CFI CFA_XSP16 add(XSP16, 34)
        MOV       ?V0,#0x13
        MOV       ?V1,#0x0
        MOV       R0,#?V0
        LCALL     ?PUSH_XSTACK_I_TWO
          CFI CFA_XSP16 add(XSP16, 36)
        MOV       R4,#0x0
        MOV       R5,#0x0
        LCALL     `??osal_nv_write::?relay`; Banked call to: osal_nv_write
        MOV       A,#0x4
        LCALL     ?DEALLOC_XSTACK8
          CFI CFA_XSP16 add(XSP16, 32)
// 1314     }
// 1315     
// 1316   }
// 1317 
// 1318   status = ZDSecMgrDeviceJoin( device );
??ZDSecMgrDeviceJoinDirect_0:
        ; Setup parameters for call to function ZDSecMgrDeviceJoin
        MOV       A,R6
        MOV       R2,A
        MOV       A,R7
        MOV       R3,A
        LCALL     `??ZDSecMgrDeviceJoin::?relay`; Banked call to: ZDSecMgrDeviceJoin
        MOV       A,R1
        MOV       ?V0,A
// 1319 
// 1320   if ( status == ZSuccess )
        JNZ       ??ZDSecMgrDeviceJoinDirect_1
// 1321   {
// 1322     // set association status to authenticated
// 1323     ZDSecMgrAssocDeviceAuth( AssocGetWithShort( device->nwkAddr ) );
        ; Setup parameters for call to function AssocGetWithShort
        MOV       DPL,R6
        MOV       DPH,R7
        LCALL     ??Subroutine57_0 & 0xFFFF
// 1324     
// 1325   #if (ZG_BUILD_COORDINATOR_TYPE)    
// 1326     //Add the device as joining device, if it did join unsecured
// 1327     if(device->secure == FALSE)
// 1328     {
// 1329       bdb_TCAddJoiningDevice(NLME_GetShortAddr(),device->extAddr);
// 1330     }
// 1331   #endif
// 1332   }
??CrossCallReturnLabel_89:
        LCALL     `??AssocGetWithShort::?relay`; Banked call to: AssocGetWithShort
        ; Setup parameters for call to function ZDSecMgrAssocDeviceAuth
        LCALL     `??ZDSecMgrAssocDeviceAuth::?relay`; Banked call to: ZDSecMgrAssocDeviceAuth
// 1333 
// 1334   return status;
??ZDSecMgrDeviceJoinDirect_1:
        MOV       R1,?V0
        MOV       A,#0x14
        LJMP      ?Subroutine3 & 0xFFFF
// 1335 }
          CFI EndBlock cfiBlock158
// 1336 
// 1337 /******************************************************************************
// 1338  * @fn          ZDSecMgrDeviceJoinFwd
// 1339  *
// 1340  * @brief       Forward join to Trust Center.
// 1341  *
// 1342  * @param       device - [in] ZDSecMgrDevice_t, device info
// 1343  *
// 1344  * @return      ZStatus_t
// 1345  */

        RSEG BANKED_CODE:HUGECODE:NOROOT(0)
// 1346 ZStatus_t ZDSecMgrDeviceJoinFwd( ZDSecMgrDevice_t* device )
ZDSecMgrDeviceJoinFwd:
          CFI Block cfiBlock159 Using cfiCommon0
          CFI Function ZDSecMgrDeviceJoinFwd
        CODE
// 1347 {
        FUNCALL ZDSecMgrDeviceJoinFwd, AssocGetWithShort
        LOCFRAME ISTACK, 0, STACK
        LOCFRAME PSTACK, 0, STACK
        LOCFRAME XSTACK, 18, STACK
        LOCFRAME IOVERLAY, 0, STATIC
        LOCFRAME DOVERLAY, 0, STATIC
        ARGFRAME ISTACK, 0, STACK
        ARGFRAME PSTACK, 0, STACK
        ARGFRAME XSTACK, 18, STACK
        ARGFRAME IOVERLAY, 0, STATIC
        ARGFRAME DOVERLAY, 0, STATIC
        FUNCALL ZDSecMgrDeviceJoinFwd, ZDSecMgrAssocDeviceAuth
        LOCFRAME ISTACK, 0, STACK
        LOCFRAME PSTACK, 0, STACK
        LOCFRAME XSTACK, 18, STACK
        LOCFRAME IOVERLAY, 0, STATIC
        LOCFRAME DOVERLAY, 0, STATIC
        ARGFRAME ISTACK, 0, STACK
        ARGFRAME PSTACK, 0, STACK
        ARGFRAME XSTACK, 18, STACK
        ARGFRAME IOVERLAY, 0, STATIC
        ARGFRAME DOVERLAY, 0, STATIC
        FUNCALL ZDSecMgrDeviceJoinFwd, APSME_UpdateDeviceReq
        LOCFRAME ISTACK, 0, STACK
        LOCFRAME PSTACK, 0, STACK
        LOCFRAME XSTACK, 18, STACK
        LOCFRAME IOVERLAY, 0, STATIC
        LOCFRAME DOVERLAY, 0, STATIC
        ARGFRAME ISTACK, 0, STACK
        ARGFRAME PSTACK, 0, STACK
        ARGFRAME XSTACK, 18, STACK
        ARGFRAME IOVERLAY, 0, STATIC
        ARGFRAME DOVERLAY, 0, STATIC
        REQUIRE ?V0
        REQUIRE ?V1
        MOV       A,#-0xa
        LCALL     ?BANKED_ENTER_XDATA
          CFI DPH0 load(1, XDATA, add(CFA_XSP16, literal(-1)))
          CFI DPL0 load(1, XDATA, add(CFA_XSP16, literal(-2)))
          CFI ?BRET_EXT load(1, XDATA, add(CFA_XSP16, literal(-3)))
          CFI ?RET_HIGH load(1, XDATA, add(CFA_XSP16, literal(-4)))
          CFI ?RET_LOW load(1, XDATA, add(CFA_XSP16, literal(-5)))
          CFI R7 load(1, XDATA, add(CFA_XSP16, literal(-6)))
          CFI V1 load(1, XDATA, add(CFA_XSP16, literal(-7)))
          CFI V0 load(1, XDATA, add(CFA_XSP16, literal(-8)))
          CFI VB load(1, XDATA, add(CFA_XSP16, literal(-9)))
          CFI R6 load(1, XDATA, add(CFA_XSP16, literal(-10)))
          CFI CFA_SP SP+0
          CFI CFA_XSP16 add(XSP16, 10)
        ; Saved register size: 10
        ; Auto size: 8
        MOV       A,#-0x8
        LCALL     ?ALLOC_XSTACK8
          CFI CFA_XSP16 add(XSP16, 18)
// 1348   ZStatus_t               status;
// 1349   APSME_UpdateDeviceReq_t req;
// 1350   uint8 TC_ExtAddr[Z_EXTADDR_LEN];
// 1351 
// 1352   // forward any joining device to the Trust Center -- the Trust Center will
// 1353   // decide if the device is allowed to join
// 1354   status = ZSuccess;
// 1355 
// 1356   // forward authorization to the Trust Center
// 1357   req.dstAddr    = APSME_TRUSTCENTER_NWKADDR;
        MOV       DPL,?XSP + 0
        MOV       DPH,?XSP + 1
        CLR       A
        MOVX      @DPTR,A
        INC       DPTR
        LCALL     ?Subroutine43 & 0xFFFF
// 1358   req.devAddr    = device->nwkAddr;
??CrossCallReturnLabel_50:
        LCALL     ?Subroutine29 & 0xFFFF
??CrossCallReturnLabel_27:
        LCALL     ?XSTACK_DISP0_8
        LCALL     ?Subroutine12 & 0xFFFF
// 1359   req.devExtAddr = device->extAddr;
??CrossCallReturnLabel_0:
        LCALL     ?XSTACK_DISP0_8
        LCALL     ??Subroutine59_0 & 0xFFFF
// 1360 
// 1361   // set security status, option for router to reject if policy set
// 1362   if ( (device->devStatus & DEV_HIGH_SEC_STATUS) )
??CrossCallReturnLabel_109:
        MOV       A,R2
        ADD       A,#0x7
        MOV       DPL,A
        CLR       A
        ADDC      A,R3
        MOV       DPH,A
        MOVX      A,@DPTR
        MOV       C,0xE0 /* A   */.7
        JNC       ??ZDSecMgrDeviceJoinFwd_0
// 1363   {
// 1364     if ( device->devStatus & DEV_REJOIN_STATUS )
        MOV       C,0xE0 /* A   */.6
        JNC       ??ZDSecMgrDeviceJoinFwd_1
// 1365     {
// 1366       if ( device->secure == TRUE )
        MOV       DPL,R2
        MOV       DPH,R3
        INC       DPTR
        INC       DPTR
        INC       DPTR
        INC       DPTR
        INC       DPTR
        INC       DPTR
        MOVX      A,@DPTR
        XRL       A,#0x1
        JNZ       ??ZDSecMgrDeviceJoinFwd_2
// 1367       {
// 1368         req.status = APSME_UD_HIGH_SECURED_REJOIN;
        MOV       A,#0x6
        LCALL     ?XSTACK_DISP0_8
        MOV       A,#0x4
        SJMP      ??ZDSecMgrDeviceJoinFwd_3
// 1369       }
// 1370       else
// 1371       {
// 1372         req.status = APSME_UD_HIGH_UNSECURED_REJOIN;
??ZDSecMgrDeviceJoinFwd_2:
        MOV       A,#0x6
        LCALL     ?XSTACK_DISP0_8
        MOV       A,#0x7
        SJMP      ??ZDSecMgrDeviceJoinFwd_3
// 1373       }
// 1374     }
// 1375     else
// 1376     {
// 1377       req.status = APSME_UD_HIGH_UNSECURED_JOIN;
??ZDSecMgrDeviceJoinFwd_1:
        MOV       A,#0x6
        LCALL     ?XSTACK_DISP0_8
        MOV       A,#0x5
        SJMP      ??ZDSecMgrDeviceJoinFwd_3
// 1378     }
// 1379   }
// 1380   else
// 1381   {
// 1382     if ( device->devStatus & DEV_REJOIN_STATUS )
??ZDSecMgrDeviceJoinFwd_0:
        MOV       C,0xE0 /* A   */.6
        JNC       ??ZDSecMgrDeviceJoinFwd_4
// 1383     {
// 1384       if ( device->secure == TRUE )
        MOV       DPL,R2
        MOV       DPH,R3
        INC       DPTR
        INC       DPTR
        INC       DPTR
        INC       DPTR
        INC       DPTR
        INC       DPTR
        MOVX      A,@DPTR
        XRL       A,#0x1
        JNZ       ??ZDSecMgrDeviceJoinFwd_5
// 1385       {
// 1386         req.status = APSME_UD_STANDARD_SECURED_REJOIN;
        MOV       A,#0x6
        LCALL     ?XSTACK_DISP0_8
        CLR       A
        SJMP      ??ZDSecMgrDeviceJoinFwd_3
// 1387       }
// 1388       else
// 1389       {
// 1390         req.status = APSME_UD_STANDARD_TRUST_CENTER_REJOIN;
??ZDSecMgrDeviceJoinFwd_5:
        MOV       A,#0x6
        LCALL     ?XSTACK_DISP0_8
        MOV       A,#0x3
        SJMP      ??ZDSecMgrDeviceJoinFwd_3
// 1391       }
// 1392     }
// 1393     else
// 1394     {
// 1395       req.status = APSME_UD_STANDARD_UNSECURED_JOIN;
??ZDSecMgrDeviceJoinFwd_4:
        MOV       A,#0x6
        LCALL     ?XSTACK_DISP0_8
        MOV       A,#0x1
// 1396     }
// 1397   }
??ZDSecMgrDeviceJoinFwd_3:
        LCALL     ?Subroutine43 & 0xFFFF
// 1398 
// 1399   // set association status to authenticated
// 1400   ZDSecMgrAssocDeviceAuth( AssocGetWithShort( device->nwkAddr ) );
??CrossCallReturnLabel_51:
        LCALL     ??Subroutine57_0 & 0xFFFF
??CrossCallReturnLabel_90:
        LCALL     `??AssocGetWithShort::?relay`; Banked call to: AssocGetWithShort
        ; Setup parameters for call to function ZDSecMgrAssocDeviceAuth
        LCALL     `??ZDSecMgrAssocDeviceAuth::?relay`; Banked call to: ZDSecMgrAssocDeviceAuth
// 1401 
// 1402   if ( ZG_CHECK_SECURITY_MODE == ZG_SECURITY_SE_STANDARD )
// 1403   {
// 1404     uint8 found;
// 1405     APSME_GetRequest( apsTrustCenterAddress,0, TC_ExtAddr );
// 1406     
// 1407     APSME_SearchTCLinkKeyEntry(TC_ExtAddr,&found,NULL);
// 1408     
// 1409     // For ZG_GLOBAL_LINK_KEY the message has to be sent twice one
// 1410     // un-encrypted and one APS encrypted, to make sure that it can interoperate
// 1411     // with legacy Coordinator devices which can only handle one or the other.
// 1412 #if defined ( APP_TP2_TEST_MODE )
// 1413     if ( ( zgApsLinkKeyType == ZG_GLOBAL_LINK_KEY ) && ( guTxApsSecON != TRUE ) )
// 1414 #else
// 1415     if ( ( zgApsLinkKeyType == ZG_GLOBAL_LINK_KEY ) && ( found == FALSE ) )
// 1416 #endif
// 1417     {
// 1418       req.apsSecure = FALSE;
// 1419 
// 1420       // send and APSME_UPDATE_DEVICE request to the trust center
// 1421       status = APSME_UpdateDeviceReq( &req );
// 1422     }
// 1423 
// 1424 #if defined ( APP_TP2_TEST_MODE )
// 1425     if ( guTxApsSecON != FALSE )
// 1426     {
// 1427       // send the message APS encrypted
// 1428       req.apsSecure = TRUE;
// 1429 
// 1430       // send and APSME_UPDATE_DEVICE request to the trust center
// 1431       status = APSME_UpdateDeviceReq( &req );
// 1432     }
// 1433 #else
// 1434     // send the message APS encrypted
// 1435     req.apsSecure = TRUE;
// 1436 
// 1437     // send and APSME_UPDATE_DEVICE request to the trust center
// 1438     status = APSME_UpdateDeviceReq( &req );
// 1439 #endif
// 1440   }
// 1441   else
// 1442   {
// 1443     req.apsSecure = FALSE;
        MOV       A,#0x7
        LCALL     ?XSTACK_DISP0_8
        CLR       A
        LCALL     ??Subroutine65_0 & 0xFFFF
// 1444 
// 1445     // send and APSME_UPDATE_DEVICE request to the trust center
// 1446     status = APSME_UpdateDeviceReq( &req );
// 1447   }
// 1448 
// 1449   return status;
??CrossCallReturnLabel_122:
        LCALL     `??APSME_UpdateDeviceReq::?relay`; Banked call to: APSME_UpdateDeviceReq
        LJMP      ?Subroutine4 & 0xFFFF
// 1450 }
          CFI EndBlock cfiBlock159

        RSEG BANKED_CODE:HUGECODE:NOROOT(0)
?Subroutine43:
          CFI Block cfiCond160 Using cfiCommon0
          CFI Function ZDSecMgrEntryInit
          CFI Conditional ??CrossCallReturnLabel_49
          CFI DPL0 Frame(CFA_SP, 4)
          CFI DPH0 Frame(CFA_SP, 5)
          CFI CFA_SP SP+-7
          CFI Block cfiCond161 Using cfiCommon0
          CFI (cfiCond161) Function ZDSecMgrDeviceJoinFwd
          CFI (cfiCond161) Conditional ??CrossCallReturnLabel_50
          CFI (cfiCond161) R6 load(1, XDATA, add(CFA_XSP16, literal(-10)))
          CFI (cfiCond161) VB load(1, XDATA, add(CFA_XSP16, literal(-9)))
          CFI (cfiCond161) V0 load(1, XDATA, add(CFA_XSP16, literal(-8)))
          CFI (cfiCond161) V1 load(1, XDATA, add(CFA_XSP16, literal(-7)))
          CFI (cfiCond161) R7 load(1, XDATA, add(CFA_XSP16, literal(-6)))
          CFI (cfiCond161) ?RET_LOW load(1, XDATA, add(CFA_XSP16, literal(-5)))
          CFI (cfiCond161) ?RET_HIGH load(1, XDATA, add(CFA_XSP16, literal(-4)))
          CFI (cfiCond161) ?BRET_EXT load(1, XDATA, add(CFA_XSP16, literal(-3)))
          CFI (cfiCond161) DPL0 load(1, XDATA, add(CFA_XSP16, literal(-2)))
          CFI (cfiCond161) DPH0 load(1, XDATA, add(CFA_XSP16, literal(-1)))
          CFI (cfiCond161) CFA_SP SP+-2
          CFI (cfiCond161) CFA_XSP16 add(XSP16, 18)
          CFI Block cfiCond162 Using cfiCommon0
          CFI (cfiCond162) Function ZDSecMgrDeviceJoinFwd
          CFI (cfiCond162) Conditional ??CrossCallReturnLabel_51
          CFI (cfiCond162) R6 load(1, XDATA, add(CFA_XSP16, literal(-10)))
          CFI (cfiCond162) VB load(1, XDATA, add(CFA_XSP16, literal(-9)))
          CFI (cfiCond162) V0 load(1, XDATA, add(CFA_XSP16, literal(-8)))
          CFI (cfiCond162) V1 load(1, XDATA, add(CFA_XSP16, literal(-7)))
          CFI (cfiCond162) R7 load(1, XDATA, add(CFA_XSP16, literal(-6)))
          CFI (cfiCond162) ?RET_LOW load(1, XDATA, add(CFA_XSP16, literal(-5)))
          CFI (cfiCond162) ?RET_HIGH load(1, XDATA, add(CFA_XSP16, literal(-4)))
          CFI (cfiCond162) ?BRET_EXT load(1, XDATA, add(CFA_XSP16, literal(-3)))
          CFI (cfiCond162) DPL0 load(1, XDATA, add(CFA_XSP16, literal(-2)))
          CFI (cfiCond162) DPH0 load(1, XDATA, add(CFA_XSP16, literal(-1)))
          CFI (cfiCond162) CFA_SP SP+-2
          CFI (cfiCond162) CFA_XSP16 add(XSP16, 18)
          CFI Block cfiCond163 Using cfiCommon0
          CFI (cfiCond163) Function ZDSecMgrDeviceJoinFwd
          CFI (cfiCond163) Conditional ??CrossCallReturnLabel_52, ??CrossCallReturnLabel_0
          CFI (cfiCond163) R6 load(1, XDATA, add(CFA_XSP16, literal(-10)))
          CFI (cfiCond163) VB load(1, XDATA, add(CFA_XSP16, literal(-9)))
          CFI (cfiCond163) V0 load(1, XDATA, add(CFA_XSP16, literal(-8)))
          CFI (cfiCond163) V1 load(1, XDATA, add(CFA_XSP16, literal(-7)))
          CFI (cfiCond163) R7 load(1, XDATA, add(CFA_XSP16, literal(-6)))
          CFI (cfiCond163) ?RET_LOW load(1, XDATA, add(CFA_XSP16, literal(-5)))
          CFI (cfiCond163) ?RET_HIGH load(1, XDATA, add(CFA_XSP16, literal(-4)))
          CFI (cfiCond163) ?BRET_EXT load(1, XDATA, add(CFA_XSP16, literal(-3)))
          CFI (cfiCond163) DPL0 load(1, XDATA, add(CFA_XSP16, literal(-2)))
          CFI (cfiCond163) DPH0 load(1, XDATA, add(CFA_XSP16, literal(-1)))
          CFI (cfiCond163) CFA_SP SP+-4
          CFI (cfiCond163) CFA_XSP16 add(XSP16, 18)
          CFI Block cfiCond164 Using cfiCommon0
          CFI (cfiCond164) Function ZDSecMgrUpdateDeviceInd
          CFI (cfiCond164) Conditional ??CrossCallReturnLabel_52, ??CrossCallReturnLabel_1
          CFI (cfiCond164) DPL0 Frame(CFA_SP, 4)
          CFI (cfiCond164) DPH0 Frame(CFA_SP, 5)
          CFI (cfiCond164) CFA_SP SP+-9
          CFI (cfiCond164) CFA_XSP16 add(XSP16, 8)
          CFI Block cfiPicker165 Using cfiCommon1
          CFI (cfiPicker165) NoFunction
          CFI (cfiPicker165) Picker
        MOVX      @DPTR,A
        ; Setup parameters for call to function AssocGetWithShort
        MOV       DPL,R2
        MOV       DPH,R3
        RET
          CFI EndBlock cfiCond160
          CFI EndBlock cfiCond161
          CFI EndBlock cfiCond162
          CFI EndBlock cfiCond163
          CFI EndBlock cfiCond164
          CFI EndBlock cfiPicker165

        RSEG BANKED_CODE:HUGECODE:NOROOT(0)
?Subroutine22:
          CFI Block cfiCond166 Using cfiCommon0
          CFI Function ZDSecMgrNewDeviceEvent
          CFI Conditional ??CrossCallReturnLabel_117
          CFI R6 load(1, XDATA, add(CFA_XSP16, literal(-12)))
          CFI VB load(1, XDATA, add(CFA_XSP16, literal(-11)))
          CFI V0 load(1, XDATA, add(CFA_XSP16, literal(-10)))
          CFI V1 load(1, XDATA, add(CFA_XSP16, literal(-9)))
          CFI V2 load(1, XDATA, add(CFA_XSP16, literal(-8)))
          CFI V3 load(1, XDATA, add(CFA_XSP16, literal(-7)))
          CFI R7 load(1, XDATA, add(CFA_XSP16, literal(-6)))
          CFI ?RET_LOW load(1, XDATA, add(CFA_XSP16, literal(-5)))
          CFI ?RET_HIGH load(1, XDATA, add(CFA_XSP16, literal(-4)))
          CFI ?BRET_EXT load(1, XDATA, add(CFA_XSP16, literal(-3)))
          CFI DPL0 load(1, XDATA, add(CFA_XSP16, literal(-2)))
          CFI DPH0 load(1, XDATA, add(CFA_XSP16, literal(-1)))
          CFI CFA_SP SP+-2
          CFI CFA_XSP16 add(XSP16, 33)
          CFI Block cfiCond167 Using cfiCommon0
          CFI (cfiCond167) Function ZDSecMgrUpdateDeviceInd
          CFI (cfiCond167) Conditional ??CrossCallReturnLabel_118
          CFI (cfiCond167) DPL0 Frame(CFA_SP, 4)
          CFI (cfiCond167) DPH0 Frame(CFA_SP, 5)
          CFI (cfiCond167) CFA_SP SP+-7
          CFI (cfiCond167) CFA_XSP16 add(XSP16, 8)
          CFI Block cfiPicker168 Using cfiCommon1
          CFI (cfiPicker168) NoFunction
          CFI (cfiPicker168) Picker
        LCALL     ??Subroutine61_0 & 0xFFFF
??CrossCallReturnLabel_141:
          CFI EndBlock cfiCond166
          CFI EndBlock cfiCond167
          CFI EndBlock cfiPicker168
        REQUIRE ??Subroutine58_0
        ; // Fall through to label ??Subroutine58_0

        RSEG BANKED_CODE:HUGECODE:NOROOT(0)
??Subroutine58_0:
          CFI Block cfiCond169 Using cfiCommon0
          CFI Function ZDSecMgrSendNwkKey
          CFI Conditional ??CrossCallReturnLabel_116
          CFI R6 load(1, XDATA, add(CFA_XSP16, literal(-10)))
          CFI VB load(1, XDATA, add(CFA_XSP16, literal(-9)))
          CFI V0 load(1, XDATA, add(CFA_XSP16, literal(-8)))
          CFI V1 load(1, XDATA, add(CFA_XSP16, literal(-7)))
          CFI R7 load(1, XDATA, add(CFA_XSP16, literal(-6)))
          CFI ?RET_LOW load(1, XDATA, add(CFA_XSP16, literal(-5)))
          CFI ?RET_HIGH load(1, XDATA, add(CFA_XSP16, literal(-4)))
          CFI ?BRET_EXT load(1, XDATA, add(CFA_XSP16, literal(-3)))
          CFI DPL0 load(1, XDATA, add(CFA_XSP16, literal(-2)))
          CFI DPH0 load(1, XDATA, add(CFA_XSP16, literal(-1)))
          CFI CFA_SP SP+-2
          CFI CFA_XSP16 add(XSP16, 40)
          CFI Block cfiCond170 Using cfiCommon0
          CFI (cfiCond170) Function ZDSecMgrNewDeviceEvent
          CFI (cfiCond170) Conditional ??CrossCallReturnLabel_117
          CFI (cfiCond170) R6 load(1, XDATA, add(CFA_XSP16, literal(-12)))
          CFI (cfiCond170) VB load(1, XDATA, add(CFA_XSP16, literal(-11)))
          CFI (cfiCond170) V0 load(1, XDATA, add(CFA_XSP16, literal(-10)))
          CFI (cfiCond170) V1 load(1, XDATA, add(CFA_XSP16, literal(-9)))
          CFI (cfiCond170) V2 load(1, XDATA, add(CFA_XSP16, literal(-8)))
          CFI (cfiCond170) V3 load(1, XDATA, add(CFA_XSP16, literal(-7)))
          CFI (cfiCond170) R7 load(1, XDATA, add(CFA_XSP16, literal(-6)))
          CFI (cfiCond170) ?RET_LOW load(1, XDATA, add(CFA_XSP16, literal(-5)))
          CFI (cfiCond170) ?RET_HIGH load(1, XDATA, add(CFA_XSP16, literal(-4)))
          CFI (cfiCond170) ?BRET_EXT load(1, XDATA, add(CFA_XSP16, literal(-3)))
          CFI (cfiCond170) DPL0 load(1, XDATA, add(CFA_XSP16, literal(-2)))
          CFI (cfiCond170) DPH0 load(1, XDATA, add(CFA_XSP16, literal(-1)))
          CFI (cfiCond170) CFA_SP SP+-2
          CFI (cfiCond170) CFA_XSP16 add(XSP16, 33)
          CFI Block cfiCond171 Using cfiCommon0
          CFI (cfiCond171) Function ZDSecMgrUpdateDeviceInd
          CFI (cfiCond171) Conditional ??CrossCallReturnLabel_118
          CFI (cfiCond171) DPL0 Frame(CFA_SP, 4)
          CFI (cfiCond171) DPH0 Frame(CFA_SP, 5)
          CFI (cfiCond171) CFA_SP SP+-7
          CFI (cfiCond171) CFA_XSP16 add(XSP16, 8)
          CFI Block cfiPicker172 Using cfiCommon1
          CFI (cfiPicker172) NoFunction
          CFI (cfiPicker172) Picker
        MOV       DPL,?XSP + 0
        MOV       DPH,?XSP + 1
          CFI EndBlock cfiCond169
          CFI EndBlock cfiCond170
          CFI EndBlock cfiCond171
          CFI EndBlock cfiPicker172
        REQUIRE ??Subroutine59_0
        ; // Fall through to label ??Subroutine59_0

        RSEG BANKED_CODE:HUGECODE:NOROOT(0)
??Subroutine59_0:
          CFI Block cfiCond173 Using cfiCommon0
          CFI Function ZDSecMgrAppKeyReq
          CFI Conditional ??CrossCallReturnLabel_99
          CFI R6 load(1, XDATA, add(CFA_XSP16, literal(-12)))
          CFI VB load(1, XDATA, add(CFA_XSP16, literal(-11)))
          CFI V0 load(1, XDATA, add(CFA_XSP16, literal(-10)))
          CFI V1 load(1, XDATA, add(CFA_XSP16, literal(-9)))
          CFI V2 load(1, XDATA, add(CFA_XSP16, literal(-8)))
          CFI V3 load(1, XDATA, add(CFA_XSP16, literal(-7)))
          CFI R7 load(1, XDATA, add(CFA_XSP16, literal(-6)))
          CFI ?RET_LOW load(1, XDATA, add(CFA_XSP16, literal(-5)))
          CFI ?RET_HIGH load(1, XDATA, add(CFA_XSP16, literal(-4)))
          CFI ?BRET_EXT load(1, XDATA, add(CFA_XSP16, literal(-3)))
          CFI DPL0 load(1, XDATA, add(CFA_XSP16, literal(-2)))
          CFI DPH0 load(1, XDATA, add(CFA_XSP16, literal(-1)))
          CFI CFA_SP SP+-2
          CFI CFA_XSP16 add(XSP16, 51)
          CFI Block cfiCond174 Using cfiCommon0
          CFI (cfiCond174) Function ZDSecMgrAppKeyReq
          CFI (cfiCond174) Conditional ??CrossCallReturnLabel_100
          CFI (cfiCond174) R6 load(1, XDATA, add(CFA_XSP16, literal(-12)))
          CFI (cfiCond174) VB load(1, XDATA, add(CFA_XSP16, literal(-11)))
          CFI (cfiCond174) V0 load(1, XDATA, add(CFA_XSP16, literal(-10)))
          CFI (cfiCond174) V1 load(1, XDATA, add(CFA_XSP16, literal(-9)))
          CFI (cfiCond174) V2 load(1, XDATA, add(CFA_XSP16, literal(-8)))
          CFI (cfiCond174) V3 load(1, XDATA, add(CFA_XSP16, literal(-7)))
          CFI (cfiCond174) R7 load(1, XDATA, add(CFA_XSP16, literal(-6)))
          CFI (cfiCond174) ?RET_LOW load(1, XDATA, add(CFA_XSP16, literal(-5)))
          CFI (cfiCond174) ?RET_HIGH load(1, XDATA, add(CFA_XSP16, literal(-4)))
          CFI (cfiCond174) ?BRET_EXT load(1, XDATA, add(CFA_XSP16, literal(-3)))
          CFI (cfiCond174) DPL0 load(1, XDATA, add(CFA_XSP16, literal(-2)))
          CFI (cfiCond174) DPH0 load(1, XDATA, add(CFA_XSP16, literal(-1)))
          CFI (cfiCond174) CFA_SP SP+-2
          CFI (cfiCond174) CFA_XSP16 add(XSP16, 51)
          CFI Block cfiCond175 Using cfiCommon0
          CFI (cfiCond175) Function ZDSecMgrAppKeyReq
          CFI (cfiCond175) Conditional ??CrossCallReturnLabel_101
          CFI (cfiCond175) R6 load(1, XDATA, add(CFA_XSP16, literal(-12)))
          CFI (cfiCond175) VB load(1, XDATA, add(CFA_XSP16, literal(-11)))
          CFI (cfiCond175) V0 load(1, XDATA, add(CFA_XSP16, literal(-10)))
          CFI (cfiCond175) V1 load(1, XDATA, add(CFA_XSP16, literal(-9)))
          CFI (cfiCond175) V2 load(1, XDATA, add(CFA_XSP16, literal(-8)))
          CFI (cfiCond175) V3 load(1, XDATA, add(CFA_XSP16, literal(-7)))
          CFI (cfiCond175) R7 load(1, XDATA, add(CFA_XSP16, literal(-6)))
          CFI (cfiCond175) ?RET_LOW load(1, XDATA, add(CFA_XSP16, literal(-5)))
          CFI (cfiCond175) ?RET_HIGH load(1, XDATA, add(CFA_XSP16, literal(-4)))
          CFI (cfiCond175) ?BRET_EXT load(1, XDATA, add(CFA_XSP16, literal(-3)))
          CFI (cfiCond175) DPL0 load(1, XDATA, add(CFA_XSP16, literal(-2)))
          CFI (cfiCond175) DPH0 load(1, XDATA, add(CFA_XSP16, literal(-1)))
          CFI (cfiCond175) CFA_SP SP+-2
          CFI (cfiCond175) CFA_XSP16 add(XSP16, 51)
          CFI Block cfiCond176 Using cfiCommon0
          CFI (cfiCond176) Function ZDSecMgrAppKeyReq
          CFI (cfiCond176) Conditional ??CrossCallReturnLabel_102
          CFI (cfiCond176) R6 load(1, XDATA, add(CFA_XSP16, literal(-12)))
          CFI (cfiCond176) VB load(1, XDATA, add(CFA_XSP16, literal(-11)))
          CFI (cfiCond176) V0 load(1, XDATA, add(CFA_XSP16, literal(-10)))
          CFI (cfiCond176) V1 load(1, XDATA, add(CFA_XSP16, literal(-9)))
          CFI (cfiCond176) V2 load(1, XDATA, add(CFA_XSP16, literal(-8)))
          CFI (cfiCond176) V3 load(1, XDATA, add(CFA_XSP16, literal(-7)))
          CFI (cfiCond176) R7 load(1, XDATA, add(CFA_XSP16, literal(-6)))
          CFI (cfiCond176) ?RET_LOW load(1, XDATA, add(CFA_XSP16, literal(-5)))
          CFI (cfiCond176) ?RET_HIGH load(1, XDATA, add(CFA_XSP16, literal(-4)))
          CFI (cfiCond176) ?BRET_EXT load(1, XDATA, add(CFA_XSP16, literal(-3)))
          CFI (cfiCond176) DPL0 load(1, XDATA, add(CFA_XSP16, literal(-2)))
          CFI (cfiCond176) DPH0 load(1, XDATA, add(CFA_XSP16, literal(-1)))
          CFI (cfiCond176) CFA_SP SP+-2
          CFI (cfiCond176) CFA_XSP16 add(XSP16, 51)
          CFI Block cfiCond177 Using cfiCommon0
          CFI (cfiCond177) Function ZDSecMgrTclkReq
          CFI (cfiCond177) Conditional ??CrossCallReturnLabel_103
          CFI (cfiCond177) R6 load(1, XDATA, add(CFA_XSP16, literal(-10)))
          CFI (cfiCond177) VB load(1, XDATA, add(CFA_XSP16, literal(-9)))
          CFI (cfiCond177) V0 load(1, XDATA, add(CFA_XSP16, literal(-8)))
          CFI (cfiCond177) V1 load(1, XDATA, add(CFA_XSP16, literal(-7)))
          CFI (cfiCond177) R7 load(1, XDATA, add(CFA_XSP16, literal(-6)))
          CFI (cfiCond177) ?RET_LOW load(1, XDATA, add(CFA_XSP16, literal(-5)))
          CFI (cfiCond177) ?RET_HIGH load(1, XDATA, add(CFA_XSP16, literal(-4)))
          CFI (cfiCond177) ?BRET_EXT load(1, XDATA, add(CFA_XSP16, literal(-3)))
          CFI (cfiCond177) DPL0 load(1, XDATA, add(CFA_XSP16, literal(-2)))
          CFI (cfiCond177) DPH0 load(1, XDATA, add(CFA_XSP16, literal(-1)))
          CFI (cfiCond177) CFA_SP SP+-2
          CFI (cfiCond177) CFA_XSP16 add(XSP16, 69)
          CFI Block cfiCond178 Using cfiCommon0
          CFI (cfiCond178) Function ZDSecMgrTclkReq
          CFI (cfiCond178) Conditional ??CrossCallReturnLabel_104
          CFI (cfiCond178) R6 load(1, XDATA, add(CFA_XSP16, literal(-10)))
          CFI (cfiCond178) VB load(1, XDATA, add(CFA_XSP16, literal(-9)))
          CFI (cfiCond178) V0 load(1, XDATA, add(CFA_XSP16, literal(-8)))
          CFI (cfiCond178) V1 load(1, XDATA, add(CFA_XSP16, literal(-7)))
          CFI (cfiCond178) R7 load(1, XDATA, add(CFA_XSP16, literal(-6)))
          CFI (cfiCond178) ?RET_LOW load(1, XDATA, add(CFA_XSP16, literal(-5)))
          CFI (cfiCond178) ?RET_HIGH load(1, XDATA, add(CFA_XSP16, literal(-4)))
          CFI (cfiCond178) ?BRET_EXT load(1, XDATA, add(CFA_XSP16, literal(-3)))
          CFI (cfiCond178) DPL0 load(1, XDATA, add(CFA_XSP16, literal(-2)))
          CFI (cfiCond178) DPH0 load(1, XDATA, add(CFA_XSP16, literal(-1)))
          CFI (cfiCond178) CFA_SP SP+-2
          CFI (cfiCond178) CFA_XSP16 add(XSP16, 69)
          CFI Block cfiCond179 Using cfiCommon0
          CFI (cfiCond179) Function ZDSecMgrTclkReq
          CFI (cfiCond179) Conditional ??CrossCallReturnLabel_105
          CFI (cfiCond179) R6 load(1, XDATA, add(CFA_XSP16, literal(-10)))
          CFI (cfiCond179) VB load(1, XDATA, add(CFA_XSP16, literal(-9)))
          CFI (cfiCond179) V0 load(1, XDATA, add(CFA_XSP16, literal(-8)))
          CFI (cfiCond179) V1 load(1, XDATA, add(CFA_XSP16, literal(-7)))
          CFI (cfiCond179) R7 load(1, XDATA, add(CFA_XSP16, literal(-6)))
          CFI (cfiCond179) ?RET_LOW load(1, XDATA, add(CFA_XSP16, literal(-5)))
          CFI (cfiCond179) ?RET_HIGH load(1, XDATA, add(CFA_XSP16, literal(-4)))
          CFI (cfiCond179) ?BRET_EXT load(1, XDATA, add(CFA_XSP16, literal(-3)))
          CFI (cfiCond179) DPL0 load(1, XDATA, add(CFA_XSP16, literal(-2)))
          CFI (cfiCond179) DPH0 load(1, XDATA, add(CFA_XSP16, literal(-1)))
          CFI (cfiCond179) CFA_SP SP+-2
          CFI (cfiCond179) CFA_XSP16 add(XSP16, 69)
          CFI Block cfiCond180 Using cfiCommon0
          CFI (cfiCond180) Function ZDSecMgrSendNwkKey
          CFI (cfiCond180) Conditional ??CrossCallReturnLabel_106
          CFI (cfiCond180) R6 load(1, XDATA, add(CFA_XSP16, literal(-10)))
          CFI (cfiCond180) VB load(1, XDATA, add(CFA_XSP16, literal(-9)))
          CFI (cfiCond180) V0 load(1, XDATA, add(CFA_XSP16, literal(-8)))
          CFI (cfiCond180) V1 load(1, XDATA, add(CFA_XSP16, literal(-7)))
          CFI (cfiCond180) R7 load(1, XDATA, add(CFA_XSP16, literal(-6)))
          CFI (cfiCond180) ?RET_LOW load(1, XDATA, add(CFA_XSP16, literal(-5)))
          CFI (cfiCond180) ?RET_HIGH load(1, XDATA, add(CFA_XSP16, literal(-4)))
          CFI (cfiCond180) ?BRET_EXT load(1, XDATA, add(CFA_XSP16, literal(-3)))
          CFI (cfiCond180) DPL0 load(1, XDATA, add(CFA_XSP16, literal(-2)))
          CFI (cfiCond180) DPH0 load(1, XDATA, add(CFA_XSP16, literal(-1)))
          CFI (cfiCond180) CFA_SP SP+-2
          CFI (cfiCond180) CFA_XSP16 add(XSP16, 40)
          CFI Block cfiCond181 Using cfiCommon0
          CFI (cfiCond181) Function ZDSecMgrDeviceRemove
          CFI (cfiCond181) Conditional ??CrossCallReturnLabel_107
          CFI (cfiCond181) R6 load(1, XDATA, add(CFA_XSP16, literal(-10)))
          CFI (cfiCond181) VB load(1, XDATA, add(CFA_XSP16, literal(-9)))
          CFI (cfiCond181) V0 load(1, XDATA, add(CFA_XSP16, literal(-8)))
          CFI (cfiCond181) V1 load(1, XDATA, add(CFA_XSP16, literal(-7)))
          CFI (cfiCond181) R7 load(1, XDATA, add(CFA_XSP16, literal(-6)))
          CFI (cfiCond181) ?RET_LOW load(1, XDATA, add(CFA_XSP16, literal(-5)))
          CFI (cfiCond181) ?RET_HIGH load(1, XDATA, add(CFA_XSP16, literal(-4)))
          CFI (cfiCond181) ?BRET_EXT load(1, XDATA, add(CFA_XSP16, literal(-3)))
          CFI (cfiCond181) DPL0 load(1, XDATA, add(CFA_XSP16, literal(-2)))
          CFI (cfiCond181) DPH0 load(1, XDATA, add(CFA_XSP16, literal(-1)))
          CFI (cfiCond181) CFA_SP SP+-2
          CFI (cfiCond181) CFA_XSP16 add(XSP16, 20)
          CFI Block cfiCond182 Using cfiCommon0
          CFI (cfiCond182) Function ZDSecMgrDeviceJoin
          CFI (cfiCond182) Conditional ??CrossCallReturnLabel_108
          CFI (cfiCond182) R6 load(1, XDATA, add(CFA_XSP16, literal(-16)))
          CFI (cfiCond182) VB load(1, XDATA, add(CFA_XSP16, literal(-15)))
          CFI (cfiCond182) V0 load(1, XDATA, add(CFA_XSP16, literal(-14)))
          CFI (cfiCond182) V1 load(1, XDATA, add(CFA_XSP16, literal(-13)))
          CFI (cfiCond182) V2 load(1, XDATA, add(CFA_XSP16, literal(-12)))
          CFI (cfiCond182) V3 load(1, XDATA, add(CFA_XSP16, literal(-11)))
          CFI (cfiCond182) V4 load(1, XDATA, add(CFA_XSP16, literal(-10)))
          CFI (cfiCond182) V5 load(1, XDATA, add(CFA_XSP16, literal(-9)))
          CFI (cfiCond182) V6 load(1, XDATA, add(CFA_XSP16, literal(-8)))
          CFI (cfiCond182) V7 load(1, XDATA, add(CFA_XSP16, literal(-7)))
          CFI (cfiCond182) R7 load(1, XDATA, add(CFA_XSP16, literal(-6)))
          CFI (cfiCond182) ?RET_LOW load(1, XDATA, add(CFA_XSP16, literal(-5)))
          CFI (cfiCond182) ?RET_HIGH load(1, XDATA, add(CFA_XSP16, literal(-4)))
          CFI (cfiCond182) ?BRET_EXT load(1, XDATA, add(CFA_XSP16, literal(-3)))
          CFI (cfiCond182) DPL0 load(1, XDATA, add(CFA_XSP16, literal(-2)))
          CFI (cfiCond182) DPH0 load(1, XDATA, add(CFA_XSP16, literal(-1)))
          CFI (cfiCond182) CFA_SP SP+-2
          CFI (cfiCond182) CFA_XSP16 add(XSP16, 30)
          CFI Block cfiCond183 Using cfiCommon0
          CFI (cfiCond183) Function ZDSecMgrDeviceJoinFwd
          CFI (cfiCond183) Conditional ??CrossCallReturnLabel_109
          CFI (cfiCond183) R6 load(1, XDATA, add(CFA_XSP16, literal(-10)))
          CFI (cfiCond183) VB load(1, XDATA, add(CFA_XSP16, literal(-9)))
          CFI (cfiCond183) V0 load(1, XDATA, add(CFA_XSP16, literal(-8)))
          CFI (cfiCond183) V1 load(1, XDATA, add(CFA_XSP16, literal(-7)))
          CFI (cfiCond183) R7 load(1, XDATA, add(CFA_XSP16, literal(-6)))
          CFI (cfiCond183) ?RET_LOW load(1, XDATA, add(CFA_XSP16, literal(-5)))
          CFI (cfiCond183) ?RET_HIGH load(1, XDATA, add(CFA_XSP16, literal(-4)))
          CFI (cfiCond183) ?BRET_EXT load(1, XDATA, add(CFA_XSP16, literal(-3)))
          CFI (cfiCond183) DPL0 load(1, XDATA, add(CFA_XSP16, literal(-2)))
          CFI (cfiCond183) DPH0 load(1, XDATA, add(CFA_XSP16, literal(-1)))
          CFI (cfiCond183) CFA_SP SP+-2
          CFI (cfiCond183) CFA_XSP16 add(XSP16, 18)
          CFI Block cfiCond184 Using cfiCommon0
          CFI (cfiCond184) Function ZDSecMgrNewDeviceEvent
          CFI (cfiCond184) Conditional ??CrossCallReturnLabel_110
          CFI (cfiCond184) R6 load(1, XDATA, add(CFA_XSP16, literal(-12)))
          CFI (cfiCond184) VB load(1, XDATA, add(CFA_XSP16, literal(-11)))
          CFI (cfiCond184) V0 load(1, XDATA, add(CFA_XSP16, literal(-10)))
          CFI (cfiCond184) V1 load(1, XDATA, add(CFA_XSP16, literal(-9)))
          CFI (cfiCond184) V2 load(1, XDATA, add(CFA_XSP16, literal(-8)))
          CFI (cfiCond184) V3 load(1, XDATA, add(CFA_XSP16, literal(-7)))
          CFI (cfiCond184) R7 load(1, XDATA, add(CFA_XSP16, literal(-6)))
          CFI (cfiCond184) ?RET_LOW load(1, XDATA, add(CFA_XSP16, literal(-5)))
          CFI (cfiCond184) ?RET_HIGH load(1, XDATA, add(CFA_XSP16, literal(-4)))
          CFI (cfiCond184) ?BRET_EXT load(1, XDATA, add(CFA_XSP16, literal(-3)))
          CFI (cfiCond184) DPL0 load(1, XDATA, add(CFA_XSP16, literal(-2)))
          CFI (cfiCond184) DPH0 load(1, XDATA, add(CFA_XSP16, literal(-1)))
          CFI (cfiCond184) CFA_SP SP+-2
          CFI (cfiCond184) CFA_XSP16 add(XSP16, 33)
          CFI Block cfiCond185 Using cfiCommon0
          CFI (cfiCond185) Function ZDSecMgrNewDeviceEvent
          CFI (cfiCond185) Conditional ??CrossCallReturnLabel_111
          CFI (cfiCond185) R6 load(1, XDATA, add(CFA_XSP16, literal(-12)))
          CFI (cfiCond185) VB load(1, XDATA, add(CFA_XSP16, literal(-11)))
          CFI (cfiCond185) V0 load(1, XDATA, add(CFA_XSP16, literal(-10)))
          CFI (cfiCond185) V1 load(1, XDATA, add(CFA_XSP16, literal(-9)))
          CFI (cfiCond185) V2 load(1, XDATA, add(CFA_XSP16, literal(-8)))
          CFI (cfiCond185) V3 load(1, XDATA, add(CFA_XSP16, literal(-7)))
          CFI (cfiCond185) R7 load(1, XDATA, add(CFA_XSP16, literal(-6)))
          CFI (cfiCond185) ?RET_LOW load(1, XDATA, add(CFA_XSP16, literal(-5)))
          CFI (cfiCond185) ?RET_HIGH load(1, XDATA, add(CFA_XSP16, literal(-4)))
          CFI (cfiCond185) ?BRET_EXT load(1, XDATA, add(CFA_XSP16, literal(-3)))
          CFI (cfiCond185) DPL0 load(1, XDATA, add(CFA_XSP16, literal(-2)))
          CFI (cfiCond185) DPH0 load(1, XDATA, add(CFA_XSP16, literal(-1)))
          CFI (cfiCond185) CFA_SP SP+-2
          CFI (cfiCond185) CFA_XSP16 add(XSP16, 33)
          CFI Block cfiCond186 Using cfiCommon0
          CFI (cfiCond186) Function ZDSecMgrUpdateDeviceInd
          CFI (cfiCond186) Conditional ??CrossCallReturnLabel_112
          CFI (cfiCond186) DPL0 Frame(CFA_SP, 4)
          CFI (cfiCond186) DPH0 Frame(CFA_SP, 5)
          CFI (cfiCond186) CFA_SP SP+-7
          CFI (cfiCond186) CFA_XSP16 add(XSP16, 8)
          CFI Block cfiCond187 Using cfiCommon0
          CFI (cfiCond187) Function APSME_LinkKeySet
          CFI (cfiCond187) Conditional ??CrossCallReturnLabel_113
          CFI (cfiCond187) R6 load(1, XDATA, add(CFA_XSP16, literal(-15)))
          CFI (cfiCond187) VB load(1, XDATA, add(CFA_XSP16, literal(-14)))
          CFI (cfiCond187) V0 load(1, XDATA, add(CFA_XSP16, literal(-13)))
          CFI (cfiCond187) V1 load(1, XDATA, add(CFA_XSP16, literal(-12)))
          CFI (cfiCond187) V2 load(1, XDATA, add(CFA_XSP16, literal(-11)))
          CFI (cfiCond187) V3 load(1, XDATA, add(CFA_XSP16, literal(-10)))
          CFI (cfiCond187) V4 load(1, XDATA, add(CFA_XSP16, literal(-9)))
          CFI (cfiCond187) V5 load(1, XDATA, add(CFA_XSP16, literal(-8)))
          CFI (cfiCond187) V6 load(1, XDATA, add(CFA_XSP16, literal(-7)))
          CFI (cfiCond187) R7 load(1, XDATA, add(CFA_XSP16, literal(-6)))
          CFI (cfiCond187) ?RET_LOW load(1, XDATA, add(CFA_XSP16, literal(-5)))
          CFI (cfiCond187) ?RET_HIGH load(1, XDATA, add(CFA_XSP16, literal(-4)))
          CFI (cfiCond187) ?BRET_EXT load(1, XDATA, add(CFA_XSP16, literal(-3)))
          CFI (cfiCond187) DPL0 load(1, XDATA, add(CFA_XSP16, literal(-2)))
          CFI (cfiCond187) DPH0 load(1, XDATA, add(CFA_XSP16, literal(-1)))
          CFI (cfiCond187) CFA_SP SP+-2
          CFI (cfiCond187) CFA_XSP16 add(XSP16, 19)
          CFI Block cfiCond188 Using cfiCommon0
          CFI (cfiCond188) Function ZDSecMgrAddLinkKey
          CFI (cfiCond188) Conditional ??CrossCallReturnLabel_114
          CFI (cfiCond188) R6 load(1, XDATA, add(CFA_XSP16, literal(-10)))
          CFI (cfiCond188) VB load(1, XDATA, add(CFA_XSP16, literal(-9)))
          CFI (cfiCond188) V0 load(1, XDATA, add(CFA_XSP16, literal(-8)))
          CFI (cfiCond188) V1 load(1, XDATA, add(CFA_XSP16, literal(-7)))
          CFI (cfiCond188) R7 load(1, XDATA, add(CFA_XSP16, literal(-6)))
          CFI (cfiCond188) ?RET_LOW load(1, XDATA, add(CFA_XSP16, literal(-5)))
          CFI (cfiCond188) ?RET_HIGH load(1, XDATA, add(CFA_XSP16, literal(-4)))
          CFI (cfiCond188) ?BRET_EXT load(1, XDATA, add(CFA_XSP16, literal(-3)))
          CFI (cfiCond188) DPL0 load(1, XDATA, add(CFA_XSP16, literal(-2)))
          CFI (cfiCond188) DPH0 load(1, XDATA, add(CFA_XSP16, literal(-1)))
          CFI (cfiCond188) CFA_SP SP+-2
          CFI (cfiCond188) CFA_XSP16 add(XSP16, 14)
          CFI Block cfiCond189 Using cfiCommon0
          CFI (cfiCond189) Function APSME_TCLinkKeySync
          CFI (cfiCond189) Conditional ??CrossCallReturnLabel_115
          CFI (cfiCond189) R6 load(1, XDATA, add(CFA_XSP16, literal(-18)))
          CFI (cfiCond189) VB load(1, XDATA, add(CFA_XSP16, literal(-17)))
          CFI (cfiCond189) V0 load(1, XDATA, add(CFA_XSP16, literal(-16)))
          CFI (cfiCond189) V1 load(1, XDATA, add(CFA_XSP16, literal(-15)))
          CFI (cfiCond189) V2 load(1, XDATA, add(CFA_XSP16, literal(-14)))
          CFI (cfiCond189) V3 load(1, XDATA, add(CFA_XSP16, literal(-13)))
          CFI (cfiCond189) V4 load(1, XDATA, add(CFA_XSP16, literal(-12)))
          CFI (cfiCond189) V5 load(1, XDATA, add(CFA_XSP16, literal(-11)))
          CFI (cfiCond189) V6 load(1, XDATA, add(CFA_XSP16, literal(-10)))
          CFI (cfiCond189) V7 load(1, XDATA, add(CFA_XSP16, literal(-9)))
          CFI (cfiCond189) V8 load(1, XDATA, add(CFA_XSP16, literal(-8)))
          CFI (cfiCond189) V9 load(1, XDATA, add(CFA_XSP16, literal(-7)))
          CFI (cfiCond189) R7 load(1, XDATA, add(CFA_XSP16, literal(-6)))
          CFI (cfiCond189) ?RET_LOW load(1, XDATA, add(CFA_XSP16, literal(-5)))
          CFI (cfiCond189) ?RET_HIGH load(1, XDATA, add(CFA_XSP16, literal(-4)))
          CFI (cfiCond189) ?BRET_EXT load(1, XDATA, add(CFA_XSP16, literal(-3)))
          CFI (cfiCond189) DPL0 load(1, XDATA, add(CFA_XSP16, literal(-2)))
          CFI (cfiCond189) DPH0 load(1, XDATA, add(CFA_XSP16, literal(-1)))
          CFI (cfiCond189) CFA_SP SP+-2
          CFI (cfiCond189) CFA_XSP16 add(XSP16, 46)
          CFI Block cfiCond190 Using cfiCommon0
          CFI (cfiCond190) Function ZDSecMgrSendNwkKey
          CFI (cfiCond190) Conditional ??CrossCallReturnLabel_116
          CFI (cfiCond190) R6 load(1, XDATA, add(CFA_XSP16, literal(-10)))
          CFI (cfiCond190) VB load(1, XDATA, add(CFA_XSP16, literal(-9)))
          CFI (cfiCond190) V0 load(1, XDATA, add(CFA_XSP16, literal(-8)))
          CFI (cfiCond190) V1 load(1, XDATA, add(CFA_XSP16, literal(-7)))
          CFI (cfiCond190) R7 load(1, XDATA, add(CFA_XSP16, literal(-6)))
          CFI (cfiCond190) ?RET_LOW load(1, XDATA, add(CFA_XSP16, literal(-5)))
          CFI (cfiCond190) ?RET_HIGH load(1, XDATA, add(CFA_XSP16, literal(-4)))
          CFI (cfiCond190) ?BRET_EXT load(1, XDATA, add(CFA_XSP16, literal(-3)))
          CFI (cfiCond190) DPL0 load(1, XDATA, add(CFA_XSP16, literal(-2)))
          CFI (cfiCond190) DPH0 load(1, XDATA, add(CFA_XSP16, literal(-1)))
          CFI (cfiCond190) CFA_SP SP+-2
          CFI (cfiCond190) CFA_XSP16 add(XSP16, 40)
          CFI Block cfiCond191 Using cfiCommon0
          CFI (cfiCond191) Function ZDSecMgrNewDeviceEvent
          CFI (cfiCond191) Conditional ??CrossCallReturnLabel_117
          CFI (cfiCond191) R6 load(1, XDATA, add(CFA_XSP16, literal(-12)))
          CFI (cfiCond191) VB load(1, XDATA, add(CFA_XSP16, literal(-11)))
          CFI (cfiCond191) V0 load(1, XDATA, add(CFA_XSP16, literal(-10)))
          CFI (cfiCond191) V1 load(1, XDATA, add(CFA_XSP16, literal(-9)))
          CFI (cfiCond191) V2 load(1, XDATA, add(CFA_XSP16, literal(-8)))
          CFI (cfiCond191) V3 load(1, XDATA, add(CFA_XSP16, literal(-7)))
          CFI (cfiCond191) R7 load(1, XDATA, add(CFA_XSP16, literal(-6)))
          CFI (cfiCond191) ?RET_LOW load(1, XDATA, add(CFA_XSP16, literal(-5)))
          CFI (cfiCond191) ?RET_HIGH load(1, XDATA, add(CFA_XSP16, literal(-4)))
          CFI (cfiCond191) ?BRET_EXT load(1, XDATA, add(CFA_XSP16, literal(-3)))
          CFI (cfiCond191) DPL0 load(1, XDATA, add(CFA_XSP16, literal(-2)))
          CFI (cfiCond191) DPH0 load(1, XDATA, add(CFA_XSP16, literal(-1)))
          CFI (cfiCond191) CFA_SP SP+-2
          CFI (cfiCond191) CFA_XSP16 add(XSP16, 33)
          CFI Block cfiCond192 Using cfiCommon0
          CFI (cfiCond192) Function ZDSecMgrUpdateDeviceInd
          CFI (cfiCond192) Conditional ??CrossCallReturnLabel_118
          CFI (cfiCond192) DPL0 Frame(CFA_SP, 4)
          CFI (cfiCond192) DPH0 Frame(CFA_SP, 5)
          CFI (cfiCond192) CFA_SP SP+-7
          CFI (cfiCond192) CFA_XSP16 add(XSP16, 8)
          CFI Block cfiPicker193 Using cfiCommon1
          CFI (cfiPicker193) NoFunction
          CFI (cfiPicker193) Picker
        MOV       A,R0
        MOVX      @DPTR,A
        INC       DPTR
        MOV       A,R1
        MOVX      @DPTR,A
        RET
          CFI EndBlock cfiCond173
          CFI EndBlock cfiCond174
          CFI EndBlock cfiCond175
          CFI EndBlock cfiCond176
          CFI EndBlock cfiCond177
          CFI EndBlock cfiCond178
          CFI EndBlock cfiCond179
          CFI EndBlock cfiCond180
          CFI EndBlock cfiCond181
          CFI EndBlock cfiCond182
          CFI EndBlock cfiCond183
          CFI EndBlock cfiCond184
          CFI EndBlock cfiCond185
          CFI EndBlock cfiCond186
          CFI EndBlock cfiCond187
          CFI EndBlock cfiCond188
          CFI EndBlock cfiCond189
          CFI EndBlock cfiCond190
          CFI EndBlock cfiCond191
          CFI EndBlock cfiCond192
          CFI EndBlock cfiPicker193
// 1451 
// 1452 /******************************************************************************
// 1453  * @fn          ZDSecMgrDeviceNew
// 1454  *
// 1455  * @brief       Process a new device.
// 1456  *
// 1457  * @param       device - [in] ZDSecMgrDevice_t, device info
// 1458  *
// 1459  * @return      ZStatus_t
// 1460  */

        RSEG BANKED_CODE:HUGECODE:NOROOT(0)
// 1461 ZStatus_t ZDSecMgrDeviceNew( ZDSecMgrDevice_t* joiner )
ZDSecMgrDeviceNew:
          CFI Block cfiBlock194 Using cfiCommon0
          CFI Function ZDSecMgrDeviceNew
        CODE
// 1462 {
        FUNCALL ZDSecMgrDeviceNew, ZDSecMgrDeviceJoinFwd
        LOCFRAME ISTACK, 2, STACK
        LOCFRAME PSTACK, 0, STACK
        LOCFRAME XSTACK, 0, STACK
        LOCFRAME IOVERLAY, 0, STATIC
        LOCFRAME DOVERLAY, 0, STATIC
        ARGFRAME ISTACK, 2, STACK
        ARGFRAME PSTACK, 0, STACK
        ARGFRAME XSTACK, 0, STACK
        ARGFRAME IOVERLAY, 0, STATIC
        ARGFRAME DOVERLAY, 0, STATIC
        PUSH      DPL
          CFI DPL0 Frame(CFA_SP, 4)
          CFI CFA_SP SP+-4
        PUSH      DPH
          CFI DPH0 Frame(CFA_SP, 5)
          CFI CFA_SP SP+-5
        ; Saved register size: 2
        ; Auto size: 0
// 1463   ZStatus_t status;
// 1464 
// 1465   if ( ( ( ZG_BUILD_COORDINATOR_TYPE ) && ( ZG_DEVICE_COORDINATOR_TYPE ) )
// 1466       || ( ( ZG_BUILD_RTR_TYPE ) && APSME_IsDistributedSecurity() ) )
// 1467   {
// 1468     // try to join this device
// 1469     status = ZDSecMgrDeviceJoinDirect( joiner );
// 1470   }
// 1471   else
// 1472   {
// 1473     status = ZDSecMgrDeviceJoinFwd( joiner );
// 1474   }
// 1475 
// 1476   return status;
        ; Setup parameters for call to function ZDSecMgrDeviceJoinFwd
        LCALL     `??ZDSecMgrDeviceJoinFwd::?relay`; Banked call to: ZDSecMgrDeviceJoinFwd
        SJMP      ??Subroutine60_0
// 1477 }
          CFI EndBlock cfiBlock194
// 1478 
// 1479 /******************************************************************************
// 1480  * @fn          ZDSecMgrAssocDeviceAuth
// 1481  *
// 1482  * @brief       Set associated device status to authenticated
// 1483  *
// 1484  * @param       assoc - [in, out] associated_devices_t
// 1485  *
// 1486  * @return      none
// 1487  */

        RSEG BANKED_CODE:HUGECODE:NOROOT(0)
// 1488 void ZDSecMgrAssocDeviceAuth( associated_devices_t* assoc )
ZDSecMgrAssocDeviceAuth:
          CFI Block cfiBlock195 Using cfiCommon0
          CFI Function ZDSecMgrAssocDeviceAuth
        CODE
// 1489 {
        PUSH      DPL
          CFI DPL0 Frame(CFA_SP, 4)
          CFI CFA_SP SP+-4
        PUSH      DPH
          CFI DPH0 Frame(CFA_SP, 5)
          CFI CFA_SP SP+-5
        ; Saved register size: 2
        ; Auto size: 0
// 1490   if ( assoc != NULL )
        MOV       A,R2
        ORL       A,R3
        JZ        ??ZDSecMgrAssocDeviceAuth_0
// 1491   {
// 1492     assoc->devStatus |= DEV_SEC_AUTH_STATUS;
        MOV       DPL,R2
        MOV       DPH,R3
        INC       DPTR
        INC       DPTR
        INC       DPTR
        INC       DPTR
        INC       DPTR
        MOVX      A,@DPTR
        SETB      0xE0 /* A   */.3
        MOVX      @DPTR,A
// 1493   }
// 1494 }
??ZDSecMgrAssocDeviceAuth_0:
        SJMP      ??Subroutine60_0
          CFI EndBlock cfiBlock195
// 1495 
// 1496 /******************************************************************************
// 1497  * @fn          ZDSecMgrAuthNwkKey
// 1498  *
// 1499  * @brief       Handle next step in authentication process
// 1500  *
// 1501  * @param       none
// 1502  *
// 1503  * @return      none
// 1504  */

        RSEG BANKED_CODE:HUGECODE:NOROOT(0)
// 1505 void ZDSecMgrAuthNwkKey()
ZDSecMgrAuthNwkKey:
          CFI Block cfiBlock196 Using cfiCommon0
          CFI Function ZDSecMgrAuthNwkKey
        CODE
// 1506 {
        FUNCALL ZDSecMgrAuthNwkKey, osal_set_event
        LOCFRAME ISTACK, 2, STACK
        LOCFRAME PSTACK, 0, STACK
        LOCFRAME XSTACK, 0, STACK
        LOCFRAME IOVERLAY, 0, STATIC
        LOCFRAME DOVERLAY, 0, STATIC
        ARGFRAME ISTACK, 2, STACK
        ARGFRAME PSTACK, 0, STACK
        ARGFRAME XSTACK, 0, STACK
        ARGFRAME IOVERLAY, 0, STATIC
        ARGFRAME DOVERLAY, 0, STATIC
        PUSH      DPL
          CFI DPL0 Frame(CFA_SP, 4)
          CFI CFA_SP SP+-4
        PUSH      DPH
          CFI DPH0 Frame(CFA_SP, 5)
          CFI CFA_SP SP+-5
        ; Saved register size: 2
        ; Auto size: 0
// 1507   if ( devState == DEV_END_DEVICE_UNAUTH )
        MOV       DPTR,#devState
        MOVX      A,@DPTR
        XRL       A,#0x5
        JNZ       ??ZDSecMgrAuthNwkKey_0
// 1508   {
// 1509     // inform ZDO that device has been authenticated
// 1510     osal_set_event ( ZDAppTaskID, ZDO_DEVICE_AUTH );
        ; Setup parameters for call to function osal_set_event
        MOV       R2,#-0x80
        MOV       R3,#0x0
        MOV       DPTR,#ZDAppTaskID
        MOVX      A,@DPTR
        MOV       R1,A
        LCALL     `??osal_set_event::?relay`; Banked call to: osal_set_event
// 1511   }
// 1512 }
??ZDSecMgrAuthNwkKey_0:
        SJMP      ??Subroutine60_0
          CFI EndBlock cfiBlock196
// 1513 
// 1514 /******************************************************************************
// 1515  * PUBLIC FUNCTIONS
// 1516  */
// 1517 /******************************************************************************
// 1518  * @fn          ZDSecMgrInit
// 1519  *
// 1520  * @brief       Initialize ZigBee Device Security Manager.
// 1521  *
// 1522  * @param       state - device initialization state
// 1523  *
// 1524  * @return      none
// 1525  */
// 1526 #if ( ADDRMGR_CALLBACK_ENABLED == 1 )
// 1527 void ZDSecMgrAddrMgrCB( uint8 update, AddrMgrEntry_t* newEntry, AddrMgrEntry_t* oldEntry );
// 1528 void ZDSecMgrAddrMgrCB( uint8           update,
// 1529                         AddrMgrEntry_t* newEntry,
// 1530                         AddrMgrEntry_t* oldEntry )
// 1531 {
// 1532   (void)update;
// 1533   (void)newEntry;
// 1534   (void)oldEntry;
// 1535 }
// 1536 #endif // ( ADDRMGR_CALLBACK_ENABLED == 1 )
// 1537 

        RSEG BANKED_CODE:HUGECODE:NOROOT(0)
?Subroutine1:
          CFI Block cfiBlock197 Using cfiCommon0
          CFI NoFunction
        PUSH      DPL
          CFI CFA_SP SP+-4
          CFI DPL0 Frame(CFA_SP, 4)
        PUSH      DPH
          CFI CFA_SP SP+-5
          CFI DPH0 Frame(CFA_SP, 5)
        ; Saved register size: 2
        ; Auto size: 0
        ; Setup parameters for call to function SSP_Init
        ; Saved register size: 2
        ; Auto size: 0
        ; Setup parameters for call to function SSP_Init
        LCALL     `??SSP_Init::?relay`; Banked call to: SSP_Init
        ; Setup parameters for call to function APSME_SecurityRM_ED
        ; Setup parameters for call to function APSME_SecurityRM_ED
        LCALL     `??APSME_SecurityRM_ED::?relay`; Banked call to: APSME_SecurityRM_ED
          CFI EndBlock cfiBlock197
        REQUIRE ??Subroutine60_0
        ; // Fall through to label ??Subroutine60_0

        RSEG BANKED_CODE:HUGECODE:NOROOT(0)
??Subroutine60_0:
          CFI Block cfiBlock198 Using cfiCommon0
          CFI NoFunction
          CFI CFA_SP SP+-5
          CFI DPL0 Frame(CFA_SP, 4)
          CFI DPH0 Frame(CFA_SP, 5)
        POP       DPH
          CFI CFA_SP SP+-4
          CFI DPH0 SameValue
        POP       DPL
          CFI CFA_SP SP+-3
          CFI DPL0 SameValue
        LJMP      ?BRET
          CFI EndBlock cfiBlock198

        RSEG BANKED_CODE:HUGECODE:NOROOT(0)
// 1538 void ZDSecMgrInit(uint8 state)
ZDSecMgrInit:
          CFI Block cfiBlock199 Using cfiCommon0
          CFI Function ZDSecMgrInit
        CODE
        FUNCALL ZDSecMgrInit, SSP_Init
        LOCFRAME ISTACK, 2, STACK
        LOCFRAME PSTACK, 0, STACK
        LOCFRAME XSTACK, 0, STACK
        LOCFRAME IOVERLAY, 0, STATIC
        LOCFRAME DOVERLAY, 0, STATIC
        ARGFRAME ISTACK, 2, STACK
        ARGFRAME PSTACK, 0, STACK
        ARGFRAME XSTACK, 0, STACK
        ARGFRAME IOVERLAY, 0, STATIC
        ARGFRAME DOVERLAY, 0, STATIC
        FUNCALL ZDSecMgrInit, APSME_SecurityRM_ED
        LOCFRAME ISTACK, 2, STACK
        LOCFRAME PSTACK, 0, STACK
        LOCFRAME XSTACK, 0, STACK
        LOCFRAME IOVERLAY, 0, STATIC
        LOCFRAME DOVERLAY, 0, STATIC
        ARGFRAME ISTACK, 2, STACK
        ARGFRAME PSTACK, 0, STACK
        ARGFRAME XSTACK, 0, STACK
        ARGFRAME IOVERLAY, 0, STATIC
        ARGFRAME DOVERLAY, 0, STATIC
        SJMP      ?Subroutine1
          CFI EndBlock cfiBlock199
// 1539 {
// 1540   if ( ZG_CHECK_SECURITY_MODE == ZG_SECURITY_SE_STANDARD )
// 1541   {
// 1542     // initialize sub modules
// 1543     ZDSecMgrEntryInit(state);
// 1544 
// 1545     if ( ( ZG_BUILD_COORDINATOR_TYPE ) && ( ZG_DEVICE_COORDINATOR_TYPE ) )
// 1546     {
// 1547       APSME_SetRequest( apsTrustCenterAddress, 0, NLME_GetExtAddr() );
// 1548     }
// 1549 
// 1550     // register with Address Manager
// 1551 #if ( ADDRMGR_CALLBACK_ENABLED == 1 )
// 1552     AddrMgrRegister( ADDRMGR_REG_SECURITY, ZDSecMgrAddrMgrCB );
// 1553 #endif
// 1554   }
// 1555 
// 1556   if ( ZG_SECURE_ENABLED )
// 1557   {
// 1558     if ( ( ( ZG_BUILD_COORDINATOR_TYPE ) && ( ZG_DEVICE_COORDINATOR_TYPE ) )
// 1559          || ( ( ZG_BUILD_RTR_TYPE ) && APSME_IsDistributedSecurity() ) )
// 1560     {
// 1561       // setup joining permissions
// 1562       ZDSecMgrPermitJoiningEnabled = TRUE;  
// 1563       ZDSecMgrPermitJoiningTimed   = FALSE;
// 1564     }
// 1565   }
// 1566 
// 1567   // configure security based on security mode and type of device
// 1568   ZDSecMgrConfig();
// 1569 }
// 1570 
// 1571 /******************************************************************************
// 1572  * @fn          ZDSecMgrConfig
// 1573  *
// 1574  * @brief       Configure ZigBee Device Security Manager.
// 1575  *
// 1576  * @param       none
// 1577  *
// 1578  * @return      none
// 1579  */

        RSEG BANKED_CODE:HUGECODE:NOROOT(0)
// 1580 void ZDSecMgrConfig( void )
ZDSecMgrConfig:
          CFI Block cfiBlock200 Using cfiCommon0
          CFI Function ZDSecMgrConfig
        CODE
        FUNCALL ZDSecMgrConfig, SSP_Init
        LOCFRAME ISTACK, 2, STACK
        LOCFRAME PSTACK, 0, STACK
        LOCFRAME XSTACK, 0, STACK
        LOCFRAME IOVERLAY, 0, STATIC
        LOCFRAME DOVERLAY, 0, STATIC
        ARGFRAME ISTACK, 2, STACK
        ARGFRAME PSTACK, 0, STACK
        ARGFRAME XSTACK, 0, STACK
        ARGFRAME IOVERLAY, 0, STATIC
        ARGFRAME DOVERLAY, 0, STATIC
        FUNCALL ZDSecMgrConfig, APSME_SecurityRM_ED
        LOCFRAME ISTACK, 2, STACK
        LOCFRAME PSTACK, 0, STACK
        LOCFRAME XSTACK, 0, STACK
        LOCFRAME IOVERLAY, 0, STATIC
        LOCFRAME DOVERLAY, 0, STATIC
        ARGFRAME ISTACK, 2, STACK
        ARGFRAME PSTACK, 0, STACK
        ARGFRAME XSTACK, 0, STACK
        ARGFRAME IOVERLAY, 0, STATIC
        ARGFRAME DOVERLAY, 0, STATIC
        SJMP      ?Subroutine1
          CFI EndBlock cfiBlock200
// 1581 {
// 1582   if ( ZG_SECURE_ENABLED )
// 1583   {
// 1584     SSP_Init();
// 1585 
// 1586     if ( ZG_CHECK_SECURITY_MODE == ZG_SECURITY_SE_STANDARD )
// 1587     {
// 1588       if ( ( ZG_BUILD_COORDINATOR_TYPE ) && ( ZG_DEVICE_COORDINATOR_TYPE ) )
// 1589       {
// 1590         // COMMERCIAL MODE - COORDINATOR DEVICE
// 1591         APSME_SecurityCM_CD();
// 1592       }
// 1593       else if ( ZSTACK_ROUTER_BUILD )
// 1594       {
// 1595         // COMMERCIAL MODE - ROUTER DEVICE
// 1596         APSME_SecurityCM_RD();
// 1597       }
// 1598       else
// 1599       {
// 1600         // COMMERCIAL MODE - END DEVICE
// 1601         APSME_SecurityCM_ED();
// 1602       }
// 1603     }
// 1604     else // ( ZG_CHECK_SECURITY_MODE == ZG_SECURITY_RESIDENTIAL )
// 1605     {
// 1606       if ( ( ZG_BUILD_COORDINATOR_TYPE ) && ( ZG_DEVICE_COORDINATOR_TYPE ) )
// 1607       {
// 1608         // RESIDENTIAL MODE - COORDINATOR DEVICE
// 1609         APSME_SecurityRM_CD();
// 1610       }
// 1611       else if ( ZSTACK_ROUTER_BUILD )
// 1612       {
// 1613         // RESIDENTIAL MODE - ROUTER DEVICE
// 1614         APSME_SecurityRM_RD();
// 1615       }
// 1616       else
// 1617       {
// 1618         // RESIDENTIAL MODE - END DEVICE
// 1619         APSME_SecurityRM_ED();
// 1620       }
// 1621     }
// 1622   }
// 1623   else
// 1624   {
// 1625     // NO SECURITY
// 1626     APSME_SecurityNM();
// 1627   }
// 1628 }
// 1629 
// 1630 /******************************************************************************
// 1631  * @fn          ZDSecMgrPermitJoining
// 1632  *
// 1633  * @brief       Process request to change joining permissions.
// 1634  *
// 1635  * @param       duration - [in] timed duration for join in seconds
// 1636  *                         - 0x00 not allowed
// 1637  *                         - 0xFF allowed without timeout
// 1638  *
// 1639  * @return      uint8 - success(TRUE:FALSE)
// 1640  */

        RSEG BANKED_CODE:HUGECODE:NOROOT(0)
// 1641 uint8 ZDSecMgrPermitJoining( uint8 duration )
ZDSecMgrPermitJoining:
          CFI Block cfiBlock201 Using cfiCommon0
          CFI Function ZDSecMgrPermitJoining
        CODE
// 1642 {
        PUSH      DPL
          CFI DPL0 Frame(CFA_SP, 4)
          CFI CFA_SP SP+-4
        PUSH      DPH
          CFI DPH0 Frame(CFA_SP, 5)
          CFI CFA_SP SP+-5
        ; Saved register size: 2
        ; Auto size: 0
        MOV       A,R1
        MOV       R0,A
// 1643   uint8 accept;
// 1644 
// 1645   ZDSecMgrPermitJoiningTimed = FALSE;
        MOV       DPTR,#ZDSecMgrPermitJoiningTimed
        CLR       A
        MOVX      @DPTR,A
// 1646 
// 1647   if ( duration > 0 )
        MOV       A,R0
        MOV       DPTR,#ZDSecMgrPermitJoiningEnabled
        JZ        ??ZDSecMgrPermitJoining_0
// 1648   {
// 1649     ZDSecMgrPermitJoiningEnabled = TRUE;
        MOV       A,#0x1
        MOVX      @DPTR,A
// 1650 
// 1651     ZDSecMgrPermitJoiningTimed = TRUE;
        MOV       DPTR,#ZDSecMgrPermitJoiningTimed
        SJMP      ??ZDSecMgrPermitJoining_1
// 1652   }
// 1653   else
// 1654   {
// 1655     ZDSecMgrPermitJoiningEnabled = FALSE;
??ZDSecMgrPermitJoining_0:
        CLR       A
??ZDSecMgrPermitJoining_1:
        MOVX      @DPTR,A
// 1656   }
// 1657 
// 1658   accept = TRUE;
// 1659 
// 1660   return accept;
        MOV       R1,#0x1
        SJMP      ??Subroutine60_0
// 1661 }
          CFI EndBlock cfiBlock201
// 1662 
// 1663 /******************************************************************************
// 1664  * @fn          ZDSecMgrPermitJoiningTimeout
// 1665  *
// 1666  * @brief       Process permit joining timeout
// 1667  *
// 1668  * @param       none
// 1669  *
// 1670  * @return      none
// 1671  */

        RSEG BANKED_CODE:HUGECODE:NOROOT(0)
// 1672 void ZDSecMgrPermitJoiningTimeout( void )
ZDSecMgrPermitJoiningTimeout:
          CFI Block cfiBlock202 Using cfiCommon0
          CFI Function ZDSecMgrPermitJoiningTimeout
        CODE
// 1673 {
        PUSH      DPL
          CFI DPL0 Frame(CFA_SP, 4)
          CFI CFA_SP SP+-4
        PUSH      DPH
          CFI DPH0 Frame(CFA_SP, 5)
          CFI CFA_SP SP+-5
        ; Saved register size: 2
        ; Auto size: 0
// 1674   if ( ZDSecMgrPermitJoiningTimed == TRUE )
        MOV       DPTR,#ZDSecMgrPermitJoiningTimed
        MOVX      A,@DPTR
        XRL       A,#0x1
        JNZ       ??ZDSecMgrPermitJoiningTimeout_0
// 1675   {
// 1676     ZDSecMgrPermitJoiningEnabled = FALSE;
        MOV       DPTR,#ZDSecMgrPermitJoiningEnabled
        CLR       A
        MOVX      @DPTR,A
// 1677     ZDSecMgrPermitJoiningTimed   = FALSE;
        MOV       DPTR,#ZDSecMgrPermitJoiningTimed
        MOVX      @DPTR,A
// 1678   }
// 1679 }
??ZDSecMgrPermitJoiningTimeout_0:
        SJMP      ??Subroutine60_0
          CFI EndBlock cfiBlock202
// 1680 
// 1681 /******************************************************************************
// 1682  * @fn          ZDSecMgrNewDeviceEvent
// 1683  *
// 1684  * @brief       Process a the new device event, if found reset new device
// 1685  *              event/timer.
// 1686  *
// 1687  * @param       ShortAddr - of New Device to process
// 1688  *
// 1689  * @return      uint8 - found(TRUE:FALSE)
// 1690  */

        RSEG BANKED_CODE:HUGECODE:NOROOT(0)
// 1691 uint8 ZDSecMgrNewDeviceEvent( uint16 ShortAddr )
ZDSecMgrNewDeviceEvent:
          CFI Block cfiBlock203 Using cfiCommon0
          CFI Function ZDSecMgrNewDeviceEvent
        CODE
// 1692 {
        FUNCALL ZDSecMgrNewDeviceEvent, AssocGetWithShort
        LOCFRAME ISTACK, 0, STACK
        LOCFRAME PSTACK, 0, STACK
        LOCFRAME XSTACK, 33, STACK
        LOCFRAME IOVERLAY, 0, STATIC
        LOCFRAME DOVERLAY, 0, STATIC
        ARGFRAME ISTACK, 0, STACK
        ARGFRAME PSTACK, 0, STACK
        ARGFRAME XSTACK, 33, STACK
        ARGFRAME IOVERLAY, 0, STATIC
        ARGFRAME DOVERLAY, 0, STATIC
        FUNCALL ZDSecMgrNewDeviceEvent, ZDSecMgrAssocDeviceAuth
        LOCFRAME ISTACK, 0, STACK
        LOCFRAME PSTACK, 0, STACK
        LOCFRAME XSTACK, 33, STACK
        LOCFRAME IOVERLAY, 0, STATIC
        LOCFRAME DOVERLAY, 0, STATIC
        ARGFRAME ISTACK, 0, STACK
        ARGFRAME PSTACK, 0, STACK
        ARGFRAME XSTACK, 33, STACK
        ARGFRAME IOVERLAY, 0, STATIC
        ARGFRAME DOVERLAY, 0, STATIC
        FUNCALL ZDSecMgrNewDeviceEvent, AddrMgrEntryGet
        LOCFRAME ISTACK, 0, STACK
        LOCFRAME PSTACK, 0, STACK
        LOCFRAME XSTACK, 33, STACK
        LOCFRAME IOVERLAY, 0, STATIC
        LOCFRAME DOVERLAY, 0, STATIC
        ARGFRAME ISTACK, 0, STACK
        ARGFRAME PSTACK, 0, STACK
        ARGFRAME XSTACK, 33, STACK
        ARGFRAME IOVERLAY, 0, STATIC
        ARGFRAME DOVERLAY, 0, STATIC
        FUNCALL ZDSecMgrNewDeviceEvent, NLME_GetShortAddr
        LOCFRAME ISTACK, 0, STACK
        LOCFRAME PSTACK, 0, STACK
        LOCFRAME XSTACK, 33, STACK
        LOCFRAME IOVERLAY, 0, STATIC
        LOCFRAME DOVERLAY, 0, STATIC
        ARGFRAME ISTACK, 0, STACK
        ARGFRAME PSTACK, 0, STACK
        ARGFRAME XSTACK, 33, STACK
        ARGFRAME IOVERLAY, 0, STATIC
        ARGFRAME DOVERLAY, 0, STATIC
        FUNCALL ZDSecMgrNewDeviceEvent, ZDSecMgrDeviceNew
        LOCFRAME ISTACK, 0, STACK
        LOCFRAME PSTACK, 0, STACK
        LOCFRAME XSTACK, 33, STACK
        LOCFRAME IOVERLAY, 0, STATIC
        LOCFRAME DOVERLAY, 0, STATIC
        ARGFRAME ISTACK, 0, STACK
        ARGFRAME PSTACK, 0, STACK
        ARGFRAME XSTACK, 33, STACK
        ARGFRAME IOVERLAY, 0, STATIC
        ARGFRAME DOVERLAY, 0, STATIC
        FUNCALL ZDSecMgrNewDeviceEvent, ZDSecMgrAddrClear
        LOCFRAME ISTACK, 0, STACK
        LOCFRAME PSTACK, 0, STACK
        LOCFRAME XSTACK, 33, STACK
        LOCFRAME IOVERLAY, 0, STATIC
        LOCFRAME DOVERLAY, 0, STATIC
        ARGFRAME ISTACK, 0, STACK
        ARGFRAME PSTACK, 0, STACK
        ARGFRAME XSTACK, 33, STACK
        ARGFRAME IOVERLAY, 0, STATIC
        ARGFRAME DOVERLAY, 0, STATIC
        FUNCALL ZDSecMgrNewDeviceEvent, AssocRemove
        LOCFRAME ISTACK, 0, STACK
        LOCFRAME PSTACK, 0, STACK
        LOCFRAME XSTACK, 33, STACK
        LOCFRAME IOVERLAY, 0, STATIC
        LOCFRAME DOVERLAY, 0, STATIC
        ARGFRAME ISTACK, 0, STACK
        ARGFRAME PSTACK, 0, STACK
        ARGFRAME XSTACK, 33, STACK
        ARGFRAME IOVERLAY, 0, STATIC
        ARGFRAME DOVERLAY, 0, STATIC
        REQUIRE ?V0
        REQUIRE ?V2
        REQUIRE ?V3
        MOV       A,#-0xc
        LCALL     ?BANKED_ENTER_XDATA
          CFI DPH0 load(1, XDATA, add(CFA_XSP16, literal(-1)))
          CFI DPL0 load(1, XDATA, add(CFA_XSP16, literal(-2)))
          CFI ?BRET_EXT load(1, XDATA, add(CFA_XSP16, literal(-3)))
          CFI ?RET_HIGH load(1, XDATA, add(CFA_XSP16, literal(-4)))
          CFI ?RET_LOW load(1, XDATA, add(CFA_XSP16, literal(-5)))
          CFI R7 load(1, XDATA, add(CFA_XSP16, literal(-6)))
          CFI V3 load(1, XDATA, add(CFA_XSP16, literal(-7)))
          CFI V2 load(1, XDATA, add(CFA_XSP16, literal(-8)))
          CFI V1 load(1, XDATA, add(CFA_XSP16, literal(-9)))
          CFI V0 load(1, XDATA, add(CFA_XSP16, literal(-10)))
          CFI VB load(1, XDATA, add(CFA_XSP16, literal(-11)))
          CFI R6 load(1, XDATA, add(CFA_XSP16, literal(-12)))
          CFI CFA_SP SP+0
          CFI CFA_XSP16 add(XSP16, 12)
        ; Saved register size: 12
        ; Auto size: 21
        MOV       A,#-0x15
        LCALL     ?ALLOC_XSTACK8
          CFI CFA_XSP16 add(XSP16, 33)
// 1693   uint8                 found;
// 1694   ZDSecMgrDevice_t      device;
// 1695   AddrMgrEntry_t        addrEntry;
// 1696   associated_devices_t* assoc;
// 1697   ZStatus_t             status;
// 1698 
// 1699   // initialize return results
// 1700   found = FALSE;
        MOV       ?V0,#0x0
// 1701 
// 1702   assoc = AssocGetWithShort( ShortAddr );
        ; Setup parameters for call to function AssocGetWithShort
        LCALL     `??AssocGetWithShort::?relay`; Banked call to: AssocGetWithShort
        MOV       ?V2,R2
        MOV       ?V3,R3
        MOV       R6,?V2
        MOV       R7,?V3
// 1703 
// 1704   if ( assoc != NULL )
        MOV       A,R6
        ORL       A,R7
        JNZ       $+5
        LJMP      ??ZDSecMgrNewDeviceEvent_0 & 0xFFFF
// 1705   {
// 1706     // device found
// 1707     found = TRUE;
        MOV       ?V0,#0x1
// 1708 
// 1709     // check for preconfigured security
// 1710     if ( zgPreConfigKeys == TRUE )
        MOV       DPTR,#zgPreConfigKeys
        MOVX      A,@DPTR
        XRL       A,#0x1
        JNZ       ??ZDSecMgrNewDeviceEvent_1
// 1711     {
// 1712       // set association status to authenticated
// 1713       ZDSecMgrAssocDeviceAuth( assoc );
        ; Setup parameters for call to function ZDSecMgrAssocDeviceAuth
        LCALL     `??ZDSecMgrAssocDeviceAuth::?relay`; Banked call to: ZDSecMgrAssocDeviceAuth
// 1714     }
// 1715 
// 1716     // set up device info
// 1717     addrEntry.user  = ADDRMGR_USER_DEFAULT;
??ZDSecMgrNewDeviceEvent_1:
        MOV       A,#0x8
        LCALL     ?XSTACK_DISP0_8
        CLR       A
        LCALL     ?Subroutine18 & 0xFFFF
// 1718     addrEntry.index = assoc->addrIdx;
??CrossCallReturnLabel_10:
        MOV       A,#0x13
        LCALL     ?XSTACK_DISP0_8
        LCALL     ??Subroutine59_0 & 0xFFFF
// 1719     AddrMgrEntryGet( &addrEntry );
??CrossCallReturnLabel_110:
        ; Setup parameters for call to function AddrMgrEntryGet
        MOV       A,#0x8
        LCALL     ?XSTACK_DISP101_8
        LCALL     `??AddrMgrEntryGet::?relay`; Banked call to: AddrMgrEntryGet
// 1720 
// 1721     device.nwkAddr    = assoc->shortAddr;
        MOV       DPL,R6
        MOV       DPH,R7
        LCALL     ?Subroutine22 & 0xFFFF
// 1722     device.extAddr    = addrEntry.extAddr;
??CrossCallReturnLabel_117:
        MOV       A,#0xb
        LCALL     ?XSTACK_DISP0_8
        MOV       R0,DPL
        MOV       R1,DPH
        MOV       A,#0x2
        LCALL     ?XSTACK_DISP0_8
        LCALL     ??Subroutine59_0 & 0xFFFF
// 1723     device.parentAddr = NLME_GetShortAddr();
??CrossCallReturnLabel_111:
        ; Setup parameters for call to function NLME_GetShortAddr
        LCALL     `??NLME_GetShortAddr::?relay`; Banked call to: NLME_GetShortAddr
        MOV       A,#0x4
        LCALL     ?XSTACK_DISP0_8
        MOV       A,R2
        MOVX      @DPTR,A
        INC       DPTR
        MOV       A,R3
        MOVX      @DPTR,A
// 1724 
// 1725     // the new device performed Secured Rejoin
// 1726     if ( ( assoc->devStatus & DEV_SECURED_JOIN ) &&
// 1727          ( assoc->devStatus & DEV_REJOIN_STATUS ) )
        LCALL     ?Subroutine37 & 0xFFFF
??CrossCallReturnLabel_39:
        ANL       A,#0x60
        XRL       A,#0x60
        JNZ       ??ZDSecMgrNewDeviceEvent_2
// 1728     {
// 1729       device.secure     = TRUE;
        MOV       A,#0x6
        LCALL     ?XSTACK_DISP0_8
        MOV       A,#0x1
        SJMP      ??ZDSecMgrNewDeviceEvent_3
// 1730     }
// 1731     else
// 1732     {
// 1733       device.secure     = FALSE;
??ZDSecMgrNewDeviceEvent_2:
        MOV       A,#0x6
        LCALL     ?XSTACK_DISP0_8
        CLR       A
// 1734     }
??ZDSecMgrNewDeviceEvent_3:
        LCALL     ?Subroutine44 & 0xFFFF
// 1735     device.devStatus  = assoc->devStatus;
??CrossCallReturnLabel_55:
        MOVX      A,@DPTR
        PUSH      A
          CFI CFA_SP SP+-1
        MOV       A,#0x7
        LCALL     ?XSTACK_DISP0_8
        POP       A
          CFI CFA_SP SP+0
        LCALL     ??Subroutine65_0 & 0xFFFF
// 1736 
// 1737     // process new device
// 1738     status = ZDSecMgrDeviceNew( &device );
// 1739 
// 1740     if ( status == ZSuccess )
??CrossCallReturnLabel_123:
        LCALL     `??ZDSecMgrDeviceNew::?relay`; Banked call to: ZDSecMgrDeviceNew
        MOV       A,R1
        JNZ       ??ZDSecMgrNewDeviceEvent_4
// 1741     {
// 1742       assoc->devStatus &= ~DEV_SEC_INIT_STATUS;
        MOV       DPL,R6
        MOV       DPH,R7
        MOVX      A,@DPTR
        CLR       0xE0 /* A   */.2
        MOVX      @DPTR,A
        SJMP      ??ZDSecMgrNewDeviceEvent_0
// 1743     }
// 1744     else
// 1745     {
// 1746       // Clear SECURITY bit from Address Manager
// 1747       ZDSecMgrAddrClear( addrEntry.extAddr );
??ZDSecMgrNewDeviceEvent_4:
        ; Setup parameters for call to function ZDSecMgrAddrClear
        MOV       A,#0xb
        LCALL     ?XSTACK_DISP0_8
        MOV       R2,DPL
        MOV       R3,DPH
        LCALL     `??ZDSecMgrAddrClear::?relay`; Banked call to: ZDSecMgrAddrClear
// 1748 
// 1749       // Remove the Association completely
// 1750       AssocRemove( addrEntry.extAddr );
        ; Setup parameters for call to function AssocRemove
        MOV       A,#0xb
        LCALL     ?XSTACK_DISP0_8
        MOV       R2,DPL
        MOV       R3,DPH
        LCALL     `??AssocRemove::?relay`; Banked call to: AssocRemove
// 1751     }
// 1752   }
// 1753 
// 1754   return found;
??ZDSecMgrNewDeviceEvent_0:
        MOV       R1,?V0
        MOV       A,#0x15
        LJMP      ?Subroutine3 & 0xFFFF
// 1755 }
          CFI EndBlock cfiBlock203

        RSEG BANKED_CODE:HUGECODE:NOROOT(0)
?Subroutine44:
          CFI Block cfiCond204 Using cfiCommon0
          CFI Function ZDSecMgrEntryFree
          CFI Conditional ??CrossCallReturnLabel_53
          CFI R6 load(1, XDATA, add(CFA_XSP16, literal(-14)))
          CFI VB load(1, XDATA, add(CFA_XSP16, literal(-13)))
          CFI V0 load(1, XDATA, add(CFA_XSP16, literal(-12)))
          CFI V1 load(1, XDATA, add(CFA_XSP16, literal(-11)))
          CFI V2 load(1, XDATA, add(CFA_XSP16, literal(-10)))
          CFI V3 load(1, XDATA, add(CFA_XSP16, literal(-9)))
          CFI V4 load(1, XDATA, add(CFA_XSP16, literal(-8)))
          CFI V5 load(1, XDATA, add(CFA_XSP16, literal(-7)))
          CFI R7 load(1, XDATA, add(CFA_XSP16, literal(-6)))
          CFI ?RET_LOW load(1, XDATA, add(CFA_XSP16, literal(-5)))
          CFI ?RET_HIGH load(1, XDATA, add(CFA_XSP16, literal(-4)))
          CFI ?BRET_EXT load(1, XDATA, add(CFA_XSP16, literal(-3)))
          CFI DPL0 load(1, XDATA, add(CFA_XSP16, literal(-2)))
          CFI DPH0 load(1, XDATA, add(CFA_XSP16, literal(-1)))
          CFI CFA_SP SP+-2
          CFI CFA_XSP16 add(XSP16, 14)
          CFI Block cfiCond205 Using cfiCommon0
          CFI (cfiCond205) Function ZDSecMgrAppKeyReq
          CFI (cfiCond205) Conditional ??CrossCallReturnLabel_54, ??CrossCallReturnLabel_7
          CFI (cfiCond205) R6 load(1, XDATA, add(CFA_XSP16, literal(-12)))
          CFI (cfiCond205) VB load(1, XDATA, add(CFA_XSP16, literal(-11)))
          CFI (cfiCond205) V0 load(1, XDATA, add(CFA_XSP16, literal(-10)))
          CFI (cfiCond205) V1 load(1, XDATA, add(CFA_XSP16, literal(-9)))
          CFI (cfiCond205) V2 load(1, XDATA, add(CFA_XSP16, literal(-8)))
          CFI (cfiCond205) V3 load(1, XDATA, add(CFA_XSP16, literal(-7)))
          CFI (cfiCond205) R7 load(1, XDATA, add(CFA_XSP16, literal(-6)))
          CFI (cfiCond205) ?RET_LOW load(1, XDATA, add(CFA_XSP16, literal(-5)))
          CFI (cfiCond205) ?RET_HIGH load(1, XDATA, add(CFA_XSP16, literal(-4)))
          CFI (cfiCond205) ?BRET_EXT load(1, XDATA, add(CFA_XSP16, literal(-3)))
          CFI (cfiCond205) DPL0 load(1, XDATA, add(CFA_XSP16, literal(-2)))
          CFI (cfiCond205) DPH0 load(1, XDATA, add(CFA_XSP16, literal(-1)))
          CFI (cfiCond205) CFA_SP SP+-4
          CFI (cfiCond205) CFA_XSP16 add(XSP16, 51)
          CFI Block cfiCond206 Using cfiCommon0
          CFI (cfiCond206) Function ZDSecMgrTclkReq
          CFI (cfiCond206) Conditional ??CrossCallReturnLabel_54, ??CrossCallReturnLabel_8
          CFI (cfiCond206) R6 load(1, XDATA, add(CFA_XSP16, literal(-10)))
          CFI (cfiCond206) VB load(1, XDATA, add(CFA_XSP16, literal(-9)))
          CFI (cfiCond206) V0 load(1, XDATA, add(CFA_XSP16, literal(-8)))
          CFI (cfiCond206) V1 load(1, XDATA, add(CFA_XSP16, literal(-7)))
          CFI (cfiCond206) R7 load(1, XDATA, add(CFA_XSP16, literal(-6)))
          CFI (cfiCond206) ?RET_LOW load(1, XDATA, add(CFA_XSP16, literal(-5)))
          CFI (cfiCond206) ?RET_HIGH load(1, XDATA, add(CFA_XSP16, literal(-4)))
          CFI (cfiCond206) ?BRET_EXT load(1, XDATA, add(CFA_XSP16, literal(-3)))
          CFI (cfiCond206) DPL0 load(1, XDATA, add(CFA_XSP16, literal(-2)))
          CFI (cfiCond206) DPH0 load(1, XDATA, add(CFA_XSP16, literal(-1)))
          CFI (cfiCond206) CFA_SP SP+-4
          CFI (cfiCond206) CFA_XSP16 add(XSP16, 69)
          CFI Block cfiCond207 Using cfiCommon0
          CFI (cfiCond207) Function ZDSecMgrNewDeviceEvent
          CFI (cfiCond207) Conditional ??CrossCallReturnLabel_55
          CFI (cfiCond207) R6 load(1, XDATA, add(CFA_XSP16, literal(-12)))
          CFI (cfiCond207) VB load(1, XDATA, add(CFA_XSP16, literal(-11)))
          CFI (cfiCond207) V0 load(1, XDATA, add(CFA_XSP16, literal(-10)))
          CFI (cfiCond207) V1 load(1, XDATA, add(CFA_XSP16, literal(-9)))
          CFI (cfiCond207) V2 load(1, XDATA, add(CFA_XSP16, literal(-8)))
          CFI (cfiCond207) V3 load(1, XDATA, add(CFA_XSP16, literal(-7)))
          CFI (cfiCond207) R7 load(1, XDATA, add(CFA_XSP16, literal(-6)))
          CFI (cfiCond207) ?RET_LOW load(1, XDATA, add(CFA_XSP16, literal(-5)))
          CFI (cfiCond207) ?RET_HIGH load(1, XDATA, add(CFA_XSP16, literal(-4)))
          CFI (cfiCond207) ?BRET_EXT load(1, XDATA, add(CFA_XSP16, literal(-3)))
          CFI (cfiCond207) DPL0 load(1, XDATA, add(CFA_XSP16, literal(-2)))
          CFI (cfiCond207) DPH0 load(1, XDATA, add(CFA_XSP16, literal(-1)))
          CFI (cfiCond207) CFA_SP SP+-2
          CFI (cfiCond207) CFA_XSP16 add(XSP16, 33)
          CFI Block cfiCond208 Using cfiCommon0
          CFI (cfiCond208) Function ZDSecMgrSendNwkKey
          CFI (cfiCond208) Conditional ??CrossCallReturnLabel_56, ??CrossCallReturnLabel_9
          CFI (cfiCond208) R6 load(1, XDATA, add(CFA_XSP16, literal(-10)))
          CFI (cfiCond208) VB load(1, XDATA, add(CFA_XSP16, literal(-9)))
          CFI (cfiCond208) V0 load(1, XDATA, add(CFA_XSP16, literal(-8)))
          CFI (cfiCond208) V1 load(1, XDATA, add(CFA_XSP16, literal(-7)))
          CFI (cfiCond208) R7 load(1, XDATA, add(CFA_XSP16, literal(-6)))
          CFI (cfiCond208) ?RET_LOW load(1, XDATA, add(CFA_XSP16, literal(-5)))
          CFI (cfiCond208) ?RET_HIGH load(1, XDATA, add(CFA_XSP16, literal(-4)))
          CFI (cfiCond208) ?BRET_EXT load(1, XDATA, add(CFA_XSP16, literal(-3)))
          CFI (cfiCond208) DPL0 load(1, XDATA, add(CFA_XSP16, literal(-2)))
          CFI (cfiCond208) DPH0 load(1, XDATA, add(CFA_XSP16, literal(-1)))
          CFI (cfiCond208) CFA_SP SP+-4
          CFI (cfiCond208) CFA_XSP16 add(XSP16, 40)
          CFI Block cfiCond209 Using cfiCommon0
          CFI (cfiCond209) Function ZDSecMgrNewDeviceEvent
          CFI (cfiCond209) Conditional ??CrossCallReturnLabel_56, ??CrossCallReturnLabel_10
          CFI (cfiCond209) R6 load(1, XDATA, add(CFA_XSP16, literal(-12)))
          CFI (cfiCond209) VB load(1, XDATA, add(CFA_XSP16, literal(-11)))
          CFI (cfiCond209) V0 load(1, XDATA, add(CFA_XSP16, literal(-10)))
          CFI (cfiCond209) V1 load(1, XDATA, add(CFA_XSP16, literal(-9)))
          CFI (cfiCond209) V2 load(1, XDATA, add(CFA_XSP16, literal(-8)))
          CFI (cfiCond209) V3 load(1, XDATA, add(CFA_XSP16, literal(-7)))
          CFI (cfiCond209) R7 load(1, XDATA, add(CFA_XSP16, literal(-6)))
          CFI (cfiCond209) ?RET_LOW load(1, XDATA, add(CFA_XSP16, literal(-5)))
          CFI (cfiCond209) ?RET_HIGH load(1, XDATA, add(CFA_XSP16, literal(-4)))
          CFI (cfiCond209) ?BRET_EXT load(1, XDATA, add(CFA_XSP16, literal(-3)))
          CFI (cfiCond209) DPL0 load(1, XDATA, add(CFA_XSP16, literal(-2)))
          CFI (cfiCond209) DPH0 load(1, XDATA, add(CFA_XSP16, literal(-1)))
          CFI (cfiCond209) CFA_SP SP+-4
          CFI (cfiCond209) CFA_XSP16 add(XSP16, 33)
          CFI Block cfiPicker210 Using cfiCommon1
          CFI (cfiPicker210) NoFunction
          CFI (cfiPicker210) Picker
        MOVX      @DPTR,A
        MOV       DPL,R6
        MOV       DPH,R7
        RET
          CFI EndBlock cfiCond204
          CFI EndBlock cfiCond205
          CFI EndBlock cfiCond206
          CFI EndBlock cfiCond207
          CFI EndBlock cfiCond208
          CFI EndBlock cfiCond209
          CFI EndBlock cfiPicker210

        RSEG BANKED_CODE:HUGECODE:NOROOT(0)
?Subroutine18:
          CFI Block cfiCond211 Using cfiCommon0
          CFI Function ZDSecMgrSendNwkKey
          CFI Conditional ??CrossCallReturnLabel_9
          CFI R6 load(1, XDATA, add(CFA_XSP16, literal(-10)))
          CFI VB load(1, XDATA, add(CFA_XSP16, literal(-9)))
          CFI V0 load(1, XDATA, add(CFA_XSP16, literal(-8)))
          CFI V1 load(1, XDATA, add(CFA_XSP16, literal(-7)))
          CFI R7 load(1, XDATA, add(CFA_XSP16, literal(-6)))
          CFI ?RET_LOW load(1, XDATA, add(CFA_XSP16, literal(-5)))
          CFI ?RET_HIGH load(1, XDATA, add(CFA_XSP16, literal(-4)))
          CFI ?BRET_EXT load(1, XDATA, add(CFA_XSP16, literal(-3)))
          CFI DPL0 load(1, XDATA, add(CFA_XSP16, literal(-2)))
          CFI DPH0 load(1, XDATA, add(CFA_XSP16, literal(-1)))
          CFI CFA_SP SP+-2
          CFI CFA_XSP16 add(XSP16, 40)
          CFI Block cfiCond212 Using cfiCommon0
          CFI (cfiCond212) Function ZDSecMgrNewDeviceEvent
          CFI (cfiCond212) Conditional ??CrossCallReturnLabel_10
          CFI (cfiCond212) R6 load(1, XDATA, add(CFA_XSP16, literal(-12)))
          CFI (cfiCond212) VB load(1, XDATA, add(CFA_XSP16, literal(-11)))
          CFI (cfiCond212) V0 load(1, XDATA, add(CFA_XSP16, literal(-10)))
          CFI (cfiCond212) V1 load(1, XDATA, add(CFA_XSP16, literal(-9)))
          CFI (cfiCond212) V2 load(1, XDATA, add(CFA_XSP16, literal(-8)))
          CFI (cfiCond212) V3 load(1, XDATA, add(CFA_XSP16, literal(-7)))
          CFI (cfiCond212) R7 load(1, XDATA, add(CFA_XSP16, literal(-6)))
          CFI (cfiCond212) ?RET_LOW load(1, XDATA, add(CFA_XSP16, literal(-5)))
          CFI (cfiCond212) ?RET_HIGH load(1, XDATA, add(CFA_XSP16, literal(-4)))
          CFI (cfiCond212) ?BRET_EXT load(1, XDATA, add(CFA_XSP16, literal(-3)))
          CFI (cfiCond212) DPL0 load(1, XDATA, add(CFA_XSP16, literal(-2)))
          CFI (cfiCond212) DPH0 load(1, XDATA, add(CFA_XSP16, literal(-1)))
          CFI (cfiCond212) CFA_SP SP+-2
          CFI (cfiCond212) CFA_XSP16 add(XSP16, 33)
          CFI Block cfiPicker213 Using cfiCommon1
          CFI (cfiPicker213) NoFunction
          CFI (cfiPicker213) Picker
        LCALL     ?Subroutine44 & 0xFFFF
??CrossCallReturnLabel_56:
        LCALL     ?Subroutine46 & 0xFFFF
??CrossCallReturnLabel_144:
        RET
          CFI EndBlock cfiCond211
          CFI EndBlock cfiCond212
          CFI EndBlock cfiPicker213

        RSEG BANKED_CODE:HUGECODE:NOROOT(0)
?Subroutine46:
          CFI Block cfiCond214 Using cfiCommon0
          CFI Function ZDSecMgrSendNwkKey
          CFI Conditional ??CrossCallReturnLabel_144, ??CrossCallReturnLabel_9
          CFI R6 load(1, XDATA, add(CFA_XSP16, literal(-10)))
          CFI VB load(1, XDATA, add(CFA_XSP16, literal(-9)))
          CFI V0 load(1, XDATA, add(CFA_XSP16, literal(-8)))
          CFI V1 load(1, XDATA, add(CFA_XSP16, literal(-7)))
          CFI R7 load(1, XDATA, add(CFA_XSP16, literal(-6)))
          CFI ?RET_LOW load(1, XDATA, add(CFA_XSP16, literal(-5)))
          CFI ?RET_HIGH load(1, XDATA, add(CFA_XSP16, literal(-4)))
          CFI ?BRET_EXT load(1, XDATA, add(CFA_XSP16, literal(-3)))
          CFI DPL0 load(1, XDATA, add(CFA_XSP16, literal(-2)))
          CFI DPH0 load(1, XDATA, add(CFA_XSP16, literal(-1)))
          CFI CFA_SP SP+-4
          CFI CFA_XSP16 add(XSP16, 40)
          CFI Block cfiCond215 Using cfiCommon0
          CFI (cfiCond215) Function ZDSecMgrNewDeviceEvent
          CFI (cfiCond215) Conditional ??CrossCallReturnLabel_144, ??CrossCallReturnLabel_10
          CFI (cfiCond215) R6 load(1, XDATA, add(CFA_XSP16, literal(-12)))
          CFI (cfiCond215) VB load(1, XDATA, add(CFA_XSP16, literal(-11)))
          CFI (cfiCond215) V0 load(1, XDATA, add(CFA_XSP16, literal(-10)))
          CFI (cfiCond215) V1 load(1, XDATA, add(CFA_XSP16, literal(-9)))
          CFI (cfiCond215) V2 load(1, XDATA, add(CFA_XSP16, literal(-8)))
          CFI (cfiCond215) V3 load(1, XDATA, add(CFA_XSP16, literal(-7)))
          CFI (cfiCond215) R7 load(1, XDATA, add(CFA_XSP16, literal(-6)))
          CFI (cfiCond215) ?RET_LOW load(1, XDATA, add(CFA_XSP16, literal(-5)))
          CFI (cfiCond215) ?RET_HIGH load(1, XDATA, add(CFA_XSP16, literal(-4)))
          CFI (cfiCond215) ?BRET_EXT load(1, XDATA, add(CFA_XSP16, literal(-3)))
          CFI (cfiCond215) DPL0 load(1, XDATA, add(CFA_XSP16, literal(-2)))
          CFI (cfiCond215) DPH0 load(1, XDATA, add(CFA_XSP16, literal(-1)))
          CFI (cfiCond215) CFA_SP SP+-4
          CFI (cfiCond215) CFA_XSP16 add(XSP16, 33)
          CFI Block cfiCond216 Using cfiCommon0
          CFI (cfiCond216) Function ZDSecMgrDeviceJoinFwd
          CFI (cfiCond216) Conditional ??CrossCallReturnLabel_143, ??CrossCallReturnLabel_0
          CFI (cfiCond216) R6 load(1, XDATA, add(CFA_XSP16, literal(-10)))
          CFI (cfiCond216) VB load(1, XDATA, add(CFA_XSP16, literal(-9)))
          CFI (cfiCond216) V0 load(1, XDATA, add(CFA_XSP16, literal(-8)))
          CFI (cfiCond216) V1 load(1, XDATA, add(CFA_XSP16, literal(-7)))
          CFI (cfiCond216) R7 load(1, XDATA, add(CFA_XSP16, literal(-6)))
          CFI (cfiCond216) ?RET_LOW load(1, XDATA, add(CFA_XSP16, literal(-5)))
          CFI (cfiCond216) ?RET_HIGH load(1, XDATA, add(CFA_XSP16, literal(-4)))
          CFI (cfiCond216) ?BRET_EXT load(1, XDATA, add(CFA_XSP16, literal(-3)))
          CFI (cfiCond216) DPL0 load(1, XDATA, add(CFA_XSP16, literal(-2)))
          CFI (cfiCond216) DPH0 load(1, XDATA, add(CFA_XSP16, literal(-1)))
          CFI (cfiCond216) CFA_SP SP+-4
          CFI (cfiCond216) CFA_XSP16 add(XSP16, 18)
          CFI Block cfiCond217 Using cfiCommon0
          CFI (cfiCond217) Function ZDSecMgrUpdateDeviceInd
          CFI (cfiCond217) Conditional ??CrossCallReturnLabel_143, ??CrossCallReturnLabel_1
          CFI (cfiCond217) DPL0 Frame(CFA_SP, 4)
          CFI (cfiCond217) DPH0 Frame(CFA_SP, 5)
          CFI (cfiCond217) CFA_SP SP+-9
          CFI (cfiCond217) CFA_XSP16 add(XSP16, 8)
          CFI Block cfiPicker218 Using cfiCommon1
          CFI (cfiPicker218) NoFunction
          CFI (cfiPicker218) Picker
        INC       DPTR
        INC       DPTR
          CFI EndBlock cfiCond214
          CFI EndBlock cfiCond215
          CFI EndBlock cfiCond216
          CFI EndBlock cfiCond217
          CFI EndBlock cfiPicker218
        REQUIRE ??Subroutine61_0
        ; // Fall through to label ??Subroutine61_0

        RSEG BANKED_CODE:HUGECODE:NOROOT(0)
??Subroutine61_0:
          CFI Block cfiCond219 Using cfiCommon0
          CFI Function ZDSecMgrAddrStore
          CFI Conditional ??CrossCallReturnLabel_140, ??CrossCallReturnLabel_14
          CFI R6 load(1, XDATA, add(CFA_XSP16, literal(-9)))
          CFI VB load(1, XDATA, add(CFA_XSP16, literal(-8)))
          CFI V0 load(1, XDATA, add(CFA_XSP16, literal(-7)))
          CFI R7 load(1, XDATA, add(CFA_XSP16, literal(-6)))
          CFI ?RET_LOW load(1, XDATA, add(CFA_XSP16, literal(-5)))
          CFI ?RET_HIGH load(1, XDATA, add(CFA_XSP16, literal(-4)))
          CFI ?BRET_EXT load(1, XDATA, add(CFA_XSP16, literal(-3)))
          CFI DPL0 load(1, XDATA, add(CFA_XSP16, literal(-2)))
          CFI DPH0 load(1, XDATA, add(CFA_XSP16, literal(-1)))
          CFI CFA_SP SP+-4
          CFI CFA_XSP16 add(XSP16, 22)
          CFI Block cfiCond220 Using cfiCommon0
          CFI (cfiCond220) Function ZDSecMgrExtAddrStore
          CFI (cfiCond220) Conditional ??CrossCallReturnLabel_140, ??CrossCallReturnLabel_15
          CFI (cfiCond220) R6 load(1, XDATA, add(CFA_XSP16, literal(-9)))
          CFI (cfiCond220) VB load(1, XDATA, add(CFA_XSP16, literal(-8)))
          CFI (cfiCond220) V0 load(1, XDATA, add(CFA_XSP16, literal(-7)))
          CFI (cfiCond220) R7 load(1, XDATA, add(CFA_XSP16, literal(-6)))
          CFI (cfiCond220) ?RET_LOW load(1, XDATA, add(CFA_XSP16, literal(-5)))
          CFI (cfiCond220) ?RET_HIGH load(1, XDATA, add(CFA_XSP16, literal(-4)))
          CFI (cfiCond220) ?BRET_EXT load(1, XDATA, add(CFA_XSP16, literal(-3)))
          CFI (cfiCond220) DPL0 load(1, XDATA, add(CFA_XSP16, literal(-2)))
          CFI (cfiCond220) DPH0 load(1, XDATA, add(CFA_XSP16, literal(-1)))
          CFI (cfiCond220) CFA_SP SP+-4
          CFI (cfiCond220) CFA_XSP16 add(XSP16, 22)
          CFI Block cfiCond221 Using cfiCommon0
          CFI (cfiCond221) Function ZDSecMgrExtAddrLookup
          CFI (cfiCond221) Conditional ??CrossCallReturnLabel_140, ??CrossCallReturnLabel_16
          CFI (cfiCond221) R6 load(1, XDATA, add(CFA_XSP16, literal(-9)))
          CFI (cfiCond221) VB load(1, XDATA, add(CFA_XSP16, literal(-8)))
          CFI (cfiCond221) V0 load(1, XDATA, add(CFA_XSP16, literal(-7)))
          CFI (cfiCond221) R7 load(1, XDATA, add(CFA_XSP16, literal(-6)))
          CFI (cfiCond221) ?RET_LOW load(1, XDATA, add(CFA_XSP16, literal(-5)))
          CFI (cfiCond221) ?RET_HIGH load(1, XDATA, add(CFA_XSP16, literal(-4)))
          CFI (cfiCond221) ?BRET_EXT load(1, XDATA, add(CFA_XSP16, literal(-3)))
          CFI (cfiCond221) DPL0 load(1, XDATA, add(CFA_XSP16, literal(-2)))
          CFI (cfiCond221) DPH0 load(1, XDATA, add(CFA_XSP16, literal(-1)))
          CFI (cfiCond221) CFA_SP SP+-4
          CFI (cfiCond221) CFA_XSP16 add(XSP16, 22)
          CFI Block cfiCond222 Using cfiCommon0
          CFI (cfiCond222) Function ZDSecMgrAppKeyReq
          CFI (cfiCond222) Conditional ??CrossCallReturnLabel_139, ??CrossCallReturnLabel_7
          CFI (cfiCond222) R6 load(1, XDATA, add(CFA_XSP16, literal(-12)))
          CFI (cfiCond222) VB load(1, XDATA, add(CFA_XSP16, literal(-11)))
          CFI (cfiCond222) V0 load(1, XDATA, add(CFA_XSP16, literal(-10)))
          CFI (cfiCond222) V1 load(1, XDATA, add(CFA_XSP16, literal(-9)))
          CFI (cfiCond222) V2 load(1, XDATA, add(CFA_XSP16, literal(-8)))
          CFI (cfiCond222) V3 load(1, XDATA, add(CFA_XSP16, literal(-7)))
          CFI (cfiCond222) R7 load(1, XDATA, add(CFA_XSP16, literal(-6)))
          CFI (cfiCond222) ?RET_LOW load(1, XDATA, add(CFA_XSP16, literal(-5)))
          CFI (cfiCond222) ?RET_HIGH load(1, XDATA, add(CFA_XSP16, literal(-4)))
          CFI (cfiCond222) ?BRET_EXT load(1, XDATA, add(CFA_XSP16, literal(-3)))
          CFI (cfiCond222) DPL0 load(1, XDATA, add(CFA_XSP16, literal(-2)))
          CFI (cfiCond222) DPH0 load(1, XDATA, add(CFA_XSP16, literal(-1)))
          CFI (cfiCond222) CFA_SP SP+-4
          CFI (cfiCond222) CFA_XSP16 add(XSP16, 51)
          CFI Block cfiCond223 Using cfiCommon0
          CFI (cfiCond223) Function ZDSecMgrTclkReq
          CFI (cfiCond223) Conditional ??CrossCallReturnLabel_139, ??CrossCallReturnLabel_8
          CFI (cfiCond223) R6 load(1, XDATA, add(CFA_XSP16, literal(-10)))
          CFI (cfiCond223) VB load(1, XDATA, add(CFA_XSP16, literal(-9)))
          CFI (cfiCond223) V0 load(1, XDATA, add(CFA_XSP16, literal(-8)))
          CFI (cfiCond223) V1 load(1, XDATA, add(CFA_XSP16, literal(-7)))
          CFI (cfiCond223) R7 load(1, XDATA, add(CFA_XSP16, literal(-6)))
          CFI (cfiCond223) ?RET_LOW load(1, XDATA, add(CFA_XSP16, literal(-5)))
          CFI (cfiCond223) ?RET_HIGH load(1, XDATA, add(CFA_XSP16, literal(-4)))
          CFI (cfiCond223) ?BRET_EXT load(1, XDATA, add(CFA_XSP16, literal(-3)))
          CFI (cfiCond223) DPL0 load(1, XDATA, add(CFA_XSP16, literal(-2)))
          CFI (cfiCond223) DPH0 load(1, XDATA, add(CFA_XSP16, literal(-1)))
          CFI (cfiCond223) CFA_SP SP+-4
          CFI (cfiCond223) CFA_XSP16 add(XSP16, 69)
          CFI Block cfiCond224 Using cfiCommon0
          CFI (cfiCond224) Function ZDSecMgrAppKeyReq
          CFI (cfiCond224) Conditional ??CrossCallReturnLabel_142, ??CrossCallReturnLabel_25
          CFI (cfiCond224) R6 load(1, XDATA, add(CFA_XSP16, literal(-12)))
          CFI (cfiCond224) VB load(1, XDATA, add(CFA_XSP16, literal(-11)))
          CFI (cfiCond224) V0 load(1, XDATA, add(CFA_XSP16, literal(-10)))
          CFI (cfiCond224) V1 load(1, XDATA, add(CFA_XSP16, literal(-9)))
          CFI (cfiCond224) V2 load(1, XDATA, add(CFA_XSP16, literal(-8)))
          CFI (cfiCond224) V3 load(1, XDATA, add(CFA_XSP16, literal(-7)))
          CFI (cfiCond224) R7 load(1, XDATA, add(CFA_XSP16, literal(-6)))
          CFI (cfiCond224) ?RET_LOW load(1, XDATA, add(CFA_XSP16, literal(-5)))
          CFI (cfiCond224) ?RET_HIGH load(1, XDATA, add(CFA_XSP16, literal(-4)))
          CFI (cfiCond224) ?BRET_EXT load(1, XDATA, add(CFA_XSP16, literal(-3)))
          CFI (cfiCond224) DPL0 load(1, XDATA, add(CFA_XSP16, literal(-2)))
          CFI (cfiCond224) DPH0 load(1, XDATA, add(CFA_XSP16, literal(-1)))
          CFI (cfiCond224) CFA_SP SP+-4
          CFI (cfiCond224) CFA_XSP16 add(XSP16, 51)
          CFI Block cfiCond225 Using cfiCommon0
          CFI (cfiCond225) Function ZDSecMgrDeviceJoin
          CFI (cfiCond225) Conditional ??CrossCallReturnLabel_142, ??CrossCallReturnLabel_26
          CFI (cfiCond225) R6 load(1, XDATA, add(CFA_XSP16, literal(-16)))
          CFI (cfiCond225) VB load(1, XDATA, add(CFA_XSP16, literal(-15)))
          CFI (cfiCond225) V0 load(1, XDATA, add(CFA_XSP16, literal(-14)))
          CFI (cfiCond225) V1 load(1, XDATA, add(CFA_XSP16, literal(-13)))
          CFI (cfiCond225) V2 load(1, XDATA, add(CFA_XSP16, literal(-12)))
          CFI (cfiCond225) V3 load(1, XDATA, add(CFA_XSP16, literal(-11)))
          CFI (cfiCond225) V4 load(1, XDATA, add(CFA_XSP16, literal(-10)))
          CFI (cfiCond225) V5 load(1, XDATA, add(CFA_XSP16, literal(-9)))
          CFI (cfiCond225) V6 load(1, XDATA, add(CFA_XSP16, literal(-8)))
          CFI (cfiCond225) V7 load(1, XDATA, add(CFA_XSP16, literal(-7)))
          CFI (cfiCond225) R7 load(1, XDATA, add(CFA_XSP16, literal(-6)))
          CFI (cfiCond225) ?RET_LOW load(1, XDATA, add(CFA_XSP16, literal(-5)))
          CFI (cfiCond225) ?RET_HIGH load(1, XDATA, add(CFA_XSP16, literal(-4)))
          CFI (cfiCond225) ?BRET_EXT load(1, XDATA, add(CFA_XSP16, literal(-3)))
          CFI (cfiCond225) DPL0 load(1, XDATA, add(CFA_XSP16, literal(-2)))
          CFI (cfiCond225) DPH0 load(1, XDATA, add(CFA_XSP16, literal(-1)))
          CFI (cfiCond225) CFA_SP SP+-4
          CFI (cfiCond225) CFA_XSP16 add(XSP16, 30)
          CFI Block cfiCond226 Using cfiCommon0
          CFI (cfiCond226) Function ZDSecMgrDeviceJoinFwd
          CFI (cfiCond226) Conditional ??CrossCallReturnLabel_142, ??CrossCallReturnLabel_27
          CFI (cfiCond226) R6 load(1, XDATA, add(CFA_XSP16, literal(-10)))
          CFI (cfiCond226) VB load(1, XDATA, add(CFA_XSP16, literal(-9)))
          CFI (cfiCond226) V0 load(1, XDATA, add(CFA_XSP16, literal(-8)))
          CFI (cfiCond226) V1 load(1, XDATA, add(CFA_XSP16, literal(-7)))
          CFI (cfiCond226) R7 load(1, XDATA, add(CFA_XSP16, literal(-6)))
          CFI (cfiCond226) ?RET_LOW load(1, XDATA, add(CFA_XSP16, literal(-5)))
          CFI (cfiCond226) ?RET_HIGH load(1, XDATA, add(CFA_XSP16, literal(-4)))
          CFI (cfiCond226) ?BRET_EXT load(1, XDATA, add(CFA_XSP16, literal(-3)))
          CFI (cfiCond226) DPL0 load(1, XDATA, add(CFA_XSP16, literal(-2)))
          CFI (cfiCond226) DPH0 load(1, XDATA, add(CFA_XSP16, literal(-1)))
          CFI (cfiCond226) CFA_SP SP+-4
          CFI (cfiCond226) CFA_XSP16 add(XSP16, 18)
          CFI Block cfiCond227 Using cfiCommon0
          CFI (cfiCond227) Function ZDSecMgrNewDeviceEvent
          CFI (cfiCond227) Conditional ??CrossCallReturnLabel_141, ??CrossCallReturnLabel_117
          CFI (cfiCond227) R6 load(1, XDATA, add(CFA_XSP16, literal(-12)))
          CFI (cfiCond227) VB load(1, XDATA, add(CFA_XSP16, literal(-11)))
          CFI (cfiCond227) V0 load(1, XDATA, add(CFA_XSP16, literal(-10)))
          CFI (cfiCond227) V1 load(1, XDATA, add(CFA_XSP16, literal(-9)))
          CFI (cfiCond227) V2 load(1, XDATA, add(CFA_XSP16, literal(-8)))
          CFI (cfiCond227) V3 load(1, XDATA, add(CFA_XSP16, literal(-7)))
          CFI (cfiCond227) R7 load(1, XDATA, add(CFA_XSP16, literal(-6)))
          CFI (cfiCond227) ?RET_LOW load(1, XDATA, add(CFA_XSP16, literal(-5)))
          CFI (cfiCond227) ?RET_HIGH load(1, XDATA, add(CFA_XSP16, literal(-4)))
          CFI (cfiCond227) ?BRET_EXT load(1, XDATA, add(CFA_XSP16, literal(-3)))
          CFI (cfiCond227) DPL0 load(1, XDATA, add(CFA_XSP16, literal(-2)))
          CFI (cfiCond227) DPH0 load(1, XDATA, add(CFA_XSP16, literal(-1)))
          CFI (cfiCond227) CFA_SP SP+-4
          CFI (cfiCond227) CFA_XSP16 add(XSP16, 33)
          CFI Block cfiCond228 Using cfiCommon0
          CFI (cfiCond228) Function ZDSecMgrUpdateDeviceInd
          CFI (cfiCond228) Conditional ??CrossCallReturnLabel_141, ??CrossCallReturnLabel_118
          CFI (cfiCond228) DPL0 Frame(CFA_SP, 4)
          CFI (cfiCond228) DPH0 Frame(CFA_SP, 5)
          CFI (cfiCond228) CFA_SP SP+-9
          CFI (cfiCond228) CFA_XSP16 add(XSP16, 8)
          CFI Block cfiCond229 Using cfiCommon0
          CFI (cfiCond229) Function ZDSecMgrSendNwkKey
          CFI (cfiCond229) Conditional ??CrossCallReturnLabel_145, ??CrossCallReturnLabel_133
          CFI (cfiCond229) R6 load(1, XDATA, add(CFA_XSP16, literal(-10)))
          CFI (cfiCond229) VB load(1, XDATA, add(CFA_XSP16, literal(-9)))
          CFI (cfiCond229) V0 load(1, XDATA, add(CFA_XSP16, literal(-8)))
          CFI (cfiCond229) V1 load(1, XDATA, add(CFA_XSP16, literal(-7)))
          CFI (cfiCond229) R7 load(1, XDATA, add(CFA_XSP16, literal(-6)))
          CFI (cfiCond229) ?RET_LOW load(1, XDATA, add(CFA_XSP16, literal(-5)))
          CFI (cfiCond229) ?RET_HIGH load(1, XDATA, add(CFA_XSP16, literal(-4)))
          CFI (cfiCond229) ?BRET_EXT load(1, XDATA, add(CFA_XSP16, literal(-3)))
          CFI (cfiCond229) DPL0 load(1, XDATA, add(CFA_XSP16, literal(-2)))
          CFI (cfiCond229) DPH0 load(1, XDATA, add(CFA_XSP16, literal(-1)))
          CFI (cfiCond229) CFA_SP SP+-4
          CFI (cfiCond229) CFA_XSP16 add(XSP16, 40)
          CFI Block cfiCond230 Using cfiCommon0
          CFI (cfiCond230) Function ZDSecMgrSendNwkKey
          CFI (cfiCond230) Conditional ??CrossCallReturnLabel_145, ??CrossCallReturnLabel_138
          CFI (cfiCond230) R6 load(1, XDATA, add(CFA_XSP16, literal(-10)))
          CFI (cfiCond230) VB load(1, XDATA, add(CFA_XSP16, literal(-9)))
          CFI (cfiCond230) V0 load(1, XDATA, add(CFA_XSP16, literal(-8)))
          CFI (cfiCond230) V1 load(1, XDATA, add(CFA_XSP16, literal(-7)))
          CFI (cfiCond230) R7 load(1, XDATA, add(CFA_XSP16, literal(-6)))
          CFI (cfiCond230) ?RET_LOW load(1, XDATA, add(CFA_XSP16, literal(-5)))
          CFI (cfiCond230) ?RET_HIGH load(1, XDATA, add(CFA_XSP16, literal(-4)))
          CFI (cfiCond230) ?BRET_EXT load(1, XDATA, add(CFA_XSP16, literal(-3)))
          CFI (cfiCond230) DPL0 load(1, XDATA, add(CFA_XSP16, literal(-2)))
          CFI (cfiCond230) DPH0 load(1, XDATA, add(CFA_XSP16, literal(-1)))
          CFI (cfiCond230) CFA_SP SP+-4
          CFI (cfiCond230) CFA_XSP16 add(XSP16, 40)
          CFI Block cfiCond231 Using cfiCommon0
          CFI (cfiCond231) Function ZDSecMgrAddrClear
          CFI (cfiCond231) Conditional ??CrossCallReturnLabel_145, ??CrossCallReturnLabel_134
          CFI (cfiCond231) R6 load(1, XDATA, add(CFA_XSP16, literal(-9)))
          CFI (cfiCond231) VB load(1, XDATA, add(CFA_XSP16, literal(-8)))
          CFI (cfiCond231) V0 load(1, XDATA, add(CFA_XSP16, literal(-7)))
          CFI (cfiCond231) R7 load(1, XDATA, add(CFA_XSP16, literal(-6)))
          CFI (cfiCond231) ?RET_LOW load(1, XDATA, add(CFA_XSP16, literal(-5)))
          CFI (cfiCond231) ?RET_HIGH load(1, XDATA, add(CFA_XSP16, literal(-4)))
          CFI (cfiCond231) ?BRET_EXT load(1, XDATA, add(CFA_XSP16, literal(-3)))
          CFI (cfiCond231) DPL0 load(1, XDATA, add(CFA_XSP16, literal(-2)))
          CFI (cfiCond231) DPH0 load(1, XDATA, add(CFA_XSP16, literal(-1)))
          CFI (cfiCond231) CFA_SP SP+-4
          CFI (cfiCond231) CFA_XSP16 add(XSP16, 24)
          CFI Block cfiCond232 Using cfiCommon0
          CFI (cfiCond232) Function ZDSecMgrDeviceJoin
          CFI (cfiCond232) Conditional ??CrossCallReturnLabel_145, ??CrossCallReturnLabel_135
          CFI (cfiCond232) R6 load(1, XDATA, add(CFA_XSP16, literal(-16)))
          CFI (cfiCond232) VB load(1, XDATA, add(CFA_XSP16, literal(-15)))
          CFI (cfiCond232) V0 load(1, XDATA, add(CFA_XSP16, literal(-14)))
          CFI (cfiCond232) V1 load(1, XDATA, add(CFA_XSP16, literal(-13)))
          CFI (cfiCond232) V2 load(1, XDATA, add(CFA_XSP16, literal(-12)))
          CFI (cfiCond232) V3 load(1, XDATA, add(CFA_XSP16, literal(-11)))
          CFI (cfiCond232) V4 load(1, XDATA, add(CFA_XSP16, literal(-10)))
          CFI (cfiCond232) V5 load(1, XDATA, add(CFA_XSP16, literal(-9)))
          CFI (cfiCond232) V6 load(1, XDATA, add(CFA_XSP16, literal(-8)))
          CFI (cfiCond232) V7 load(1, XDATA, add(CFA_XSP16, literal(-7)))
          CFI (cfiCond232) R7 load(1, XDATA, add(CFA_XSP16, literal(-6)))
          CFI (cfiCond232) ?RET_LOW load(1, XDATA, add(CFA_XSP16, literal(-5)))
          CFI (cfiCond232) ?RET_HIGH load(1, XDATA, add(CFA_XSP16, literal(-4)))
          CFI (cfiCond232) ?BRET_EXT load(1, XDATA, add(CFA_XSP16, literal(-3)))
          CFI (cfiCond232) DPL0 load(1, XDATA, add(CFA_XSP16, literal(-2)))
          CFI (cfiCond232) DPH0 load(1, XDATA, add(CFA_XSP16, literal(-1)))
          CFI (cfiCond232) CFA_SP SP+-4
          CFI (cfiCond232) CFA_XSP16 add(XSP16, 30)
          CFI Block cfiCond233 Using cfiCommon0
          CFI (cfiCond233) Function APSME_LinkKeySet
          CFI (cfiCond233) Conditional ??CrossCallReturnLabel_145, ??CrossCallReturnLabel_136
          CFI (cfiCond233) R6 load(1, XDATA, add(CFA_XSP16, literal(-15)))
          CFI (cfiCond233) VB load(1, XDATA, add(CFA_XSP16, literal(-14)))
          CFI (cfiCond233) V0 load(1, XDATA, add(CFA_XSP16, literal(-13)))
          CFI (cfiCond233) V1 load(1, XDATA, add(CFA_XSP16, literal(-12)))
          CFI (cfiCond233) V2 load(1, XDATA, add(CFA_XSP16, literal(-11)))
          CFI (cfiCond233) V3 load(1, XDATA, add(CFA_XSP16, literal(-10)))
          CFI (cfiCond233) V4 load(1, XDATA, add(CFA_XSP16, literal(-9)))
          CFI (cfiCond233) V5 load(1, XDATA, add(CFA_XSP16, literal(-8)))
          CFI (cfiCond233) V6 load(1, XDATA, add(CFA_XSP16, literal(-7)))
          CFI (cfiCond233) R7 load(1, XDATA, add(CFA_XSP16, literal(-6)))
          CFI (cfiCond233) ?RET_LOW load(1, XDATA, add(CFA_XSP16, literal(-5)))
          CFI (cfiCond233) ?RET_HIGH load(1, XDATA, add(CFA_XSP16, literal(-4)))
          CFI (cfiCond233) ?BRET_EXT load(1, XDATA, add(CFA_XSP16, literal(-3)))
          CFI (cfiCond233) DPL0 load(1, XDATA, add(CFA_XSP16, literal(-2)))
          CFI (cfiCond233) DPH0 load(1, XDATA, add(CFA_XSP16, literal(-1)))
          CFI (cfiCond233) CFA_SP SP+-4
          CFI (cfiCond233) CFA_XSP16 add(XSP16, 19)
          CFI Block cfiCond234 Using cfiCommon0
          CFI (cfiCond234) Function ZDSecMgrAPSRemove
          CFI (cfiCond234) Conditional ??CrossCallReturnLabel_145, ??CrossCallReturnLabel_137
          CFI (cfiCond234) DPL0 Frame(CFA_SP, 4)
          CFI (cfiCond234) DPH0 Frame(CFA_SP, 5)
          CFI (cfiCond234) CFA_SP SP+-9
          CFI (cfiCond234) CFA_XSP16 add(XSP16, 8)
          CFI Block cfiCond235 Using cfiCommon0
          CFI (cfiCond235) Function ZDSecMgrSendNwkKey
          CFI (cfiCond235) Conditional ??CrossCallReturnLabel_144, ??CrossCallReturnLabel_9
          CFI (cfiCond235) R6 load(1, XDATA, add(CFA_XSP16, literal(-10)))
          CFI (cfiCond235) VB load(1, XDATA, add(CFA_XSP16, literal(-9)))
          CFI (cfiCond235) V0 load(1, XDATA, add(CFA_XSP16, literal(-8)))
          CFI (cfiCond235) V1 load(1, XDATA, add(CFA_XSP16, literal(-7)))
          CFI (cfiCond235) R7 load(1, XDATA, add(CFA_XSP16, literal(-6)))
          CFI (cfiCond235) ?RET_LOW load(1, XDATA, add(CFA_XSP16, literal(-5)))
          CFI (cfiCond235) ?RET_HIGH load(1, XDATA, add(CFA_XSP16, literal(-4)))
          CFI (cfiCond235) ?BRET_EXT load(1, XDATA, add(CFA_XSP16, literal(-3)))
          CFI (cfiCond235) DPL0 load(1, XDATA, add(CFA_XSP16, literal(-2)))
          CFI (cfiCond235) DPH0 load(1, XDATA, add(CFA_XSP16, literal(-1)))
          CFI (cfiCond235) CFA_SP SP+-4
          CFI (cfiCond235) CFA_XSP16 add(XSP16, 40)
          CFI Block cfiCond236 Using cfiCommon0
          CFI (cfiCond236) Function ZDSecMgrNewDeviceEvent
          CFI (cfiCond236) Conditional ??CrossCallReturnLabel_144, ??CrossCallReturnLabel_10
          CFI (cfiCond236) R6 load(1, XDATA, add(CFA_XSP16, literal(-12)))
          CFI (cfiCond236) VB load(1, XDATA, add(CFA_XSP16, literal(-11)))
          CFI (cfiCond236) V0 load(1, XDATA, add(CFA_XSP16, literal(-10)))
          CFI (cfiCond236) V1 load(1, XDATA, add(CFA_XSP16, literal(-9)))
          CFI (cfiCond236) V2 load(1, XDATA, add(CFA_XSP16, literal(-8)))
          CFI (cfiCond236) V3 load(1, XDATA, add(CFA_XSP16, literal(-7)))
          CFI (cfiCond236) R7 load(1, XDATA, add(CFA_XSP16, literal(-6)))
          CFI (cfiCond236) ?RET_LOW load(1, XDATA, add(CFA_XSP16, literal(-5)))
          CFI (cfiCond236) ?RET_HIGH load(1, XDATA, add(CFA_XSP16, literal(-4)))
          CFI (cfiCond236) ?BRET_EXT load(1, XDATA, add(CFA_XSP16, literal(-3)))
          CFI (cfiCond236) DPL0 load(1, XDATA, add(CFA_XSP16, literal(-2)))
          CFI (cfiCond236) DPH0 load(1, XDATA, add(CFA_XSP16, literal(-1)))
          CFI (cfiCond236) CFA_SP SP+-4
          CFI (cfiCond236) CFA_XSP16 add(XSP16, 33)
          CFI Block cfiCond237 Using cfiCommon0
          CFI (cfiCond237) Function ZDSecMgrDeviceJoinFwd
          CFI (cfiCond237) Conditional ??CrossCallReturnLabel_143, ??CrossCallReturnLabel_0
          CFI (cfiCond237) R6 load(1, XDATA, add(CFA_XSP16, literal(-10)))
          CFI (cfiCond237) VB load(1, XDATA, add(CFA_XSP16, literal(-9)))
          CFI (cfiCond237) V0 load(1, XDATA, add(CFA_XSP16, literal(-8)))
          CFI (cfiCond237) V1 load(1, XDATA, add(CFA_XSP16, literal(-7)))
          CFI (cfiCond237) R7 load(1, XDATA, add(CFA_XSP16, literal(-6)))
          CFI (cfiCond237) ?RET_LOW load(1, XDATA, add(CFA_XSP16, literal(-5)))
          CFI (cfiCond237) ?RET_HIGH load(1, XDATA, add(CFA_XSP16, literal(-4)))
          CFI (cfiCond237) ?BRET_EXT load(1, XDATA, add(CFA_XSP16, literal(-3)))
          CFI (cfiCond237) DPL0 load(1, XDATA, add(CFA_XSP16, literal(-2)))
          CFI (cfiCond237) DPH0 load(1, XDATA, add(CFA_XSP16, literal(-1)))
          CFI (cfiCond237) CFA_SP SP+-4
          CFI (cfiCond237) CFA_XSP16 add(XSP16, 18)
          CFI Block cfiCond238 Using cfiCommon0
          CFI (cfiCond238) Function ZDSecMgrUpdateDeviceInd
          CFI (cfiCond238) Conditional ??CrossCallReturnLabel_143, ??CrossCallReturnLabel_1
          CFI (cfiCond238) DPL0 Frame(CFA_SP, 4)
          CFI (cfiCond238) DPH0 Frame(CFA_SP, 5)
          CFI (cfiCond238) CFA_SP SP+-9
          CFI (cfiCond238) CFA_XSP16 add(XSP16, 8)
          CFI Block cfiPicker239 Using cfiCommon1
          CFI (cfiPicker239) NoFunction
          CFI (cfiPicker239) Picker
        MOVX      A,@DPTR
        MOV       R0,A
        INC       DPTR
        MOVX      A,@DPTR
        MOV       R1,A
        RET
          CFI EndBlock cfiCond219
          CFI EndBlock cfiCond220
          CFI EndBlock cfiCond221
          CFI EndBlock cfiCond222
          CFI EndBlock cfiCond223
          CFI EndBlock cfiCond224
          CFI EndBlock cfiCond225
          CFI EndBlock cfiCond226
          CFI EndBlock cfiCond227
          CFI EndBlock cfiCond228
          CFI EndBlock cfiCond229
          CFI EndBlock cfiCond230
          CFI EndBlock cfiCond231
          CFI EndBlock cfiCond232
          CFI EndBlock cfiCond233
          CFI EndBlock cfiCond234
          CFI EndBlock cfiCond235
          CFI EndBlock cfiCond236
          CFI EndBlock cfiCond237
          CFI EndBlock cfiCond238
          CFI EndBlock cfiPicker239
// 1756 
// 1757 /******************************************************************************
// 1758  * @fn          ZDSecMgrTCExtAddrCheck
// 1759  *
// 1760  * @brief       Verifies if received ext. address matches TC ext. address.
// 1761  *
// 1762  * @param       extAddr - Extended address to be verified.
// 1763  *
// 1764  * @return      TRUE - extended address matches
// 1765  *              FALSE - otherwise
// 1766  */

        RSEG BANKED_CODE:HUGECODE:NOROOT(0)
// 1767 uint8 ZDSecMgrTCExtAddrCheck( uint8* extAddr )
ZDSecMgrTCExtAddrCheck:
          CFI Block cfiBlock240 Using cfiCommon0
          CFI Function ZDSecMgrTCExtAddrCheck
        CODE
// 1768 {
        FUNCALL ZDSecMgrTCExtAddrCheck, APSME_GetRequest
        LOCFRAME ISTACK, 0, STACK
        LOCFRAME PSTACK, 0, STACK
        LOCFRAME XSTACK, 17, STACK
        LOCFRAME IOVERLAY, 0, STATIC
        LOCFRAME DOVERLAY, 0, STATIC
        ARGFRAME ISTACK, 0, STACK
        ARGFRAME PSTACK, 0, STACK
        ARGFRAME XSTACK, 17, STACK
        ARGFRAME IOVERLAY, 0, STATIC
        ARGFRAME DOVERLAY, 0, STATIC
        FUNCALL ZDSecMgrTCExtAddrCheck, sAddrExtCmp
        LOCFRAME ISTACK, 0, STACK
        LOCFRAME PSTACK, 0, STACK
        LOCFRAME XSTACK, 17, STACK
        LOCFRAME IOVERLAY, 0, STATIC
        LOCFRAME DOVERLAY, 0, STATIC
        ARGFRAME ISTACK, 0, STACK
        ARGFRAME PSTACK, 0, STACK
        ARGFRAME XSTACK, 17, STACK
        ARGFRAME IOVERLAY, 0, STATIC
        ARGFRAME DOVERLAY, 0, STATIC
        MOV       A,#-0x9
        LCALL     ?BANKED_ENTER_XDATA
          CFI DPH0 load(1, XDATA, add(CFA_XSP16, literal(-1)))
          CFI DPL0 load(1, XDATA, add(CFA_XSP16, literal(-2)))
          CFI ?BRET_EXT load(1, XDATA, add(CFA_XSP16, literal(-3)))
          CFI ?RET_HIGH load(1, XDATA, add(CFA_XSP16, literal(-4)))
          CFI ?RET_LOW load(1, XDATA, add(CFA_XSP16, literal(-5)))
          CFI R7 load(1, XDATA, add(CFA_XSP16, literal(-6)))
          CFI V0 load(1, XDATA, add(CFA_XSP16, literal(-7)))
          CFI VB load(1, XDATA, add(CFA_XSP16, literal(-8)))
          CFI R6 load(1, XDATA, add(CFA_XSP16, literal(-9)))
          CFI CFA_SP SP+0
          CFI CFA_XSP16 add(XSP16, 9)
        ; Saved register size: 9
        ; Auto size: 8
        MOV       A,#-0x8
        LCALL     ?ALLOC_XSTACK8
          CFI CFA_XSP16 add(XSP16, 17)
        MOV       A,R2
        MOV       R6,A
        MOV       A,R3
        MOV       R7,A
// 1769   uint8  lookup[Z_EXTADDR_LEN];
// 1770   APSME_GetRequest( apsTrustCenterAddress, 0, lookup );
        ; Setup parameters for call to function APSME_GetRequest
        MOV       R4,?XSP + 0
        MOV       R5,?XSP + 1
        MOV       R2,#0x0
        MOV       R3,#0x0
        MOV       R1,#-0x55
        LCALL     `??APSME_GetRequest::?relay`; Banked call to: APSME_GetRequest
// 1771   return osal_ExtAddrEqual( extAddr, lookup );
        ; Setup parameters for call to function sAddrExtCmp
        MOV       R4,?XSP + 0
        MOV       R5,?XSP + 1
        MOV       A,R6
        MOV       R2,A
        MOV       A,R7
        MOV       R3,A
        LCALL     `??sAddrExtCmp::?relay`; Banked call to: sAddrExtCmp
          CFI EndBlock cfiBlock240
        REQUIRE ?Subroutine8
        ; // Fall through to label ?Subroutine8
// 1772 }

        RSEG BANKED_CODE:HUGECODE:NOROOT(0)
?Subroutine8:
          CFI Block cfiBlock241 Using cfiCommon0
          CFI NoFunction
          CFI CFA_SP SP+0
          CFI CFA_XSP16 add(XSP16, 17)
          CFI VB load(1, XDATA, add(CFA_XSP16, literal(-8)))
          CFI DPL0 load(1, XDATA, add(CFA_XSP16, literal(-2)))
          CFI DPH0 load(1, XDATA, add(CFA_XSP16, literal(-1)))
          CFI R6 load(1, XDATA, add(CFA_XSP16, literal(-9)))
          CFI R7 load(1, XDATA, add(CFA_XSP16, literal(-6)))
          CFI V0 load(1, XDATA, add(CFA_XSP16, literal(-7)))
          CFI ?BRET_EXT load(1, XDATA, add(CFA_XSP16, literal(-3)))
          CFI ?RET_HIGH load(1, XDATA, add(CFA_XSP16, literal(-4)))
          CFI ?RET_LOW load(1, XDATA, add(CFA_XSP16, literal(-5)))
        MOV       A,#0x8
        SJMP      ??Subroutine62_0
          CFI EndBlock cfiBlock241

        RSEG BANKED_CODE:HUGECODE:NOROOT(0)
?Subroutine0:
          CFI Block cfiBlock242 Using cfiCommon0
          CFI NoFunction
          CFI CFA_SP SP+0
          CFI CFA_XSP16 add(XSP16, 22)
          CFI VB load(1, XDATA, add(CFA_XSP16, literal(-8)))
          CFI DPL0 load(1, XDATA, add(CFA_XSP16, literal(-2)))
          CFI DPH0 load(1, XDATA, add(CFA_XSP16, literal(-1)))
          CFI R6 load(1, XDATA, add(CFA_XSP16, literal(-9)))
          CFI R7 load(1, XDATA, add(CFA_XSP16, literal(-6)))
          CFI V0 load(1, XDATA, add(CFA_XSP16, literal(-7)))
          CFI ?BRET_EXT load(1, XDATA, add(CFA_XSP16, literal(-3)))
          CFI ?RET_HIGH load(1, XDATA, add(CFA_XSP16, literal(-4)))
          CFI ?RET_LOW load(1, XDATA, add(CFA_XSP16, literal(-5)))
        MOV       A,#0xd
          CFI EndBlock cfiBlock242
        REQUIRE ??Subroutine62_0
        ; // Fall through to label ??Subroutine62_0

        RSEG BANKED_CODE:HUGECODE:NOROOT(0)
??Subroutine62_0:
          CFI Block cfiBlock243 Using cfiCommon0
          CFI NoFunction
          CFI CFA_SP SP+0
          CFI CFA_XSP16 add(XSP16, 24)
          CFI VB load(1, XDATA, add(CFA_XSP16, literal(-8)))
          CFI DPL0 load(1, XDATA, add(CFA_XSP16, literal(-2)))
          CFI DPH0 load(1, XDATA, add(CFA_XSP16, literal(-1)))
          CFI R6 load(1, XDATA, add(CFA_XSP16, literal(-9)))
          CFI R7 load(1, XDATA, add(CFA_XSP16, literal(-6)))
          CFI V0 load(1, XDATA, add(CFA_XSP16, literal(-7)))
          CFI ?BRET_EXT load(1, XDATA, add(CFA_XSP16, literal(-3)))
          CFI ?RET_HIGH load(1, XDATA, add(CFA_XSP16, literal(-4)))
          CFI ?RET_LOW load(1, XDATA, add(CFA_XSP16, literal(-5)))
          CFI Invalid
        LCALL     ?DEALLOC_XSTACK8
          CFI EndBlock cfiBlock243
        REQUIRE ??Subroutine63_0
        ; // Fall through to label ??Subroutine63_0

        RSEG BANKED_CODE:HUGECODE:NOROOT(0)
??Subroutine63_0:
          CFI Block cfiBlock244 Using cfiCommon0
          CFI NoFunction
          CFI CFA_SP SP+0
          CFI CFA_XSP16 add(XSP16, 9)
          CFI VB load(1, XDATA, add(CFA_XSP16, literal(-8)))
          CFI DPL0 load(1, XDATA, add(CFA_XSP16, literal(-2)))
          CFI DPH0 load(1, XDATA, add(CFA_XSP16, literal(-1)))
          CFI R6 load(1, XDATA, add(CFA_XSP16, literal(-9)))
          CFI R7 load(1, XDATA, add(CFA_XSP16, literal(-6)))
          CFI V0 load(1, XDATA, add(CFA_XSP16, literal(-7)))
          CFI ?BRET_EXT load(1, XDATA, add(CFA_XSP16, literal(-3)))
          CFI ?RET_HIGH load(1, XDATA, add(CFA_XSP16, literal(-4)))
          CFI ?RET_LOW load(1, XDATA, add(CFA_XSP16, literal(-5)))
        MOV       R7,#0x1
        LJMP      ?BANKED_LEAVE_XDATA
          CFI EndBlock cfiBlock244
// 1773 
// 1774 /******************************************************************************
// 1775  * @fn          ZDSecMgrTCDataLoad
// 1776  *
// 1777  * @brief       Stores the address of TC into address manager.
// 1778  *
// 1779  * @param       extAddr - Extended address to be verified.
// 1780  *
// 1781  * @return      none
// 1782  */

        RSEG BANKED_CODE:HUGECODE:NOROOT(0)
// 1783 void ZDSecMgrTCDataLoad( uint8* extAddr )
ZDSecMgrTCDataLoad:
          CFI Block cfiBlock245 Using cfiCommon0
          CFI Function ZDSecMgrTCDataLoad
        CODE
// 1784 {
        FUNCALL ZDSecMgrTCDataLoad, sAddrExtCpy
        LOCFRAME ISTACK, 0, STACK
        LOCFRAME PSTACK, 0, STACK
        LOCFRAME XSTACK, 25, STACK
        LOCFRAME IOVERLAY, 0, STATIC
        LOCFRAME DOVERLAY, 0, STATIC
        ARGFRAME ISTACK, 0, STACK
        ARGFRAME PSTACK, 0, STACK
        ARGFRAME XSTACK, 25, STACK
        ARGFRAME IOVERLAY, 0, STATIC
        ARGFRAME DOVERLAY, 0, STATIC
        FUNCALL ZDSecMgrTCDataLoad, APSME_IsDistributedSecurity
        LOCFRAME ISTACK, 0, STACK
        LOCFRAME PSTACK, 0, STACK
        LOCFRAME XSTACK, 25, STACK
        LOCFRAME IOVERLAY, 0, STATIC
        LOCFRAME DOVERLAY, 0, STATIC
        ARGFRAME ISTACK, 0, STACK
        ARGFRAME PSTACK, 0, STACK
        ARGFRAME XSTACK, 25, STACK
        ARGFRAME IOVERLAY, 0, STATIC
        ARGFRAME DOVERLAY, 0, STATIC
        FUNCALL ZDSecMgrTCDataLoad, AddrMgrEntryLookupExt
        LOCFRAME ISTACK, 0, STACK
        LOCFRAME PSTACK, 0, STACK
        LOCFRAME XSTACK, 25, STACK
        LOCFRAME IOVERLAY, 0, STATIC
        LOCFRAME DOVERLAY, 0, STATIC
        ARGFRAME ISTACK, 0, STACK
        ARGFRAME PSTACK, 0, STACK
        ARGFRAME XSTACK, 25, STACK
        ARGFRAME IOVERLAY, 0, STATIC
        ARGFRAME DOVERLAY, 0, STATIC
        FUNCALL ZDSecMgrTCDataLoad, ZDSecMgrAddrStore
        LOCFRAME ISTACK, 0, STACK
        LOCFRAME PSTACK, 0, STACK
        LOCFRAME XSTACK, 27, STACK
        LOCFRAME IOVERLAY, 0, STATIC
        LOCFRAME DOVERLAY, 0, STATIC
        ARGFRAME ISTACK, 0, STACK
        ARGFRAME PSTACK, 0, STACK
        ARGFRAME XSTACK, 27, STACK
        ARGFRAME IOVERLAY, 0, STATIC
        ARGFRAME DOVERLAY, 0, STATIC
        REQUIRE ?V0
        REQUIRE ?V1
        MOV       A,#-0xa
        LCALL     ?BANKED_ENTER_XDATA
          CFI DPH0 load(1, XDATA, add(CFA_XSP16, literal(-1)))
          CFI DPL0 load(1, XDATA, add(CFA_XSP16, literal(-2)))
          CFI ?BRET_EXT load(1, XDATA, add(CFA_XSP16, literal(-3)))
          CFI ?RET_HIGH load(1, XDATA, add(CFA_XSP16, literal(-4)))
          CFI ?RET_LOW load(1, XDATA, add(CFA_XSP16, literal(-5)))
          CFI R7 load(1, XDATA, add(CFA_XSP16, literal(-6)))
          CFI V1 load(1, XDATA, add(CFA_XSP16, literal(-7)))
          CFI V0 load(1, XDATA, add(CFA_XSP16, literal(-8)))
          CFI VB load(1, XDATA, add(CFA_XSP16, literal(-9)))
          CFI R6 load(1, XDATA, add(CFA_XSP16, literal(-10)))
          CFI CFA_SP SP+0
          CFI CFA_XSP16 add(XSP16, 10)
        ; Saved register size: 10
        ; Auto size: 15
        MOV       A,#-0xf
        LCALL     ?ALLOC_XSTACK8
          CFI CFA_XSP16 add(XSP16, 25)
        MOV       A,R2
        MOV       R6,A
        MOV       A,R3
        MOV       R7,A
// 1785   uint16 ami;
// 1786   AddrMgrEntry_t entry;
// 1787 
// 1788   // lookup using TC short address
// 1789   entry.user    = ADDRMGR_USER_DEFAULT;
        MOV       A,#0x2
        LCALL     ?XSTACK_DISP0_8
        CLR       A
        MOVX      @DPTR,A
// 1790   osal_cpyExtAddr( entry.extAddr, extAddr );
        ; Setup parameters for call to function sAddrExtCpy
        MOV       A,R6
        MOV       R4,A
        MOV       A,R7
        MOV       R5,A
        MOV       A,#0x5
        LCALL     ?XSTACK_DISP0_8
        MOV       R2,DPL
        MOV       R3,DPH
        LCALL     `??sAddrExtCpy::?relay`; Banked call to: sAddrExtCpy
// 1791 
// 1792   // Verify if TC address has been added to Address Manager
// 1793   if ( !APSME_IsDistributedSecurity() && ( AddrMgrEntryLookupExt( &entry ) != TRUE ) )
        ; Setup parameters for call to function APSME_IsDistributedSecurity
        LCALL     `??APSME_IsDistributedSecurity::?relay`; Banked call to: APSME_IsDistributedSecurity
        MOV       A,R1
        JNZ       ??ZDSecMgrTCDataLoad_0
        ; Setup parameters for call to function AddrMgrEntryLookupExt
        MOV       A,#0x2
        LCALL     ?XSTACK_DISP101_8
        LCALL     `??AddrMgrEntryLookupExt::?relay`; Banked call to: AddrMgrEntryLookupExt
        MOV       A,R1
        XRL       A,#0x1
        JZ        ??ZDSecMgrTCDataLoad_0
// 1794   {
// 1795     ZDSecMgrAddrStore( APSME_TRUSTCENTER_NWKADDR, extAddr, &ami );
        ; Setup parameters for call to function ZDSecMgrAddrStore
        MOV       R0,?XSP + 0
        MOV       R1,?XSP + 1
        MOV       ?V0,R0
        MOV       ?V1,R1
        MOV       R0,#?V0
        LCALL     ?PUSH_XSTACK_I_TWO
          CFI CFA_XSP16 add(XSP16, 27)
        MOV       A,R6
        MOV       R4,A
        MOV       A,R7
        MOV       R5,A
        MOV       R2,#0x0
        MOV       R3,#0x0
        LCALL     `??ZDSecMgrAddrStore::?relay`; Banked call to: ZDSecMgrAddrStore
        MOV       A,#0x2
        LCALL     ?DEALLOC_XSTACK8
          CFI CFA_XSP16 add(XSP16, 25)
// 1796   }
// 1797 }
??ZDSecMgrTCDataLoad_0:
        MOV       A,#0xf
        LJMP      ??Subroutine54_0 & 0xFFFF
          CFI EndBlock cfiBlock245
// 1798 
// 1799 /******************************************************************************
// 1800  * @fn          ZDSecMgrTransportKeyInd
// 1801  *
// 1802  * @brief       Process the ZDO_TransportKeyInd_t message.
// 1803  *
// 1804  * @param       ind - [in] ZDO_TransportKeyInd_t indication
// 1805  *
// 1806  * @return      none
// 1807  */

        RSEG BANKED_CODE:HUGECODE:NOROOT(0)
// 1808 void ZDSecMgrTransportKeyInd( ZDO_TransportKeyInd_t* ind )
ZDSecMgrTransportKeyInd:
          CFI Block cfiBlock246 Using cfiCommon0
          CFI Function ZDSecMgrTransportKeyInd
        CODE
// 1809 {
        FUNCALL ZDSecMgrTransportKeyInd, ZDSecMgrUpdateTCAddress
        LOCFRAME ISTACK, 0, STACK
        LOCFRAME PSTACK, 0, STACK
        LOCFRAME XSTACK, 50, STACK
        LOCFRAME IOVERLAY, 0, STATIC
        LOCFRAME DOVERLAY, 0, STATIC
        ARGFRAME ISTACK, 0, STACK
        ARGFRAME PSTACK, 0, STACK
        ARGFRAME XSTACK, 50, STACK
        ARGFRAME IOVERLAY, 0, STATIC
        ARGFRAME DOVERLAY, 0, STATIC
        FUNCALL ZDSecMgrTransportKeyInd, osal_nv_write
        LOCFRAME ISTACK, 0, STACK
        LOCFRAME PSTACK, 0, STACK
        LOCFRAME XSTACK, 54, STACK
        LOCFRAME IOVERLAY, 0, STATIC
        LOCFRAME DOVERLAY, 0, STATIC
        ARGFRAME ISTACK, 0, STACK
        ARGFRAME PSTACK, 0, STACK
        ARGFRAME XSTACK, 54, STACK
        ARGFRAME IOVERLAY, 0, STATIC
        ARGFRAME DOVERLAY, 0, STATIC
        FUNCALL ZDSecMgrTransportKeyInd, ZDSecMgrTCDataLoad
        LOCFRAME ISTACK, 0, STACK
        LOCFRAME PSTACK, 0, STACK
        LOCFRAME XSTACK, 50, STACK
        LOCFRAME IOVERLAY, 0, STATIC
        LOCFRAME DOVERLAY, 0, STATIC
        ARGFRAME ISTACK, 0, STACK
        ARGFRAME PSTACK, 0, STACK
        ARGFRAME XSTACK, 50, STACK
        ARGFRAME IOVERLAY, 0, STATIC
        ARGFRAME DOVERLAY, 0, STATIC
        FUNCALL ZDSecMgrTransportKeyInd, ZDSecMgrReadKeyFromNv
        LOCFRAME ISTACK, 0, STACK
        LOCFRAME PSTACK, 0, STACK
        LOCFRAME XSTACK, 50, STACK
        LOCFRAME IOVERLAY, 0, STATIC
        LOCFRAME DOVERLAY, 0, STATIC
        ARGFRAME ISTACK, 0, STACK
        ARGFRAME PSTACK, 0, STACK
        ARGFRAME XSTACK, 50, STACK
        ARGFRAME IOVERLAY, 0, STATIC
        ARGFRAME DOVERLAY, 0, STATIC
        FUNCALL ZDSecMgrTransportKeyInd, SSP_UpdateNwkKey
        LOCFRAME ISTACK, 0, STACK
        LOCFRAME PSTACK, 0, STACK
        LOCFRAME XSTACK, 50, STACK
        LOCFRAME IOVERLAY, 0, STATIC
        LOCFRAME DOVERLAY, 0, STATIC
        ARGFRAME ISTACK, 0, STACK
        ARGFRAME PSTACK, 0, STACK
        ARGFRAME XSTACK, 50, STACK
        ARGFRAME IOVERLAY, 0, STATIC
        ARGFRAME DOVERLAY, 0, STATIC
        FUNCALL ZDSecMgrTransportKeyInd, SSP_SwitchNwkKey
        LOCFRAME ISTACK, 0, STACK
        LOCFRAME PSTACK, 0, STACK
        LOCFRAME XSTACK, 50, STACK
        LOCFRAME IOVERLAY, 0, STATIC
        LOCFRAME DOVERLAY, 0, STATIC
        ARGFRAME ISTACK, 0, STACK
        ARGFRAME PSTACK, 0, STACK
        ARGFRAME XSTACK, 50, STACK
        ARGFRAME IOVERLAY, 0, STATIC
        ARGFRAME DOVERLAY, 0, STATIC
        FUNCALL ZDSecMgrTransportKeyInd, osal_memset
        LOCFRAME ISTACK, 0, STACK
        LOCFRAME PSTACK, 0, STACK
        LOCFRAME XSTACK, 50, STACK
        LOCFRAME IOVERLAY, 0, STATIC
        LOCFRAME DOVERLAY, 0, STATIC
        ARGFRAME ISTACK, 0, STACK
        ARGFRAME PSTACK, 0, STACK
        ARGFRAME XSTACK, 50, STACK
        ARGFRAME IOVERLAY, 0, STATIC
        ARGFRAME DOVERLAY, 0, STATIC
        FUNCALL ZDSecMgrTransportKeyInd, SSP_UpdateNwkKey
        LOCFRAME ISTACK, 0, STACK
        LOCFRAME PSTACK, 0, STACK
        LOCFRAME XSTACK, 50, STACK
        LOCFRAME IOVERLAY, 0, STATIC
        LOCFRAME DOVERLAY, 0, STATIC
        ARGFRAME ISTACK, 0, STACK
        ARGFRAME PSTACK, 0, STACK
        ARGFRAME XSTACK, 50, STACK
        ARGFRAME IOVERLAY, 0, STATIC
        ARGFRAME DOVERLAY, 0, STATIC
        FUNCALL ZDSecMgrTransportKeyInd, SSP_SwitchNwkKey
        LOCFRAME ISTACK, 0, STACK
        LOCFRAME PSTACK, 0, STACK
        LOCFRAME XSTACK, 50, STACK
        LOCFRAME IOVERLAY, 0, STATIC
        LOCFRAME DOVERLAY, 0, STATIC
        ARGFRAME ISTACK, 0, STACK
        ARGFRAME PSTACK, 0, STACK
        ARGFRAME XSTACK, 50, STACK
        ARGFRAME IOVERLAY, 0, STATIC
        ARGFRAME DOVERLAY, 0, STATIC
        FUNCALL ZDSecMgrTransportKeyInd, ZDSecMgrAuthNwkKey
        LOCFRAME ISTACK, 0, STACK
        LOCFRAME PSTACK, 0, STACK
        LOCFRAME XSTACK, 50, STACK
        LOCFRAME IOVERLAY, 0, STATIC
        LOCFRAME DOVERLAY, 0, STATIC
        ARGFRAME ISTACK, 0, STACK
        ARGFRAME PSTACK, 0, STACK
        ARGFRAME XSTACK, 50, STACK
        ARGFRAME IOVERLAY, 0, STATIC
        ARGFRAME DOVERLAY, 0, STATIC
        FUNCALL ZDSecMgrTransportKeyInd, APSME_SearchTCLinkKeyEntry
        LOCFRAME ISTACK, 0, STACK
        LOCFRAME PSTACK, 0, STACK
        LOCFRAME XSTACK, 52, STACK
        LOCFRAME IOVERLAY, 0, STATIC
        LOCFRAME DOVERLAY, 0, STATIC
        ARGFRAME ISTACK, 0, STACK
        ARGFRAME PSTACK, 0, STACK
        ARGFRAME XSTACK, 52, STACK
        ARGFRAME IOVERLAY, 0, STATIC
        ARGFRAME DOVERLAY, 0, STATIC
        FUNCALL ZDSecMgrTransportKeyInd, APSME_EraseICEntry
        LOCFRAME ISTACK, 0, STACK
        LOCFRAME PSTACK, 0, STACK
        LOCFRAME XSTACK, 50, STACK
        LOCFRAME IOVERLAY, 0, STATIC
        LOCFRAME DOVERLAY, 0, STATIC
        ARGFRAME ISTACK, 0, STACK
        ARGFRAME PSTACK, 0, STACK
        ARGFRAME XSTACK, 50, STACK
        ARGFRAME IOVERLAY, 0, STATIC
        ARGFRAME DOVERLAY, 0, STATIC
        FUNCALL ZDSecMgrTransportKeyInd, osal_nv_write
        LOCFRAME ISTACK, 0, STACK
        LOCFRAME PSTACK, 0, STACK
        LOCFRAME XSTACK, 54, STACK
        LOCFRAME IOVERLAY, 0, STATIC
        LOCFRAME DOVERLAY, 0, STATIC
        ARGFRAME ISTACK, 0, STACK
        ARGFRAME PSTACK, 0, STACK
        ARGFRAME XSTACK, 54, STACK
        ARGFRAME IOVERLAY, 0, STATIC
        ARGFRAME DOVERLAY, 0, STATIC
        FUNCALL ZDSecMgrTransportKeyInd, osal_nv_item_init
        LOCFRAME ISTACK, 0, STACK
        LOCFRAME PSTACK, 0, STACK
        LOCFRAME XSTACK, 52, STACK
        LOCFRAME IOVERLAY, 0, STATIC
        LOCFRAME DOVERLAY, 0, STATIC
        ARGFRAME ISTACK, 0, STACK
        ARGFRAME PSTACK, 0, STACK
        ARGFRAME XSTACK, 52, STACK
        ARGFRAME IOVERLAY, 0, STATIC
        ARGFRAME DOVERLAY, 0, STATIC
        FUNCALL ZDSecMgrTransportKeyInd, osal_nv_write
        LOCFRAME ISTACK, 0, STACK
        LOCFRAME PSTACK, 0, STACK
        LOCFRAME XSTACK, 54, STACK
        LOCFRAME IOVERLAY, 0, STATIC
        LOCFRAME DOVERLAY, 0, STATIC
        ARGFRAME ISTACK, 0, STACK
        ARGFRAME PSTACK, 0, STACK
        ARGFRAME XSTACK, 54, STACK
        ARGFRAME IOVERLAY, 0, STATIC
        ARGFRAME DOVERLAY, 0, STATIC
        FUNCALL ZDSecMgrTransportKeyInd, bdb_tcLinkKeyExchangeAttempt
        LOCFRAME ISTACK, 0, STACK
        LOCFRAME PSTACK, 0, STACK
        LOCFRAME XSTACK, 50, STACK
        LOCFRAME IOVERLAY, 0, STATIC
        LOCFRAME DOVERLAY, 0, STATIC
        ARGFRAME ISTACK, 0, STACK
        ARGFRAME PSTACK, 0, STACK
        ARGFRAME XSTACK, 50, STACK
        ARGFRAME IOVERLAY, 0, STATIC
        ARGFRAME DOVERLAY, 0, STATIC
        REQUIRE ?V0
        REQUIRE ?V1
        REQUIRE ?V2
        REQUIRE ?V3
        REQUIRE ?V4
        REQUIRE ?V5
        MOV       A,#-0xe
        LCALL     ?BANKED_ENTER_XDATA
          CFI DPH0 load(1, XDATA, add(CFA_XSP16, literal(-1)))
          CFI DPL0 load(1, XDATA, add(CFA_XSP16, literal(-2)))
          CFI ?BRET_EXT load(1, XDATA, add(CFA_XSP16, literal(-3)))
          CFI ?RET_HIGH load(1, XDATA, add(CFA_XSP16, literal(-4)))
          CFI ?RET_LOW load(1, XDATA, add(CFA_XSP16, literal(-5)))
          CFI R7 load(1, XDATA, add(CFA_XSP16, literal(-6)))
          CFI V5 load(1, XDATA, add(CFA_XSP16, literal(-7)))
          CFI V4 load(1, XDATA, add(CFA_XSP16, literal(-8)))
          CFI V3 load(1, XDATA, add(CFA_XSP16, literal(-9)))
          CFI V2 load(1, XDATA, add(CFA_XSP16, literal(-10)))
          CFI V1 load(1, XDATA, add(CFA_XSP16, literal(-11)))
          CFI V0 load(1, XDATA, add(CFA_XSP16, literal(-12)))
          CFI VB load(1, XDATA, add(CFA_XSP16, literal(-13)))
          CFI R6 load(1, XDATA, add(CFA_XSP16, literal(-14)))
          CFI CFA_SP SP+0
          CFI CFA_XSP16 add(XSP16, 14)
        ; Saved register size: 14
        ; Auto size: 36
        MOV       A,#-0x24
        LCALL     ?ALLOC_XSTACK8
          CFI CFA_XSP16 add(XSP16, 50)
        MOV       A,R2
        MOV       R6,A
        MOV       A,R3
        MOV       R7,A
// 1810   uint8 index;
// 1811   uint8 zgPreConfigKey[SEC_KEY_LEN];
// 1812 
// 1813   ZDSecMgrUpdateTCAddress( ind->srcExtAddr );
        MOV       A,R6
        ADD       A,#0x16
        MOV       ?V2,A
        CLR       A
        ADDC      A,R7
        MOV       ?V3,A
        ; Setup parameters for call to function ZDSecMgrUpdateTCAddress
        MOV       R2,?V2
        MOV       R3,A
        LCALL     `??ZDSecMgrUpdateTCAddress::?relay`; Banked call to: ZDSecMgrUpdateTCAddress
// 1814   
// 1815 #if ZG_BUILD_JOINING_TYPE
// 1816   if(ZG_DEVICE_JOINING_TYPE)
        MOV       DPTR,#zgDeviceLogicalType
        MOVX      A,@DPTR
        XRL       A,#0x1
        JZ        ??ZDSecMgrTransportKeyInd_0
        MOVX      A,@DPTR
        XRL       A,#0x2
        JNZ       ??ZDSecMgrTransportKeyInd_1
// 1817   {
// 1818     //Update the TC address in the entry
// 1819     osal_nv_write(ZCD_NV_TCLK_TABLE_START, osal_offsetof(APSME_TCLKDevEntry_t,extAddr), Z_EXTADDR_LEN, ind->srcExtAddr);
??ZDSecMgrTransportKeyInd_0:
        ; Setup parameters for call to function osal_nv_write
        MOV       R0,#?V2
        LCALL     ?PUSH_XSTACK_I_TWO
          CFI CFA_XSP16 add(XSP16, 52)
        MOV       ?V0,#0x8
        MOV       ?V1,#0x0
        MOV       R0,#?V0
        LCALL     ?PUSH_XSTACK_I_TWO
          CFI CFA_XSP16 add(XSP16, 54)
        MOV       R4,#0x8
        MOV       R5,#0x0
        MOV       R2,#0x11
        MOV       R3,#0x1
        LCALL     `??osal_nv_write::?relay`; Banked call to: osal_nv_write
        MOV       A,#0x4
        LCALL     ?DEALLOC_XSTACK8
          CFI CFA_XSP16 add(XSP16, 50)
// 1820   }
// 1821 #endif
// 1822   
// 1823   // check for distributed security
// 1824   if ( ( ZG_BUILD_RTR_TYPE ) && osal_isbufset( ind->srcExtAddr, 0xFF, Z_EXTADDR_LEN ) )
// 1825   {
// 1826     ZDSecMgrPermitJoiningEnabled = TRUE;  
// 1827   }
// 1828   
// 1829   // load Trust Center data if needed
// 1830   ZDSecMgrTCDataLoad( ind->srcExtAddr );
??ZDSecMgrTransportKeyInd_1:
        ; Setup parameters for call to function ZDSecMgrTCDataLoad
        MOV       R2,?V2
        MOV       R3,?V3
        LCALL     `??ZDSecMgrTCDataLoad::?relay`; Banked call to: ZDSecMgrTCDataLoad
// 1831   
// 1832   if ( ( ind->keyType == KEY_TYPE_NWK ) ||
// 1833        ( ind->keyType == 6            ) )
        MOV       DPL,R6
        MOV       DPH,R7
        INC       DPTR
        INC       DPTR
        INC       DPTR
        INC       DPTR
        MOVX      A,@DPTR
        MOV       R0,A
        MOV       A,R6
        ADD       A,#0x6
        MOV       ?V0,A
        CLR       A
        ADDC      A,R7
        MOV       ?V1,A
        MOV       A,#0x1
        XRL       A,R0
        JZ        ??ZDSecMgrTransportKeyInd_2
        MOV       A,#0x6
        XRL       A,R0
        JNZ       ??ZDSecMgrTransportKeyInd_3
// 1834   {
// 1835     // check for dummy NWK key (all zeros)
// 1836     for ( index = 0;
??ZDSecMgrTransportKeyInd_2:
        MOV       R0,#0x0
??ZDSecMgrTransportKeyInd_4:
        MOV       A,R0
        MOV       R2,A
        MOV       A,R6
        ADD       A,R2
        MOV       DPL,A
        CLR       A
        ADDC      A,R7
        MOV       DPH,A
        INC       DPTR
        INC       DPTR
        INC       DPTR
        INC       DPTR
        INC       DPTR
        INC       DPTR
        MOVX      A,@DPTR
        JNZ       ??ZDSecMgrTransportKeyInd_5
// 1837           ( (index < SEC_KEY_LEN) && (ind->key[index] == 0) );
// 1838           index++ );
        INC       R0
        MOV       A,R0
        CLR       C
        SUBB      A,#0x10
        JC        ??ZDSecMgrTransportKeyInd_4
// 1839 
// 1840     if ( index == SEC_KEY_LEN )
??ZDSecMgrTransportKeyInd_5:
        MOV       A,#0x10
        XRL       A,R0
        JNZ       ??ZDSecMgrTransportKeyInd_6
// 1841     {
// 1842       // load preconfigured key - once!!
// 1843       if ( !_NIB.nwkKeyLoaded )
        MOV       DPTR,#_NIB + 61
        MOVX      A,@DPTR
        JNZ       ??ZDSecMgrTransportKeyInd_7
// 1844       {
// 1845         ZDSecMgrReadKeyFromNv(ZCD_NV_PRECFGKEY, zgPreConfigKey);
        ; Setup parameters for call to function ZDSecMgrReadKeyFromNv
        MOV       A,#0x14
        LCALL     ?XSTACK_DISP102_8
        MOV       R2,#0x62
        MOV       R3,#0x0
        LCALL     `??ZDSecMgrReadKeyFromNv::?relay`; Banked call to: ZDSecMgrReadKeyFromNv
// 1846         SSP_UpdateNwkKey( zgPreConfigKey, 0 );
        ; Setup parameters for call to function SSP_UpdateNwkKey
        MOV       R1,#0x0
        MOV       A,#0x14
        LCALL     ?XSTACK_DISP101_8
        LCALL     `??SSP_UpdateNwkKey::?relay`; Banked call to: SSP_UpdateNwkKey
// 1847         SSP_SwitchNwkKey( 0 );
        ; Setup parameters for call to function SSP_SwitchNwkKey
        MOV       R1,#0x0
        LCALL     `??SSP_SwitchNwkKey::?relay`; Banked call to: SSP_SwitchNwkKey
// 1848 
// 1849         // clear local copy of key
// 1850         osal_memset(zgPreConfigKey, 0x00, SEC_KEY_LEN);
        ; Setup parameters for call to function osal_memset
        MOV       R4,#0x10
        MOV       R5,#0x0
        MOV       R1,#0x0
        MOV       A,#0x14
        LCALL     ?XSTACK_DISP101_8
        LCALL     `??osal_memset::?relay`; Banked call to: osal_memset
        SJMP      ??ZDSecMgrTransportKeyInd_7
// 1851       }
// 1852     }
// 1853     else
// 1854     {
// 1855       SSP_UpdateNwkKey( ind->key, ind->keySeqNum );
??ZDSecMgrTransportKeyInd_6:
        LCALL     ?Subroutine37 & 0xFFFF
??CrossCallReturnLabel_40:
        MOV       R1,A
        MOV       R2,?V0
        MOV       R3,?V1
        LCALL     `??SSP_UpdateNwkKey::?relay`; Banked call to: SSP_UpdateNwkKey
// 1856       if ( !_NIB.nwkKeyLoaded )
        MOV       DPTR,#_NIB + 61
        MOVX      A,@DPTR
        JNZ       ??ZDSecMgrTransportKeyInd_7
// 1857       {
// 1858         SSP_SwitchNwkKey( ind->keySeqNum );
        ; Setup parameters for call to function SSP_SwitchNwkKey
        MOV       DPL,R6
        MOV       DPH,R7
        MOVX      A,@DPTR
        MOV       R1,A
        LCALL     `??SSP_SwitchNwkKey::?relay`; Banked call to: SSP_SwitchNwkKey
// 1859       }
// 1860     }
// 1861 
// 1862     // handle next step in authentication process
// 1863     ZDSecMgrAuthNwkKey();
??ZDSecMgrTransportKeyInd_7:
        ; Setup parameters for call to function ZDSecMgrAuthNwkKey
        LCALL     `??ZDSecMgrAuthNwkKey::?relay`; Banked call to: ZDSecMgrAuthNwkKey
        LJMP      ??ZDSecMgrTransportKeyInd_8 & 0xFFFF
// 1864   }
// 1865   else if ( ind->keyType == KEY_TYPE_TC_LINK )
??ZDSecMgrTransportKeyInd_3:
        MOV       A,#0x4
        XRL       A,R0
        JZ        $+5
        LJMP      ??ZDSecMgrTransportKeyInd_8 & 0xFFFF
// 1866   {
// 1867     uint16 entryIndex;
// 1868     uint8 found;
// 1869     APSME_TCLKDevEntry_t TCLKDevEntry;
// 1870     
// 1871     //Search the entry, which should exist at this point
// 1872     entryIndex = APSME_SearchTCLinkKeyEntry(ind->srcExtAddr, &found, &TCLKDevEntry);
        ; Setup parameters for call to function APSME_SearchTCLinkKeyEntry
        MOV       A,#0x1
        LCALL     ?XSTACK_DISP100_8
        MOV       ?V4,R0
        MOV       ?V5,R1
        MOV       R0,#?V4
        LCALL     ?PUSH_XSTACK_I_TWO
          CFI CFA_XSP16 add(XSP16, 52)
        MOV       A,#0x2
        LCALL     ?XSTACK_DISP102_8
        MOV       R2,?V2
        MOV       R3,?V3
        LCALL     `??APSME_SearchTCLinkKeyEntry::?relay`; Banked call to: APSME_SearchTCLinkKeyEntry
        MOV       A,#0x2
        LCALL     ?DEALLOC_XSTACK8
          CFI CFA_XSP16 add(XSP16, 50)
        MOV       ?V2,R2
        MOV       ?V3,R3
        MOV       R6,?V2
        MOV       R7,?V3
// 1873     
// 1874     if(found)
        MOV       DPL,?XSP + 0
        MOV       DPH,?XSP + 1
        MOVX      A,@DPTR
        JNZ       $+5
        LJMP      ??ZDSecMgrTransportKeyInd_8 & 0xFFFF
// 1875     {
// 1876       //If the key was an IC, then erase the entry since that will not longer be used.
// 1877       if(TCLKDevEntry.keyAttributes == ZG_PROVISIONAL_KEY)
        MOV       A,#0x11
        LCALL     ?XSTACK_DISP0_8
        MOVX      A,@DPTR
        JNZ       ??ZDSecMgrTransportKeyInd_9
// 1878       {
// 1879         APSME_EraseICEntry(&TCLKDevEntry.SeedShift_IcIndex);
        ; Setup parameters for call to function APSME_EraseICEntry
        MOV       A,#0x13
        LCALL     ?XSTACK_DISP0_8
        MOV       R2,DPL
        MOV       R3,DPH
        LCALL     `??APSME_EraseICEntry::?relay`; Banked call to: APSME_EraseICEntry
// 1880       }
// 1881       
// 1882       TCLKDevEntry.keyAttributes = ZG_UNVERIFIED_KEY;
??ZDSecMgrTransportKeyInd_9:
        MOV       A,#0x11
        LCALL     ?XSTACK_DISP0_8
        MOV       A,#0x1
        MOVX      @DPTR,A
// 1883       TCLKDevEntry.keyType = ZG_UNIQUE_LINK_KEY;
        MOV       A,#0x12
        LCALL     ?XSTACK_DISP0_8
        CLR       A
        MOVX      @DPTR,A
// 1884       TCLKDevEntry.rxFrmCntr = 0;
        MOV       A,#0x5
        LCALL     ?XSTACK_DISP0_8
        LCALL     ?Subroutine14 & 0xFFFF
// 1885       TCLKDevEntry.txFrmCntr = 0;
??CrossCallReturnLabel_3:
        LCALL     ?XSTACK_DISP0_8
        LCALL     ??Subroutine73_0 & 0xFFFF
// 1886       TCLKDevEntry.SeedShift_IcIndex = 0;
??CrossCallReturnLabel_163:
        MOV       A,#0x13
        LCALL     ?XSTACK_DISP0_8
        CLR       A
        MOVX      @DPTR,A
// 1887       
// 1888       //Update the entry
// 1889       osal_nv_write(entryIndex,0,sizeof(APSME_TCLKDevEntry_t),&TCLKDevEntry);
        ; Setup parameters for call to function osal_nv_write
        INC       A
        LCALL     ?XSTACK_DISP100_8
        MOV       ?V2,R0
        MOV       ?V3,R1
        MOV       R0,#?V2
        LCALL     ?PUSH_XSTACK_I_TWO
          CFI CFA_XSP16 add(XSP16, 52)
        MOV       ?V2,#0x13
        MOV       ?V3,#0x0
        MOV       R0,#?V2
        LCALL     ?PUSH_XSTACK_I_TWO
          CFI CFA_XSP16 add(XSP16, 54)
        MOV       R4,#0x0
        MOV       R5,#0x0
        MOV       A,R6
        MOV       R2,A
        MOV       A,R7
        MOV       R3,A
        LCALL     `??osal_nv_write::?relay`; Banked call to: osal_nv_write
        MOV       A,#0x4
        LCALL     ?DEALLOC_XSTACK8
          CFI CFA_XSP16 add(XSP16, 50)
// 1890 
// 1891       //Create the entry for the key
// 1892       if(ZSUCCESS == osal_nv_item_init(ZCD_NV_TCLK_JOIN_DEV,SEC_KEY_LEN,ind->key) )
        ; Setup parameters for call to function osal_nv_item_init
        MOV       R0,#?V0
        LCALL     ?PUSH_XSTACK_I_TWO
          CFI CFA_XSP16 add(XSP16, 52)
        MOV       R4,#0x10
        MOV       R5,#0x0
        MOV       R2,#0x2
        MOV       R3,#0x1
        LCALL     `??osal_nv_item_init::?relay`; Banked call to: osal_nv_item_init
        MOV       A,#0x2
        LCALL     ?DEALLOC_XSTACK8
          CFI CFA_XSP16 add(XSP16, 50)
        MOV       A,R1
        JNZ       ??ZDSecMgrTransportKeyInd_10
// 1893       {
// 1894         //Or replace it if already existed
// 1895         osal_nv_write(ZCD_NV_TCLK_JOIN_DEV,0,SEC_KEY_LEN,ind->key);
        ; Setup parameters for call to function osal_nv_write
        MOV       R0,#?V0
        LCALL     ?PUSH_XSTACK_I_TWO
          CFI CFA_XSP16 add(XSP16, 52)
        MOV       ?V0,#0x10
        MOV       ?V1,#0x0
        MOV       R0,#?V0
        LCALL     ?PUSH_XSTACK_I_TWO
          CFI CFA_XSP16 add(XSP16, 54)
        MOV       R4,#0x0
        MOV       R5,#0x0
        MOV       R2,#0x2
        MOV       R3,#0x1
        LCALL     `??osal_nv_write::?relay`; Banked call to: osal_nv_write
        MOV       A,#0x4
        LCALL     ?DEALLOC_XSTACK8
          CFI CFA_XSP16 add(XSP16, 50)
// 1896       }
// 1897       
// 1898       bdb_tcLinkKeyExchangeAttempt(TRUE,BDB_REQ_VERIFY_TC_LINK_KEY);
??ZDSecMgrTransportKeyInd_10:
        ; Setup parameters for call to function bdb_tcLinkKeyExchangeAttempt
        MOV       R2,#0x3
        MOV       R1,#0x1
        LCALL     `??bdb_tcLinkKeyExchangeAttempt::?relay`; Banked call to: bdb_tcLinkKeyExchangeAttempt
// 1899     }
// 1900   }
// 1901   else if ( ind->keyType == KEY_TYPE_APP_LINK )
// 1902   {
// 1903     if ( ZG_CHECK_SECURITY_MODE == ZG_SECURITY_SE_STANDARD )
// 1904     {
// 1905       uint16           ami;
// 1906       ZDSecMgrEntry_t* entry;
// 1907 
// 1908       // get the address index
// 1909       if ( ZDSecMgrExtAddrLookup( ind->srcExtAddr, &ami ) != ZSuccess )
// 1910       {
// 1911         // store new EXT address
// 1912         ZDSecMgrAddrStore( INVALID_NODE_ADDR, ind->srcExtAddr, &ami );
// 1913         ZDP_NwkAddrReq( ind->srcExtAddr, ZDP_ADDR_REQTYPE_SINGLE, 0, 0 );
// 1914       }
// 1915 
// 1916       ZDSecMgrEntryLookupAMI( ami, &entry );
// 1917 
// 1918       if ( entry == NULL )
// 1919       {
// 1920         // get new entry
// 1921         if ( ZDSecMgrEntryNew( &entry ) == ZSuccess )
// 1922         {
// 1923           // finish setting up entry
// 1924           entry->ami = ami;
// 1925         }
// 1926       }
// 1927 
// 1928       ZDSecMgrLinkKeySet( ind->srcExtAddr, ind->key );
// 1929 
// 1930 #if defined NV_RESTORE
// 1931       ZDSecMgrWriteNV();  // Write the control record for the new established link key to NV.
// 1932 #endif
// 1933     }
// 1934   }
// 1935 }
??ZDSecMgrTransportKeyInd_8:
        MOV       A,#0x24
        LCALL     ?DEALLOC_XSTACK8
          CFI CFA_XSP16 add(XSP16, 14)
        LJMP      ?Subroutine2 & 0xFFFF
          CFI EndBlock cfiBlock246

        RSEG BANKED_CODE:HUGECODE:NOROOT(0)
?Subroutine37:
          CFI Block cfiCond247 Using cfiCommon0
          CFI Function ZDSecMgrNewDeviceEvent
          CFI Conditional ??CrossCallReturnLabel_39
          CFI R6 load(1, XDATA, add(CFA_XSP16, literal(-12)))
          CFI VB load(1, XDATA, add(CFA_XSP16, literal(-11)))
          CFI V0 load(1, XDATA, add(CFA_XSP16, literal(-10)))
          CFI V1 load(1, XDATA, add(CFA_XSP16, literal(-9)))
          CFI V2 load(1, XDATA, add(CFA_XSP16, literal(-8)))
          CFI V3 load(1, XDATA, add(CFA_XSP16, literal(-7)))
          CFI R7 load(1, XDATA, add(CFA_XSP16, literal(-6)))
          CFI ?RET_LOW load(1, XDATA, add(CFA_XSP16, literal(-5)))
          CFI ?RET_HIGH load(1, XDATA, add(CFA_XSP16, literal(-4)))
          CFI ?BRET_EXT load(1, XDATA, add(CFA_XSP16, literal(-3)))
          CFI DPL0 load(1, XDATA, add(CFA_XSP16, literal(-2)))
          CFI DPH0 load(1, XDATA, add(CFA_XSP16, literal(-1)))
          CFI CFA_SP SP+-2
          CFI CFA_XSP16 add(XSP16, 33)
          CFI Block cfiCond248 Using cfiCommon0
          CFI (cfiCond248) Function ZDSecMgrTransportKeyInd
          CFI (cfiCond248) Conditional ??CrossCallReturnLabel_40
          CFI (cfiCond248) R6 load(1, XDATA, add(CFA_XSP16, literal(-14)))
          CFI (cfiCond248) VB load(1, XDATA, add(CFA_XSP16, literal(-13)))
          CFI (cfiCond248) V0 load(1, XDATA, add(CFA_XSP16, literal(-12)))
          CFI (cfiCond248) V1 load(1, XDATA, add(CFA_XSP16, literal(-11)))
          CFI (cfiCond248) V2 load(1, XDATA, add(CFA_XSP16, literal(-10)))
          CFI (cfiCond248) V3 load(1, XDATA, add(CFA_XSP16, literal(-9)))
          CFI (cfiCond248) V4 load(1, XDATA, add(CFA_XSP16, literal(-8)))
          CFI (cfiCond248) V5 load(1, XDATA, add(CFA_XSP16, literal(-7)))
          CFI (cfiCond248) R7 load(1, XDATA, add(CFA_XSP16, literal(-6)))
          CFI (cfiCond248) ?RET_LOW load(1, XDATA, add(CFA_XSP16, literal(-5)))
          CFI (cfiCond248) ?RET_HIGH load(1, XDATA, add(CFA_XSP16, literal(-4)))
          CFI (cfiCond248) ?BRET_EXT load(1, XDATA, add(CFA_XSP16, literal(-3)))
          CFI (cfiCond248) DPL0 load(1, XDATA, add(CFA_XSP16, literal(-2)))
          CFI (cfiCond248) DPH0 load(1, XDATA, add(CFA_XSP16, literal(-1)))
          CFI (cfiCond248) CFA_SP SP+-2
          CFI (cfiCond248) CFA_XSP16 add(XSP16, 50)
          CFI Block cfiPicker249 Using cfiCommon1
          CFI (cfiPicker249) NoFunction
          CFI (cfiPicker249) Picker
        MOV       A,R6
        ADD       A,#0x5
        MOV       R0,A
        CLR       A
        ADDC      A,R7
        MOV       R1,A
        MOV       A,R0
        MOV       R6,A
        MOV       A,R1
        MOV       R7,A
        ; Setup parameters for call to function SSP_UpdateNwkKey
        MOV       DPL,R6
        MOV       DPH,R7
        MOVX      A,@DPTR
        RET
          CFI EndBlock cfiCond247
          CFI EndBlock cfiCond248
          CFI EndBlock cfiPicker249

        RSEG BANKED_CODE:HUGECODE:NOROOT(0)
?Subroutine14:
          CFI Block cfiCond250 Using cfiCommon0
          CFI Function ZDSecMgrDeviceJoinDirect
          CFI Conditional ??CrossCallReturnLabel_2
          CFI R6 load(1, XDATA, add(CFA_XSP16, literal(-12)))
          CFI VB load(1, XDATA, add(CFA_XSP16, literal(-11)))
          CFI V0 load(1, XDATA, add(CFA_XSP16, literal(-10)))
          CFI V1 load(1, XDATA, add(CFA_XSP16, literal(-9)))
          CFI V2 load(1, XDATA, add(CFA_XSP16, literal(-8)))
          CFI V3 load(1, XDATA, add(CFA_XSP16, literal(-7)))
          CFI R7 load(1, XDATA, add(CFA_XSP16, literal(-6)))
          CFI ?RET_LOW load(1, XDATA, add(CFA_XSP16, literal(-5)))
          CFI ?RET_HIGH load(1, XDATA, add(CFA_XSP16, literal(-4)))
          CFI ?BRET_EXT load(1, XDATA, add(CFA_XSP16, literal(-3)))
          CFI DPL0 load(1, XDATA, add(CFA_XSP16, literal(-2)))
          CFI DPH0 load(1, XDATA, add(CFA_XSP16, literal(-1)))
          CFI CFA_SP SP+-2
          CFI CFA_XSP16 add(XSP16, 32)
          CFI Block cfiCond251 Using cfiCommon0
          CFI (cfiCond251) Function ZDSecMgrTransportKeyInd
          CFI (cfiCond251) Conditional ??CrossCallReturnLabel_3
          CFI (cfiCond251) R6 load(1, XDATA, add(CFA_XSP16, literal(-14)))
          CFI (cfiCond251) VB load(1, XDATA, add(CFA_XSP16, literal(-13)))
          CFI (cfiCond251) V0 load(1, XDATA, add(CFA_XSP16, literal(-12)))
          CFI (cfiCond251) V1 load(1, XDATA, add(CFA_XSP16, literal(-11)))
          CFI (cfiCond251) V2 load(1, XDATA, add(CFA_XSP16, literal(-10)))
          CFI (cfiCond251) V3 load(1, XDATA, add(CFA_XSP16, literal(-9)))
          CFI (cfiCond251) V4 load(1, XDATA, add(CFA_XSP16, literal(-8)))
          CFI (cfiCond251) V5 load(1, XDATA, add(CFA_XSP16, literal(-7)))
          CFI (cfiCond251) R7 load(1, XDATA, add(CFA_XSP16, literal(-6)))
          CFI (cfiCond251) ?RET_LOW load(1, XDATA, add(CFA_XSP16, literal(-5)))
          CFI (cfiCond251) ?RET_HIGH load(1, XDATA, add(CFA_XSP16, literal(-4)))
          CFI (cfiCond251) ?BRET_EXT load(1, XDATA, add(CFA_XSP16, literal(-3)))
          CFI (cfiCond251) DPL0 load(1, XDATA, add(CFA_XSP16, literal(-2)))
          CFI (cfiCond251) DPH0 load(1, XDATA, add(CFA_XSP16, literal(-1)))
          CFI (cfiCond251) CFA_SP SP+-2
          CFI (cfiCond251) CFA_XSP16 add(XSP16, 50)
          CFI Block cfiCond252 Using cfiCommon0
          CFI (cfiCond252) Function APSME_TCLinkKeyLoad
          CFI (cfiCond252) Conditional ??CrossCallReturnLabel_4
          CFI (cfiCond252) R6 load(1, XDATA, add(CFA_XSP16, literal(-18)))
          CFI (cfiCond252) VB load(1, XDATA, add(CFA_XSP16, literal(-17)))
          CFI (cfiCond252) V0 load(1, XDATA, add(CFA_XSP16, literal(-16)))
          CFI (cfiCond252) V1 load(1, XDATA, add(CFA_XSP16, literal(-15)))
          CFI (cfiCond252) V2 load(1, XDATA, add(CFA_XSP16, literal(-14)))
          CFI (cfiCond252) V3 load(1, XDATA, add(CFA_XSP16, literal(-13)))
          CFI (cfiCond252) V4 load(1, XDATA, add(CFA_XSP16, literal(-12)))
          CFI (cfiCond252) V5 load(1, XDATA, add(CFA_XSP16, literal(-11)))
          CFI (cfiCond252) V6 load(1, XDATA, add(CFA_XSP16, literal(-10)))
          CFI (cfiCond252) V7 load(1, XDATA, add(CFA_XSP16, literal(-9)))
          CFI (cfiCond252) V8 load(1, XDATA, add(CFA_XSP16, literal(-8)))
          CFI (cfiCond252) V9 load(1, XDATA, add(CFA_XSP16, literal(-7)))
          CFI (cfiCond252) R7 load(1, XDATA, add(CFA_XSP16, literal(-6)))
          CFI (cfiCond252) ?RET_LOW load(1, XDATA, add(CFA_XSP16, literal(-5)))
          CFI (cfiCond252) ?RET_HIGH load(1, XDATA, add(CFA_XSP16, literal(-4)))
          CFI (cfiCond252) ?BRET_EXT load(1, XDATA, add(CFA_XSP16, literal(-3)))
          CFI (cfiCond252) DPL0 load(1, XDATA, add(CFA_XSP16, literal(-2)))
          CFI (cfiCond252) DPH0 load(1, XDATA, add(CFA_XSP16, literal(-1)))
          CFI (cfiCond252) CFA_SP SP+-2
          CFI (cfiCond252) CFA_XSP16 add(XSP16, 51)
          CFI Block cfiPicker253 Using cfiCommon1
          CFI (cfiPicker253) NoFunction
          CFI (cfiPicker253) Picker
        CLR       A
        LCALL     ?Subroutine42 & 0xFFFF
??CrossCallReturnLabel_171:
        MOVX      @DPTR,A
        ; Setup parameters for call to function osal_nv_write
        INC       A
        RET
          CFI EndBlock cfiCond250
          CFI EndBlock cfiCond251
          CFI EndBlock cfiCond252
          CFI EndBlock cfiPicker253
// 1936 
// 1937 /******************************************************************************
// 1938  * @fn          ZDSecMgrUpdateDeviceInd
// 1939  *
// 1940  * @brief       Process the ZDO_UpdateDeviceInd_t message.
// 1941  *
// 1942  * @param       ind - [in] ZDO_UpdateDeviceInd_t indication
// 1943  *
// 1944  * @return      none
// 1945  */

        RSEG BANKED_CODE:HUGECODE:NOROOT(0)
// 1946 void ZDSecMgrUpdateDeviceInd( ZDO_UpdateDeviceInd_t* ind )
ZDSecMgrUpdateDeviceInd:
          CFI Block cfiBlock254 Using cfiCommon0
          CFI Function ZDSecMgrUpdateDeviceInd
        CODE
// 1947 {
        FUNCALL ZDSecMgrUpdateDeviceInd, ZDSecMgrDeviceJoin
        LOCFRAME ISTACK, 2, STACK
        LOCFRAME PSTACK, 0, STACK
        LOCFRAME XSTACK, 8, STACK
        LOCFRAME IOVERLAY, 0, STATIC
        LOCFRAME DOVERLAY, 0, STATIC
        ARGFRAME ISTACK, 2, STACK
        ARGFRAME PSTACK, 0, STACK
        ARGFRAME XSTACK, 8, STACK
        ARGFRAME IOVERLAY, 0, STATIC
        ARGFRAME DOVERLAY, 0, STATIC
        PUSH      DPL
          CFI DPL0 Frame(CFA_SP, 4)
          CFI CFA_SP SP+-4
        PUSH      DPH
          CFI DPH0 Frame(CFA_SP, 5)
          CFI CFA_SP SP+-5
        ; Saved register size: 2
        ; Auto size: 8
        MOV       A,#-0x8
        LCALL     ?ALLOC_XSTACK8
          CFI CFA_XSP16 add(XSP16, 8)
// 1948   ZDSecMgrDevice_t device;
// 1949 
// 1950   device.nwkAddr    = ind->devAddr;
        MOV       A,R2
        ADD       A,#0xc
        MOV       DPL,A
        CLR       A
        ADDC      A,R3
        MOV       DPH,A
        LCALL     ?Subroutine22 & 0xFFFF
// 1951   device.extAddr    = ind->devExtAddr;
??CrossCallReturnLabel_118:
        MOV       A,R2
        ADD       A,#0x4
        MOV       R0,A
        CLR       A
        ADDC      A,R3
        MOV       R1,A
        MOV       A,#0x2
        LCALL     ?XSTACK_DISP0_8
        LCALL     ?Subroutine12 & 0xFFFF
// 1952   device.parentAddr = ind->srcAddr;
??CrossCallReturnLabel_1:
        LCALL     ?XSTACK_DISP0_8
        LCALL     ??Subroutine59_0 & 0xFFFF
// 1953   device.devStatus  = DEV_SEC_INIT_STATUS;
??CrossCallReturnLabel_112:
        MOV       A,#0x7
        LCALL     ?XSTACK_DISP0_8
        MOV       A,#0x4
        MOVX      @DPTR,A
// 1954   device.secure     = FALSE;
        MOV       A,#0x6
        LCALL     ?XSTACK_DISP0_8
        CLR       A
        MOVX      @DPTR,A
// 1955 
// 1956   // Trust Center should identify the type of JOIN/REJOIN and
// 1957   // Transport the NWK key accordingly, it will only be transported for:
// 1958   //              APSME_UD_STANDARD_UNSECURED_JOIN
// 1959   //   OR         APSME_UD_STANDARD_TRUST_CENTER_REJOIN
// 1960   if ( ind->status != APSME_UD_DEVICE_LEFT )
        MOV       A,R2
        ADD       A,#0xe
        MOV       DPL,A
        CLR       A
        ADDC      A,R3
        MOV       DPH,A
        MOVX      A,@DPTR
        MOV       R0,A
        MOV       A,#0x2
        XRL       A,R0
        JZ        ??ZDSecMgrUpdateDeviceInd_0
// 1961   {
// 1962     if ( ind->status == APSME_UD_STANDARD_SECURED_REJOIN )
        MOV       A,R0
        JNZ       ??ZDSecMgrUpdateDeviceInd_1
// 1963     {
// 1964       device.devStatus &= ~DEV_SEC_INIT_STATUS;
// 1965       device.devStatus |=  DEV_SEC_AUTH_STATUS;
        MOV       A,#0x7
        LCALL     ?XSTACK_DISP0_8
        MOV       A,#0x8
        MOVX      @DPTR,A
// 1966       device.secure = TRUE;
        MOV       A,#0x6
        LCALL     ?XSTACK_DISP0_8
        MOV       A,#0x1
        MOVX      @DPTR,A
// 1967     }
// 1968     else
// 1969     {
// 1970 #if (ZG_BUILD_COORDINATOR_TYPE)
// 1971       uint8  found;
// 1972       uint16 keyNvIndex;
// 1973       APSME_TCLKDevEntry_t TCLKDevEntry;
// 1974       
// 1975       keyNvIndex = APSME_SearchTCLinkKeyEntry(device.extAddr,&found, &TCLKDevEntry);
// 1976       
// 1977       //If found and it was verified, then allow it to join in a fresh state by erasing the key entry
// 1978       if((found == TRUE) && (TCLKDevEntry.keyAttributes == ZG_VERIFIED_KEY))
// 1979       {
// 1980         TCLKDevEntry.keyAttributes = ZG_DEFAULT_KEY;
// 1981         //Increase the shift by one. Validate the maximum shift of the seed which is 15
// 1982         TCLKDevEntry.SeedShift_IcIndex++;
// 1983         TCLKDevEntry.SeedShift_IcIndex &= 0x0F;
// 1984         
// 1985         TCLKDevEntry.rxFrmCntr = 0;
// 1986         TCLKDevEntry.txFrmCntr = 0;  
// 1987         
// 1988         //Update the entry
// 1989         osal_nv_write(keyNvIndex,0,sizeof(APSME_TCLKDevEntry_t), &TCLKDevEntry );
// 1990       }
// 1991       
// 1992       bdb_TCAddJoiningDevice(device.parentAddr,device.extAddr);
// 1993 #endif
// 1994     
// 1995     }
// 1996 
// 1997     ZDSecMgrDeviceJoin( &device );
??ZDSecMgrUpdateDeviceInd_1:
        ; Setup parameters for call to function ZDSecMgrDeviceJoin
        MOV       R2,?XSP + 0
        MOV       R3,?XSP + 1
        LCALL     `??ZDSecMgrDeviceJoin::?relay`; Banked call to: ZDSecMgrDeviceJoin
// 1998   }
// 1999 }
??ZDSecMgrUpdateDeviceInd_0:
          CFI EndBlock cfiBlock254
        REQUIRE ?Subroutine9
        ; // Fall through to label ?Subroutine9

        RSEG BANKED_CODE:HUGECODE:NOROOT(0)
?Subroutine9:
          CFI Block cfiBlock255 Using cfiCommon0
          CFI NoFunction
          CFI CFA_SP SP+-5
          CFI CFA_XSP16 add(XSP16, 8)
          CFI DPL0 Frame(CFA_SP, 4)
          CFI DPH0 Frame(CFA_SP, 5)
        MOV       A,#0x8
          CFI EndBlock cfiBlock255
        REQUIRE ??Subroutine64_0
        ; // Fall through to label ??Subroutine64_0

        RSEG BANKED_CODE:HUGECODE:NOROOT(0)
??Subroutine64_0:
          CFI Block cfiBlock256 Using cfiCommon0
          CFI NoFunction
          CFI CFA_SP SP+-5
          CFI CFA_XSP16 add(XSP16, 4)
          CFI DPL0 Frame(CFA_SP, 4)
          CFI DPH0 Frame(CFA_SP, 5)
          CFI Invalid
        LCALL     ?DEALLOC_XSTACK8
          CFI CFA_XSP16 XSP16+0
          CFI Valid
        LJMP      ??Subroutine60_0 & 0xFFFF
          CFI EndBlock cfiBlock256

        RSEG BANKED_CODE:HUGECODE:NOROOT(0)
?Subroutine12:
          CFI Block cfiCond257 Using cfiCommon0
          CFI Function ZDSecMgrDeviceJoinFwd
          CFI Conditional ??CrossCallReturnLabel_0
          CFI R6 load(1, XDATA, add(CFA_XSP16, literal(-10)))
          CFI VB load(1, XDATA, add(CFA_XSP16, literal(-9)))
          CFI V0 load(1, XDATA, add(CFA_XSP16, literal(-8)))
          CFI V1 load(1, XDATA, add(CFA_XSP16, literal(-7)))
          CFI R7 load(1, XDATA, add(CFA_XSP16, literal(-6)))
          CFI ?RET_LOW load(1, XDATA, add(CFA_XSP16, literal(-5)))
          CFI ?RET_HIGH load(1, XDATA, add(CFA_XSP16, literal(-4)))
          CFI ?BRET_EXT load(1, XDATA, add(CFA_XSP16, literal(-3)))
          CFI DPL0 load(1, XDATA, add(CFA_XSP16, literal(-2)))
          CFI DPH0 load(1, XDATA, add(CFA_XSP16, literal(-1)))
          CFI CFA_SP SP+-2
          CFI CFA_XSP16 add(XSP16, 18)
          CFI Block cfiCond258 Using cfiCommon0
          CFI (cfiCond258) Function ZDSecMgrUpdateDeviceInd
          CFI (cfiCond258) Conditional ??CrossCallReturnLabel_1
          CFI (cfiCond258) DPL0 Frame(CFA_SP, 4)
          CFI (cfiCond258) DPH0 Frame(CFA_SP, 5)
          CFI (cfiCond258) CFA_SP SP+-7
          CFI (cfiCond258) CFA_XSP16 add(XSP16, 8)
          CFI Block cfiPicker259 Using cfiCommon1
          CFI (cfiPicker259) NoFunction
          CFI (cfiPicker259) Picker
        MOV       A,R0
        MOVX      @DPTR,A
        INC       DPTR
        MOV       A,R1
        LCALL     ?Subroutine43 & 0xFFFF
??CrossCallReturnLabel_52:
        LCALL     ?Subroutine46 & 0xFFFF
??CrossCallReturnLabel_143:
        MOV       A,#0x4
        RET
          CFI EndBlock cfiCond257
          CFI EndBlock cfiCond258
          CFI EndBlock cfiPicker259
// 2000 
// 2001 /******************************************************************************
// 2002  * @fn          ZDSecMgrRemoveDeviceInd
// 2003  *
// 2004  * @brief       Process the ZDO_RemoveDeviceInd_t message.
// 2005  *
// 2006  * @param       ind - [in] ZDO_RemoveDeviceInd_t indication
// 2007  *
// 2008  * @return      none
// 2009  */

        RSEG BANKED_CODE:HUGECODE:NOROOT(0)
// 2010 void ZDSecMgrRemoveDeviceInd( ZDO_RemoveDeviceInd_t* ind )
ZDSecMgrRemoveDeviceInd:
          CFI Block cfiBlock260 Using cfiCommon0
          CFI Function ZDSecMgrRemoveDeviceInd
        CODE
// 2011 {
        FUNCALL ZDSecMgrRemoveDeviceInd, APSME_LookupNwkAddr
        LOCFRAME ISTACK, 0, STACK
        LOCFRAME PSTACK, 0, STACK
        LOCFRAME XSTACK, 17, STACK
        LOCFRAME IOVERLAY, 0, STATIC
        LOCFRAME DOVERLAY, 0, STATIC
        ARGFRAME ISTACK, 0, STACK
        ARGFRAME PSTACK, 0, STACK
        ARGFRAME XSTACK, 17, STACK
        ARGFRAME IOVERLAY, 0, STATIC
        ARGFRAME DOVERLAY, 0, STATIC
        FUNCALL ZDSecMgrRemoveDeviceInd, NLME_GetShortAddr
        LOCFRAME ISTACK, 0, STACK
        LOCFRAME PSTACK, 0, STACK
        LOCFRAME XSTACK, 17, STACK
        LOCFRAME IOVERLAY, 0, STATIC
        LOCFRAME DOVERLAY, 0, STATIC
        ARGFRAME ISTACK, 0, STACK
        ARGFRAME PSTACK, 0, STACK
        ARGFRAME XSTACK, 17, STACK
        ARGFRAME IOVERLAY, 0, STATIC
        ARGFRAME DOVERLAY, 0, STATIC
        FUNCALL ZDSecMgrRemoveDeviceInd, ZDSecMgrDeviceRemove
        LOCFRAME ISTACK, 0, STACK
        LOCFRAME PSTACK, 0, STACK
        LOCFRAME XSTACK, 17, STACK
        LOCFRAME IOVERLAY, 0, STATIC
        LOCFRAME DOVERLAY, 0, STATIC
        ARGFRAME ISTACK, 0, STACK
        ARGFRAME PSTACK, 0, STACK
        ARGFRAME XSTACK, 17, STACK
        ARGFRAME IOVERLAY, 0, STATIC
        ARGFRAME DOVERLAY, 0, STATIC
        MOV       A,#-0x9
        LCALL     ?BANKED_ENTER_XDATA
          CFI DPH0 load(1, XDATA, add(CFA_XSP16, literal(-1)))
          CFI DPL0 load(1, XDATA, add(CFA_XSP16, literal(-2)))
          CFI ?BRET_EXT load(1, XDATA, add(CFA_XSP16, literal(-3)))
          CFI ?RET_HIGH load(1, XDATA, add(CFA_XSP16, literal(-4)))
          CFI ?RET_LOW load(1, XDATA, add(CFA_XSP16, literal(-5)))
          CFI R7 load(1, XDATA, add(CFA_XSP16, literal(-6)))
          CFI V0 load(1, XDATA, add(CFA_XSP16, literal(-7)))
          CFI VB load(1, XDATA, add(CFA_XSP16, literal(-8)))
          CFI R6 load(1, XDATA, add(CFA_XSP16, literal(-9)))
          CFI CFA_SP SP+0
          CFI CFA_XSP16 add(XSP16, 9)
        ; Saved register size: 9
        ; Auto size: 8
        MOV       A,#-0x8
        LCALL     ?ALLOC_XSTACK8
          CFI CFA_XSP16 add(XSP16, 17)
// 2012   ZDSecMgrDevice_t device;
// 2013 
// 2014   // only accept from Trust Center
// 2015   if ( ind->srcAddr == APSME_TRUSTCENTER_NWKADDR )
        MOV       DPL,R2
        MOV       DPH,R3
        INC       DPTR
        INC       DPTR
        LCALL     ??Subroutine70_0 & 0xFFFF
??CrossCallReturnLabel_150:
        JNZ       ??ZDSecMgrRemoveDeviceInd_0
// 2016   {
// 2017     // look up NWK address
// 2018     if ( APSME_LookupNwkAddr( ind->childExtAddr, &device.nwkAddr ) == TRUE )
        MOV       A,R2
        ADD       A,#0x4
        MOV       R6,A
        CLR       A
        ADDC      A,R3
        MOV       R7,A
        ; Setup parameters for call to function APSME_LookupNwkAddr
        MOV       R4,?XSP + 0
        MOV       R5,?XSP + 1
        MOV       A,R6
        MOV       R2,A
        MOV       A,R7
        MOV       R3,A
        LCALL     `??APSME_LookupNwkAddr::?relay`; Banked call to: APSME_LookupNwkAddr
        MOV       A,R1
        XRL       A,#0x1
        JNZ       ??ZDSecMgrRemoveDeviceInd_0
// 2019     {
// 2020       device.parentAddr = NLME_GetShortAddr();
        ; Setup parameters for call to function NLME_GetShortAddr
        LCALL     `??NLME_GetShortAddr::?relay`; Banked call to: NLME_GetShortAddr
        MOV       A,#0x4
        LCALL     ?XSTACK_DISP0_8
        LCALL     ??Subroutine53_0 & 0xFFFF
// 2021       device.extAddr    = ind->childExtAddr;
// 2022 
// 2023       // remove device
// 2024       ZDSecMgrDeviceRemove( &device );
// 2025     }
// 2026   }
??CrossCallReturnLabel_78:
        LCALL     ?XSTACK_DISP0_8
        MOV       A,R6
        MOVX      @DPTR,A
        INC       DPTR
        MOV       A,R7
        LCALL     ??Subroutine65_0 & 0xFFFF
??CrossCallReturnLabel_124:
        LCALL     `??ZDSecMgrDeviceRemove::?relay`; Banked call to: ZDSecMgrDeviceRemove
// 2027 }
??ZDSecMgrRemoveDeviceInd_0:
        LJMP      ?Subroutine8 & 0xFFFF
          CFI EndBlock cfiBlock260

        RSEG BANKED_CODE:HUGECODE:NOROOT(0)
?Subroutine13:
          CFI Block cfiCond261 Using cfiCommon0
          CFI Function ZDSecMgrEntryLookup
          CFI Conditional ??CrossCallReturnLabel_119
          CFI R6 load(1, XDATA, add(CFA_XSP16, literal(-9)))
          CFI VB load(1, XDATA, add(CFA_XSP16, literal(-8)))
          CFI V0 load(1, XDATA, add(CFA_XSP16, literal(-7)))
          CFI R7 load(1, XDATA, add(CFA_XSP16, literal(-6)))
          CFI ?RET_LOW load(1, XDATA, add(CFA_XSP16, literal(-5)))
          CFI ?RET_HIGH load(1, XDATA, add(CFA_XSP16, literal(-4)))
          CFI ?BRET_EXT load(1, XDATA, add(CFA_XSP16, literal(-3)))
          CFI DPL0 load(1, XDATA, add(CFA_XSP16, literal(-2)))
          CFI DPH0 load(1, XDATA, add(CFA_XSP16, literal(-1)))
          CFI CFA_SP SP+-2
          CFI CFA_XSP16 add(XSP16, 22)
          CFI Block cfiCond262 Using cfiCommon0
          CFI (cfiCond262) Function ZDSecMgrRequestAppKey
          CFI (cfiCond262) Conditional ??CrossCallReturnLabel_120
          CFI (cfiCond262) DPL0 Frame(CFA_SP, 4)
          CFI (cfiCond262) DPH0 Frame(CFA_SP, 5)
          CFI (cfiCond262) CFA_SP SP+-7
          CFI (cfiCond262) CFA_XSP16 add(XSP16, 4)
          CFI Block cfiPicker263 Using cfiCommon1
          CFI (cfiPicker263) NoFunction
          CFI (cfiPicker263) Picker
        MOV       A,R2
        MOVX      @DPTR,A
        INC       DPTR
        MOV       A,R3
          CFI EndBlock cfiCond261
          CFI EndBlock cfiCond262
          CFI EndBlock cfiPicker263
        REQUIRE ??Subroutine65_0
        ; // Fall through to label ??Subroutine65_0

        RSEG BANKED_CODE:HUGECODE:NOROOT(0)
??Subroutine65_0:
          CFI Block cfiCond264 Using cfiCommon0
          CFI Function ZDSecMgrDeviceRemove
          CFI Conditional ??CrossCallReturnLabel_121
          CFI R6 load(1, XDATA, add(CFA_XSP16, literal(-10)))
          CFI VB load(1, XDATA, add(CFA_XSP16, literal(-9)))
          CFI V0 load(1, XDATA, add(CFA_XSP16, literal(-8)))
          CFI V1 load(1, XDATA, add(CFA_XSP16, literal(-7)))
          CFI R7 load(1, XDATA, add(CFA_XSP16, literal(-6)))
          CFI ?RET_LOW load(1, XDATA, add(CFA_XSP16, literal(-5)))
          CFI ?RET_HIGH load(1, XDATA, add(CFA_XSP16, literal(-4)))
          CFI ?BRET_EXT load(1, XDATA, add(CFA_XSP16, literal(-3)))
          CFI DPL0 load(1, XDATA, add(CFA_XSP16, literal(-2)))
          CFI DPH0 load(1, XDATA, add(CFA_XSP16, literal(-1)))
          CFI CFA_SP SP+-2
          CFI CFA_XSP16 add(XSP16, 20)
          CFI Block cfiCond265 Using cfiCommon0
          CFI (cfiCond265) Function ZDSecMgrDeviceJoinFwd
          CFI (cfiCond265) Conditional ??CrossCallReturnLabel_122
          CFI (cfiCond265) R6 load(1, XDATA, add(CFA_XSP16, literal(-10)))
          CFI (cfiCond265) VB load(1, XDATA, add(CFA_XSP16, literal(-9)))
          CFI (cfiCond265) V0 load(1, XDATA, add(CFA_XSP16, literal(-8)))
          CFI (cfiCond265) V1 load(1, XDATA, add(CFA_XSP16, literal(-7)))
          CFI (cfiCond265) R7 load(1, XDATA, add(CFA_XSP16, literal(-6)))
          CFI (cfiCond265) ?RET_LOW load(1, XDATA, add(CFA_XSP16, literal(-5)))
          CFI (cfiCond265) ?RET_HIGH load(1, XDATA, add(CFA_XSP16, literal(-4)))
          CFI (cfiCond265) ?BRET_EXT load(1, XDATA, add(CFA_XSP16, literal(-3)))
          CFI (cfiCond265) DPL0 load(1, XDATA, add(CFA_XSP16, literal(-2)))
          CFI (cfiCond265) DPH0 load(1, XDATA, add(CFA_XSP16, literal(-1)))
          CFI (cfiCond265) CFA_SP SP+-2
          CFI (cfiCond265) CFA_XSP16 add(XSP16, 18)
          CFI Block cfiCond266 Using cfiCommon0
          CFI (cfiCond266) Function ZDSecMgrNewDeviceEvent
          CFI (cfiCond266) Conditional ??CrossCallReturnLabel_123
          CFI (cfiCond266) R6 load(1, XDATA, add(CFA_XSP16, literal(-12)))
          CFI (cfiCond266) VB load(1, XDATA, add(CFA_XSP16, literal(-11)))
          CFI (cfiCond266) V0 load(1, XDATA, add(CFA_XSP16, literal(-10)))
          CFI (cfiCond266) V1 load(1, XDATA, add(CFA_XSP16, literal(-9)))
          CFI (cfiCond266) V2 load(1, XDATA, add(CFA_XSP16, literal(-8)))
          CFI (cfiCond266) V3 load(1, XDATA, add(CFA_XSP16, literal(-7)))
          CFI (cfiCond266) R7 load(1, XDATA, add(CFA_XSP16, literal(-6)))
          CFI (cfiCond266) ?RET_LOW load(1, XDATA, add(CFA_XSP16, literal(-5)))
          CFI (cfiCond266) ?RET_HIGH load(1, XDATA, add(CFA_XSP16, literal(-4)))
          CFI (cfiCond266) ?BRET_EXT load(1, XDATA, add(CFA_XSP16, literal(-3)))
          CFI (cfiCond266) DPL0 load(1, XDATA, add(CFA_XSP16, literal(-2)))
          CFI (cfiCond266) DPH0 load(1, XDATA, add(CFA_XSP16, literal(-1)))
          CFI (cfiCond266) CFA_SP SP+-2
          CFI (cfiCond266) CFA_XSP16 add(XSP16, 33)
          CFI Block cfiCond267 Using cfiCommon0
          CFI (cfiCond267) Function ZDSecMgrRemoveDeviceInd
          CFI (cfiCond267) Conditional ??CrossCallReturnLabel_124
          CFI (cfiCond267) R6 load(1, XDATA, add(CFA_XSP16, literal(-9)))
          CFI (cfiCond267) VB load(1, XDATA, add(CFA_XSP16, literal(-8)))
          CFI (cfiCond267) V0 load(1, XDATA, add(CFA_XSP16, literal(-7)))
          CFI (cfiCond267) R7 load(1, XDATA, add(CFA_XSP16, literal(-6)))
          CFI (cfiCond267) ?RET_LOW load(1, XDATA, add(CFA_XSP16, literal(-5)))
          CFI (cfiCond267) ?RET_HIGH load(1, XDATA, add(CFA_XSP16, literal(-4)))
          CFI (cfiCond267) ?BRET_EXT load(1, XDATA, add(CFA_XSP16, literal(-3)))
          CFI (cfiCond267) DPL0 load(1, XDATA, add(CFA_XSP16, literal(-2)))
          CFI (cfiCond267) DPH0 load(1, XDATA, add(CFA_XSP16, literal(-1)))
          CFI (cfiCond267) CFA_SP SP+-2
          CFI (cfiCond267) CFA_XSP16 add(XSP16, 17)
          CFI Block cfiCond268 Using cfiCommon0
          CFI (cfiCond268) Function ZDSecMgrAPSRemove
          CFI (cfiCond268) Conditional ??CrossCallReturnLabel_125
          CFI (cfiCond268) DPL0 Frame(CFA_SP, 4)
          CFI (cfiCond268) DPH0 Frame(CFA_SP, 5)
          CFI (cfiCond268) CFA_SP SP+-7
          CFI (cfiCond268) CFA_XSP16 add(XSP16, 8)
          CFI Block cfiCond269 Using cfiCommon0
          CFI (cfiCond269) Function ZDSecMgrEntryLookup
          CFI (cfiCond269) Conditional ??CrossCallReturnLabel_119
          CFI (cfiCond269) R6 load(1, XDATA, add(CFA_XSP16, literal(-9)))
          CFI (cfiCond269) VB load(1, XDATA, add(CFA_XSP16, literal(-8)))
          CFI (cfiCond269) V0 load(1, XDATA, add(CFA_XSP16, literal(-7)))
          CFI (cfiCond269) R7 load(1, XDATA, add(CFA_XSP16, literal(-6)))
          CFI (cfiCond269) ?RET_LOW load(1, XDATA, add(CFA_XSP16, literal(-5)))
          CFI (cfiCond269) ?RET_HIGH load(1, XDATA, add(CFA_XSP16, literal(-4)))
          CFI (cfiCond269) ?BRET_EXT load(1, XDATA, add(CFA_XSP16, literal(-3)))
          CFI (cfiCond269) DPL0 load(1, XDATA, add(CFA_XSP16, literal(-2)))
          CFI (cfiCond269) DPH0 load(1, XDATA, add(CFA_XSP16, literal(-1)))
          CFI (cfiCond269) CFA_SP SP+-2
          CFI (cfiCond269) CFA_XSP16 add(XSP16, 22)
          CFI Block cfiCond270 Using cfiCommon0
          CFI (cfiCond270) Function ZDSecMgrRequestAppKey
          CFI (cfiCond270) Conditional ??CrossCallReturnLabel_120
          CFI (cfiCond270) DPL0 Frame(CFA_SP, 4)
          CFI (cfiCond270) DPH0 Frame(CFA_SP, 5)
          CFI (cfiCond270) CFA_SP SP+-7
          CFI (cfiCond270) CFA_XSP16 add(XSP16, 4)
          CFI Block cfiPicker271 Using cfiCommon1
          CFI (cfiPicker271) NoFunction
          CFI (cfiPicker271) Picker
        MOVX      @DPTR,A
        ; Setup parameters for call to function AddrMgrEntryLookupNwk
        ; Setup parameters for call to function APSME_RequestKeyReq
        ; Setup parameters for call to function NLME_LeaveReq
        ; Setup parameters for call to function APSME_UpdateDeviceReq
        ; Setup parameters for call to function ZDSecMgrDeviceNew
        ; Setup parameters for call to function ZDSecMgrDeviceRemove
        ; Setup parameters for call to function ZDSecMgrDeviceRemove
        MOV       R2,?XSP + 0
        MOV       R3,?XSP + 1
        RET
          CFI EndBlock cfiCond264
          CFI EndBlock cfiCond265
          CFI EndBlock cfiCond266
          CFI EndBlock cfiCond267
          CFI EndBlock cfiCond268
          CFI EndBlock cfiCond269
          CFI EndBlock cfiCond270
          CFI EndBlock cfiPicker271
// 2028 
// 2029 /******************************************************************************
// 2030  * @fn          ZDSecMgrRequestKeyInd
// 2031  *
// 2032  * @brief       Process the ZDO_RequestKeyInd_t message.
// 2033  *
// 2034  * @param       ind - [in] ZDO_RequestKeyInd_t indication
// 2035  *
// 2036  * @return      none
// 2037  */

        RSEG BANKED_CODE:HUGECODE:NOROOT(0)
// 2038 void ZDSecMgrRequestKeyInd( ZDO_RequestKeyInd_t* ind )
ZDSecMgrRequestKeyInd:
          CFI Block cfiBlock272 Using cfiCommon0
          CFI Function ZDSecMgrRequestKeyInd
        CODE
// 2039 {
        FUNCALL ZDSecMgrRequestKeyInd, ZDSecMgrAppKeyReq
        LOCFRAME ISTACK, 2, STACK
        LOCFRAME PSTACK, 0, STACK
        LOCFRAME XSTACK, 0, STACK
        LOCFRAME IOVERLAY, 0, STATIC
        LOCFRAME DOVERLAY, 0, STATIC
        ARGFRAME ISTACK, 2, STACK
        ARGFRAME PSTACK, 0, STACK
        ARGFRAME XSTACK, 0, STACK
        ARGFRAME IOVERLAY, 0, STATIC
        ARGFRAME DOVERLAY, 0, STATIC
        FUNCALL ZDSecMgrRequestKeyInd, ZDSecMgrTclkReq
        LOCFRAME ISTACK, 2, STACK
        LOCFRAME PSTACK, 0, STACK
        LOCFRAME XSTACK, 0, STACK
        LOCFRAME IOVERLAY, 0, STATIC
        LOCFRAME DOVERLAY, 0, STATIC
        ARGFRAME ISTACK, 2, STACK
        ARGFRAME PSTACK, 0, STACK
        ARGFRAME XSTACK, 0, STACK
        ARGFRAME IOVERLAY, 0, STATIC
        ARGFRAME DOVERLAY, 0, STATIC
        PUSH      DPL
          CFI DPL0 Frame(CFA_SP, 4)
          CFI CFA_SP SP+-4
        PUSH      DPH
          CFI DPH0 Frame(CFA_SP, 5)
          CFI CFA_SP SP+-5
        ; Saved register size: 2
        ; Auto size: 0
// 2040   if ( ind->keyType == KEY_TYPE_NWK )
        MOV       DPL,R2
        MOV       DPH,R3
        INC       DPTR
        INC       DPTR
        INC       DPTR
        INC       DPTR
        MOVX      A,@DPTR
        MOV       R0,A
        MOV       A,#0x1
        XRL       A,R0
        JZ        ??ZDSecMgrRequestKeyInd_0
// 2041   {
// 2042   }
// 2043   else if ( ind->keyType == KEY_TYPE_APP_MASTER )
        MOV       A,#0x2
        XRL       A,R0
        JNZ       ??ZDSecMgrRequestKeyInd_1
// 2044   {
// 2045     ZDSecMgrAppKeyReq( ind );
        ; Setup parameters for call to function ZDSecMgrAppKeyReq
        LCALL     `??ZDSecMgrAppKeyReq::?relay`; Banked call to: ZDSecMgrAppKeyReq
        SJMP      ??ZDSecMgrRequestKeyInd_0
// 2046   }
// 2047   else if ( ind->keyType == KEY_TYPE_TC_LINK )
??ZDSecMgrRequestKeyInd_1:
        MOV       A,#0x4
        XRL       A,R0
        JNZ       ??ZDSecMgrRequestKeyInd_0
// 2048   {
// 2049     ZDSecMgrTclkReq( ind );
        ; Setup parameters for call to function ZDSecMgrTclkReq
        LCALL     `??ZDSecMgrTclkReq::?relay`; Banked call to: ZDSecMgrTclkReq
// 2050   }
// 2051   //else ignore
// 2052 }
??ZDSecMgrRequestKeyInd_0:
        LJMP      ??Subroutine60_0 & 0xFFFF
          CFI EndBlock cfiBlock272
// 2053 
// 2054 
// 2055 /******************************************************************************
// 2056  * @fn          ZDSecMgrVerifyKeyInd
// 2057  *
// 2058  * @brief       Process the ZDO_VerifyKeyInd_t message.
// 2059  *
// 2060  * @param       ind - [in] ZDO_VerifyKeyInd_t indication
// 2061  *
// 2062  * @return      none
// 2063  */

        RSEG BANKED_CODE:HUGECODE:NOROOT(0)
// 2064 void ZDSecMgrVerifyKeyInd( ZDO_VerifyKeyInd_t* ind )
ZDSecMgrVerifyKeyInd:
          CFI Block cfiBlock273 Using cfiCommon0
          CFI Function ZDSecMgrVerifyKeyInd
        CODE
// 2065 {
        ; Saved register size: 0
        ; Auto size: 0
// 2066   ZDSecMgrAppConfKeyReq( ind );
// 2067 }
        LJMP      ?BRET
          CFI EndBlock cfiBlock273
// 2068 
// 2069 
// 2070 /******************************************************************************
// 2071  * @fn          ZDSecMgrSwitchKeyInd
// 2072  *
// 2073  * @brief       Process the ZDO_SwitchKeyInd_t message.
// 2074  *
// 2075  * @param       ind - [in] ZDO_SwitchKeyInd_t indication
// 2076  *
// 2077  * @return      none
// 2078  */

        RSEG BANKED_CODE:HUGECODE:NOROOT(0)
// 2079 void ZDSecMgrSwitchKeyInd( ZDO_SwitchKeyInd_t* ind )
ZDSecMgrSwitchKeyInd:
          CFI Block cfiBlock274 Using cfiCommon0
          CFI Function ZDSecMgrSwitchKeyInd
        CODE
// 2080 {
        FUNCALL ZDSecMgrSwitchKeyInd, SSP_SwitchNwkKey
        LOCFRAME ISTACK, 2, STACK
        LOCFRAME PSTACK, 0, STACK
        LOCFRAME XSTACK, 0, STACK
        LOCFRAME IOVERLAY, 0, STATIC
        LOCFRAME DOVERLAY, 0, STATIC
        ARGFRAME ISTACK, 2, STACK
        ARGFRAME PSTACK, 0, STACK
        ARGFRAME XSTACK, 0, STACK
        ARGFRAME IOVERLAY, 0, STATIC
        ARGFRAME DOVERLAY, 0, STATIC
        FUNCALL ZDSecMgrSwitchKeyInd, ZDApp_NVUpdate
        LOCFRAME ISTACK, 2, STACK
        LOCFRAME PSTACK, 0, STACK
        LOCFRAME XSTACK, 0, STACK
        LOCFRAME IOVERLAY, 0, STATIC
        LOCFRAME DOVERLAY, 0, STATIC
        ARGFRAME ISTACK, 2, STACK
        ARGFRAME PSTACK, 0, STACK
        ARGFRAME XSTACK, 0, STACK
        ARGFRAME IOVERLAY, 0, STATIC
        ARGFRAME DOVERLAY, 0, STATIC
        PUSH      DPL
          CFI DPL0 Frame(CFA_SP, 4)
          CFI CFA_SP SP+-4
        PUSH      DPH
          CFI DPH0 Frame(CFA_SP, 5)
          CFI CFA_SP SP+-5
        ; Saved register size: 2
        ; Auto size: 0
// 2081   SSP_SwitchNwkKey( ind->keySeqNum );
        ; Setup parameters for call to function SSP_SwitchNwkKey
        MOV       DPL,R2
        MOV       DPH,R3
        INC       DPTR
        INC       DPTR
        INC       DPTR
        INC       DPTR
        MOVX      A,@DPTR
        MOV       R1,A
        LCALL     `??SSP_SwitchNwkKey::?relay`; Banked call to: SSP_SwitchNwkKey
// 2082 
// 2083   // Save if nv
// 2084   ZDApp_NVUpdate();
        ; Setup parameters for call to function ZDApp_NVUpdate
        LCALL     `??ZDApp_NVUpdate::?relay`; Banked call to: ZDApp_NVUpdate
// 2085 }
        LJMP      ??Subroutine60_0 & 0xFFFF
          CFI EndBlock cfiBlock274
// 2086   
// 2087 /******************************************************************************
// 2088  * @fn          ZDSecMgrGenerateSeed
// 2089  *
// 2090  * @brief       Generate the seed for TC link keys and store it in Nv
// 2091  *
// 2092  * @param       SetDefault, force to use new seed
// 2093  *
// 2094  * @return      none
// 2095  */

        RSEG BANKED_CODE:HUGECODE:NOROOT(0)
// 2096 void ZDSecMgrGenerateSeed(uint8 SetDefault)
ZDSecMgrGenerateSeed:
          CFI Block cfiBlock275 Using cfiCommon0
          CFI Function ZDSecMgrGenerateSeed
        CODE
// 2097 {
        FUNCALL ZDSecMgrGenerateSeed, ZDSecMgrGenerateRndKey
        LOCFRAME ISTACK, 0, STACK
        LOCFRAME PSTACK, 0, STACK
        LOCFRAME XSTACK, 26, STACK
        LOCFRAME IOVERLAY, 0, STATIC
        LOCFRAME DOVERLAY, 0, STATIC
        ARGFRAME ISTACK, 0, STACK
        ARGFRAME PSTACK, 0, STACK
        ARGFRAME XSTACK, 26, STACK
        ARGFRAME IOVERLAY, 0, STATIC
        ARGFRAME DOVERLAY, 0, STATIC
        FUNCALL ZDSecMgrGenerateSeed, osal_nv_item_init
        LOCFRAME ISTACK, 0, STACK
        LOCFRAME PSTACK, 0, STACK
        LOCFRAME XSTACK, 28, STACK
        LOCFRAME IOVERLAY, 0, STATIC
        LOCFRAME DOVERLAY, 0, STATIC
        ARGFRAME ISTACK, 0, STACK
        ARGFRAME PSTACK, 0, STACK
        ARGFRAME XSTACK, 28, STACK
        ARGFRAME IOVERLAY, 0, STATIC
        ARGFRAME DOVERLAY, 0, STATIC
        FUNCALL ZDSecMgrGenerateSeed, osal_nv_write
        LOCFRAME ISTACK, 0, STACK
        LOCFRAME PSTACK, 0, STACK
        LOCFRAME XSTACK, 30, STACK
        LOCFRAME IOVERLAY, 0, STATIC
        LOCFRAME DOVERLAY, 0, STATIC
        ARGFRAME ISTACK, 0, STACK
        ARGFRAME PSTACK, 0, STACK
        ARGFRAME XSTACK, 30, STACK
        ARGFRAME IOVERLAY, 0, STATIC
        ARGFRAME DOVERLAY, 0, STATIC
        FUNCALL ZDSecMgrGenerateSeed, osal_memset
        LOCFRAME ISTACK, 0, STACK
        LOCFRAME PSTACK, 0, STACK
        LOCFRAME XSTACK, 26, STACK
        LOCFRAME IOVERLAY, 0, STATIC
        LOCFRAME DOVERLAY, 0, STATIC
        ARGFRAME ISTACK, 0, STACK
        ARGFRAME PSTACK, 0, STACK
        ARGFRAME XSTACK, 26, STACK
        ARGFRAME IOVERLAY, 0, STATIC
        ARGFRAME DOVERLAY, 0, STATIC
        REQUIRE ?V0
        REQUIRE ?V1
        MOV       A,#-0xa
        LCALL     ?BANKED_ENTER_XDATA
          CFI DPH0 load(1, XDATA, add(CFA_XSP16, literal(-1)))
          CFI DPL0 load(1, XDATA, add(CFA_XSP16, literal(-2)))
          CFI ?BRET_EXT load(1, XDATA, add(CFA_XSP16, literal(-3)))
          CFI ?RET_HIGH load(1, XDATA, add(CFA_XSP16, literal(-4)))
          CFI ?RET_LOW load(1, XDATA, add(CFA_XSP16, literal(-5)))
          CFI R7 load(1, XDATA, add(CFA_XSP16, literal(-6)))
          CFI V1 load(1, XDATA, add(CFA_XSP16, literal(-7)))
          CFI V0 load(1, XDATA, add(CFA_XSP16, literal(-8)))
          CFI VB load(1, XDATA, add(CFA_XSP16, literal(-9)))
          CFI R6 load(1, XDATA, add(CFA_XSP16, literal(-10)))
          CFI CFA_SP SP+0
          CFI CFA_XSP16 add(XSP16, 10)
        ; Saved register size: 10
        ; Auto size: 16
        MOV       A,#-0x10
        LCALL     ?ALLOC_XSTACK8
          CFI CFA_XSP16 add(XSP16, 26)
        MOV       A,R1
        MOV       R6,A
// 2098   uint8 SeedKey[SEC_KEY_LEN];  
// 2099   
// 2100   ZDSecMgrGenerateRndKey(SeedKey);
        ; Setup parameters for call to function ZDSecMgrGenerateRndKey
        MOV       R2,?XSP + 0
        MOV       R3,?XSP + 1
        LCALL     `??ZDSecMgrGenerateRndKey::?relay`; Banked call to: ZDSecMgrGenerateRndKey
// 2101   
// 2102   if((SUCCESS == osal_nv_item_init(ZCD_NV_TCLK_SEED,SEC_KEY_LEN,SeedKey)) && SetDefault)
        ; Setup parameters for call to function osal_nv_item_init
        MOV       R0,?XSP + 0
        MOV       R1,?XSP + 1
        MOV       ?V0,R0
        MOV       ?V1,R1
        MOV       R0,#?V0
        LCALL     ?PUSH_XSTACK_I_TWO
          CFI CFA_XSP16 add(XSP16, 28)
        MOV       R4,#0x10
        MOV       R5,#0x0
        MOV       R2,#0x1
        MOV       R3,#0x1
        LCALL     `??osal_nv_item_init::?relay`; Banked call to: osal_nv_item_init
        MOV       A,#0x2
        LCALL     ?DEALLOC_XSTACK8
          CFI CFA_XSP16 add(XSP16, 26)
        MOV       A,R1
        JNZ       ??ZDSecMgrGenerateSeed_0
        MOV       A,R6
        JZ        ??ZDSecMgrGenerateSeed_0
// 2103   {
// 2104     //Force to use a new seed
// 2105     osal_nv_write(ZCD_NV_TCLK_SEED,0,SEC_KEY_LEN,SeedKey);
        ; Setup parameters for call to function osal_nv_write
        MOV       R0,#?V0
        LCALL     ?PUSH_XSTACK_I_TWO
          CFI CFA_XSP16 add(XSP16, 28)
        MOV       ?V0,#0x10
        MOV       ?V1,#0x0
        MOV       R0,#?V0
        LCALL     ?PUSH_XSTACK_I_TWO
          CFI CFA_XSP16 add(XSP16, 30)
        MOV       R4,#0x0
        MOV       R5,#0x0
        MOV       R2,#0x1
        MOV       R3,#0x1
        LCALL     `??osal_nv_write::?relay`; Banked call to: osal_nv_write
        MOV       A,#0x4
        LCALL     ?DEALLOC_XSTACK8
          CFI CFA_XSP16 add(XSP16, 26)
// 2106   }
// 2107 
// 2108   osal_memset(SeedKey,0,SEC_KEY_LEN);
??ZDSecMgrGenerateSeed_0:
        ; Setup parameters for call to function osal_memset
        MOV       R4,#0x10
        MOV       R5,#0x0
        MOV       R1,#0x0
        MOV       R2,?XSP + 0
        MOV       R3,?XSP + 1
        LCALL     `??osal_memset::?relay`; Banked call to: osal_memset
// 2109 }
        MOV       A,#0x10
        LJMP      ??Subroutine54_0 & 0xFFFF
          CFI EndBlock cfiBlock275
// 2110 
// 2111 
// 2112 /******************************************************************************
// 2113  * @fn          ZDSecMgrGenerateKeyFromSeed
// 2114  *
// 2115  * @brief       Generate the TC link key for an specific device usign seed and ExtAddr
// 2116  *
// 2117  * @param       [in]  extAddr  
// 2118  * @param       [in]  shift    number of byte shifts that the seed will do to 
// 2119  *                             generate a new key for the same device. 
// 2120  *                             This value must be less than SEC_KEY_LEN
// 2121  * @param       [out] key      buffer in which the key will be copied
// 2122  *
// 2123  * @return      none
// 2124  */

        RSEG BANKED_CODE:HUGECODE:NOROOT(0)
// 2125 void ZDSecMgrGenerateKeyFromSeed(uint8 *extAddr, uint8 shift, uint8 *key)
ZDSecMgrGenerateKeyFromSeed:
          CFI Block cfiBlock276 Using cfiCommon0
          CFI Function ZDSecMgrGenerateKeyFromSeed
        CODE
// 2126 {
        FUNCALL ZDSecMgrGenerateKeyFromSeed, osal_nv_read
        LOCFRAME ISTACK, 0, STACK
        LOCFRAME PSTACK, 0, STACK
        LOCFRAME XSTACK, 38, STACK
        LOCFRAME IOVERLAY, 0, STATIC
        LOCFRAME DOVERLAY, 0, STATIC
        ARGFRAME ISTACK, 0, STACK
        ARGFRAME PSTACK, 0, STACK
        ARGFRAME XSTACK, 38, STACK
        ARGFRAME IOVERLAY, 0, STATIC
        ARGFRAME DOVERLAY, 0, STATIC
        FUNCALL ZDSecMgrGenerateKeyFromSeed, osal_memcpy
        LOCFRAME ISTACK, 0, STACK
        LOCFRAME PSTACK, 0, STACK
        LOCFRAME XSTACK, 37, STACK
        LOCFRAME IOVERLAY, 0, STATIC
        LOCFRAME DOVERLAY, 0, STATIC
        ARGFRAME ISTACK, 0, STACK
        ARGFRAME PSTACK, 0, STACK
        ARGFRAME XSTACK, 37, STACK
        ARGFRAME IOVERLAY, 0, STATIC
        ARGFRAME DOVERLAY, 0, STATIC
        FUNCALL ZDSecMgrGenerateKeyFromSeed, osal_memcpy
        LOCFRAME ISTACK, 0, STACK
        LOCFRAME PSTACK, 0, STACK
        LOCFRAME XSTACK, 37, STACK
        LOCFRAME IOVERLAY, 0, STATIC
        LOCFRAME DOVERLAY, 0, STATIC
        ARGFRAME ISTACK, 0, STACK
        ARGFRAME PSTACK, 0, STACK
        ARGFRAME XSTACK, 37, STACK
        ARGFRAME IOVERLAY, 0, STATIC
        ARGFRAME DOVERLAY, 0, STATIC
        REQUIRE ?V0
        REQUIRE ?V1
        REQUIRE ?V2
        REQUIRE ?V4
        REQUIRE ?V5
        REQUIRE ?V6
        REQUIRE ?V8
        REQUIRE ?V9
        MOV       A,#-0x12
        LCALL     ?BANKED_ENTER_XDATA
          CFI DPH0 load(1, XDATA, add(CFA_XSP16, literal(-1)))
          CFI DPL0 load(1, XDATA, add(CFA_XSP16, literal(-2)))
          CFI ?BRET_EXT load(1, XDATA, add(CFA_XSP16, literal(-3)))
          CFI ?RET_HIGH load(1, XDATA, add(CFA_XSP16, literal(-4)))
          CFI ?RET_LOW load(1, XDATA, add(CFA_XSP16, literal(-5)))
          CFI R7 load(1, XDATA, add(CFA_XSP16, literal(-6)))
          CFI V9 load(1, XDATA, add(CFA_XSP16, literal(-7)))
          CFI V8 load(1, XDATA, add(CFA_XSP16, literal(-8)))
          CFI V7 load(1, XDATA, add(CFA_XSP16, literal(-9)))
          CFI V6 load(1, XDATA, add(CFA_XSP16, literal(-10)))
          CFI V5 load(1, XDATA, add(CFA_XSP16, literal(-11)))
          CFI V4 load(1, XDATA, add(CFA_XSP16, literal(-12)))
          CFI V3 load(1, XDATA, add(CFA_XSP16, literal(-13)))
          CFI V2 load(1, XDATA, add(CFA_XSP16, literal(-14)))
          CFI V1 load(1, XDATA, add(CFA_XSP16, literal(-15)))
          CFI V0 load(1, XDATA, add(CFA_XSP16, literal(-16)))
          CFI VB load(1, XDATA, add(CFA_XSP16, literal(-17)))
          CFI R6 load(1, XDATA, add(CFA_XSP16, literal(-18)))
          CFI CFA_SP SP+0
          CFI CFA_XSP16 add(XSP16, 18)
        ; Saved register size: 18
        ; Auto size: 16
        MOV       A,#-0x10
        LCALL     ?ALLOC_XSTACK8
          CFI CFA_XSP16 add(XSP16, 34)
        MOV       ?V8,R2
        MOV       ?V9,R3
        MOV       ?V2,R1
        MOV       A,R4
        MOV       R6,A
        MOV       A,R5
        MOV       R7,A
// 2127   uint8 i;
// 2128   uint8 tempKey[SEC_KEY_LEN];
// 2129   
// 2130   if((key != NULL) && (extAddr != NULL))
        MOV       A,R6
        ORL       A,R7
        JNZ       $+5
        LJMP      ??ZDSecMgrGenerateKeyFromSeed_0 & 0xFFFF
        MOV       A,R2
        ORL       A,?V9
        JNZ       $+5
        LJMP      ??ZDSecMgrGenerateKeyFromSeed_0 & 0xFFFF
// 2131   {
// 2132     //Read the key
// 2133     osal_nv_read(ZCD_NV_TCLK_SEED,0,SEC_KEY_LEN,tempKey);
        ; Setup parameters for call to function osal_nv_read
        MOV       R0,?XSP + 0
        MOV       R1,?XSP + 1
        MOV       ?V0,R0
        MOV       ?V1,R1
        MOV       R0,#?V0
        LCALL     ?PUSH_XSTACK_I_TWO
          CFI CFA_XSP16 add(XSP16, 36)
        MOV       ?V0,#0x10
        MOV       ?V1,#0x0
        MOV       R0,#?V0
        LCALL     ?PUSH_XSTACK_I_TWO
          CFI CFA_XSP16 add(XSP16, 38)
        MOV       R4,#0x0
        MOV       R5,#0x0
        MOV       R2,#0x1
        MOV       R3,#0x1
        LCALL     `??osal_nv_read::?relay`; Banked call to: osal_nv_read
        MOV       A,#0x4
        LCALL     ?DEALLOC_XSTACK8
          CFI CFA_XSP16 add(XSP16, 34)
// 2134 
// 2135     //shift the seed
// 2136     osal_memcpy(key, &tempKey[shift], SEC_KEY_LEN - shift);
        MOV       A,?V2
        MOV       ?V0,A
        ; Setup parameters for call to function osal_memcpy
        MOV       DPL,?XSP + 0
        MOV       DPH,?XSP + 1
        MOV       A,DPL
        ADD       A,?V0
        MOV       ?V4,A
        CLR       A
        ADDC      A,DPH
        MOV       ?V5,A
        MOV       ?V6,#0x0
        MOV       R0,#?V4
        LCALL     ?PUSH_XSTACK_I_THREE
          CFI CFA_XSP16 add(XSP16, 37)
        MOV       A,#0x10
        CLR       C
        SUBB      A,?V0
        MOV       R4,A
        SUBB      A,0xE0 /* A   */
        MOV       R5,A
        MOV       A,R6
        MOV       R2,A
        MOV       A,R7
        MOV       R3,A
        LCALL     `??osal_memcpy::?relay`; Banked call to: osal_memcpy
        MOV       A,#0x3
        LCALL     ?DEALLOC_XSTACK8
          CFI CFA_XSP16 add(XSP16, 34)
// 2137     osal_memcpy(&key[SEC_KEY_LEN - shift], tempKey, shift);
        ; Setup parameters for call to function osal_memcpy
        MOV       R0,?XSP + 0
        MOV       R1,?XSP + 1
        MOV       ?V4,R0
        MOV       ?V5,R1
        MOV       R0,#?V4
        LCALL     ?PUSH_XSTACK_I_THREE
          CFI CFA_XSP16 add(XSP16, 37)
        MOV       R4,?V2
        MOV       R5,#0x0
        CLR       C
        CLR       A
        SUBB      A,?V0
        MOV       R0,A
        SUBB      A,0xE0 /* A   */
        MOV       R1,A
        MOV       A,R6
        ADD       A,R0
        MOV       R0,A
        MOV       A,R7
        ADDC      A,R1
        MOV       R1,A
        MOV       A,R0
        ADD       A,#0x10
        MOV       R2,A
        CLR       A
        ADDC      A,R1
        MOV       R3,A
        LCALL     `??osal_memcpy::?relay`; Banked call to: osal_memcpy
        MOV       A,#0x3
        LCALL     ?DEALLOC_XSTACK8
          CFI CFA_XSP16 add(XSP16, 34)
// 2138    
// 2139     //Create the key from the seed
// 2140     for(i = 0; i < Z_EXTADDR_LEN; i++)
        MOV       R4,#0x0
// 2141     {
// 2142       key[i] ^= extAddr[i];
??ZDSecMgrGenerateKeyFromSeed_1:
        MOV       A,R4
        MOV       R2,A
        MOV       A,?V8
        ADD       A,R2
        MOV       R0,A
        CLR       A
        ADDC      A,?V9
        MOV       R1,A
        MOV       A,R6
        ADD       A,R2
        MOV       R2,A
        CLR       A
        ADDC      A,R7
        MOV       R3,A
        MOV       DPL,R0
        MOV       DPH,R1
        MOVX      A,@DPTR
        MOV       R5,A
        MOV       DPL,R2
        MOV       DPH,R3
        MOVX      A,@DPTR
        XRL       A,R5
        LCALL     ?Subroutine24 & 0xFFFF
// 2143       key[i+Z_EXTADDR_LEN] ^= extAddr[i];
// 2144     }
??CrossCallReturnLabel_22:
        MOV       R0,A
        MOV       DPL,R2
        MOV       DPH,R3
        INC       DPTR
        INC       DPTR
        INC       DPTR
        INC       DPTR
        INC       DPTR
        INC       DPTR
        INC       DPTR
        INC       DPTR
        MOVX      A,@DPTR
        XRL       A,R0
        MOVX      @DPTR,A
        INC       R4
        MOV       A,R4
        CLR       C
        SUBB      A,#0x8
        JC        ??ZDSecMgrGenerateKeyFromSeed_1
// 2145   }
// 2146 }
??ZDSecMgrGenerateKeyFromSeed_0:
        MOV       A,#0x10
        LJMP      ?Subroutine5 & 0xFFFF
          CFI EndBlock cfiBlock276

        RSEG BANKED_CODE:HUGECODE:NOROOT(0)
?Subroutine24:
          CFI Block cfiCond277 Using cfiCommon0
          CFI Function ZDSecMgrDeviceRemove
          CFI Conditional ??CrossCallReturnLabel_20
          CFI R6 load(1, XDATA, add(CFA_XSP16, literal(-10)))
          CFI VB load(1, XDATA, add(CFA_XSP16, literal(-9)))
          CFI V0 load(1, XDATA, add(CFA_XSP16, literal(-8)))
          CFI V1 load(1, XDATA, add(CFA_XSP16, literal(-7)))
          CFI R7 load(1, XDATA, add(CFA_XSP16, literal(-6)))
          CFI ?RET_LOW load(1, XDATA, add(CFA_XSP16, literal(-5)))
          CFI ?RET_HIGH load(1, XDATA, add(CFA_XSP16, literal(-4)))
          CFI ?BRET_EXT load(1, XDATA, add(CFA_XSP16, literal(-3)))
          CFI DPL0 load(1, XDATA, add(CFA_XSP16, literal(-2)))
          CFI DPH0 load(1, XDATA, add(CFA_XSP16, literal(-1)))
          CFI CFA_SP SP+-2
          CFI CFA_XSP16 add(XSP16, 20)
          CFI Block cfiCond278 Using cfiCommon0
          CFI (cfiCond278) Function ZDSecMgrDeviceRemove
          CFI (cfiCond278) Conditional ??CrossCallReturnLabel_21
          CFI (cfiCond278) R6 load(1, XDATA, add(CFA_XSP16, literal(-10)))
          CFI (cfiCond278) VB load(1, XDATA, add(CFA_XSP16, literal(-9)))
          CFI (cfiCond278) V0 load(1, XDATA, add(CFA_XSP16, literal(-8)))
          CFI (cfiCond278) V1 load(1, XDATA, add(CFA_XSP16, literal(-7)))
          CFI (cfiCond278) R7 load(1, XDATA, add(CFA_XSP16, literal(-6)))
          CFI (cfiCond278) ?RET_LOW load(1, XDATA, add(CFA_XSP16, literal(-5)))
          CFI (cfiCond278) ?RET_HIGH load(1, XDATA, add(CFA_XSP16, literal(-4)))
          CFI (cfiCond278) ?BRET_EXT load(1, XDATA, add(CFA_XSP16, literal(-3)))
          CFI (cfiCond278) DPL0 load(1, XDATA, add(CFA_XSP16, literal(-2)))
          CFI (cfiCond278) DPH0 load(1, XDATA, add(CFA_XSP16, literal(-1)))
          CFI (cfiCond278) CFA_SP SP+-2
          CFI (cfiCond278) CFA_XSP16 add(XSP16, 20)
          CFI Block cfiCond279 Using cfiCommon0
          CFI (cfiCond279) Function ZDSecMgrGenerateKeyFromSeed
          CFI (cfiCond279) Conditional ??CrossCallReturnLabel_22
          CFI (cfiCond279) R6 load(1, XDATA, add(CFA_XSP16, literal(-18)))
          CFI (cfiCond279) VB load(1, XDATA, add(CFA_XSP16, literal(-17)))
          CFI (cfiCond279) V0 load(1, XDATA, add(CFA_XSP16, literal(-16)))
          CFI (cfiCond279) V1 load(1, XDATA, add(CFA_XSP16, literal(-15)))
          CFI (cfiCond279) V2 load(1, XDATA, add(CFA_XSP16, literal(-14)))
          CFI (cfiCond279) V3 load(1, XDATA, add(CFA_XSP16, literal(-13)))
          CFI (cfiCond279) V4 load(1, XDATA, add(CFA_XSP16, literal(-12)))
          CFI (cfiCond279) V5 load(1, XDATA, add(CFA_XSP16, literal(-11)))
          CFI (cfiCond279) V6 load(1, XDATA, add(CFA_XSP16, literal(-10)))
          CFI (cfiCond279) V7 load(1, XDATA, add(CFA_XSP16, literal(-9)))
          CFI (cfiCond279) V8 load(1, XDATA, add(CFA_XSP16, literal(-8)))
          CFI (cfiCond279) V9 load(1, XDATA, add(CFA_XSP16, literal(-7)))
          CFI (cfiCond279) R7 load(1, XDATA, add(CFA_XSP16, literal(-6)))
          CFI (cfiCond279) ?RET_LOW load(1, XDATA, add(CFA_XSP16, literal(-5)))
          CFI (cfiCond279) ?RET_HIGH load(1, XDATA, add(CFA_XSP16, literal(-4)))
          CFI (cfiCond279) ?BRET_EXT load(1, XDATA, add(CFA_XSP16, literal(-3)))
          CFI (cfiCond279) DPL0 load(1, XDATA, add(CFA_XSP16, literal(-2)))
          CFI (cfiCond279) DPH0 load(1, XDATA, add(CFA_XSP16, literal(-1)))
          CFI (cfiCond279) CFA_SP SP+-2
          CFI (cfiCond279) CFA_XSP16 add(XSP16, 34)
          CFI Block cfiPicker280 Using cfiCommon1
          CFI (cfiPicker280) NoFunction
          CFI (cfiPicker280) Picker
        MOVX      @DPTR,A
        ; Setup parameters for call to function AssocGetWithExt
        MOV       DPL,R0
        MOV       DPH,R1
        MOVX      A,@DPTR
        RET
          CFI EndBlock cfiCond277
          CFI EndBlock cfiCond278
          CFI EndBlock cfiCond279
          CFI EndBlock cfiPicker280
// 2147 
// 2148 
// 2149 /******************************************************************************
// 2150  * @fn          ZDSecMgrGenerateRndKey
// 2151  *
// 2152 * @brief       Generate a random key. NOTE: Random key is generated by osal_rand, refer to osal_rand to see the random properties of the key generated by this mean.
// 2153  *
// 2154  * @param       pKey - [out] Buffer pointer in which the key will be passed.
// 2155  *
// 2156  * @return      none
// 2157  */

        RSEG BANKED_CODE:HUGECODE:NOROOT(0)
// 2158 void ZDSecMgrGenerateRndKey(uint8* pKey)
ZDSecMgrGenerateRndKey:
          CFI Block cfiBlock281 Using cfiCommon0
          CFI Function ZDSecMgrGenerateRndKey
        CODE
// 2159 {
        FUNCALL ZDSecMgrGenerateRndKey, osal_rand
        LOCFRAME ISTACK, 0, STACK
        LOCFRAME PSTACK, 0, STACK
        LOCFRAME XSTACK, 12, STACK
        LOCFRAME IOVERLAY, 0, STATIC
        LOCFRAME DOVERLAY, 0, STATIC
        ARGFRAME ISTACK, 0, STACK
        ARGFRAME PSTACK, 0, STACK
        ARGFRAME XSTACK, 12, STACK
        ARGFRAME IOVERLAY, 0, STATIC
        ARGFRAME DOVERLAY, 0, STATIC
        REQUIRE ?V0
        REQUIRE ?V2
        REQUIRE ?V3
        MOV       A,#-0xc
        LCALL     ?BANKED_ENTER_XDATA
          CFI DPH0 load(1, XDATA, add(CFA_XSP16, literal(-1)))
          CFI DPL0 load(1, XDATA, add(CFA_XSP16, literal(-2)))
          CFI ?BRET_EXT load(1, XDATA, add(CFA_XSP16, literal(-3)))
          CFI ?RET_HIGH load(1, XDATA, add(CFA_XSP16, literal(-4)))
          CFI ?RET_LOW load(1, XDATA, add(CFA_XSP16, literal(-5)))
          CFI R7 load(1, XDATA, add(CFA_XSP16, literal(-6)))
          CFI V3 load(1, XDATA, add(CFA_XSP16, literal(-7)))
          CFI V2 load(1, XDATA, add(CFA_XSP16, literal(-8)))
          CFI V1 load(1, XDATA, add(CFA_XSP16, literal(-9)))
          CFI V0 load(1, XDATA, add(CFA_XSP16, literal(-10)))
          CFI VB load(1, XDATA, add(CFA_XSP16, literal(-11)))
          CFI R6 load(1, XDATA, add(CFA_XSP16, literal(-12)))
          CFI CFA_SP SP+0
          CFI CFA_XSP16 add(XSP16, 12)
        ; Saved register size: 12
        ; Auto size: 0
        MOV       A,R2
        MOV       R6,A
        MOV       A,R3
        MOV       R7,A
// 2160   uint16  temp;
// 2161   uint8   index = 0;
        MOV       ?V0,#0x0
// 2162   
// 2163   while(index < (SEC_KEY_LEN/2))
// 2164   {
// 2165     temp = osal_rand();
??ZDSecMgrGenerateRndKey_0:
        ; Setup parameters for call to function osal_rand
        LCALL     `??osal_rand::?relay`; Banked call to: osal_rand
        MOV       ?V2,R2
        MOV       ?V3,R3
// 2166     pKey[index*2]   = (uint8) (temp & 0x00FF);
        MOV       R2,?V0
        MOV       A,R2
        ADD       A,R2
        MOV       R2,A
        CLR       A
        RLC       A
        MOV       R3,A
        MOV       A,R6
        ADD       A,R2
        MOV       DPL,A
        MOV       A,R7
        ADDC      A,R3
        MOV       DPH,A
        MOV       A,?V2
        MOVX      @DPTR,A
// 2167     pKey[index*2+1] = (uint8) ((temp >> 8) & 0x00FF);
        INC       DPTR
        MOV       A,?V3
        MOVX      @DPTR,A
// 2168     index++;
        INC       ?V0
// 2169   }
        MOV       A,?V0
        CLR       C
        SUBB      A,#0x8
        JC        ??ZDSecMgrGenerateRndKey_0
// 2170 }
        LJMP      ??Subroutine71_0 & 0xFFFF
          CFI EndBlock cfiBlock281
// 2171 
// 2172 
// 2173 #if ( ZG_BUILD_COORDINATOR_TYPE )
// 2174 /******************************************************************************
// 2175  * @fn          ZDSecMgrUpdateNwkKey
// 2176  *
// 2177  * @brief       Load a new NWK key and trigger a network update to the dstAddr.
// 2178  *
// 2179  * @param       key       - [in] new NWK key
// 2180  * @param       keySeqNum - [in] new NWK key sequence number
// 2181  *
// 2182  * @return      ZStatus_t
// 2183  */
// 2184 ZStatus_t ZDSecMgrUpdateNwkKey( uint8* key, uint8 keySeqNum, uint16 dstAddr )
// 2185 {
// 2186   ZStatus_t               status;
// 2187   APSME_TransportKeyReq_t req;
// 2188 
// 2189   // initialize common elements of local variables
// 2190   req.keyType   = KEY_TYPE_NWK;
// 2191 
// 2192   req.dstAddr   = dstAddr;
// 2193   req.keySeqNum = keySeqNum;
// 2194   req.key       = key;
// 2195   req.extAddr   = NULL;
// 2196   req.nwkSecure = TRUE;
// 2197   req.tunnel    = NULL;
// 2198 
// 2199   if ( ZG_CHECK_SECURITY_MODE == ZG_SECURITY_SE_STANDARD )
// 2200   {
// 2201     // Broadcast transport NWK key
// 2202     if (( dstAddr == NWK_BROADCAST_SHORTADDR_DEVALL ) ||
// 2203         ( dstAddr == NWK_BROADCAST_SHORTADDR_DEVZCZR) ||
// 2204         ( dstAddr == NWK_BROADCAST_SHORTADDR_DEVRXON))
// 2205     {
// 2206       req.apsSecure = FALSE;
// 2207       status = APSME_TransportKeyReq( &req );
// 2208     }
// 2209     else
// 2210     {
// 2211       AddrMgrEntry_t          addrEntry;
// 2212 
// 2213       addrEntry.user = ADDRMGR_USER_SECURITY;
// 2214       addrEntry.nwkAddr = dstAddr;
// 2215 
// 2216       status = ZFailure;
// 2217 
// 2218       if ( AddrMgrEntryLookupNwk( &addrEntry ) == TRUE )
// 2219       {
// 2220         req.extAddr = addrEntry.extAddr;
// 2221         req.apsSecure = TRUE;
// 2222         status = APSME_TransportKeyReq( &req );
// 2223       }
// 2224     }
// 2225   }
// 2226   else // ( ZG_CHECK_SECURITY_MODE == ZG_SECURITY_RESIDENTIAL )
// 2227   {
// 2228     req.apsSecure = FALSE;
// 2229     status = APSME_TransportKeyReq( &req );
// 2230   }
// 2231 
// 2232   SSP_UpdateNwkKey( key, keySeqNum );
// 2233 
// 2234   // Save if nv
// 2235   ZDApp_NVUpdate();
// 2236 
// 2237   return status;
// 2238 }
// 2239 #endif // ( ZG_BUILD_COORDINATOR_TYPE )
// 2240 
// 2241 #if ( ZG_BUILD_COORDINATOR_TYPE )
// 2242 /******************************************************************************
// 2243  * @fn          ZDSecMgrSwitchNwkKey
// 2244  *
// 2245  * @brief       Causes the NWK key to switch via a network command to the dstAddr.
// 2246  *
// 2247  * @param       keySeqNum - [in] new NWK key sequence number
// 2248  *
// 2249  * @return      ZStatus_t
// 2250  */
// 2251 ZStatus_t ZDSecMgrSwitchNwkKey( uint8 keySeqNum, uint16 dstAddr )
// 2252 {
// 2253   ZStatus_t            status;
// 2254   APSME_SwitchKeyReq_t req;
// 2255 
// 2256   // initialize common elements of local variables
// 2257   req.dstAddr = dstAddr;
// 2258   req.keySeqNum = keySeqNum;
// 2259 
// 2260   if ( ZG_CHECK_SECURITY_MODE == ZG_SECURITY_SE_STANDARD )
// 2261   {
// 2262     // Broadcast switch NWK key
// 2263     if (( dstAddr == NWK_BROADCAST_SHORTADDR_DEVALL ) ||
// 2264         ( dstAddr == NWK_BROADCAST_SHORTADDR_DEVZCZR) ||
// 2265         ( dstAddr == NWK_BROADCAST_SHORTADDR_DEVRXON))
// 2266     {
// 2267       req.apsSecure = FALSE;
// 2268       status = APSME_SwitchKeyReq( &req );
// 2269     }
// 2270     else
// 2271     {
// 2272       AddrMgrEntry_t          addrEntry;
// 2273 
// 2274       addrEntry.user = ADDRMGR_USER_SECURITY;
// 2275       addrEntry.nwkAddr = dstAddr;
// 2276 
// 2277       status = ZFailure;
// 2278 
// 2279       if ( AddrMgrEntryLookupNwk( &addrEntry ) == TRUE )
// 2280       {
// 2281         req.dstAddr = addrEntry.nwkAddr;
// 2282         req.apsSecure = TRUE;
// 2283         status = APSME_SwitchKeyReq( &req );
// 2284       }
// 2285     }
// 2286   }
// 2287   else // ( ZG_CHECK_SECURITY_MODE == ZG_SECURITY_RESIDENTIAL )
// 2288   {
// 2289     req.apsSecure = FALSE;
// 2290     status = APSME_SwitchKeyReq( &req );
// 2291   }
// 2292 
// 2293   if ( dstAddr >= NWK_BROADCAST_SHORTADDR_DEVZCZR)
// 2294   {
// 2295     zgSwitchCoordKey = TRUE;
// 2296     zgSwitchCoordKeyIndex = keySeqNum;
// 2297   }
// 2298   // Save if nv
// 2299   ZDApp_NVUpdate();
// 2300 
// 2301   return status;
// 2302 }
// 2303 #endif // ( ZG_BUILD_COORDINATOR_TYPE )
// 2304 
// 2305 /******************************************************************************
// 2306  * @fn          ZDSecMgrRequestAppKey
// 2307  *
// 2308  * @brief       Request an application key with partner.
// 2309  *
// 2310  * @param       partExtAddr - [in] partner extended address
// 2311  *
// 2312  * @return      ZStatus_t
// 2313  */

        RSEG BANKED_CODE:HUGECODE:NOROOT(0)
// 2314 ZStatus_t ZDSecMgrRequestAppKey( uint8 *partExtAddr )
ZDSecMgrRequestAppKey:
          CFI Block cfiBlock282 Using cfiCommon0
          CFI Function ZDSecMgrRequestAppKey
        CODE
// 2315 {
        FUNCALL ZDSecMgrRequestAppKey, APSME_RequestKeyReq
        LOCFRAME ISTACK, 2, STACK
        LOCFRAME PSTACK, 0, STACK
        LOCFRAME XSTACK, 4, STACK
        LOCFRAME IOVERLAY, 0, STATIC
        LOCFRAME DOVERLAY, 0, STATIC
        ARGFRAME ISTACK, 2, STACK
        ARGFRAME PSTACK, 0, STACK
        ARGFRAME XSTACK, 4, STACK
        ARGFRAME IOVERLAY, 0, STATIC
        ARGFRAME DOVERLAY, 0, STATIC
        PUSH      DPL
          CFI DPL0 Frame(CFA_SP, 4)
          CFI CFA_SP SP+-4
        PUSH      DPH
          CFI DPH0 Frame(CFA_SP, 5)
          CFI CFA_SP SP+-5
        ; Saved register size: 2
        ; Auto size: 4
        MOV       A,#-0x4
        LCALL     ?ALLOC_XSTACK8
          CFI CFA_XSP16 add(XSP16, 4)
// 2316   ZStatus_t status;
// 2317   APSME_RequestKeyReq_t req;
// 2318 
// 2319   req.dstAddr = 0;
        MOV       DPL,?XSP + 0
        MOV       DPH,?XSP + 1
        CLR       A
        MOVX      @DPTR,A
// 2320   req.keyType = KEY_TYPE_APP_MASTER;
        INC       A
        LCALL     ?XSTACK_DISP0_8
        MOV       A,#0x2
        MOVX      @DPTR,A
// 2321 
// 2322   req.partExtAddr = partExtAddr;
        LCALL     ?XSTACK_DISP0_8
        LCALL     ?Subroutine13 & 0xFFFF
// 2323   status = APSME_RequestKeyReq( &req );
// 2324 
// 2325   return status;
??CrossCallReturnLabel_120:
        LCALL     `??APSME_RequestKeyReq::?relay`; Banked call to: APSME_RequestKeyReq
        MOV       A,#0x4
        LJMP      ??Subroutine64_0 & 0xFFFF
// 2326 }
          CFI EndBlock cfiBlock282
// 2327 
// 2328 #if ( ZG_BUILD_JOINING_TYPE )
// 2329 /******************************************************************************
// 2330  * @fn          ZDSecMgrSetupPartner
// 2331  *
// 2332  * @brief       Setup for application key partner.
// 2333  *
// 2334  * @param       partNwkAddr - [in] partner network address
// 2335  *
// 2336  * @return      ZStatus_t
// 2337  */

        RSEG BANKED_CODE:HUGECODE:NOROOT(0)
// 2338 ZStatus_t ZDSecMgrSetupPartner( uint16 partNwkAddr, uint8* partExtAddr )
ZDSecMgrSetupPartner:
          CFI Block cfiBlock283 Using cfiCommon0
          CFI Function ZDSecMgrSetupPartner
        CODE
// 2339 {
        FUNCALL ZDSecMgrSetupPartner, AddrMgrExtAddrSet
        LOCFRAME ISTACK, 0, STACK
        LOCFRAME PSTACK, 0, STACK
        LOCFRAME XSTACK, 25, STACK
        LOCFRAME IOVERLAY, 0, STATIC
        LOCFRAME DOVERLAY, 0, STATIC
        ARGFRAME ISTACK, 0, STACK
        ARGFRAME PSTACK, 0, STACK
        ARGFRAME XSTACK, 25, STACK
        ARGFRAME IOVERLAY, 0, STATIC
        ARGFRAME DOVERLAY, 0, STATIC
        FUNCALL ZDSecMgrSetupPartner, AddrMgrEntryUpdate
        LOCFRAME ISTACK, 0, STACK
        LOCFRAME PSTACK, 0, STACK
        LOCFRAME XSTACK, 25, STACK
        LOCFRAME IOVERLAY, 0, STATIC
        LOCFRAME DOVERLAY, 0, STATIC
        ARGFRAME ISTACK, 0, STACK
        ARGFRAME PSTACK, 0, STACK
        ARGFRAME XSTACK, 25, STACK
        ARGFRAME IOVERLAY, 0, STATIC
        ARGFRAME DOVERLAY, 0, STATIC
        FUNCALL ZDSecMgrSetupPartner, ZDP_NwkAddrReq
        LOCFRAME ISTACK, 0, STACK
        LOCFRAME PSTACK, 0, STACK
        LOCFRAME XSTACK, 25, STACK
        LOCFRAME IOVERLAY, 0, STATIC
        LOCFRAME DOVERLAY, 0, STATIC
        ARGFRAME ISTACK, 0, STACK
        ARGFRAME PSTACK, 0, STACK
        ARGFRAME XSTACK, 25, STACK
        ARGFRAME IOVERLAY, 0, STATIC
        ARGFRAME DOVERLAY, 0, STATIC
        FUNCALL ZDSecMgrSetupPartner, AddrMgrExtAddrValid
        LOCFRAME ISTACK, 0, STACK
        LOCFRAME PSTACK, 0, STACK
        LOCFRAME XSTACK, 25, STACK
        LOCFRAME IOVERLAY, 0, STATIC
        LOCFRAME DOVERLAY, 0, STATIC
        ARGFRAME ISTACK, 0, STACK
        ARGFRAME PSTACK, 0, STACK
        ARGFRAME XSTACK, 25, STACK
        ARGFRAME IOVERLAY, 0, STATIC
        ARGFRAME DOVERLAY, 0, STATIC
        FUNCALL ZDSecMgrSetupPartner, ZDP_IEEEAddrReq
        LOCFRAME ISTACK, 0, STACK
        LOCFRAME PSTACK, 0, STACK
        LOCFRAME XSTACK, 25, STACK
        LOCFRAME IOVERLAY, 0, STATIC
        LOCFRAME DOVERLAY, 0, STATIC
        ARGFRAME ISTACK, 0, STACK
        ARGFRAME PSTACK, 0, STACK
        ARGFRAME XSTACK, 25, STACK
        ARGFRAME IOVERLAY, 0, STATIC
        ARGFRAME DOVERLAY, 0, STATIC
        REQUIRE ?V0
        REQUIRE ?V2
        REQUIRE ?V3
        MOV       A,#-0xc
        LCALL     ?BANKED_ENTER_XDATA
          CFI DPH0 load(1, XDATA, add(CFA_XSP16, literal(-1)))
          CFI DPL0 load(1, XDATA, add(CFA_XSP16, literal(-2)))
          CFI ?BRET_EXT load(1, XDATA, add(CFA_XSP16, literal(-3)))
          CFI ?RET_HIGH load(1, XDATA, add(CFA_XSP16, literal(-4)))
          CFI ?RET_LOW load(1, XDATA, add(CFA_XSP16, literal(-5)))
          CFI R7 load(1, XDATA, add(CFA_XSP16, literal(-6)))
          CFI V3 load(1, XDATA, add(CFA_XSP16, literal(-7)))
          CFI V2 load(1, XDATA, add(CFA_XSP16, literal(-8)))
          CFI V1 load(1, XDATA, add(CFA_XSP16, literal(-9)))
          CFI V0 load(1, XDATA, add(CFA_XSP16, literal(-10)))
          CFI VB load(1, XDATA, add(CFA_XSP16, literal(-11)))
          CFI R6 load(1, XDATA, add(CFA_XSP16, literal(-12)))
          CFI CFA_SP SP+0
          CFI CFA_XSP16 add(XSP16, 12)
        ; Saved register size: 12
        ; Auto size: 13
        MOV       A,#-0xd
        LCALL     ?ALLOC_XSTACK8
          CFI CFA_XSP16 add(XSP16, 25)
        MOV       ?V2,R2
        MOV       ?V3,R3
        MOV       A,R4
        MOV       R6,A
        MOV       A,R5
        MOV       R7,A
// 2340   AddrMgrEntry_t entry;
// 2341   ZStatus_t      status;
// 2342 
// 2343   status = ZFailure;
        MOV       ?V0,#0x1
// 2344 
// 2345   // update the address manager
// 2346   entry.user    = ADDRMGR_USER_SECURITY;
        MOV       DPL,?XSP + 0
        MOV       DPH,?XSP + 1
        MOV       A,#0x2
        MOVX      @DPTR,A
// 2347   entry.nwkAddr = partNwkAddr;
        DEC       A
        LCALL     ?XSTACK_DISP0_8
        LCALL     ?Subroutine19 & 0xFFFF
// 2348   AddrMgrExtAddrSet( entry.extAddr, partExtAddr );
??CrossCallReturnLabel_13:
        LCALL     ?XSTACK_DISP0_8
        MOV       R2,DPL
        MOV       R3,DPH
        LCALL     `??AddrMgrExtAddrSet::?relay`; Banked call to: AddrMgrExtAddrSet
// 2349 
// 2350   if ( AddrMgrEntryUpdate( &entry ) == TRUE )
        ; Setup parameters for call to function AddrMgrEntryUpdate
        MOV       R2,?XSP + 0
        MOV       R3,?XSP + 1
        LCALL     `??AddrMgrEntryUpdate::?relay`; Banked call to: AddrMgrEntryUpdate
        MOV       A,R1
        XRL       A,#0x1
        JNZ       ??ZDSecMgrSetupPartner_0
// 2351   {
// 2352     status = ZSuccess;
        MOV       ?V0,#0x0
// 2353 
// 2354     // check for address discovery
// 2355     if ( partNwkAddr == INVALID_NODE_ADDR )
        MOV       A,#-0x2
        XRL       A,?V2
        JNZ       ??ZDSecMgrSetupPartner_1
        MOV       A,#-0x1
        XRL       A,?V3
??ZDSecMgrSetupPartner_1:
        JNZ       ??ZDSecMgrSetupPartner_2
// 2356     {
// 2357       status = ZDP_NwkAddrReq( partExtAddr, ZDP_ADDR_REQTYPE_SINGLE, 0, 0 );
        ; Setup parameters for call to function ZDP_NwkAddrReq
        MOV       R5,#0x0
        MOV       R4,#0x0
        MOV       R1,#0x0
        MOV       A,R6
        MOV       R2,A
        MOV       A,R7
        MOV       R3,A
        LCALL     `??ZDP_NwkAddrReq::?relay`; Banked call to: ZDP_NwkAddrReq
        SJMP      ??ZDSecMgrSetupPartner_3
// 2358     }
// 2359     else if ( !AddrMgrExtAddrValid( partExtAddr ) )
??ZDSecMgrSetupPartner_2:
        ; Setup parameters for call to function AddrMgrExtAddrValid
        MOV       A,R6
        MOV       R2,A
        MOV       A,R7
        MOV       R3,A
        LCALL     `??AddrMgrExtAddrValid::?relay`; Banked call to: AddrMgrExtAddrValid
        MOV       A,R1
        JNZ       ??ZDSecMgrSetupPartner_0
// 2360     {
// 2361       status = ZDP_IEEEAddrReq( partNwkAddr, ZDP_ADDR_REQTYPE_SINGLE, 0, 0 );
        ; Setup parameters for call to function ZDP_IEEEAddrReq
        MOV       R5,#0x0
        MOV       R4,#0x0
        MOV       R1,#0x0
        MOV       R2,?V2
        MOV       R3,?V3
        LCALL     `??ZDP_IEEEAddrReq::?relay`; Banked call to: ZDP_IEEEAddrReq
??ZDSecMgrSetupPartner_3:
        MOV       A,R1
        MOV       ?V0,A
// 2362     }
// 2363   }
// 2364 
// 2365   return status;
??ZDSecMgrSetupPartner_0:
        MOV       R1,?V0
        MOV       A,#0xd
        LJMP      ?Subroutine3 & 0xFFFF
// 2366 }
          CFI EndBlock cfiBlock283
// 2367 #endif // ( ZG_BUILD_JOINING_TYPE )
// 2368 
// 2369 #if ( ZG_BUILD_COORDINATOR_TYPE )
// 2370 /******************************************************************************
// 2371  * @fn          ZDSecMgrAppKeyTypeSet
// 2372  *
// 2373  * @brief       Set application key type.
// 2374  *
// 2375  * @param       keyType - [in] application key type (KEY_TYPE_APP_MASTER@2 or
// 2376  *                                                   KEY_TYPE_APP_LINK@3
// 2377  *
// 2378  * @return      ZStatus_t
// 2379  */
// 2380 ZStatus_t ZDSecMgrAppKeyTypeSet( uint8 keyType )
// 2381 {
// 2382   if ( keyType == KEY_TYPE_APP_LINK )
// 2383   {
// 2384     ZDSecMgrAppKeyType = KEY_TYPE_APP_LINK;
// 2385   }
// 2386   else
// 2387   {
// 2388     ZDSecMgrAppKeyType = KEY_TYPE_APP_MASTER;
// 2389   }
// 2390 
// 2391   return ZSuccess;
// 2392 }
// 2393 #endif
// 2394 
// 2395 /******************************************************************************
// 2396  * ZigBee Device Security Manager - Stub Implementations
// 2397  */
// 2398 
// 2399 
// 2400 /******************************************************************************
// 2401  * @fn          ZDSecMgrLinkKeySet (stubs APSME_LinkKeySet)
// 2402  *
// 2403  * @brief       Set <APSME_LinkKeyData_t> for specified NWK address.
// 2404  *
// 2405  * @param       extAddr - [in] EXT address
// 2406  * @param       data    - [in] APSME_LinkKeyData_t
// 2407  *
// 2408  * @return      ZStatus_t
// 2409  */

        RSEG BANKED_CODE:HUGECODE:NOROOT(0)
// 2410 ZStatus_t ZDSecMgrLinkKeySet( uint8* extAddr, uint8* key )
APSME_LinkKeySet:
          CFI Block cfiBlock284 Using cfiCommon0
          CFI Function APSME_LinkKeySet
        CODE
// 2411 {
        FUNCALL APSME_LinkKeySet, ZDSecMgrEntryLookupExtGetIndex
        LOCFRAME ISTACK, 0, STACK
        LOCFRAME PSTACK, 0, STACK
        LOCFRAME XSTACK, 21, STACK
        LOCFRAME IOVERLAY, 0, STATIC
        LOCFRAME DOVERLAY, 0, STATIC
        ARGFRAME ISTACK, 0, STACK
        ARGFRAME PSTACK, 0, STACK
        ARGFRAME XSTACK, 21, STACK
        ARGFRAME IOVERLAY, 0, STATIC
        ARGFRAME DOVERLAY, 0, STATIC
        FUNCALL APSME_LinkKeySet, osal_mem_alloc
        LOCFRAME ISTACK, 0, STACK
        LOCFRAME PSTACK, 0, STACK
        LOCFRAME XSTACK, 19, STACK
        LOCFRAME IOVERLAY, 0, STATIC
        LOCFRAME DOVERLAY, 0, STATIC
        ARGFRAME ISTACK, 0, STACK
        ARGFRAME PSTACK, 0, STACK
        ARGFRAME XSTACK, 19, STACK
        ARGFRAME IOVERLAY, 0, STATIC
        ARGFRAME DOVERLAY, 0, STATIC
        FUNCALL APSME_LinkKeySet, osal_nv_read
        LOCFRAME ISTACK, 0, STACK
        LOCFRAME PSTACK, 0, STACK
        LOCFRAME XSTACK, 23, STACK
        LOCFRAME IOVERLAY, 0, STATIC
        LOCFRAME DOVERLAY, 0, STATIC
        ARGFRAME ISTACK, 0, STACK
        ARGFRAME PSTACK, 0, STACK
        ARGFRAME XSTACK, 23, STACK
        ARGFRAME IOVERLAY, 0, STATIC
        ARGFRAME DOVERLAY, 0, STATIC
        FUNCALL APSME_LinkKeySet, osal_memcpy
        LOCFRAME ISTACK, 0, STACK
        LOCFRAME PSTACK, 0, STACK
        LOCFRAME XSTACK, 22, STACK
        LOCFRAME IOVERLAY, 0, STATIC
        LOCFRAME DOVERLAY, 0, STATIC
        ARGFRAME ISTACK, 0, STACK
        ARGFRAME PSTACK, 0, STACK
        ARGFRAME XSTACK, 22, STACK
        ARGFRAME IOVERLAY, 0, STATIC
        ARGFRAME DOVERLAY, 0, STATIC
        FUNCALL APSME_LinkKeySet, osal_nv_write
        LOCFRAME ISTACK, 0, STACK
        LOCFRAME PSTACK, 0, STACK
        LOCFRAME XSTACK, 23, STACK
        LOCFRAME IOVERLAY, 0, STATIC
        LOCFRAME DOVERLAY, 0, STATIC
        ARGFRAME ISTACK, 0, STACK
        ARGFRAME PSTACK, 0, STACK
        ARGFRAME XSTACK, 23, STACK
        ARGFRAME IOVERLAY, 0, STATIC
        ARGFRAME DOVERLAY, 0, STATIC
        FUNCALL APSME_LinkKeySet, osal_memset
        LOCFRAME ISTACK, 0, STACK
        LOCFRAME PSTACK, 0, STACK
        LOCFRAME XSTACK, 19, STACK
        LOCFRAME IOVERLAY, 0, STATIC
        LOCFRAME DOVERLAY, 0, STATIC
        ARGFRAME ISTACK, 0, STACK
        ARGFRAME PSTACK, 0, STACK
        ARGFRAME XSTACK, 19, STACK
        ARGFRAME IOVERLAY, 0, STATIC
        ARGFRAME DOVERLAY, 0, STATIC
        FUNCALL APSME_LinkKeySet, osal_mem_free
        LOCFRAME ISTACK, 0, STACK
        LOCFRAME PSTACK, 0, STACK
        LOCFRAME XSTACK, 19, STACK
        LOCFRAME IOVERLAY, 0, STATIC
        LOCFRAME DOVERLAY, 0, STATIC
        ARGFRAME ISTACK, 0, STACK
        ARGFRAME PSTACK, 0, STACK
        ARGFRAME XSTACK, 19, STACK
        ARGFRAME IOVERLAY, 0, STATIC
        ARGFRAME DOVERLAY, 0, STATIC
        REQUIRE ?V0
        REQUIRE ?V1
        REQUIRE ?V2
        REQUIRE ?V3
        REQUIRE ?V4
        REQUIRE ?V5
        REQUIRE ?V6
        MOV       A,#-0xf
        LCALL     ?BANKED_ENTER_XDATA
          CFI DPH0 load(1, XDATA, add(CFA_XSP16, literal(-1)))
          CFI DPL0 load(1, XDATA, add(CFA_XSP16, literal(-2)))
          CFI ?BRET_EXT load(1, XDATA, add(CFA_XSP16, literal(-3)))
          CFI ?RET_HIGH load(1, XDATA, add(CFA_XSP16, literal(-4)))
          CFI ?RET_LOW load(1, XDATA, add(CFA_XSP16, literal(-5)))
          CFI R7 load(1, XDATA, add(CFA_XSP16, literal(-6)))
          CFI V6 load(1, XDATA, add(CFA_XSP16, literal(-7)))
          CFI V5 load(1, XDATA, add(CFA_XSP16, literal(-8)))
          CFI V4 load(1, XDATA, add(CFA_XSP16, literal(-9)))
          CFI V3 load(1, XDATA, add(CFA_XSP16, literal(-10)))
          CFI V2 load(1, XDATA, add(CFA_XSP16, literal(-11)))
          CFI V1 load(1, XDATA, add(CFA_XSP16, literal(-12)))
          CFI V0 load(1, XDATA, add(CFA_XSP16, literal(-13)))
          CFI VB load(1, XDATA, add(CFA_XSP16, literal(-14)))
          CFI R6 load(1, XDATA, add(CFA_XSP16, literal(-15)))
          CFI CFA_SP SP+0
          CFI CFA_XSP16 add(XSP16, 15)
        ; Saved register size: 15
        ; Auto size: 4
        MOV       A,#-0x4
        LCALL     ?ALLOC_XSTACK8
          CFI CFA_XSP16 add(XSP16, 19)
        MOV       A,R4
        MOV       R6,A
        MOV       A,R5
        MOV       R7,A
// 2412   ZStatus_t status;
// 2413   ZDSecMgrEntry_t* entry;
// 2414   APSME_LinkKeyData_t *pApsLinkKey = NULL;
// 2415   uint16 Index;
// 2416 
// 2417   // lookup entry index for specified EXT address
// 2418   status = ZDSecMgrEntryLookupExtGetIndex( extAddr, &entry, &Index );
        ; Setup parameters for call to function ZDSecMgrEntryLookupExtGetIndex
        MOV       A,#0x2
        LCALL     ?XSTACK_DISP100_8
        MOV       ?V0,R0
        MOV       ?V1,R1
        MOV       R0,#?V0
        LCALL     ?PUSH_XSTACK_I_TWO
          CFI CFA_XSP16 add(XSP16, 21)
        MOV       A,#0x2
        LCALL     ?XSTACK_DISP102_8
        LCALL     `??ZDSecMgrEntryLookupExtGetIndex::?relay`; Banked call to: ZDSecMgrEntryLookupExtGetIndex
        MOV       A,#0x2
        LCALL     ?DEALLOC_XSTACK8
          CFI CFA_XSP16 add(XSP16, 19)
        MOV       A,R1
        MOV       ?V0,A
// 2419 
// 2420   if ( status == ZSuccess )
        JZ        $+5
        LJMP      ??CrossCallReturnLabel_167 & 0xFFFF
// 2421   {
// 2422     // point to NV item
// 2423     entry->keyNvId = ZCD_NV_APS_LINK_KEY_DATA_START + Index;
        MOV       A,#0x2
        LCALL     ?XSTACK_DISP0_8
        MOVX      A,@DPTR
        ADD       A,#0x1
        MOV       R0,A
        INC       DPTR
        MOVX      A,@DPTR
        ADDC      A,#0x2
        LCALL     ?Subroutine28 & 0xFFFF
??CrossCallReturnLabel_147:
        INC       DPTR
        INC       DPTR
        LCALL     ??Subroutine59_0 & 0xFFFF
// 2424 
// 2425     pApsLinkKey = (APSME_LinkKeyData_t *)osal_mem_alloc(sizeof(APSME_LinkKeyData_t));
??CrossCallReturnLabel_113:
        ; Setup parameters for call to function osal_mem_alloc
        MOV       R2,#0x18
        MOV       R3,#0x0
        LCALL     `??osal_mem_alloc::?relay`; Banked call to: osal_mem_alloc
        MOV       ?V2,R2
        MOV       ?V3,R3
// 2426 
// 2427     if (pApsLinkKey != NULL)
        MOV       A,R2
        ORL       A,?V3
        JNZ       $+5
        LJMP      ??CrossCallReturnLabel_167 & 0xFFFF
// 2428     {
// 2429       // read the key form NV, keyNvId must be ZCD_NV_APS_LINK_KEY_DATA_START based
// 2430       osal_nv_read( entry->keyNvId, 0,
// 2431                    sizeof(APSME_LinkKeyData_t), pApsLinkKey );
        ; Setup parameters for call to function osal_nv_read
        MOV       R0,#?V2
        LCALL     ?PUSH_XSTACK_I_TWO
          CFI CFA_XSP16 add(XSP16, 21)
        MOV       ?V4,#0x18
        MOV       ?V5,#0x0
        MOV       R0,#?V4
        LCALL     ?PUSH_XSTACK_I_TWO
          CFI CFA_XSP16 add(XSP16, 23)
        MOV       R4,#0x0
        MOV       R5,#0x0
        MOV       A,#0x4
        LCALL     ?XSTACK_DISP0_8
        LCALL     ?Subroutine25 & 0xFFFF
??CrossCallReturnLabel_96:
        LCALL     `??osal_nv_read::?relay`; Banked call to: osal_nv_read
        MOV       A,#0x4
        LCALL     ?DEALLOC_XSTACK8
          CFI CFA_XSP16 add(XSP16, 19)
// 2432 
// 2433       // set new values of the key
// 2434       osal_memcpy( pApsLinkKey->key, key, SEC_KEY_LEN );
        ; Setup parameters for call to function osal_memcpy
        MOV       ?V4,R6
        MOV       ?V5,R7
        MOV       ?V6,#0x0
        MOV       R0,#?V4
        LCALL     ?PUSH_XSTACK_I_THREE
          CFI CFA_XSP16 add(XSP16, 22)
        MOV       R4,#0x10
        MOV       R5,#0x0
        MOV       R2,?V2
        MOV       R3,?V3
        LCALL     `??osal_memcpy::?relay`; Banked call to: osal_memcpy
        MOV       A,#0x3
        LCALL     ?DEALLOC_XSTACK8
          CFI CFA_XSP16 add(XSP16, 19)
// 2435       pApsLinkKey->rxFrmCntr = 0;
        MOV       A,?V2
        ADD       A,#0x14
        LCALL     ?Subroutine15 & 0xFFFF
// 2436       pApsLinkKey->txFrmCntr = 0;
??CrossCallReturnLabel_168:
        MOV       A,?V2
        ADD       A,#0x10
        LCALL     ?Subroutine15 & 0xFFFF
// 2437 
// 2438       osal_nv_write( entry->keyNvId, 0,
// 2439                     sizeof(APSME_LinkKeyData_t), pApsLinkKey );
??CrossCallReturnLabel_169:
        ; Setup parameters for call to function osal_nv_write
        MOV       R0,#?V2
        LCALL     ?PUSH_XSTACK_I_TWO
          CFI CFA_XSP16 add(XSP16, 21)
        MOV       ?V4,#0x18
        MOV       ?V5,#0x0
        MOV       R0,#?V4
        LCALL     ?PUSH_XSTACK_I_TWO
          CFI CFA_XSP16 add(XSP16, 23)
        MOV       R4,#0x0
        MOV       R5,#0x0
        MOV       A,#0x4
        LCALL     ?XSTACK_DISP0_8
        LCALL     ?Subroutine25 & 0xFFFF
??CrossCallReturnLabel_97:
        LCALL     `??osal_nv_write::?relay`; Banked call to: osal_nv_write
        MOV       A,#0x4
        LCALL     ?DEALLOC_XSTACK8
          CFI CFA_XSP16 add(XSP16, 19)
// 2440 
// 2441       // clear copy of key in RAM
// 2442       osal_memset(pApsLinkKey, 0x00, sizeof(APSME_LinkKeyData_t));
        ; Setup parameters for call to function osal_memset
        MOV       R4,#0x18
        MOV       R5,#0x0
        MOV       R1,#0x0
        MOV       R2,?V2
        MOV       R3,?V3
        LCALL     `??osal_memset::?relay`; Banked call to: osal_memset
// 2443 
// 2444       osal_mem_free(pApsLinkKey);
        ; Setup parameters for call to function osal_mem_free
        MOV       R2,?V2
        MOV       R3,?V3
        LCALL     `??osal_mem_free::?relay`; Banked call to: osal_mem_free
        LCALL     ?Subroutine33 & 0xFFFF
??CrossCallReturnLabel_129:
        INC       DPTR
        INC       DPTR
        LCALL     ??Subroutine68_0 & 0xFFFF
??CrossCallReturnLabel_136:
        MOV       A,R0
        MOV       B,#0x9
        MUL       AB
        MOV       R0,A
        MOV       R2,B
        MOV       B,#0x9
        MOV       A,R1
        MUL       AB
        ADD       A,R2
        MOV       R1,A
        MOV       A,#ApsLinkKeyFrmCntr & 0xff
        ADD       A,R0
        MOV       R0,A
        MOV       A,#(ApsLinkKeyFrmCntr >> 8) & 0xff
        ADDC      A,R1
        MOV       R1,A
        MOV       A,R0
        ADD       A,#-0x9
        MOV       DPL,A
        MOV       A,R1
        ADDC      A,#-0x13
        LCALL     ??Subroutine72_0 & 0xFFFF
// 2445 
// 2446       // set initial values for counters in RAM
// 2447       ApsLinkKeyFrmCntr[entry->keyNvId - ZCD_NV_APS_LINK_KEY_DATA_START].txFrmCntr = 0;
// 2448       ApsLinkKeyFrmCntr[entry->keyNvId - ZCD_NV_APS_LINK_KEY_DATA_START].rxFrmCntr = 0;
??CrossCallReturnLabel_166:
        MOV       A,R0
        ADD       A,#-0x5
        MOV       DPL,A
        MOV       A,R1
        ADDC      A,#-0x13
        LCALL     ??Subroutine72_0 & 0xFFFF
// 2449     }
// 2450   }
// 2451 
// 2452   return status;
??CrossCallReturnLabel_167:
        MOV       R1,?V0
        MOV       A,#0x4
          CFI EndBlock cfiBlock284
        REQUIRE ?Subroutine6
        ; // Fall through to label ?Subroutine6
// 2453 }

        RSEG BANKED_CODE:HUGECODE:NOROOT(0)
?Subroutine6:
          CFI Block cfiBlock285 Using cfiCommon0
          CFI NoFunction
          CFI CFA_SP SP+0
          CFI CFA_XSP16 add(XSP16, 19)
          CFI VB load(1, XDATA, add(CFA_XSP16, literal(-14)))
          CFI DPL0 load(1, XDATA, add(CFA_XSP16, literal(-2)))
          CFI DPH0 load(1, XDATA, add(CFA_XSP16, literal(-1)))
          CFI R6 load(1, XDATA, add(CFA_XSP16, literal(-15)))
          CFI R7 load(1, XDATA, add(CFA_XSP16, literal(-6)))
          CFI V0 load(1, XDATA, add(CFA_XSP16, literal(-13)))
          CFI V1 load(1, XDATA, add(CFA_XSP16, literal(-12)))
          CFI V2 load(1, XDATA, add(CFA_XSP16, literal(-11)))
          CFI V3 load(1, XDATA, add(CFA_XSP16, literal(-10)))
          CFI V4 load(1, XDATA, add(CFA_XSP16, literal(-9)))
          CFI V5 load(1, XDATA, add(CFA_XSP16, literal(-8)))
          CFI V6 load(1, XDATA, add(CFA_XSP16, literal(-7)))
          CFI ?BRET_EXT load(1, XDATA, add(CFA_XSP16, literal(-3)))
          CFI ?RET_HIGH load(1, XDATA, add(CFA_XSP16, literal(-4)))
          CFI ?RET_LOW load(1, XDATA, add(CFA_XSP16, literal(-5)))
          CFI Invalid
        LCALL     ?DEALLOC_XSTACK8
          CFI EndBlock cfiBlock285
        REQUIRE ??Subroutine66_0
        ; // Fall through to label ??Subroutine66_0

        RSEG BANKED_CODE:HUGECODE:NOROOT(0)
??Subroutine66_0:
          CFI Block cfiBlock286 Using cfiCommon0
          CFI NoFunction
          CFI CFA_SP SP+0
          CFI CFA_XSP16 add(XSP16, 15)
          CFI VB load(1, XDATA, add(CFA_XSP16, literal(-14)))
          CFI DPL0 load(1, XDATA, add(CFA_XSP16, literal(-2)))
          CFI DPH0 load(1, XDATA, add(CFA_XSP16, literal(-1)))
          CFI R6 load(1, XDATA, add(CFA_XSP16, literal(-15)))
          CFI R7 load(1, XDATA, add(CFA_XSP16, literal(-6)))
          CFI V0 load(1, XDATA, add(CFA_XSP16, literal(-13)))
          CFI V1 load(1, XDATA, add(CFA_XSP16, literal(-12)))
          CFI V2 load(1, XDATA, add(CFA_XSP16, literal(-11)))
          CFI V3 load(1, XDATA, add(CFA_XSP16, literal(-10)))
          CFI V4 load(1, XDATA, add(CFA_XSP16, literal(-9)))
          CFI V5 load(1, XDATA, add(CFA_XSP16, literal(-8)))
          CFI V6 load(1, XDATA, add(CFA_XSP16, literal(-7)))
          CFI ?BRET_EXT load(1, XDATA, add(CFA_XSP16, literal(-3)))
          CFI ?RET_HIGH load(1, XDATA, add(CFA_XSP16, literal(-4)))
          CFI ?RET_LOW load(1, XDATA, add(CFA_XSP16, literal(-5)))
        MOV       R7,#0x7
        LJMP      ?BANKED_LEAVE_XDATA
          CFI EndBlock cfiBlock286

        RSEG BANKED_CODE:HUGECODE:NOROOT(0)
?Subroutine33:
          CFI Block cfiCond287 Using cfiCommon0
          CFI Function APSME_LinkKeySet
          CFI Conditional ??CrossCallReturnLabel_129
          CFI R6 load(1, XDATA, add(CFA_XSP16, literal(-15)))
          CFI VB load(1, XDATA, add(CFA_XSP16, literal(-14)))
          CFI V0 load(1, XDATA, add(CFA_XSP16, literal(-13)))
          CFI V1 load(1, XDATA, add(CFA_XSP16, literal(-12)))
          CFI V2 load(1, XDATA, add(CFA_XSP16, literal(-11)))
          CFI V3 load(1, XDATA, add(CFA_XSP16, literal(-10)))
          CFI V4 load(1, XDATA, add(CFA_XSP16, literal(-9)))
          CFI V5 load(1, XDATA, add(CFA_XSP16, literal(-8)))
          CFI V6 load(1, XDATA, add(CFA_XSP16, literal(-7)))
          CFI R7 load(1, XDATA, add(CFA_XSP16, literal(-6)))
          CFI ?RET_LOW load(1, XDATA, add(CFA_XSP16, literal(-5)))
          CFI ?RET_HIGH load(1, XDATA, add(CFA_XSP16, literal(-4)))
          CFI ?BRET_EXT load(1, XDATA, add(CFA_XSP16, literal(-3)))
          CFI DPL0 load(1, XDATA, add(CFA_XSP16, literal(-2)))
          CFI DPH0 load(1, XDATA, add(CFA_XSP16, literal(-1)))
          CFI CFA_SP SP+-2
          CFI CFA_XSP16 add(XSP16, 19)
          CFI Block cfiCond288 Using cfiCommon0
          CFI (cfiCond288) Function ZDSecMgrAuthenticationSet
          CFI (cfiCond288) Conditional ??CrossCallReturnLabel_130
          CFI (cfiCond288) R6 load(1, XDATA, add(CFA_XSP16, literal(-9)))
          CFI (cfiCond288) VB load(1, XDATA, add(CFA_XSP16, literal(-8)))
          CFI (cfiCond288) V0 load(1, XDATA, add(CFA_XSP16, literal(-7)))
          CFI (cfiCond288) R7 load(1, XDATA, add(CFA_XSP16, literal(-6)))
          CFI (cfiCond288) ?RET_LOW load(1, XDATA, add(CFA_XSP16, literal(-5)))
          CFI (cfiCond288) ?RET_HIGH load(1, XDATA, add(CFA_XSP16, literal(-4)))
          CFI (cfiCond288) ?BRET_EXT load(1, XDATA, add(CFA_XSP16, literal(-3)))
          CFI (cfiCond288) DPL0 load(1, XDATA, add(CFA_XSP16, literal(-2)))
          CFI (cfiCond288) DPH0 load(1, XDATA, add(CFA_XSP16, literal(-1)))
          CFI (cfiCond288) CFA_SP SP+-2
          CFI (cfiCond288) CFA_XSP16 add(XSP16, 11)
          CFI Block cfiPicker289 Using cfiCommon1
          CFI (cfiPicker289) NoFunction
          CFI (cfiPicker289) Picker
        MOV       DPL,?XSP + 0
        MOV       DPH,?XSP + 1
          CFI EndBlock cfiCond287
          CFI EndBlock cfiCond288
          CFI EndBlock cfiPicker289
        REQUIRE ??Subroutine67_0
        ; // Fall through to label ??Subroutine67_0

        RSEG BANKED_CODE:HUGECODE:NOROOT(0)
??Subroutine67_0:
          CFI Block cfiCond290 Using cfiCommon0
          CFI Function ZDSecMgrAppKeyGet
          CFI Conditional ??CrossCallReturnLabel_126
          CFI DPL0 Frame(CFA_SP, 4)
          CFI DPH0 Frame(CFA_SP, 5)
          CFI CFA_SP SP+-7
          CFI Block cfiCond291 Using cfiCommon0
          CFI (cfiCond291) Function ZDSecMgrAppKeyGet
          CFI (cfiCond291) Conditional ??CrossCallReturnLabel_127
          CFI (cfiCond291) DPL0 Frame(CFA_SP, 4)
          CFI (cfiCond291) DPH0 Frame(CFA_SP, 5)
          CFI (cfiCond291) CFA_SP SP+-8
          CFI Block cfiCond292 Using cfiCommon0
          CFI (cfiCond292) Function ZDSecMgrDeviceJoin
          CFI (cfiCond292) Conditional ??CrossCallReturnLabel_128
          CFI (cfiCond292) R6 load(1, XDATA, add(CFA_XSP16, literal(-16)))
          CFI (cfiCond292) VB load(1, XDATA, add(CFA_XSP16, literal(-15)))
          CFI (cfiCond292) V0 load(1, XDATA, add(CFA_XSP16, literal(-14)))
          CFI (cfiCond292) V1 load(1, XDATA, add(CFA_XSP16, literal(-13)))
          CFI (cfiCond292) V2 load(1, XDATA, add(CFA_XSP16, literal(-12)))
          CFI (cfiCond292) V3 load(1, XDATA, add(CFA_XSP16, literal(-11)))
          CFI (cfiCond292) V4 load(1, XDATA, add(CFA_XSP16, literal(-10)))
          CFI (cfiCond292) V5 load(1, XDATA, add(CFA_XSP16, literal(-9)))
          CFI (cfiCond292) V6 load(1, XDATA, add(CFA_XSP16, literal(-8)))
          CFI (cfiCond292) V7 load(1, XDATA, add(CFA_XSP16, literal(-7)))
          CFI (cfiCond292) R7 load(1, XDATA, add(CFA_XSP16, literal(-6)))
          CFI (cfiCond292) ?RET_LOW load(1, XDATA, add(CFA_XSP16, literal(-5)))
          CFI (cfiCond292) ?RET_HIGH load(1, XDATA, add(CFA_XSP16, literal(-4)))
          CFI (cfiCond292) ?BRET_EXT load(1, XDATA, add(CFA_XSP16, literal(-3)))
          CFI (cfiCond292) DPL0 load(1, XDATA, add(CFA_XSP16, literal(-2)))
          CFI (cfiCond292) DPH0 load(1, XDATA, add(CFA_XSP16, literal(-1)))
          CFI (cfiCond292) CFA_SP SP+-2
          CFI (cfiCond292) CFA_XSP16 add(XSP16, 30)
          CFI Block cfiCond293 Using cfiCommon0
          CFI (cfiCond293) Function APSME_LinkKeySet
          CFI (cfiCond293) Conditional ??CrossCallReturnLabel_129
          CFI (cfiCond293) R6 load(1, XDATA, add(CFA_XSP16, literal(-15)))
          CFI (cfiCond293) VB load(1, XDATA, add(CFA_XSP16, literal(-14)))
          CFI (cfiCond293) V0 load(1, XDATA, add(CFA_XSP16, literal(-13)))
          CFI (cfiCond293) V1 load(1, XDATA, add(CFA_XSP16, literal(-12)))
          CFI (cfiCond293) V2 load(1, XDATA, add(CFA_XSP16, literal(-11)))
          CFI (cfiCond293) V3 load(1, XDATA, add(CFA_XSP16, literal(-10)))
          CFI (cfiCond293) V4 load(1, XDATA, add(CFA_XSP16, literal(-9)))
          CFI (cfiCond293) V5 load(1, XDATA, add(CFA_XSP16, literal(-8)))
          CFI (cfiCond293) V6 load(1, XDATA, add(CFA_XSP16, literal(-7)))
          CFI (cfiCond293) R7 load(1, XDATA, add(CFA_XSP16, literal(-6)))
          CFI (cfiCond293) ?RET_LOW load(1, XDATA, add(CFA_XSP16, literal(-5)))
          CFI (cfiCond293) ?RET_HIGH load(1, XDATA, add(CFA_XSP16, literal(-4)))
          CFI (cfiCond293) ?BRET_EXT load(1, XDATA, add(CFA_XSP16, literal(-3)))
          CFI (cfiCond293) DPL0 load(1, XDATA, add(CFA_XSP16, literal(-2)))
          CFI (cfiCond293) DPH0 load(1, XDATA, add(CFA_XSP16, literal(-1)))
          CFI (cfiCond293) CFA_SP SP+-2
          CFI (cfiCond293) CFA_XSP16 add(XSP16, 19)
          CFI Block cfiCond294 Using cfiCommon0
          CFI (cfiCond294) Function ZDSecMgrAuthenticationSet
          CFI (cfiCond294) Conditional ??CrossCallReturnLabel_130
          CFI (cfiCond294) R6 load(1, XDATA, add(CFA_XSP16, literal(-9)))
          CFI (cfiCond294) VB load(1, XDATA, add(CFA_XSP16, literal(-8)))
          CFI (cfiCond294) V0 load(1, XDATA, add(CFA_XSP16, literal(-7)))
          CFI (cfiCond294) R7 load(1, XDATA, add(CFA_XSP16, literal(-6)))
          CFI (cfiCond294) ?RET_LOW load(1, XDATA, add(CFA_XSP16, literal(-5)))
          CFI (cfiCond294) ?RET_HIGH load(1, XDATA, add(CFA_XSP16, literal(-4)))
          CFI (cfiCond294) ?BRET_EXT load(1, XDATA, add(CFA_XSP16, literal(-3)))
          CFI (cfiCond294) DPL0 load(1, XDATA, add(CFA_XSP16, literal(-2)))
          CFI (cfiCond294) DPH0 load(1, XDATA, add(CFA_XSP16, literal(-1)))
          CFI (cfiCond294) CFA_SP SP+-2
          CFI (cfiCond294) CFA_XSP16 add(XSP16, 11)
          CFI Block cfiPicker295 Using cfiCommon1
          CFI (cfiPicker295) NoFunction
          CFI (cfiPicker295) Picker
        LCALL     ?Subroutine47 & 0xFFFF
??CrossCallReturnLabel_132:
        RET
          CFI EndBlock cfiCond290
          CFI EndBlock cfiCond291
          CFI EndBlock cfiCond292
          CFI EndBlock cfiCond293
          CFI EndBlock cfiCond294
          CFI EndBlock cfiPicker295

        RSEG BANKED_CODE:HUGECODE:NOROOT(0)
?Subroutine47:
          CFI Block cfiCond296 Using cfiCommon0
          CFI Function APSME_LinkKeySet
          CFI Conditional ??CrossCallReturnLabel_131, ??CrossCallReturnLabel_96
          CFI R6 load(1, XDATA, add(CFA_XSP16, literal(-15)))
          CFI VB load(1, XDATA, add(CFA_XSP16, literal(-14)))
          CFI V0 load(1, XDATA, add(CFA_XSP16, literal(-13)))
          CFI V1 load(1, XDATA, add(CFA_XSP16, literal(-12)))
          CFI V2 load(1, XDATA, add(CFA_XSP16, literal(-11)))
          CFI V3 load(1, XDATA, add(CFA_XSP16, literal(-10)))
          CFI V4 load(1, XDATA, add(CFA_XSP16, literal(-9)))
          CFI V5 load(1, XDATA, add(CFA_XSP16, literal(-8)))
          CFI V6 load(1, XDATA, add(CFA_XSP16, literal(-7)))
          CFI R7 load(1, XDATA, add(CFA_XSP16, literal(-6)))
          CFI ?RET_LOW load(1, XDATA, add(CFA_XSP16, literal(-5)))
          CFI ?RET_HIGH load(1, XDATA, add(CFA_XSP16, literal(-4)))
          CFI ?BRET_EXT load(1, XDATA, add(CFA_XSP16, literal(-3)))
          CFI DPL0 load(1, XDATA, add(CFA_XSP16, literal(-2)))
          CFI DPH0 load(1, XDATA, add(CFA_XSP16, literal(-1)))
          CFI CFA_SP SP+-4
          CFI CFA_XSP16 add(XSP16, 23)
          CFI Block cfiCond297 Using cfiCommon0
          CFI (cfiCond297) Function APSME_LinkKeySet
          CFI (cfiCond297) Conditional ??CrossCallReturnLabel_131, ??CrossCallReturnLabel_97
          CFI (cfiCond297) R6 load(1, XDATA, add(CFA_XSP16, literal(-15)))
          CFI (cfiCond297) VB load(1, XDATA, add(CFA_XSP16, literal(-14)))
          CFI (cfiCond297) V0 load(1, XDATA, add(CFA_XSP16, literal(-13)))
          CFI (cfiCond297) V1 load(1, XDATA, add(CFA_XSP16, literal(-12)))
          CFI (cfiCond297) V2 load(1, XDATA, add(CFA_XSP16, literal(-11)))
          CFI (cfiCond297) V3 load(1, XDATA, add(CFA_XSP16, literal(-10)))
          CFI (cfiCond297) V4 load(1, XDATA, add(CFA_XSP16, literal(-9)))
          CFI (cfiCond297) V5 load(1, XDATA, add(CFA_XSP16, literal(-8)))
          CFI (cfiCond297) V6 load(1, XDATA, add(CFA_XSP16, literal(-7)))
          CFI (cfiCond297) R7 load(1, XDATA, add(CFA_XSP16, literal(-6)))
          CFI (cfiCond297) ?RET_LOW load(1, XDATA, add(CFA_XSP16, literal(-5)))
          CFI (cfiCond297) ?RET_HIGH load(1, XDATA, add(CFA_XSP16, literal(-4)))
          CFI (cfiCond297) ?BRET_EXT load(1, XDATA, add(CFA_XSP16, literal(-3)))
          CFI (cfiCond297) DPL0 load(1, XDATA, add(CFA_XSP16, literal(-2)))
          CFI (cfiCond297) DPH0 load(1, XDATA, add(CFA_XSP16, literal(-1)))
          CFI (cfiCond297) CFA_SP SP+-4
          CFI (cfiCond297) CFA_XSP16 add(XSP16, 23)
          CFI Block cfiCond298 Using cfiCommon0
          CFI (cfiCond298) Function APSME_LinkKeyNVIdGet
          CFI (cfiCond298) Conditional ??CrossCallReturnLabel_131, ??CrossCallReturnLabel_98
          CFI (cfiCond298) R6 load(1, XDATA, add(CFA_XSP16, literal(-9)))
          CFI (cfiCond298) VB load(1, XDATA, add(CFA_XSP16, literal(-8)))
          CFI (cfiCond298) V0 load(1, XDATA, add(CFA_XSP16, literal(-7)))
          CFI (cfiCond298) R7 load(1, XDATA, add(CFA_XSP16, literal(-6)))
          CFI (cfiCond298) ?RET_LOW load(1, XDATA, add(CFA_XSP16, literal(-5)))
          CFI (cfiCond298) ?RET_HIGH load(1, XDATA, add(CFA_XSP16, literal(-4)))
          CFI (cfiCond298) ?BRET_EXT load(1, XDATA, add(CFA_XSP16, literal(-3)))
          CFI (cfiCond298) DPL0 load(1, XDATA, add(CFA_XSP16, literal(-2)))
          CFI (cfiCond298) DPH0 load(1, XDATA, add(CFA_XSP16, literal(-1)))
          CFI (cfiCond298) CFA_SP SP+-4
          CFI (cfiCond298) CFA_XSP16 add(XSP16, 11)
          CFI Block cfiCond299 Using cfiCommon0
          CFI (cfiCond299) Function APSME_LinkKeySet
          CFI (cfiCond299) Conditional ??CrossCallReturnLabel_132, ??CrossCallReturnLabel_129
          CFI (cfiCond299) R6 load(1, XDATA, add(CFA_XSP16, literal(-15)))
          CFI (cfiCond299) VB load(1, XDATA, add(CFA_XSP16, literal(-14)))
          CFI (cfiCond299) V0 load(1, XDATA, add(CFA_XSP16, literal(-13)))
          CFI (cfiCond299) V1 load(1, XDATA, add(CFA_XSP16, literal(-12)))
          CFI (cfiCond299) V2 load(1, XDATA, add(CFA_XSP16, literal(-11)))
          CFI (cfiCond299) V3 load(1, XDATA, add(CFA_XSP16, literal(-10)))
          CFI (cfiCond299) V4 load(1, XDATA, add(CFA_XSP16, literal(-9)))
          CFI (cfiCond299) V5 load(1, XDATA, add(CFA_XSP16, literal(-8)))
          CFI (cfiCond299) V6 load(1, XDATA, add(CFA_XSP16, literal(-7)))
          CFI (cfiCond299) R7 load(1, XDATA, add(CFA_XSP16, literal(-6)))
          CFI (cfiCond299) ?RET_LOW load(1, XDATA, add(CFA_XSP16, literal(-5)))
          CFI (cfiCond299) ?RET_HIGH load(1, XDATA, add(CFA_XSP16, literal(-4)))
          CFI (cfiCond299) ?BRET_EXT load(1, XDATA, add(CFA_XSP16, literal(-3)))
          CFI (cfiCond299) DPL0 load(1, XDATA, add(CFA_XSP16, literal(-2)))
          CFI (cfiCond299) DPH0 load(1, XDATA, add(CFA_XSP16, literal(-1)))
          CFI (cfiCond299) CFA_SP SP+-4
          CFI (cfiCond299) CFA_XSP16 add(XSP16, 19)
          CFI Block cfiCond300 Using cfiCommon0
          CFI (cfiCond300) Function ZDSecMgrAuthenticationSet
          CFI (cfiCond300) Conditional ??CrossCallReturnLabel_132, ??CrossCallReturnLabel_130
          CFI (cfiCond300) R6 load(1, XDATA, add(CFA_XSP16, literal(-9)))
          CFI (cfiCond300) VB load(1, XDATA, add(CFA_XSP16, literal(-8)))
          CFI (cfiCond300) V0 load(1, XDATA, add(CFA_XSP16, literal(-7)))
          CFI (cfiCond300) R7 load(1, XDATA, add(CFA_XSP16, literal(-6)))
          CFI (cfiCond300) ?RET_LOW load(1, XDATA, add(CFA_XSP16, literal(-5)))
          CFI (cfiCond300) ?RET_HIGH load(1, XDATA, add(CFA_XSP16, literal(-4)))
          CFI (cfiCond300) ?BRET_EXT load(1, XDATA, add(CFA_XSP16, literal(-3)))
          CFI (cfiCond300) DPL0 load(1, XDATA, add(CFA_XSP16, literal(-2)))
          CFI (cfiCond300) DPH0 load(1, XDATA, add(CFA_XSP16, literal(-1)))
          CFI (cfiCond300) CFA_SP SP+-4
          CFI (cfiCond300) CFA_XSP16 add(XSP16, 11)
          CFI Block cfiCond301 Using cfiCommon0
          CFI (cfiCond301) Function ZDSecMgrAppKeyGet
          CFI (cfiCond301) Conditional ??CrossCallReturnLabel_132, ??CrossCallReturnLabel_126
          CFI (cfiCond301) DPL0 Frame(CFA_SP, 4)
          CFI (cfiCond301) DPH0 Frame(CFA_SP, 5)
          CFI (cfiCond301) CFA_SP SP+-9
          CFI Block cfiCond302 Using cfiCommon0
          CFI (cfiCond302) Function ZDSecMgrAppKeyGet
          CFI (cfiCond302) Conditional ??CrossCallReturnLabel_132, ??CrossCallReturnLabel_127
          CFI (cfiCond302) DPL0 Frame(CFA_SP, 4)
          CFI (cfiCond302) DPH0 Frame(CFA_SP, 5)
          CFI (cfiCond302) CFA_SP SP+-10
          CFI Block cfiCond303 Using cfiCommon0
          CFI (cfiCond303) Function ZDSecMgrDeviceJoin
          CFI (cfiCond303) Conditional ??CrossCallReturnLabel_132, ??CrossCallReturnLabel_128
          CFI (cfiCond303) R6 load(1, XDATA, add(CFA_XSP16, literal(-16)))
          CFI (cfiCond303) VB load(1, XDATA, add(CFA_XSP16, literal(-15)))
          CFI (cfiCond303) V0 load(1, XDATA, add(CFA_XSP16, literal(-14)))
          CFI (cfiCond303) V1 load(1, XDATA, add(CFA_XSP16, literal(-13)))
          CFI (cfiCond303) V2 load(1, XDATA, add(CFA_XSP16, literal(-12)))
          CFI (cfiCond303) V3 load(1, XDATA, add(CFA_XSP16, literal(-11)))
          CFI (cfiCond303) V4 load(1, XDATA, add(CFA_XSP16, literal(-10)))
          CFI (cfiCond303) V5 load(1, XDATA, add(CFA_XSP16, literal(-9)))
          CFI (cfiCond303) V6 load(1, XDATA, add(CFA_XSP16, literal(-8)))
          CFI (cfiCond303) V7 load(1, XDATA, add(CFA_XSP16, literal(-7)))
          CFI (cfiCond303) R7 load(1, XDATA, add(CFA_XSP16, literal(-6)))
          CFI (cfiCond303) ?RET_LOW load(1, XDATA, add(CFA_XSP16, literal(-5)))
          CFI (cfiCond303) ?RET_HIGH load(1, XDATA, add(CFA_XSP16, literal(-4)))
          CFI (cfiCond303) ?BRET_EXT load(1, XDATA, add(CFA_XSP16, literal(-3)))
          CFI (cfiCond303) DPL0 load(1, XDATA, add(CFA_XSP16, literal(-2)))
          CFI (cfiCond303) DPH0 load(1, XDATA, add(CFA_XSP16, literal(-1)))
          CFI (cfiCond303) CFA_SP SP+-4
          CFI (cfiCond303) CFA_XSP16 add(XSP16, 30)
          CFI Block cfiPicker304 Using cfiCommon1
          CFI (cfiPicker304) NoFunction
          CFI (cfiPicker304) Picker
        MOVX      A,@DPTR
        MOV       R0,A
        INC       DPTR
        MOVX      A,@DPTR
        MOV       DPH,A
        MOV       DPL,R0
        RET
          CFI EndBlock cfiCond296
          CFI EndBlock cfiCond297
          CFI EndBlock cfiCond298
          CFI EndBlock cfiCond299
          CFI EndBlock cfiCond300
          CFI EndBlock cfiCond301
          CFI EndBlock cfiCond302
          CFI EndBlock cfiCond303
          CFI EndBlock cfiPicker304

        RSEG BANKED_CODE:HUGECODE:NOROOT(0)
?Subroutine30:
          CFI Block cfiCond305 Using cfiCommon0
          CFI Function ZDSecMgrSendNwkKey
          CFI Conditional ??CrossCallReturnLabel_133
          CFI R6 load(1, XDATA, add(CFA_XSP16, literal(-10)))
          CFI VB load(1, XDATA, add(CFA_XSP16, literal(-9)))
          CFI V0 load(1, XDATA, add(CFA_XSP16, literal(-8)))
          CFI V1 load(1, XDATA, add(CFA_XSP16, literal(-7)))
          CFI R7 load(1, XDATA, add(CFA_XSP16, literal(-6)))
          CFI ?RET_LOW load(1, XDATA, add(CFA_XSP16, literal(-5)))
          CFI ?RET_HIGH load(1, XDATA, add(CFA_XSP16, literal(-4)))
          CFI ?BRET_EXT load(1, XDATA, add(CFA_XSP16, literal(-3)))
          CFI DPL0 load(1, XDATA, add(CFA_XSP16, literal(-2)))
          CFI DPH0 load(1, XDATA, add(CFA_XSP16, literal(-1)))
          CFI CFA_SP SP+-2
          CFI CFA_XSP16 add(XSP16, 40)
          CFI Block cfiCond306 Using cfiCommon0
          CFI (cfiCond306) Function ZDSecMgrSendNwkKey
          CFI (cfiCond306) Conditional ??CrossCallReturnLabel_138
          CFI (cfiCond306) R6 load(1, XDATA, add(CFA_XSP16, literal(-10)))
          CFI (cfiCond306) VB load(1, XDATA, add(CFA_XSP16, literal(-9)))
          CFI (cfiCond306) V0 load(1, XDATA, add(CFA_XSP16, literal(-8)))
          CFI (cfiCond306) V1 load(1, XDATA, add(CFA_XSP16, literal(-7)))
          CFI (cfiCond306) R7 load(1, XDATA, add(CFA_XSP16, literal(-6)))
          CFI (cfiCond306) ?RET_LOW load(1, XDATA, add(CFA_XSP16, literal(-5)))
          CFI (cfiCond306) ?RET_HIGH load(1, XDATA, add(CFA_XSP16, literal(-4)))
          CFI (cfiCond306) ?BRET_EXT load(1, XDATA, add(CFA_XSP16, literal(-3)))
          CFI (cfiCond306) DPL0 load(1, XDATA, add(CFA_XSP16, literal(-2)))
          CFI (cfiCond306) DPH0 load(1, XDATA, add(CFA_XSP16, literal(-1)))
          CFI (cfiCond306) CFA_SP SP+-2
          CFI (cfiCond306) CFA_XSP16 add(XSP16, 40)
          CFI Block cfiPicker307 Using cfiCommon1
          CFI (cfiPicker307) NoFunction
          CFI (cfiPicker307) Picker
        MOV       R7,A
        MOV       DPL,R6
        MOV       DPH,R7
          CFI EndBlock cfiCond305
          CFI EndBlock cfiCond306
          CFI EndBlock cfiPicker307
        REQUIRE ??Subroutine68_0
        ; // Fall through to label ??Subroutine68_0

        RSEG BANKED_CODE:HUGECODE:NOROOT(0)
??Subroutine68_0:
          CFI Block cfiCond308 Using cfiCommon0
          CFI Function ZDSecMgrAddrClear
          CFI Conditional ??CrossCallReturnLabel_134
          CFI R6 load(1, XDATA, add(CFA_XSP16, literal(-9)))
          CFI VB load(1, XDATA, add(CFA_XSP16, literal(-8)))
          CFI V0 load(1, XDATA, add(CFA_XSP16, literal(-7)))
          CFI R7 load(1, XDATA, add(CFA_XSP16, literal(-6)))
          CFI ?RET_LOW load(1, XDATA, add(CFA_XSP16, literal(-5)))
          CFI ?RET_HIGH load(1, XDATA, add(CFA_XSP16, literal(-4)))
          CFI ?BRET_EXT load(1, XDATA, add(CFA_XSP16, literal(-3)))
          CFI DPL0 load(1, XDATA, add(CFA_XSP16, literal(-2)))
          CFI DPH0 load(1, XDATA, add(CFA_XSP16, literal(-1)))
          CFI CFA_SP SP+-2
          CFI CFA_XSP16 add(XSP16, 24)
          CFI Block cfiCond309 Using cfiCommon0
          CFI (cfiCond309) Function ZDSecMgrDeviceJoin
          CFI (cfiCond309) Conditional ??CrossCallReturnLabel_135
          CFI (cfiCond309) R6 load(1, XDATA, add(CFA_XSP16, literal(-16)))
          CFI (cfiCond309) VB load(1, XDATA, add(CFA_XSP16, literal(-15)))
          CFI (cfiCond309) V0 load(1, XDATA, add(CFA_XSP16, literal(-14)))
          CFI (cfiCond309) V1 load(1, XDATA, add(CFA_XSP16, literal(-13)))
          CFI (cfiCond309) V2 load(1, XDATA, add(CFA_XSP16, literal(-12)))
          CFI (cfiCond309) V3 load(1, XDATA, add(CFA_XSP16, literal(-11)))
          CFI (cfiCond309) V4 load(1, XDATA, add(CFA_XSP16, literal(-10)))
          CFI (cfiCond309) V5 load(1, XDATA, add(CFA_XSP16, literal(-9)))
          CFI (cfiCond309) V6 load(1, XDATA, add(CFA_XSP16, literal(-8)))
          CFI (cfiCond309) V7 load(1, XDATA, add(CFA_XSP16, literal(-7)))
          CFI (cfiCond309) R7 load(1, XDATA, add(CFA_XSP16, literal(-6)))
          CFI (cfiCond309) ?RET_LOW load(1, XDATA, add(CFA_XSP16, literal(-5)))
          CFI (cfiCond309) ?RET_HIGH load(1, XDATA, add(CFA_XSP16, literal(-4)))
          CFI (cfiCond309) ?BRET_EXT load(1, XDATA, add(CFA_XSP16, literal(-3)))
          CFI (cfiCond309) DPL0 load(1, XDATA, add(CFA_XSP16, literal(-2)))
          CFI (cfiCond309) DPH0 load(1, XDATA, add(CFA_XSP16, literal(-1)))
          CFI (cfiCond309) CFA_SP SP+-2
          CFI (cfiCond309) CFA_XSP16 add(XSP16, 30)
          CFI Block cfiCond310 Using cfiCommon0
          CFI (cfiCond310) Function APSME_LinkKeySet
          CFI (cfiCond310) Conditional ??CrossCallReturnLabel_136
          CFI (cfiCond310) R6 load(1, XDATA, add(CFA_XSP16, literal(-15)))
          CFI (cfiCond310) VB load(1, XDATA, add(CFA_XSP16, literal(-14)))
          CFI (cfiCond310) V0 load(1, XDATA, add(CFA_XSP16, literal(-13)))
          CFI (cfiCond310) V1 load(1, XDATA, add(CFA_XSP16, literal(-12)))
          CFI (cfiCond310) V2 load(1, XDATA, add(CFA_XSP16, literal(-11)))
          CFI (cfiCond310) V3 load(1, XDATA, add(CFA_XSP16, literal(-10)))
          CFI (cfiCond310) V4 load(1, XDATA, add(CFA_XSP16, literal(-9)))
          CFI (cfiCond310) V5 load(1, XDATA, add(CFA_XSP16, literal(-8)))
          CFI (cfiCond310) V6 load(1, XDATA, add(CFA_XSP16, literal(-7)))
          CFI (cfiCond310) R7 load(1, XDATA, add(CFA_XSP16, literal(-6)))
          CFI (cfiCond310) ?RET_LOW load(1, XDATA, add(CFA_XSP16, literal(-5)))
          CFI (cfiCond310) ?RET_HIGH load(1, XDATA, add(CFA_XSP16, literal(-4)))
          CFI (cfiCond310) ?BRET_EXT load(1, XDATA, add(CFA_XSP16, literal(-3)))
          CFI (cfiCond310) DPL0 load(1, XDATA, add(CFA_XSP16, literal(-2)))
          CFI (cfiCond310) DPH0 load(1, XDATA, add(CFA_XSP16, literal(-1)))
          CFI (cfiCond310) CFA_SP SP+-2
          CFI (cfiCond310) CFA_XSP16 add(XSP16, 19)
          CFI Block cfiCond311 Using cfiCommon0
          CFI (cfiCond311) Function ZDSecMgrAPSRemove
          CFI (cfiCond311) Conditional ??CrossCallReturnLabel_137
          CFI (cfiCond311) DPL0 Frame(CFA_SP, 4)
          CFI (cfiCond311) DPH0 Frame(CFA_SP, 5)
          CFI (cfiCond311) CFA_SP SP+-7
          CFI (cfiCond311) CFA_XSP16 add(XSP16, 8)
          CFI Block cfiCond312 Using cfiCommon0
          CFI (cfiCond312) Function ZDSecMgrSendNwkKey
          CFI (cfiCond312) Conditional ??CrossCallReturnLabel_133
          CFI (cfiCond312) R6 load(1, XDATA, add(CFA_XSP16, literal(-10)))
          CFI (cfiCond312) VB load(1, XDATA, add(CFA_XSP16, literal(-9)))
          CFI (cfiCond312) V0 load(1, XDATA, add(CFA_XSP16, literal(-8)))
          CFI (cfiCond312) V1 load(1, XDATA, add(CFA_XSP16, literal(-7)))
          CFI (cfiCond312) R7 load(1, XDATA, add(CFA_XSP16, literal(-6)))
          CFI (cfiCond312) ?RET_LOW load(1, XDATA, add(CFA_XSP16, literal(-5)))
          CFI (cfiCond312) ?RET_HIGH load(1, XDATA, add(CFA_XSP16, literal(-4)))
          CFI (cfiCond312) ?BRET_EXT load(1, XDATA, add(CFA_XSP16, literal(-3)))
          CFI (cfiCond312) DPL0 load(1, XDATA, add(CFA_XSP16, literal(-2)))
          CFI (cfiCond312) DPH0 load(1, XDATA, add(CFA_XSP16, literal(-1)))
          CFI (cfiCond312) CFA_SP SP+-2
          CFI (cfiCond312) CFA_XSP16 add(XSP16, 40)
          CFI Block cfiCond313 Using cfiCommon0
          CFI (cfiCond313) Function ZDSecMgrSendNwkKey
          CFI (cfiCond313) Conditional ??CrossCallReturnLabel_138
          CFI (cfiCond313) R6 load(1, XDATA, add(CFA_XSP16, literal(-10)))
          CFI (cfiCond313) VB load(1, XDATA, add(CFA_XSP16, literal(-9)))
          CFI (cfiCond313) V0 load(1, XDATA, add(CFA_XSP16, literal(-8)))
          CFI (cfiCond313) V1 load(1, XDATA, add(CFA_XSP16, literal(-7)))
          CFI (cfiCond313) R7 load(1, XDATA, add(CFA_XSP16, literal(-6)))
          CFI (cfiCond313) ?RET_LOW load(1, XDATA, add(CFA_XSP16, literal(-5)))
          CFI (cfiCond313) ?RET_HIGH load(1, XDATA, add(CFA_XSP16, literal(-4)))
          CFI (cfiCond313) ?BRET_EXT load(1, XDATA, add(CFA_XSP16, literal(-3)))
          CFI (cfiCond313) DPL0 load(1, XDATA, add(CFA_XSP16, literal(-2)))
          CFI (cfiCond313) DPH0 load(1, XDATA, add(CFA_XSP16, literal(-1)))
          CFI (cfiCond313) CFA_SP SP+-2
          CFI (cfiCond313) CFA_XSP16 add(XSP16, 40)
          CFI Block cfiPicker314 Using cfiCommon1
          CFI (cfiPicker314) NoFunction
          CFI (cfiPicker314) Picker
        LCALL     ??Subroutine61_0 & 0xFFFF
??CrossCallReturnLabel_145:
        RET
          CFI EndBlock cfiCond308
          CFI EndBlock cfiCond309
          CFI EndBlock cfiCond310
          CFI EndBlock cfiCond311
          CFI EndBlock cfiCond312
          CFI EndBlock cfiCond313
          CFI EndBlock cfiPicker314

        RSEG BANKED_CODE:HUGECODE:NOROOT(0)
?Subroutine28:
          CFI Block cfiCond315 Using cfiCommon0
          CFI Function APSME_LinkKeySet
          CFI Conditional ??CrossCallReturnLabel_147
          CFI R6 load(1, XDATA, add(CFA_XSP16, literal(-15)))
          CFI VB load(1, XDATA, add(CFA_XSP16, literal(-14)))
          CFI V0 load(1, XDATA, add(CFA_XSP16, literal(-13)))
          CFI V1 load(1, XDATA, add(CFA_XSP16, literal(-12)))
          CFI V2 load(1, XDATA, add(CFA_XSP16, literal(-11)))
          CFI V3 load(1, XDATA, add(CFA_XSP16, literal(-10)))
          CFI V4 load(1, XDATA, add(CFA_XSP16, literal(-9)))
          CFI V5 load(1, XDATA, add(CFA_XSP16, literal(-8)))
          CFI V6 load(1, XDATA, add(CFA_XSP16, literal(-7)))
          CFI R7 load(1, XDATA, add(CFA_XSP16, literal(-6)))
          CFI ?RET_LOW load(1, XDATA, add(CFA_XSP16, literal(-5)))
          CFI ?RET_HIGH load(1, XDATA, add(CFA_XSP16, literal(-4)))
          CFI ?BRET_EXT load(1, XDATA, add(CFA_XSP16, literal(-3)))
          CFI DPL0 load(1, XDATA, add(CFA_XSP16, literal(-2)))
          CFI DPH0 load(1, XDATA, add(CFA_XSP16, literal(-1)))
          CFI CFA_SP SP+-2
          CFI CFA_XSP16 add(XSP16, 19)
          CFI Block cfiCond316 Using cfiCommon0
          CFI (cfiCond316) Function ZDSecMgrAddLinkKey
          CFI (cfiCond316) Conditional ??CrossCallReturnLabel_148
          CFI (cfiCond316) R6 load(1, XDATA, add(CFA_XSP16, literal(-10)))
          CFI (cfiCond316) VB load(1, XDATA, add(CFA_XSP16, literal(-9)))
          CFI (cfiCond316) V0 load(1, XDATA, add(CFA_XSP16, literal(-8)))
          CFI (cfiCond316) V1 load(1, XDATA, add(CFA_XSP16, literal(-7)))
          CFI (cfiCond316) R7 load(1, XDATA, add(CFA_XSP16, literal(-6)))
          CFI (cfiCond316) ?RET_LOW load(1, XDATA, add(CFA_XSP16, literal(-5)))
          CFI (cfiCond316) ?RET_HIGH load(1, XDATA, add(CFA_XSP16, literal(-4)))
          CFI (cfiCond316) ?BRET_EXT load(1, XDATA, add(CFA_XSP16, literal(-3)))
          CFI (cfiCond316) DPL0 load(1, XDATA, add(CFA_XSP16, literal(-2)))
          CFI (cfiCond316) DPH0 load(1, XDATA, add(CFA_XSP16, literal(-1)))
          CFI (cfiCond316) CFA_SP SP+-2
          CFI (cfiCond316) CFA_XSP16 add(XSP16, 14)
          CFI Block cfiPicker317 Using cfiCommon1
          CFI (cfiPicker317) NoFunction
          CFI (cfiPicker317) Picker
        MOV       R1,A
        MOV       DPL,?XSP + 0
        MOV       DPH,?XSP + 1
          CFI EndBlock cfiCond315
          CFI EndBlock cfiCond316
          CFI EndBlock cfiPicker317
        REQUIRE ??Subroutine69_0
        ; // Fall through to label ??Subroutine69_0

        RSEG BANKED_CODE:HUGECODE:NOROOT(0)
??Subroutine69_0:
          CFI Block cfiCond318 Using cfiCommon0
          CFI Function ZDSecMgrEntryLookupExtGetIndex
          CFI Conditional ??CrossCallReturnLabel_146
          CFI R6 load(1, XDATA, add(CFA_XSP16, literal(-9)))
          CFI VB load(1, XDATA, add(CFA_XSP16, literal(-8)))
          CFI V0 load(1, XDATA, add(CFA_XSP16, literal(-7)))
          CFI R7 load(1, XDATA, add(CFA_XSP16, literal(-6)))
          CFI ?RET_LOW load(1, XDATA, add(CFA_XSP16, literal(-5)))
          CFI ?RET_HIGH load(1, XDATA, add(CFA_XSP16, literal(-4)))
          CFI ?BRET_EXT load(1, XDATA, add(CFA_XSP16, literal(-3)))
          CFI DPL0 load(1, XDATA, add(CFA_XSP16, literal(-2)))
          CFI DPH0 load(1, XDATA, add(CFA_XSP16, literal(-1)))
          CFI CFA_SP SP+-2
          CFI CFA_XSP16 add(XSP16, 11)
          CFI Block cfiCond319 Using cfiCommon0
          CFI (cfiCond319) Function APSME_LinkKeySet
          CFI (cfiCond319) Conditional ??CrossCallReturnLabel_147
          CFI (cfiCond319) R6 load(1, XDATA, add(CFA_XSP16, literal(-15)))
          CFI (cfiCond319) VB load(1, XDATA, add(CFA_XSP16, literal(-14)))
          CFI (cfiCond319) V0 load(1, XDATA, add(CFA_XSP16, literal(-13)))
          CFI (cfiCond319) V1 load(1, XDATA, add(CFA_XSP16, literal(-12)))
          CFI (cfiCond319) V2 load(1, XDATA, add(CFA_XSP16, literal(-11)))
          CFI (cfiCond319) V3 load(1, XDATA, add(CFA_XSP16, literal(-10)))
          CFI (cfiCond319) V4 load(1, XDATA, add(CFA_XSP16, literal(-9)))
          CFI (cfiCond319) V5 load(1, XDATA, add(CFA_XSP16, literal(-8)))
          CFI (cfiCond319) V6 load(1, XDATA, add(CFA_XSP16, literal(-7)))
          CFI (cfiCond319) R7 load(1, XDATA, add(CFA_XSP16, literal(-6)))
          CFI (cfiCond319) ?RET_LOW load(1, XDATA, add(CFA_XSP16, literal(-5)))
          CFI (cfiCond319) ?RET_HIGH load(1, XDATA, add(CFA_XSP16, literal(-4)))
          CFI (cfiCond319) ?BRET_EXT load(1, XDATA, add(CFA_XSP16, literal(-3)))
          CFI (cfiCond319) DPL0 load(1, XDATA, add(CFA_XSP16, literal(-2)))
          CFI (cfiCond319) DPH0 load(1, XDATA, add(CFA_XSP16, literal(-1)))
          CFI (cfiCond319) CFA_SP SP+-2
          CFI (cfiCond319) CFA_XSP16 add(XSP16, 19)
          CFI Block cfiCond320 Using cfiCommon0
          CFI (cfiCond320) Function ZDSecMgrAddLinkKey
          CFI (cfiCond320) Conditional ??CrossCallReturnLabel_148
          CFI (cfiCond320) R6 load(1, XDATA, add(CFA_XSP16, literal(-10)))
          CFI (cfiCond320) VB load(1, XDATA, add(CFA_XSP16, literal(-9)))
          CFI (cfiCond320) V0 load(1, XDATA, add(CFA_XSP16, literal(-8)))
          CFI (cfiCond320) V1 load(1, XDATA, add(CFA_XSP16, literal(-7)))
          CFI (cfiCond320) R7 load(1, XDATA, add(CFA_XSP16, literal(-6)))
          CFI (cfiCond320) ?RET_LOW load(1, XDATA, add(CFA_XSP16, literal(-5)))
          CFI (cfiCond320) ?RET_HIGH load(1, XDATA, add(CFA_XSP16, literal(-4)))
          CFI (cfiCond320) ?BRET_EXT load(1, XDATA, add(CFA_XSP16, literal(-3)))
          CFI (cfiCond320) DPL0 load(1, XDATA, add(CFA_XSP16, literal(-2)))
          CFI (cfiCond320) DPH0 load(1, XDATA, add(CFA_XSP16, literal(-1)))
          CFI (cfiCond320) CFA_SP SP+-2
          CFI (cfiCond320) CFA_XSP16 add(XSP16, 14)
          CFI Block cfiPicker321 Using cfiCommon1
          CFI (cfiPicker321) NoFunction
          CFI (cfiPicker321) Picker
        MOVX      A,@DPTR
        MOV       R2,A
        INC       DPTR
        MOVX      A,@DPTR
        MOV       DPH,A
        MOV       DPL,R2
        RET
          CFI EndBlock cfiCond318
          CFI EndBlock cfiCond319
          CFI EndBlock cfiCond320
          CFI EndBlock cfiPicker321
// 2454 
// 2455 /******************************************************************************
// 2456  * @fn          ZDSecMgrAuthenticationSet
// 2457  *
// 2458  * @brief       Mark the specific device as authenticated or not
// 2459  *
// 2460  * @param       extAddr - [in] EXT address
// 2461  * @param       option  - [in] authenticated or not
// 2462  *
// 2463  * @return      ZStatus_t
// 2464  */

        RSEG BANKED_CODE:HUGECODE:NOROOT(0)
// 2465 ZStatus_t ZDSecMgrAuthenticationSet( uint8* extAddr, ZDSecMgr_Authentication_Option option )
ZDSecMgrAuthenticationSet:
          CFI Block cfiBlock322 Using cfiCommon0
          CFI Function ZDSecMgrAuthenticationSet
        CODE
// 2466 {
        FUNCALL ZDSecMgrAuthenticationSet, ZDSecMgrEntryLookupExt
        LOCFRAME ISTACK, 0, STACK
        LOCFRAME PSTACK, 0, STACK
        LOCFRAME XSTACK, 11, STACK
        LOCFRAME IOVERLAY, 0, STATIC
        LOCFRAME DOVERLAY, 0, STATIC
        ARGFRAME ISTACK, 0, STACK
        ARGFRAME PSTACK, 0, STACK
        ARGFRAME XSTACK, 11, STACK
        ARGFRAME IOVERLAY, 0, STATIC
        ARGFRAME DOVERLAY, 0, STATIC
        MOV       A,#-0x9
        LCALL     ?BANKED_ENTER_XDATA
          CFI DPH0 load(1, XDATA, add(CFA_XSP16, literal(-1)))
          CFI DPL0 load(1, XDATA, add(CFA_XSP16, literal(-2)))
          CFI ?BRET_EXT load(1, XDATA, add(CFA_XSP16, literal(-3)))
          CFI ?RET_HIGH load(1, XDATA, add(CFA_XSP16, literal(-4)))
          CFI ?RET_LOW load(1, XDATA, add(CFA_XSP16, literal(-5)))
          CFI R7 load(1, XDATA, add(CFA_XSP16, literal(-6)))
          CFI V0 load(1, XDATA, add(CFA_XSP16, literal(-7)))
          CFI VB load(1, XDATA, add(CFA_XSP16, literal(-8)))
          CFI R6 load(1, XDATA, add(CFA_XSP16, literal(-9)))
          CFI CFA_SP SP+0
          CFI CFA_XSP16 add(XSP16, 9)
        ; Saved register size: 9
        ; Auto size: 2
        MOV       A,#-0x2
        LCALL     ?ALLOC_XSTACK8
          CFI CFA_XSP16 add(XSP16, 11)
        MOV       A,R1
        MOV       R6,A
// 2467   ZStatus_t        status;
// 2468   ZDSecMgrEntry_t* entry;
// 2469 
// 2470 
// 2471   // lookup entry index for specified EXT address
// 2472   status = ZDSecMgrEntryLookupExt( extAddr, &entry );
        ; Setup parameters for call to function ZDSecMgrEntryLookupExt
        MOV       R4,?XSP + 0
        MOV       R5,?XSP + 1
        LCALL     `??ZDSecMgrEntryLookupExt::?relay`; Banked call to: ZDSecMgrEntryLookupExt
        MOV       A,R1
        MOV       R1,A
// 2473 
// 2474   if ( status == ZSuccess )
        JNZ       ??ZDSecMgrAuthenticationSet_0
// 2475   {
// 2476     entry->authenticateOption = option;
        LCALL     ?Subroutine33 & 0xFFFF
// 2477   }
??CrossCallReturnLabel_130:
        INC       DPTR
        INC       DPTR
        INC       DPTR
        INC       DPTR
        MOV       A,R6
        MOVX      @DPTR,A
// 2478 
// 2479   return status;
??ZDSecMgrAuthenticationSet_0:
        LJMP      ?Subroutine7 & 0xFFFF
// 2480 }
          CFI EndBlock cfiBlock322
// 2481 
// 2482 /******************************************************************************
// 2483  * @fn          ZDSecMgrAuthenticationCheck
// 2484  *
// 2485  * @brief       Check if the specific device has been authenticated or not
// 2486  *              For non-trust center device, always return TRUE
// 2487  *
// 2488  * @param       shortAddr - [in] short address
// 2489  *
// 2490  * @return      TRUE @ authenticated with CBKE
// 2491  *              FALSE @ not authenticated
// 2492  */
// 2493 

        RSEG BANKED_CODE:HUGECODE:NOROOT(0)
// 2494 uint8 ZDSecMgrAuthenticationCheck( uint16 shortAddr )
ZDSecMgrAuthenticationCheck:
          CFI Block cfiBlock323 Using cfiCommon0
          CFI Function ZDSecMgrAuthenticationCheck
        CODE
// 2495 {
        ; Saved register size: 0
        ; Auto size: 0
// 2496 #if defined (TC_LINKKEY_JOIN)
// 2497 
// 2498   ZDSecMgrEntry_t* entry;
// 2499   uint8 extAddr[Z_EXTADDR_LEN];
// 2500 
// 2501   // If the local device is not the trust center, always return TRUE
// 2502   APSME_GetRequest( apsTrustCenterAddress, 0, extAddr );
// 2503   if ( ! osal_ExtAddrEqual( extAddr , NLME_GetExtAddr() ) )
// 2504   {
// 2505     return TRUE;
// 2506   }
// 2507   // Otherwise, check the authentication option
// 2508   else if ( AddrMgrExtAddrLookup( shortAddr, extAddr ) )
// 2509   {
// 2510     // lookup entry index for specified EXT address
// 2511     if ( ZDSecMgrEntryLookupExt( extAddr, &entry ) == ZSuccess )
// 2512     {
// 2513       if ( entry->authenticateOption != ZDSecMgr_Not_Authenticated )
// 2514       {
// 2515         return TRUE;
// 2516       }
// 2517       else
// 2518       {
// 2519         return FALSE;
// 2520       }
// 2521     }
// 2522     else
// 2523     {
// 2524       // it may have been secured with TCLK only
// 2525       uint16    ami;
// 2526 
// 2527       // lookup address index in address manager
// 2528       if ( ZDSecMgrExtAddrLookup( extAddr, &ami ) == ZSuccess )
// 2529       {
// 2530         return TRUE;
// 2531       }
// 2532     }
// 2533   }
// 2534   return FALSE;
// 2535 
// 2536 #else
// 2537   (void)shortAddr;  // Intentionally unreferenced parameter
// 2538 
// 2539   // For non AMI/SE Profile, perform no check and always return TRUE.
// 2540   return TRUE;
        MOV       R1,#0x1
        LJMP      ?BRET
// 2541 
// 2542 #endif // TC_LINKKEY_JOIN
// 2543 }
          CFI EndBlock cfiBlock323
// 2544 
// 2545 
// 2546 /******************************************************************************
// 2547  * @fn          ZDSecMgrLinkKeyNVIdGet (stubs APSME_LinkKeyNVIdGet)
// 2548  *
// 2549  * @brief       Get Key NV ID for specified NWK address.
// 2550  *
// 2551  * @param       extAddr - [in] EXT address
// 2552  * @param       keyNvId - [out] NV ID
// 2553  *
// 2554  * @return      ZStatus_t
// 2555  */

        RSEG BANKED_CODE:HUGECODE:NOROOT(0)
// 2556 ZStatus_t ZDSecMgrLinkKeyNVIdGet(uint8* extAddr, uint16 *pKeyNvId)
APSME_LinkKeyNVIdGet:
          CFI Block cfiBlock324 Using cfiCommon0
          CFI Function APSME_LinkKeyNVIdGet
        CODE
// 2557 {
        FUNCALL APSME_LinkKeyNVIdGet, ZDSecMgrEntryLookupExt
        LOCFRAME ISTACK, 0, STACK
        LOCFRAME PSTACK, 0, STACK
        LOCFRAME XSTACK, 11, STACK
        LOCFRAME IOVERLAY, 0, STATIC
        LOCFRAME DOVERLAY, 0, STATIC
        ARGFRAME ISTACK, 0, STACK
        ARGFRAME PSTACK, 0, STACK
        ARGFRAME XSTACK, 11, STACK
        ARGFRAME IOVERLAY, 0, STATIC
        ARGFRAME DOVERLAY, 0, STATIC
        MOV       A,#-0x9
        LCALL     ?BANKED_ENTER_XDATA
          CFI DPH0 load(1, XDATA, add(CFA_XSP16, literal(-1)))
          CFI DPL0 load(1, XDATA, add(CFA_XSP16, literal(-2)))
          CFI ?BRET_EXT load(1, XDATA, add(CFA_XSP16, literal(-3)))
          CFI ?RET_HIGH load(1, XDATA, add(CFA_XSP16, literal(-4)))
          CFI ?RET_LOW load(1, XDATA, add(CFA_XSP16, literal(-5)))
          CFI R7 load(1, XDATA, add(CFA_XSP16, literal(-6)))
          CFI V0 load(1, XDATA, add(CFA_XSP16, literal(-7)))
          CFI VB load(1, XDATA, add(CFA_XSP16, literal(-8)))
          CFI R6 load(1, XDATA, add(CFA_XSP16, literal(-9)))
          CFI CFA_SP SP+0
          CFI CFA_XSP16 add(XSP16, 9)
        ; Saved register size: 9
        ; Auto size: 2
        MOV       A,#-0x2
        LCALL     ?ALLOC_XSTACK8
          CFI CFA_XSP16 add(XSP16, 11)
        MOV       A,R4
        MOV       R6,A
        MOV       A,R5
        MOV       R7,A
// 2558   ZStatus_t status;
// 2559   ZDSecMgrEntry_t* entry;
// 2560 
// 2561   // lookup entry index for specified NWK address
// 2562   status = ZDSecMgrEntryLookupExt( extAddr, &entry );
        ; Setup parameters for call to function ZDSecMgrEntryLookupExt
        MOV       R4,?XSP + 0
        MOV       R5,?XSP + 1
        LCALL     `??ZDSecMgrEntryLookupExt::?relay`; Banked call to: ZDSecMgrEntryLookupExt
        MOV       A,R1
        MOV       R1,A
// 2563 
// 2564   if ( status == ZSuccess )
        JNZ       ??APSME_LinkKeyNVIdGet_0
// 2565   {
// 2566     // return the index to the NV table
// 2567     *pKeyNvId = entry->keyNvId;
        MOV       DPL,?XSP + 0
        MOV       DPH,?XSP + 1
        LCALL     ?Subroutine25 & 0xFFFF
// 2568   }
??CrossCallReturnLabel_98:
        MOV       DPL,R6
        MOV       DPH,R7
        MOV       A,R2
        MOVX      @DPTR,A
        INC       DPTR
        MOV       A,R3
        SJMP      ??APSME_LinkKeyNVIdGet_1
// 2569   else
// 2570   {
// 2571     *pKeyNvId = SEC_NO_KEY_NV_ID;
??APSME_LinkKeyNVIdGet_0:
        MOV       DPL,R6
        MOV       DPH,R7
        CLR       A
        MOVX      @DPTR,A
        INC       DPTR
??APSME_LinkKeyNVIdGet_1:
        MOVX      @DPTR,A
// 2572   }
// 2573 
// 2574   return status;
        LJMP      ?Subroutine7 & 0xFFFF
// 2575 }
          CFI EndBlock cfiBlock324
// 2576 
// 2577 /******************************************************************************
// 2578  * @fn          ZDSecMgrIsLinkKeyValid (stubs APSME_IsLinkKeyValid)
// 2579  *
// 2580  * @brief       Verifies if Link Key in NV has been set.
// 2581  *
// 2582  * @param       extAddr - [in] EXT address
// 2583  *
// 2584  * @return      TRUE - Link Key has been established
// 2585  *              FALSE - Link Key in NV has default value.
// 2586  */

        RSEG BANKED_CODE:HUGECODE:NOROOT(0)
// 2587 uint8 ZDSecMgrIsLinkKeyValid(uint8* extAddr)
APSME_IsLinkKeyValid:
          CFI Block cfiBlock325 Using cfiCommon0
          CFI Function APSME_IsLinkKeyValid
        CODE
// 2588 {
        FUNCALL APSME_IsLinkKeyValid, osal_memset
        LOCFRAME ISTACK, 0, STACK
        LOCFRAME PSTACK, 0, STACK
        LOCFRAME XSTACK, 33, STACK
        LOCFRAME IOVERLAY, 0, STATIC
        LOCFRAME DOVERLAY, 0, STATIC
        ARGFRAME ISTACK, 0, STACK
        ARGFRAME PSTACK, 0, STACK
        ARGFRAME XSTACK, 33, STACK
        ARGFRAME IOVERLAY, 0, STATIC
        ARGFRAME DOVERLAY, 0, STATIC
        FUNCALL APSME_IsLinkKeyValid, APSME_LinkKeyNVIdGet
        LOCFRAME ISTACK, 0, STACK
        LOCFRAME PSTACK, 0, STACK
        LOCFRAME XSTACK, 33, STACK
        LOCFRAME IOVERLAY, 0, STATIC
        LOCFRAME DOVERLAY, 0, STATIC
        ARGFRAME ISTACK, 0, STACK
        ARGFRAME PSTACK, 0, STACK
        ARGFRAME XSTACK, 33, STACK
        ARGFRAME IOVERLAY, 0, STATIC
        ARGFRAME DOVERLAY, 0, STATIC
        FUNCALL APSME_IsLinkKeyValid, osal_mem_alloc
        LOCFRAME ISTACK, 0, STACK
        LOCFRAME PSTACK, 0, STACK
        LOCFRAME XSTACK, 33, STACK
        LOCFRAME IOVERLAY, 0, STATIC
        LOCFRAME DOVERLAY, 0, STATIC
        ARGFRAME ISTACK, 0, STACK
        ARGFRAME PSTACK, 0, STACK
        ARGFRAME XSTACK, 33, STACK
        ARGFRAME IOVERLAY, 0, STATIC
        ARGFRAME DOVERLAY, 0, STATIC
        FUNCALL APSME_IsLinkKeyValid, osal_nv_read
        LOCFRAME ISTACK, 0, STACK
        LOCFRAME PSTACK, 0, STACK
        LOCFRAME XSTACK, 37, STACK
        LOCFRAME IOVERLAY, 0, STATIC
        LOCFRAME DOVERLAY, 0, STATIC
        ARGFRAME ISTACK, 0, STACK
        ARGFRAME PSTACK, 0, STACK
        ARGFRAME XSTACK, 37, STACK
        ARGFRAME IOVERLAY, 0, STATIC
        ARGFRAME DOVERLAY, 0, STATIC
        FUNCALL APSME_IsLinkKeyValid, osal_memcmp
        LOCFRAME ISTACK, 0, STACK
        LOCFRAME PSTACK, 0, STACK
        LOCFRAME XSTACK, 36, STACK
        LOCFRAME IOVERLAY, 0, STATIC
        LOCFRAME DOVERLAY, 0, STATIC
        ARGFRAME ISTACK, 0, STACK
        ARGFRAME PSTACK, 0, STACK
        ARGFRAME XSTACK, 36, STACK
        ARGFRAME IOVERLAY, 0, STATIC
        ARGFRAME DOVERLAY, 0, STATIC
        FUNCALL APSME_IsLinkKeyValid, osal_memset
        LOCFRAME ISTACK, 0, STACK
        LOCFRAME PSTACK, 0, STACK
        LOCFRAME XSTACK, 33, STACK
        LOCFRAME IOVERLAY, 0, STATIC
        LOCFRAME DOVERLAY, 0, STATIC
        ARGFRAME ISTACK, 0, STACK
        ARGFRAME PSTACK, 0, STACK
        ARGFRAME XSTACK, 33, STACK
        ARGFRAME IOVERLAY, 0, STATIC
        ARGFRAME DOVERLAY, 0, STATIC
        FUNCALL APSME_IsLinkKeyValid, osal_mem_free
        LOCFRAME ISTACK, 0, STACK
        LOCFRAME PSTACK, 0, STACK
        LOCFRAME XSTACK, 33, STACK
        LOCFRAME IOVERLAY, 0, STATIC
        LOCFRAME DOVERLAY, 0, STATIC
        ARGFRAME ISTACK, 0, STACK
        ARGFRAME PSTACK, 0, STACK
        ARGFRAME XSTACK, 33, STACK
        ARGFRAME IOVERLAY, 0, STATIC
        ARGFRAME DOVERLAY, 0, STATIC
        REQUIRE ?V0
        REQUIRE ?V2
        REQUIRE ?V3
        REQUIRE ?V4
        REQUIRE ?V5
        REQUIRE ?V6
        MOV       A,#-0xf
        LCALL     ?BANKED_ENTER_XDATA
          CFI DPH0 load(1, XDATA, add(CFA_XSP16, literal(-1)))
          CFI DPL0 load(1, XDATA, add(CFA_XSP16, literal(-2)))
          CFI ?BRET_EXT load(1, XDATA, add(CFA_XSP16, literal(-3)))
          CFI ?RET_HIGH load(1, XDATA, add(CFA_XSP16, literal(-4)))
          CFI ?RET_LOW load(1, XDATA, add(CFA_XSP16, literal(-5)))
          CFI R7 load(1, XDATA, add(CFA_XSP16, literal(-6)))
          CFI V6 load(1, XDATA, add(CFA_XSP16, literal(-7)))
          CFI V5 load(1, XDATA, add(CFA_XSP16, literal(-8)))
          CFI V4 load(1, XDATA, add(CFA_XSP16, literal(-9)))
          CFI V3 load(1, XDATA, add(CFA_XSP16, literal(-10)))
          CFI V2 load(1, XDATA, add(CFA_XSP16, literal(-11)))
          CFI V1 load(1, XDATA, add(CFA_XSP16, literal(-12)))
          CFI V0 load(1, XDATA, add(CFA_XSP16, literal(-13)))
          CFI VB load(1, XDATA, add(CFA_XSP16, literal(-14)))
          CFI R6 load(1, XDATA, add(CFA_XSP16, literal(-15)))
          CFI CFA_SP SP+0
          CFI CFA_XSP16 add(XSP16, 15)
        ; Saved register size: 15
        ; Auto size: 18
        MOV       A,#-0x12
        LCALL     ?ALLOC_XSTACK8
          CFI CFA_XSP16 add(XSP16, 33)
        MOV       A,R2
        MOV       R6,A
        MOV       A,R3
        MOV       R7,A
// 2589   APSME_LinkKeyData_t *pKeyData;
// 2590   uint16 apsLinkKeyNvId;
// 2591   uint8 nullKey[SEC_KEY_LEN];
// 2592   uint8 status = FALSE;
        MOV       ?V0,#0x0
// 2593 
// 2594   // initialize default vealue to compare to
// 2595   osal_memset(nullKey, 0x00, SEC_KEY_LEN);
        ; Setup parameters for call to function osal_memset
        MOV       R4,#0x10
        MOV       R5,#0x0
        MOV       R1,#0x0
        MOV       A,#0x2
        LCALL     ?XSTACK_DISP101_8
        LCALL     `??osal_memset::?relay`; Banked call to: osal_memset
// 2596 
// 2597   // check for APS link NV ID
// 2598   APSME_LinkKeyNVIdGet( extAddr, &apsLinkKeyNvId );
        ; Setup parameters for call to function APSME_LinkKeyNVIdGet
        MOV       R4,?XSP + 0
        MOV       R5,?XSP + 1
        MOV       A,R6
        MOV       R2,A
        MOV       A,R7
        MOV       R3,A
        LCALL     `??APSME_LinkKeyNVIdGet::?relay`; Banked call to: APSME_LinkKeyNVIdGet
// 2599 
// 2600   if (apsLinkKeyNvId != SEC_NO_KEY_NV_ID )
        MOV       DPL,?XSP + 0
        MOV       DPH,?XSP + 1
        LCALL     ??Subroutine70_0 & 0xFFFF
??CrossCallReturnLabel_151:
        JZ        ??APSME_IsLinkKeyValid_0
// 2601   {
// 2602     pKeyData = (APSME_LinkKeyData_t *)osal_mem_alloc(sizeof(APSME_LinkKeyData_t));
        ; Setup parameters for call to function osal_mem_alloc
        MOV       R2,#0x18
        MOV       R3,#0x0
        LCALL     `??osal_mem_alloc::?relay`; Banked call to: osal_mem_alloc
        MOV       ?V2,R2
        MOV       ?V3,R3
// 2603 
// 2604     if (pKeyData != NULL)
        MOV       A,R2
        ORL       A,?V3
        JZ        ??APSME_IsLinkKeyValid_0
// 2605     {
// 2606       // retrieve key from NV
// 2607       if ( osal_nv_read( apsLinkKeyNvId, 0,
// 2608                         sizeof(APSME_LinkKeyData_t), pKeyData) == ZSUCCESS)
        ; Setup parameters for call to function osal_nv_read
        MOV       R0,#?V2
        LCALL     ?PUSH_XSTACK_I_TWO
          CFI CFA_XSP16 add(XSP16, 35)
        MOV       ?V4,#0x18
        MOV       ?V5,#0x0
        MOV       R0,#?V4
        LCALL     ?PUSH_XSTACK_I_TWO
          CFI CFA_XSP16 add(XSP16, 37)
        MOV       R4,#0x0
        MOV       R5,#0x0
        MOV       A,#0x4
        LCALL     ?XSTACK_DISP0_8
        LCALL     ??Subroutine57_0 & 0xFFFF
??CrossCallReturnLabel_91:
        LCALL     `??osal_nv_read::?relay`; Banked call to: osal_nv_read
        MOV       A,#0x4
        LCALL     ?DEALLOC_XSTACK8
          CFI CFA_XSP16 add(XSP16, 33)
        MOV       A,R1
        JNZ       ??APSME_IsLinkKeyValid_1
// 2609       {
// 2610         // if stored key is different than default value, then a key has been established
// 2611         if (!osal_memcmp(pKeyData, nullKey, SEC_KEY_LEN))
        ; Setup parameters for call to function osal_memcmp
        MOV       A,#0x2
        LCALL     ?XSTACK_DISP100_8
        MOV       ?V4,R0
        MOV       ?V5,R1
        MOV       ?V6,#0x0
        MOV       R0,#?V4
        LCALL     ?PUSH_XSTACK_I_THREE
          CFI CFA_XSP16 add(XSP16, 36)
        MOV       R4,#0x10
        MOV       R5,#0x0
        MOV       DPL,?V2
        MOV       DPH,?V3
        MOV       R1,DPL
        MOV       R2,DPH
        MOV       R3,#0x0
        LCALL     `??osal_memcmp::?relay`; Banked call to: osal_memcmp
        MOV       A,#0x3
        LCALL     ?DEALLOC_XSTACK8
          CFI CFA_XSP16 add(XSP16, 33)
        MOV       A,R1
        JNZ       ??APSME_IsLinkKeyValid_1
// 2612         {
// 2613           status = TRUE;
        MOV       ?V0,#0x1
// 2614         }
// 2615       }
// 2616 
// 2617       // clear copy of key in RAM
// 2618       osal_memset(pKeyData, 0x00, sizeof(APSME_LinkKeyData_t));
??APSME_IsLinkKeyValid_1:
        ; Setup parameters for call to function osal_memset
        MOV       R4,#0x18
        MOV       R5,#0x0
        MOV       R1,#0x0
        MOV       R2,?V2
        MOV       R3,?V3
        LCALL     `??osal_memset::?relay`; Banked call to: osal_memset
// 2619 
// 2620       osal_mem_free(pKeyData);
        ; Setup parameters for call to function osal_mem_free
        MOV       R2,?V2
        MOV       R3,?V3
        LCALL     `??osal_mem_free::?relay`; Banked call to: osal_mem_free
// 2621     }
// 2622   }
// 2623 
// 2624   return status;
??APSME_IsLinkKeyValid_0:
        MOV       R1,?V0
        MOV       A,#0x12
        LJMP      ?Subroutine6 & 0xFFFF
// 2625 }
          CFI EndBlock cfiBlock325
// 2626 
// 2627 /******************************************************************************
// 2628  * @fn          ZDSecMgrKeyFwdToChild (stubs APSME_KeyFwdToChild)
// 2629  *
// 2630  * @brief       Verify and process key transportation to child.
// 2631  *
// 2632  * @param       ind - [in] APSME_TransportKeyInd_t
// 2633  *
// 2634  * @return      uint8 - success(TRUE:FALSE)
// 2635  */

        RSEG BANKED_CODE:HUGECODE:NOROOT(0)
// 2636 uint8 ZDSecMgrKeyFwdToChild( APSME_TransportKeyInd_t* ind )
APSME_KeyFwdToChild:
          CFI Block cfiBlock326 Using cfiCommon0
          CFI Function APSME_KeyFwdToChild
        CODE
// 2637 {
        FUNCALL APSME_KeyFwdToChild, AssocGetWithExt
        LOCFRAME ISTACK, 0, STACK
        LOCFRAME PSTACK, 0, STACK
        LOCFRAME XSTACK, 10, STACK
        LOCFRAME IOVERLAY, 0, STATIC
        LOCFRAME DOVERLAY, 0, STATIC
        ARGFRAME ISTACK, 0, STACK
        ARGFRAME PSTACK, 0, STACK
        ARGFRAME XSTACK, 10, STACK
        ARGFRAME IOVERLAY, 0, STATIC
        ARGFRAME DOVERLAY, 0, STATIC
        FUNCALL APSME_KeyFwdToChild, ZDSecMgrAssocDeviceAuth
        LOCFRAME ISTACK, 0, STACK
        LOCFRAME PSTACK, 0, STACK
        LOCFRAME XSTACK, 10, STACK
        LOCFRAME IOVERLAY, 0, STATIC
        LOCFRAME DOVERLAY, 0, STATIC
        ARGFRAME ISTACK, 0, STACK
        ARGFRAME PSTACK, 0, STACK
        ARGFRAME XSTACK, 10, STACK
        ARGFRAME IOVERLAY, 0, STATIC
        ARGFRAME DOVERLAY, 0, STATIC
        REQUIRE ?V0
        REQUIRE ?V1
        MOV       A,#-0xa
        LCALL     ?BANKED_ENTER_XDATA
          CFI DPH0 load(1, XDATA, add(CFA_XSP16, literal(-1)))
          CFI DPL0 load(1, XDATA, add(CFA_XSP16, literal(-2)))
          CFI ?BRET_EXT load(1, XDATA, add(CFA_XSP16, literal(-3)))
          CFI ?RET_HIGH load(1, XDATA, add(CFA_XSP16, literal(-4)))
          CFI ?RET_LOW load(1, XDATA, add(CFA_XSP16, literal(-5)))
          CFI R7 load(1, XDATA, add(CFA_XSP16, literal(-6)))
          CFI V1 load(1, XDATA, add(CFA_XSP16, literal(-7)))
          CFI V0 load(1, XDATA, add(CFA_XSP16, literal(-8)))
          CFI VB load(1, XDATA, add(CFA_XSP16, literal(-9)))
          CFI R6 load(1, XDATA, add(CFA_XSP16, literal(-10)))
          CFI CFA_SP SP+0
          CFI CFA_XSP16 add(XSP16, 10)
        ; Saved register size: 10
        ; Auto size: 0
// 2638   // verify from Trust Center
// 2639   if ( ind->srcAddr == APSME_TRUSTCENTER_NWKADDR )
        MOV       DPL,R2
        MOV       DPH,R3
        LCALL     ??Subroutine70_0 & 0xFFFF
??CrossCallReturnLabel_152:
        JNZ       ??APSME_KeyFwdToChild_0
// 2640   {
// 2641     // check for initial NWK key
// 2642     if ( ( ind->keyType == KEY_TYPE_NWK ) ||
// 2643          ( ind->keyType == 6            ) )
        MOV       DPL,R2
        MOV       DPH,R3
        INC       DPTR
        INC       DPTR
        MOVX      A,@DPTR
        MOV       R0,A
        MOV       A,#0x1
        XRL       A,R0
        JZ        ??APSME_KeyFwdToChild_1
        MOV       A,#0x6
        XRL       A,R0
        JNZ       ??APSME_KeyFwdToChild_2
// 2644     {
// 2645       // set association status to authenticated
// 2646       ZDSecMgrAssocDeviceAuth( AssocGetWithExt( ind->dstExtAddr ) );
??APSME_KeyFwdToChild_1:
        ; Setup parameters for call to function AssocGetWithExt
        MOV       DPL,R2
        MOV       DPH,R3
        INC       DPTR
        INC       DPTR
        INC       DPTR
        INC       DPTR
        LCALL     ??Subroutine56_0 & 0xFFFF
// 2647     }
??CrossCallReturnLabel_95:
        LCALL     `??AssocGetWithExt::?relay`; Banked call to: AssocGetWithExt
        ; Setup parameters for call to function ZDSecMgrAssocDeviceAuth
        LCALL     `??ZDSecMgrAssocDeviceAuth::?relay`; Banked call to: ZDSecMgrAssocDeviceAuth
// 2648 
// 2649     return TRUE;
??APSME_KeyFwdToChild_2:
        MOV       R1,#0x1
        SJMP      ??APSME_KeyFwdToChild_3
// 2650   }
// 2651 
// 2652   return FALSE;
??APSME_KeyFwdToChild_0:
        MOV       R1,#0x0
??APSME_KeyFwdToChild_3:
        LJMP      ??Subroutine55_0 & 0xFFFF
// 2653 }
          CFI EndBlock cfiBlock326
// 2654 
// 2655 /******************************************************************************
// 2656  * @fn          ZDSecMgrAddLinkKey
// 2657  *
// 2658  * @brief       Add the application link key to ZDSecMgr. Also mark the device
// 2659  *              as authenticated in the authenticateOption. Note that this function
// 2660  *              is hardwared to CBKE right now.
// 2661  *
// 2662  * @param       shortAddr - short address of the partner device
// 2663  * @param       extAddr - extended address of the partner device
// 2664  * @param       key - link key
// 2665  *
// 2666  * @return      ZStatus_t
// 2667  */

        RSEG BANKED_CODE:HUGECODE:NOROOT(0)
// 2668 ZStatus_t ZDSecMgrAddLinkKey( uint16 shortAddr, uint8 *extAddr, uint8 *key)
ZDSecMgrAddLinkKey:
          CFI Block cfiBlock327 Using cfiCommon0
          CFI Function ZDSecMgrAddLinkKey
        CODE
// 2669 {
        FUNCALL ZDSecMgrAddLinkKey, ZDSecMgrAddrStore
        LOCFRAME ISTACK, 0, STACK
        LOCFRAME PSTACK, 0, STACK
        LOCFRAME XSTACK, 16, STACK
        LOCFRAME IOVERLAY, 0, STATIC
        LOCFRAME DOVERLAY, 0, STATIC
        ARGFRAME ISTACK, 0, STACK
        ARGFRAME PSTACK, 0, STACK
        ARGFRAME XSTACK, 16, STACK
        ARGFRAME IOVERLAY, 0, STATIC
        ARGFRAME DOVERLAY, 0, STATIC
        FUNCALL ZDSecMgrAddLinkKey, ZDSecMgrEntryLookupAMI
        LOCFRAME ISTACK, 0, STACK
        LOCFRAME PSTACK, 0, STACK
        LOCFRAME XSTACK, 14, STACK
        LOCFRAME IOVERLAY, 0, STATIC
        LOCFRAME DOVERLAY, 0, STATIC
        ARGFRAME ISTACK, 0, STACK
        ARGFRAME PSTACK, 0, STACK
        ARGFRAME XSTACK, 14, STACK
        ARGFRAME IOVERLAY, 0, STATIC
        ARGFRAME DOVERLAY, 0, STATIC
        FUNCALL ZDSecMgrAddLinkKey, ZDSecMgrEntryNew
        LOCFRAME ISTACK, 0, STACK
        LOCFRAME PSTACK, 0, STACK
        LOCFRAME XSTACK, 14, STACK
        LOCFRAME IOVERLAY, 0, STATIC
        LOCFRAME DOVERLAY, 0, STATIC
        ARGFRAME ISTACK, 0, STACK
        ARGFRAME PSTACK, 0, STACK
        ARGFRAME XSTACK, 14, STACK
        ARGFRAME IOVERLAY, 0, STATIC
        ARGFRAME DOVERLAY, 0, STATIC
        FUNCALL ZDSecMgrAddLinkKey, APSME_LinkKeySet
        LOCFRAME ISTACK, 0, STACK
        LOCFRAME PSTACK, 0, STACK
        LOCFRAME XSTACK, 14, STACK
        LOCFRAME IOVERLAY, 0, STATIC
        LOCFRAME DOVERLAY, 0, STATIC
        ARGFRAME ISTACK, 0, STACK
        ARGFRAME PSTACK, 0, STACK
        ARGFRAME XSTACK, 14, STACK
        ARGFRAME IOVERLAY, 0, STATIC
        ARGFRAME DOVERLAY, 0, STATIC
        REQUIRE ?V0
        REQUIRE ?V1
        MOV       A,#-0xa
        LCALL     ?BANKED_ENTER_XDATA
          CFI DPH0 load(1, XDATA, add(CFA_XSP16, literal(-1)))
          CFI DPL0 load(1, XDATA, add(CFA_XSP16, literal(-2)))
          CFI ?BRET_EXT load(1, XDATA, add(CFA_XSP16, literal(-3)))
          CFI ?RET_HIGH load(1, XDATA, add(CFA_XSP16, literal(-4)))
          CFI ?RET_LOW load(1, XDATA, add(CFA_XSP16, literal(-5)))
          CFI R7 load(1, XDATA, add(CFA_XSP16, literal(-6)))
          CFI V1 load(1, XDATA, add(CFA_XSP16, literal(-7)))
          CFI V0 load(1, XDATA, add(CFA_XSP16, literal(-8)))
          CFI VB load(1, XDATA, add(CFA_XSP16, literal(-9)))
          CFI R6 load(1, XDATA, add(CFA_XSP16, literal(-10)))
          CFI CFA_SP SP+0
          CFI CFA_XSP16 add(XSP16, 10)
        ; Saved register size: 10
        ; Auto size: 4
        MOV       A,#-0x4
        LCALL     ?ALLOC_XSTACK8
          CFI CFA_XSP16 add(XSP16, 14)
        MOV       A,R4
        MOV       R6,A
        MOV       A,R5
        MOV       R7,A
// 2670   uint16           ami;
// 2671   ZDSecMgrEntry_t* entry;
// 2672 
// 2673   /* Store the device address in the addr manager */
// 2674   if( ZDSecMgrAddrStore( shortAddr, extAddr, &ami ) != ZSuccess )
        ; Setup parameters for call to function ZDSecMgrAddrStore
        MOV       A,#0x2
        LCALL     ?XSTACK_DISP100_8
        MOV       ?V0,R0
        MOV       ?V1,R1
        MOV       R0,#?V0
        LCALL     ?PUSH_XSTACK_I_TWO
          CFI CFA_XSP16 add(XSP16, 16)
        LCALL     `??ZDSecMgrAddrStore::?relay`; Banked call to: ZDSecMgrAddrStore
        MOV       A,#0x2
        LCALL     ?DEALLOC_XSTACK8
          CFI CFA_XSP16 add(XSP16, 14)
        MOV       A,R1
        JZ        ??ZDSecMgrAddLinkKey_0
// 2675   {
// 2676     /* Adding to Addr Manager fails */
// 2677     return ZFailure;
        MOV       R1,#0x1
        SJMP      ??ZDSecMgrAddLinkKey_1
// 2678   }
// 2679 
// 2680   /* Lookup entry using specified address index */
// 2681   ZDSecMgrEntryLookupAMI( ami, &entry );
??ZDSecMgrAddLinkKey_0:
        ; Setup parameters for call to function ZDSecMgrEntryLookupAMI
        MOV       R4,?XSP + 0
        MOV       R5,?XSP + 1
        MOV       A,#0x2
        LCALL     ?XSTACK_DISP0_8
        LCALL     ??Subroutine57_0 & 0xFFFF
??CrossCallReturnLabel_92:
        LCALL     `??ZDSecMgrEntryLookupAMI::?relay`; Banked call to: ZDSecMgrEntryLookupAMI
// 2682 
// 2683   // If no existing entry, create one
// 2684   if ( entry == NULL )
        MOV       DPL,?XSP + 0
        MOV       DPH,?XSP + 1
        LCALL     ??Subroutine70_0 & 0xFFFF
??CrossCallReturnLabel_153:
        JNZ       ??CrossCallReturnLabel_114
// 2685   {
// 2686     if ( ZDSecMgrEntryNew( &entry ) == ZSuccess )
        ; Setup parameters for call to function ZDSecMgrEntryNew
        MOV       R2,?XSP + 0
        MOV       R3,?XSP + 1
        LCALL     `??ZDSecMgrEntryNew::?relay`; Banked call to: ZDSecMgrEntryNew
        MOV       A,R1
        JNZ       ??ZDSecMgrAddLinkKey_2
// 2687     {
// 2688       entry->ami = ami;
        MOV       A,#0x2
        LCALL     ?XSTACK_DISP0_8
        MOVX      A,@DPTR
        MOV       R0,A
        INC       DPTR
        MOVX      A,@DPTR
        LCALL     ?Subroutine28 & 0xFFFF
// 2689     }
??CrossCallReturnLabel_148:
        LCALL     ??Subroutine59_0 & 0xFFFF
// 2690     else
// 2691     {
// 2692       /* Security Manager full */
// 2693       return ZBufferFull;
// 2694     }
// 2695   }
// 2696   // Write the link key
// 2697   APSME_LinkKeySet( extAddr, key );
??CrossCallReturnLabel_114:
        ; Setup parameters for call to function APSME_LinkKeySet
        MOV       A,#0xe
        LCALL     ?XSTACK_DISP0_8
        LCALL     ?Subroutine32 & 0xFFFF
??CrossCallReturnLabel_34:
        MOV       A,R6
        MOV       R2,A
        MOV       A,R7
        MOV       R3,A
        LCALL     `??APSME_LinkKeySet::?relay`; Banked call to: APSME_LinkKeySet
// 2698 
// 2699 #if defined (TC_LINKKEY_JOIN)
// 2700   // Mark the device as authenticated.
// 2701   ZDSecMgrAuthenticationSet( extAddr, ZDSecMgr_Authenticated_CBCK );
// 2702 #endif
// 2703 
// 2704 #if defined NV_RESTORE
// 2705   ZDSecMgrWriteNV();  // Write the new established link key to NV.
// 2706 #endif
// 2707 
// 2708   return ZSuccess;
        MOV       R1,#0x0
??ZDSecMgrAddLinkKey_1:
        MOV       A,#0x4
        LJMP      ??Subroutine54_0 & 0xFFFF
??ZDSecMgrAddLinkKey_2:
        MOV       R1,#0x11
        SJMP      ??ZDSecMgrAddLinkKey_1
// 2709 }
          CFI EndBlock cfiBlock327

        RSEG BANKED_CODE:HUGECODE:NOROOT(0)
?Subroutine26:
          CFI Block cfiCond328 Using cfiCommon0
          CFI Function ZDSecMgrEntryInit
          CFI Conditional ??CrossCallReturnLabel_154
          CFI DPL0 Frame(CFA_SP, 4)
          CFI DPH0 Frame(CFA_SP, 5)
          CFI CFA_SP SP+-7
          CFI Block cfiCond329 Using cfiCommon0
          CFI (cfiCond329) Function ZDSecMgrEntryLookupExtGetIndex
          CFI (cfiCond329) Conditional ??CrossCallReturnLabel_155
          CFI (cfiCond329) R6 load(1, XDATA, add(CFA_XSP16, literal(-9)))
          CFI (cfiCond329) VB load(1, XDATA, add(CFA_XSP16, literal(-8)))
          CFI (cfiCond329) V0 load(1, XDATA, add(CFA_XSP16, literal(-7)))
          CFI (cfiCond329) R7 load(1, XDATA, add(CFA_XSP16, literal(-6)))
          CFI (cfiCond329) ?RET_LOW load(1, XDATA, add(CFA_XSP16, literal(-5)))
          CFI (cfiCond329) ?RET_HIGH load(1, XDATA, add(CFA_XSP16, literal(-4)))
          CFI (cfiCond329) ?BRET_EXT load(1, XDATA, add(CFA_XSP16, literal(-3)))
          CFI (cfiCond329) DPL0 load(1, XDATA, add(CFA_XSP16, literal(-2)))
          CFI (cfiCond329) DPH0 load(1, XDATA, add(CFA_XSP16, literal(-1)))
          CFI (cfiCond329) CFA_SP SP+-2
          CFI (cfiCond329) CFA_XSP16 add(XSP16, 11)
          CFI Block cfiCond330 Using cfiCommon0
          CFI (cfiCond330) Function ZDSecMgrEntryLookupAMIGetIndex
          CFI (cfiCond330) Conditional ??CrossCallReturnLabel_156
          CFI (cfiCond330) R6 load(1, XDATA, add(CFA_XSP16, literal(-9)))
          CFI (cfiCond330) VB load(1, XDATA, add(CFA_XSP16, literal(-8)))
          CFI (cfiCond330) V0 load(1, XDATA, add(CFA_XSP16, literal(-7)))
          CFI (cfiCond330) R7 load(1, XDATA, add(CFA_XSP16, literal(-6)))
          CFI (cfiCond330) ?RET_LOW load(1, XDATA, add(CFA_XSP16, literal(-5)))
          CFI (cfiCond330) ?RET_HIGH load(1, XDATA, add(CFA_XSP16, literal(-4)))
          CFI (cfiCond330) ?BRET_EXT load(1, XDATA, add(CFA_XSP16, literal(-3)))
          CFI (cfiCond330) DPL0 load(1, XDATA, add(CFA_XSP16, literal(-2)))
          CFI (cfiCond330) DPH0 load(1, XDATA, add(CFA_XSP16, literal(-1)))
          CFI (cfiCond330) CFA_SP SP+-2
          CFI (cfiCond330) CFA_XSP16 add(XSP16, 9)
          CFI Block cfiPicker331 Using cfiCommon1
          CFI (cfiPicker331) NoFunction
          CFI (cfiPicker331) Picker
        MOV       DPTR,#ZDSecMgrEntries
          CFI EndBlock cfiCond328
          CFI EndBlock cfiCond329
          CFI EndBlock cfiCond330
          CFI EndBlock cfiPicker331
        REQUIRE ??Subroutine70_0
        ; // Fall through to label ??Subroutine70_0

        RSEG BANKED_CODE:HUGECODE:NOROOT(0)
??Subroutine70_0:
          CFI Block cfiCond332 Using cfiCommon0
          CFI Function ZDSecMgrDeviceJoin
          CFI Conditional ??CrossCallReturnLabel_149
          CFI R6 load(1, XDATA, add(CFA_XSP16, literal(-16)))
          CFI VB load(1, XDATA, add(CFA_XSP16, literal(-15)))
          CFI V0 load(1, XDATA, add(CFA_XSP16, literal(-14)))
          CFI V1 load(1, XDATA, add(CFA_XSP16, literal(-13)))
          CFI V2 load(1, XDATA, add(CFA_XSP16, literal(-12)))
          CFI V3 load(1, XDATA, add(CFA_XSP16, literal(-11)))
          CFI V4 load(1, XDATA, add(CFA_XSP16, literal(-10)))
          CFI V5 load(1, XDATA, add(CFA_XSP16, literal(-9)))
          CFI V6 load(1, XDATA, add(CFA_XSP16, literal(-8)))
          CFI V7 load(1, XDATA, add(CFA_XSP16, literal(-7)))
          CFI R7 load(1, XDATA, add(CFA_XSP16, literal(-6)))
          CFI ?RET_LOW load(1, XDATA, add(CFA_XSP16, literal(-5)))
          CFI ?RET_HIGH load(1, XDATA, add(CFA_XSP16, literal(-4)))
          CFI ?BRET_EXT load(1, XDATA, add(CFA_XSP16, literal(-3)))
          CFI DPL0 load(1, XDATA, add(CFA_XSP16, literal(-2)))
          CFI DPH0 load(1, XDATA, add(CFA_XSP16, literal(-1)))
          CFI CFA_SP SP+-2
          CFI CFA_XSP16 add(XSP16, 30)
          CFI Block cfiCond333 Using cfiCommon0
          CFI (cfiCond333) Function ZDSecMgrRemoveDeviceInd
          CFI (cfiCond333) Conditional ??CrossCallReturnLabel_150
          CFI (cfiCond333) R6 load(1, XDATA, add(CFA_XSP16, literal(-9)))
          CFI (cfiCond333) VB load(1, XDATA, add(CFA_XSP16, literal(-8)))
          CFI (cfiCond333) V0 load(1, XDATA, add(CFA_XSP16, literal(-7)))
          CFI (cfiCond333) R7 load(1, XDATA, add(CFA_XSP16, literal(-6)))
          CFI (cfiCond333) ?RET_LOW load(1, XDATA, add(CFA_XSP16, literal(-5)))
          CFI (cfiCond333) ?RET_HIGH load(1, XDATA, add(CFA_XSP16, literal(-4)))
          CFI (cfiCond333) ?BRET_EXT load(1, XDATA, add(CFA_XSP16, literal(-3)))
          CFI (cfiCond333) DPL0 load(1, XDATA, add(CFA_XSP16, literal(-2)))
          CFI (cfiCond333) DPH0 load(1, XDATA, add(CFA_XSP16, literal(-1)))
          CFI (cfiCond333) CFA_SP SP+-2
          CFI (cfiCond333) CFA_XSP16 add(XSP16, 17)
          CFI Block cfiCond334 Using cfiCommon0
          CFI (cfiCond334) Function APSME_IsLinkKeyValid
          CFI (cfiCond334) Conditional ??CrossCallReturnLabel_151
          CFI (cfiCond334) R6 load(1, XDATA, add(CFA_XSP16, literal(-15)))
          CFI (cfiCond334) VB load(1, XDATA, add(CFA_XSP16, literal(-14)))
          CFI (cfiCond334) V0 load(1, XDATA, add(CFA_XSP16, literal(-13)))
          CFI (cfiCond334) V1 load(1, XDATA, add(CFA_XSP16, literal(-12)))
          CFI (cfiCond334) V2 load(1, XDATA, add(CFA_XSP16, literal(-11)))
          CFI (cfiCond334) V3 load(1, XDATA, add(CFA_XSP16, literal(-10)))
          CFI (cfiCond334) V4 load(1, XDATA, add(CFA_XSP16, literal(-9)))
          CFI (cfiCond334) V5 load(1, XDATA, add(CFA_XSP16, literal(-8)))
          CFI (cfiCond334) V6 load(1, XDATA, add(CFA_XSP16, literal(-7)))
          CFI (cfiCond334) R7 load(1, XDATA, add(CFA_XSP16, literal(-6)))
          CFI (cfiCond334) ?RET_LOW load(1, XDATA, add(CFA_XSP16, literal(-5)))
          CFI (cfiCond334) ?RET_HIGH load(1, XDATA, add(CFA_XSP16, literal(-4)))
          CFI (cfiCond334) ?BRET_EXT load(1, XDATA, add(CFA_XSP16, literal(-3)))
          CFI (cfiCond334) DPL0 load(1, XDATA, add(CFA_XSP16, literal(-2)))
          CFI (cfiCond334) DPH0 load(1, XDATA, add(CFA_XSP16, literal(-1)))
          CFI (cfiCond334) CFA_SP SP+-2
          CFI (cfiCond334) CFA_XSP16 add(XSP16, 33)
          CFI Block cfiCond335 Using cfiCommon0
          CFI (cfiCond335) Function APSME_KeyFwdToChild
          CFI (cfiCond335) Conditional ??CrossCallReturnLabel_152
          CFI (cfiCond335) R6 load(1, XDATA, add(CFA_XSP16, literal(-10)))
          CFI (cfiCond335) VB load(1, XDATA, add(CFA_XSP16, literal(-9)))
          CFI (cfiCond335) V0 load(1, XDATA, add(CFA_XSP16, literal(-8)))
          CFI (cfiCond335) V1 load(1, XDATA, add(CFA_XSP16, literal(-7)))
          CFI (cfiCond335) R7 load(1, XDATA, add(CFA_XSP16, literal(-6)))
          CFI (cfiCond335) ?RET_LOW load(1, XDATA, add(CFA_XSP16, literal(-5)))
          CFI (cfiCond335) ?RET_HIGH load(1, XDATA, add(CFA_XSP16, literal(-4)))
          CFI (cfiCond335) ?BRET_EXT load(1, XDATA, add(CFA_XSP16, literal(-3)))
          CFI (cfiCond335) DPL0 load(1, XDATA, add(CFA_XSP16, literal(-2)))
          CFI (cfiCond335) DPH0 load(1, XDATA, add(CFA_XSP16, literal(-1)))
          CFI (cfiCond335) CFA_SP SP+-2
          CFI (cfiCond335) CFA_XSP16 add(XSP16, 10)
          CFI Block cfiCond336 Using cfiCommon0
          CFI (cfiCond336) Function ZDSecMgrAddLinkKey
          CFI (cfiCond336) Conditional ??CrossCallReturnLabel_153
          CFI (cfiCond336) R6 load(1, XDATA, add(CFA_XSP16, literal(-10)))
          CFI (cfiCond336) VB load(1, XDATA, add(CFA_XSP16, literal(-9)))
          CFI (cfiCond336) V0 load(1, XDATA, add(CFA_XSP16, literal(-8)))
          CFI (cfiCond336) V1 load(1, XDATA, add(CFA_XSP16, literal(-7)))
          CFI (cfiCond336) R7 load(1, XDATA, add(CFA_XSP16, literal(-6)))
          CFI (cfiCond336) ?RET_LOW load(1, XDATA, add(CFA_XSP16, literal(-5)))
          CFI (cfiCond336) ?RET_HIGH load(1, XDATA, add(CFA_XSP16, literal(-4)))
          CFI (cfiCond336) ?BRET_EXT load(1, XDATA, add(CFA_XSP16, literal(-3)))
          CFI (cfiCond336) DPL0 load(1, XDATA, add(CFA_XSP16, literal(-2)))
          CFI (cfiCond336) DPH0 load(1, XDATA, add(CFA_XSP16, literal(-1)))
          CFI (cfiCond336) CFA_SP SP+-2
          CFI (cfiCond336) CFA_XSP16 add(XSP16, 14)
          CFI Block cfiCond337 Using cfiCommon0
          CFI (cfiCond337) Function ZDSecMgrEntryInit
          CFI (cfiCond337) Conditional ??CrossCallReturnLabel_154
          CFI (cfiCond337) DPL0 Frame(CFA_SP, 4)
          CFI (cfiCond337) DPH0 Frame(CFA_SP, 5)
          CFI (cfiCond337) CFA_SP SP+-7
          CFI Block cfiCond338 Using cfiCommon0
          CFI (cfiCond338) Function ZDSecMgrEntryLookupExtGetIndex
          CFI (cfiCond338) Conditional ??CrossCallReturnLabel_155
          CFI (cfiCond338) R6 load(1, XDATA, add(CFA_XSP16, literal(-9)))
          CFI (cfiCond338) VB load(1, XDATA, add(CFA_XSP16, literal(-8)))
          CFI (cfiCond338) V0 load(1, XDATA, add(CFA_XSP16, literal(-7)))
          CFI (cfiCond338) R7 load(1, XDATA, add(CFA_XSP16, literal(-6)))
          CFI (cfiCond338) ?RET_LOW load(1, XDATA, add(CFA_XSP16, literal(-5)))
          CFI (cfiCond338) ?RET_HIGH load(1, XDATA, add(CFA_XSP16, literal(-4)))
          CFI (cfiCond338) ?BRET_EXT load(1, XDATA, add(CFA_XSP16, literal(-3)))
          CFI (cfiCond338) DPL0 load(1, XDATA, add(CFA_XSP16, literal(-2)))
          CFI (cfiCond338) DPH0 load(1, XDATA, add(CFA_XSP16, literal(-1)))
          CFI (cfiCond338) CFA_SP SP+-2
          CFI (cfiCond338) CFA_XSP16 add(XSP16, 11)
          CFI Block cfiCond339 Using cfiCommon0
          CFI (cfiCond339) Function ZDSecMgrEntryLookupAMIGetIndex
          CFI (cfiCond339) Conditional ??CrossCallReturnLabel_156
          CFI (cfiCond339) R6 load(1, XDATA, add(CFA_XSP16, literal(-9)))
          CFI (cfiCond339) VB load(1, XDATA, add(CFA_XSP16, literal(-8)))
          CFI (cfiCond339) V0 load(1, XDATA, add(CFA_XSP16, literal(-7)))
          CFI (cfiCond339) R7 load(1, XDATA, add(CFA_XSP16, literal(-6)))
          CFI (cfiCond339) ?RET_LOW load(1, XDATA, add(CFA_XSP16, literal(-5)))
          CFI (cfiCond339) ?RET_HIGH load(1, XDATA, add(CFA_XSP16, literal(-4)))
          CFI (cfiCond339) ?BRET_EXT load(1, XDATA, add(CFA_XSP16, literal(-3)))
          CFI (cfiCond339) DPL0 load(1, XDATA, add(CFA_XSP16, literal(-2)))
          CFI (cfiCond339) DPH0 load(1, XDATA, add(CFA_XSP16, literal(-1)))
          CFI (cfiCond339) CFA_SP SP+-2
          CFI (cfiCond339) CFA_XSP16 add(XSP16, 9)
          CFI Block cfiPicker340 Using cfiCommon1
          CFI (cfiPicker340) NoFunction
          CFI (cfiPicker340) Picker
        LCALL     ?Subroutine45 & 0xFFFF
??CrossCallReturnLabel_159:
        ORL       A,R1
        RET
          CFI EndBlock cfiCond332
          CFI EndBlock cfiCond333
          CFI EndBlock cfiCond334
          CFI EndBlock cfiCond335
          CFI EndBlock cfiCond336
          CFI EndBlock cfiCond337
          CFI EndBlock cfiCond338
          CFI EndBlock cfiCond339
          CFI EndBlock cfiPicker340
// 2710 
// 2711 /******************************************************************************
// 2712  * @fn          ZDSecMgrInitNV
// 2713  *
// 2714  * @brief       Initialize the SecMgr entry data in NV with all values set to 0
// 2715  *
// 2716  * @param       none
// 2717  *
// 2718  * @return      uint8 - <osal_nv_item_init> return codes
// 2719  */

        RSEG BANKED_CODE:HUGECODE:NOROOT(0)
// 2720 uint8 ZDSecMgrInitNV(void)
ZDSecMgrInitNV:
          CFI Block cfiBlock341 Using cfiCommon0
          CFI Function ZDSecMgrInitNV
        CODE
// 2721 {
        FUNCALL ZDSecMgrInitNV, osal_nv_item_init
        LOCFRAME ISTACK, 0, STACK
        LOCFRAME PSTACK, 0, STACK
        LOCFRAME XSTACK, 14, STACK
        LOCFRAME IOVERLAY, 0, STATIC
        LOCFRAME DOVERLAY, 0, STATIC
        ARGFRAME ISTACK, 0, STACK
        ARGFRAME PSTACK, 0, STACK
        ARGFRAME XSTACK, 14, STACK
        ARGFRAME IOVERLAY, 0, STATIC
        ARGFRAME DOVERLAY, 0, STATIC
        FUNCALL ZDSecMgrInitNV, osal_nv_write
        LOCFRAME ISTACK, 0, STACK
        LOCFRAME PSTACK, 0, STACK
        LOCFRAME XSTACK, 16, STACK
        LOCFRAME IOVERLAY, 0, STATIC
        LOCFRAME DOVERLAY, 0, STATIC
        ARGFRAME ISTACK, 0, STACK
        ARGFRAME PSTACK, 0, STACK
        ARGFRAME XSTACK, 16, STACK
        ARGFRAME IOVERLAY, 0, STATIC
        ARGFRAME DOVERLAY, 0, STATIC
        FUNCALL ZDSecMgrInitNV, osal_nv_item_init
        LOCFRAME ISTACK, 0, STACK
        LOCFRAME PSTACK, 0, STACK
        LOCFRAME XSTACK, 14, STACK
        LOCFRAME IOVERLAY, 0, STATIC
        LOCFRAME DOVERLAY, 0, STATIC
        ARGFRAME ISTACK, 0, STACK
        ARGFRAME PSTACK, 0, STACK
        ARGFRAME XSTACK, 14, STACK
        ARGFRAME IOVERLAY, 0, STATIC
        ARGFRAME DOVERLAY, 0, STATIC
        REQUIRE ?V0
        REQUIRE ?V1
        MOV       A,#-0xa
        LCALL     ?BANKED_ENTER_XDATA
          CFI DPH0 load(1, XDATA, add(CFA_XSP16, literal(-1)))
          CFI DPL0 load(1, XDATA, add(CFA_XSP16, literal(-2)))
          CFI ?BRET_EXT load(1, XDATA, add(CFA_XSP16, literal(-3)))
          CFI ?RET_HIGH load(1, XDATA, add(CFA_XSP16, literal(-4)))
          CFI ?RET_LOW load(1, XDATA, add(CFA_XSP16, literal(-5)))
          CFI R7 load(1, XDATA, add(CFA_XSP16, literal(-6)))
          CFI V1 load(1, XDATA, add(CFA_XSP16, literal(-7)))
          CFI V0 load(1, XDATA, add(CFA_XSP16, literal(-8)))
          CFI VB load(1, XDATA, add(CFA_XSP16, literal(-9)))
          CFI R6 load(1, XDATA, add(CFA_XSP16, literal(-10)))
          CFI CFA_SP SP+0
          CFI CFA_XSP16 add(XSP16, 10)
        ; Saved register size: 10
        ; Auto size: 2
        MOV       A,#-0x2
        LCALL     ?ALLOC_XSTACK8
          CFI CFA_XSP16 add(XSP16, 12)
// 2722 
// 2723   uint8 rtrn = osal_nv_item_init(ZCD_NV_APS_LINK_KEY_TABLE,
// 2724                 (sizeof(nvDeviceListHdr_t) + (sizeof(ZDSecMgrEntry_t) * ZDSECMGR_ENTRY_MAX)), NULL);
        ; Setup parameters for call to function osal_nv_item_init
        CLR       A
        MOV       ?V0,A
        MOV       ?V1,A
        MOV       R0,#?V0
        LCALL     ?PUSH_XSTACK_I_TWO
          CFI CFA_XSP16 add(XSP16, 14)
        MOV       R4,#0x11
        MOV       R5,#0x0
        MOV       R2,#0x4c
        MOV       R3,#0x0
        LCALL     `??osal_nv_item_init::?relay`; Banked call to: osal_nv_item_init
        MOV       A,#0x2
        LCALL     ?DEALLOC_XSTACK8
          CFI CFA_XSP16 add(XSP16, 12)
        MOV       A,R1
        MOV       R6,A
// 2725 
// 2726   // If the item does not already exist, set all values to 0
// 2727   if (rtrn == NV_ITEM_UNINIT)
        MOV       A,#0x9
        XRL       A,R6
        JNZ       ??ZDSecMgrInitNV_0
// 2728   {
// 2729     nvDeviceListHdr_t hdr;
// 2730     hdr.numRecs = 0;
        LCALL     ?Subroutine16 & 0xFFFF
// 2731     osal_nv_write(ZCD_NV_APS_LINK_KEY_TABLE, 0, sizeof(nvDeviceListHdr_t), &hdr);
// 2732   }
??CrossCallReturnLabel_5:
        LCALL     ?PUSH_XSTACK_I_TWO
          CFI CFA_XSP16 add(XSP16, 14)
        MOV       ?V0,#0x2
        MOV       ?V1,#0x0
        MOV       R0,#?V0
        LCALL     ?PUSH_XSTACK_I_TWO
          CFI CFA_XSP16 add(XSP16, 16)
        MOV       R4,#0x0
        MOV       R5,#0x0
        MOV       R2,#0x4c
        MOV       R3,#0x0
        LCALL     `??osal_nv_write::?relay`; Banked call to: osal_nv_write
        MOV       A,#0x4
        LCALL     ?DEALLOC_XSTACK8
          CFI CFA_XSP16 add(XSP16, 12)
// 2733 
// 2734   rtrn |= osal_nv_item_init( ZCD_NV_TRUSTCENTER_ADDR, Z_EXTADDR_LEN,
// 2735                              zgApsTrustCenterAddr );
// 2736 
// 2737   return rtrn;
??ZDSecMgrInitNV_0:
        ; Setup parameters for call to function osal_nv_item_init
        MOV       ?V0,#zgApsTrustCenterAddr & 0xff
        MOV       ?V1,#(zgApsTrustCenterAddr >> 8) & 0xff
        MOV       R0,#?V0
        LCALL     ?PUSH_XSTACK_I_TWO
          CFI CFA_XSP16 add(XSP16, 14)
        MOV       R4,#0x8
        MOV       R5,#0x0
        MOV       R2,#0x71
        MOV       R3,#0x0
        LCALL     `??osal_nv_item_init::?relay`; Banked call to: osal_nv_item_init
        MOV       A,#0x2
        LCALL     ?DEALLOC_XSTACK8
          CFI CFA_XSP16 add(XSP16, 12)
        MOV       A,R1
        ORL       A,R6
        MOV       R1,A
        MOV       A,#0x2
        LJMP      ??Subroutine54_0 & 0xFFFF
// 2738 }
          CFI EndBlock cfiBlock341
// 2739 
// 2740 #if defined ( NV_RESTORE )
// 2741 /*********************************************************************
// 2742  * @fn      ZDSecMgrWriteNV()
// 2743  *
// 2744  * @brief   Save off the APS link key list to NV
// 2745  *
// 2746  * @param   none
// 2747  *
// 2748  * @return  none
// 2749  */
// 2750 static void ZDSecMgrWriteNV( void )
// 2751 {
// 2752   uint16 i;
// 2753   nvDeviceListHdr_t hdr;
// 2754 
// 2755   hdr.numRecs = 0;
// 2756 
// 2757   if (ZDSecMgrEntries != NULL)
// 2758   {
// 2759     for ( i = 0; i < ZDSECMGR_ENTRY_MAX; i++ )
// 2760     {
// 2761       // Save off the record
// 2762       osal_nv_write( ZCD_NV_APS_LINK_KEY_TABLE,
// 2763                     (uint16)((sizeof(nvDeviceListHdr_t)) + (i * sizeof(ZDSecMgrEntry_t))),
// 2764                     sizeof(ZDSecMgrEntry_t), &ZDSecMgrEntries[i] );
// 2765 
// 2766       if ( ZDSecMgrEntries[i].ami != INVALID_NODE_ADDR )
// 2767       {
// 2768         hdr.numRecs++;
// 2769       }
// 2770     }
// 2771   }
// 2772 
// 2773   // Save off the header
// 2774   osal_nv_write( ZCD_NV_APS_LINK_KEY_TABLE, 0, sizeof( nvDeviceListHdr_t ), &hdr );
// 2775 }
// 2776 #endif // NV_RESTORE
// 2777 
// 2778 #if defined ( NV_RESTORE )
// 2779 /******************************************************************************
// 2780  * @fn          ZDSecMgrRestoreFromNV
// 2781  *
// 2782  * @brief       Restore the APS Link Key entry data from NV. It does not restore
// 2783  *              the key data itself as they remain in NV until they are used.
// 2784  *              Only list data is restored.
// 2785  *              Restore zgTrustCenterAdress from NV.
// 2786  *
// 2787  * @param       none
// 2788  *
// 2789  * @return      None.
// 2790  */
// 2791 static void ZDSecMgrRestoreFromNV( void )
// 2792 {
// 2793   nvDeviceListHdr_t hdr;
// 2794   APSME_LinkKeyData_t *pApsLinkKey = NULL;
// 2795 
// 2796   if ((osal_nv_read(ZCD_NV_APS_LINK_KEY_TABLE, 0, sizeof(nvDeviceListHdr_t), &hdr) == ZSUCCESS) &&
// 2797       ((hdr.numRecs > 0) && (hdr.numRecs <= ZDSECMGR_ENTRY_MAX)))
// 2798   {
// 2799     uint8 x;
// 2800 
// 2801     pApsLinkKey = (APSME_LinkKeyData_t *)osal_mem_alloc(sizeof(APSME_LinkKeyData_t));
// 2802 
// 2803     for (x = 0; x < ZDSECMGR_ENTRY_MAX; x++)
// 2804     {
// 2805       if ( osal_nv_read( ZCD_NV_APS_LINK_KEY_TABLE,
// 2806                         (uint16)(sizeof(nvDeviceListHdr_t) + (x * sizeof(ZDSecMgrEntry_t))),
// 2807                         sizeof(ZDSecMgrEntry_t), &ZDSecMgrEntries[x] ) == SUCCESS )
// 2808       {
// 2809         // update data only for valid entries
// 2810         if ( ZDSecMgrEntries[x].ami != INVALID_NODE_ADDR )
// 2811         {
// 2812           if (pApsLinkKey != NULL)
// 2813           {
// 2814             // read the key form NV, keyNvId must be ZCD_NV_APS_LINK_KEY_DATA_START based
// 2815             osal_nv_read( ZDSecMgrEntries[x].keyNvId, 0,
// 2816                          sizeof(APSME_LinkKeyData_t), pApsLinkKey );
// 2817 
// 2818             // set new values for the counter
// 2819             pApsLinkKey->txFrmCntr += ( MAX_APS_FRAMECOUNTER_CHANGES + 1 );
// 2820 
// 2821             // restore values for counters in RAM
// 2822             ApsLinkKeyFrmCntr[ZDSecMgrEntries[x].keyNvId - ZCD_NV_APS_LINK_KEY_DATA_START].txFrmCntr =
// 2823                                             pApsLinkKey->txFrmCntr;
// 2824 
// 2825             ApsLinkKeyFrmCntr[ZDSecMgrEntries[x].keyNvId - ZCD_NV_APS_LINK_KEY_DATA_START].rxFrmCntr =
// 2826                                             pApsLinkKey->rxFrmCntr;
// 2827 
// 2828             osal_nv_write( ZDSecMgrEntries[x].keyNvId, 0,
// 2829                           sizeof(APSME_LinkKeyData_t), pApsLinkKey );
// 2830 
// 2831             // clear copy of key in RAM
// 2832             osal_memset(pApsLinkKey, 0x00, sizeof(APSME_LinkKeyData_t));
// 2833           }
// 2834         }
// 2835       }
// 2836     }
// 2837 
// 2838     if (pApsLinkKey != NULL)
// 2839     {
// 2840       osal_mem_free(pApsLinkKey);
// 2841     }
// 2842   }
// 2843 
// 2844   osal_nv_read( ZCD_NV_TRUSTCENTER_ADDR, 0, Z_EXTADDR_LEN, zgApsTrustCenterAddr );
// 2845 }
// 2846 #endif // NV_RESTORE
// 2847 
// 2848 /*********************************************************************
// 2849  * @fn          ZDSecMgrSetDefaultNV
// 2850  *
// 2851  * @brief       Write the defaults to NV for Entry table and for APS key data table
// 2852  *
// 2853  * @param       none
// 2854  *
// 2855  * @return      none
// 2856  */

        RSEG BANKED_CODE:HUGECODE:NOROOT(0)
// 2857 void ZDSecMgrSetDefaultNV( void )
ZDSecMgrSetDefaultNV:
          CFI Block cfiBlock342 Using cfiCommon0
          CFI Function ZDSecMgrSetDefaultNV
        CODE
// 2858 {
        FUNCALL ZDSecMgrSetDefaultNV, osal_nv_write
        LOCFRAME ISTACK, 0, STACK
        LOCFRAME PSTACK, 0, STACK
        LOCFRAME XSTACK, 23, STACK
        LOCFRAME IOVERLAY, 0, STATIC
        LOCFRAME DOVERLAY, 0, STATIC
        ARGFRAME ISTACK, 0, STACK
        ARGFRAME PSTACK, 0, STACK
        ARGFRAME XSTACK, 23, STACK
        ARGFRAME IOVERLAY, 0, STATIC
        ARGFRAME DOVERLAY, 0, STATIC
        FUNCALL ZDSecMgrSetDefaultNV, osal_memset
        LOCFRAME ISTACK, 0, STACK
        LOCFRAME PSTACK, 0, STACK
        LOCFRAME XSTACK, 19, STACK
        LOCFRAME IOVERLAY, 0, STATIC
        LOCFRAME DOVERLAY, 0, STATIC
        ARGFRAME ISTACK, 0, STACK
        ARGFRAME PSTACK, 0, STACK
        ARGFRAME XSTACK, 19, STACK
        ARGFRAME IOVERLAY, 0, STATIC
        ARGFRAME DOVERLAY, 0, STATIC
        FUNCALL ZDSecMgrSetDefaultNV, osal_nv_write
        LOCFRAME ISTACK, 0, STACK
        LOCFRAME PSTACK, 0, STACK
        LOCFRAME XSTACK, 23, STACK
        LOCFRAME IOVERLAY, 0, STATIC
        LOCFRAME DOVERLAY, 0, STATIC
        ARGFRAME ISTACK, 0, STACK
        ARGFRAME PSTACK, 0, STACK
        ARGFRAME XSTACK, 23, STACK
        ARGFRAME IOVERLAY, 0, STATIC
        ARGFRAME DOVERLAY, 0, STATIC
        FUNCALL ZDSecMgrSetDefaultNV, osal_mem_alloc
        LOCFRAME ISTACK, 0, STACK
        LOCFRAME PSTACK, 0, STACK
        LOCFRAME XSTACK, 19, STACK
        LOCFRAME IOVERLAY, 0, STATIC
        LOCFRAME DOVERLAY, 0, STATIC
        ARGFRAME ISTACK, 0, STACK
        ARGFRAME PSTACK, 0, STACK
        ARGFRAME XSTACK, 19, STACK
        ARGFRAME IOVERLAY, 0, STATIC
        ARGFRAME DOVERLAY, 0, STATIC
        FUNCALL ZDSecMgrSetDefaultNV, osal_memset
        LOCFRAME ISTACK, 0, STACK
        LOCFRAME PSTACK, 0, STACK
        LOCFRAME XSTACK, 19, STACK
        LOCFRAME IOVERLAY, 0, STATIC
        LOCFRAME DOVERLAY, 0, STATIC
        ARGFRAME ISTACK, 0, STACK
        ARGFRAME PSTACK, 0, STACK
        ARGFRAME XSTACK, 19, STACK
        ARGFRAME IOVERLAY, 0, STATIC
        ARGFRAME DOVERLAY, 0, STATIC
        FUNCALL ZDSecMgrSetDefaultNV, osal_nv_write
        LOCFRAME ISTACK, 0, STACK
        LOCFRAME PSTACK, 0, STACK
        LOCFRAME XSTACK, 23, STACK
        LOCFRAME IOVERLAY, 0, STATIC
        LOCFRAME DOVERLAY, 0, STATIC
        ARGFRAME ISTACK, 0, STACK
        ARGFRAME PSTACK, 0, STACK
        ARGFRAME XSTACK, 23, STACK
        ARGFRAME IOVERLAY, 0, STATIC
        ARGFRAME DOVERLAY, 0, STATIC
        FUNCALL ZDSecMgrSetDefaultNV, osal_mem_free
        LOCFRAME ISTACK, 0, STACK
        LOCFRAME PSTACK, 0, STACK
        LOCFRAME XSTACK, 19, STACK
        LOCFRAME IOVERLAY, 0, STATIC
        LOCFRAME DOVERLAY, 0, STATIC
        ARGFRAME ISTACK, 0, STACK
        ARGFRAME PSTACK, 0, STACK
        ARGFRAME XSTACK, 19, STACK
        ARGFRAME IOVERLAY, 0, STATIC
        ARGFRAME DOVERLAY, 0, STATIC
        REQUIRE ?V0
        REQUIRE ?V1
        REQUIRE ?V2
        REQUIRE ?V3
        MOV       A,#-0xc
        LCALL     ?BANKED_ENTER_XDATA
          CFI DPH0 load(1, XDATA, add(CFA_XSP16, literal(-1)))
          CFI DPL0 load(1, XDATA, add(CFA_XSP16, literal(-2)))
          CFI ?BRET_EXT load(1, XDATA, add(CFA_XSP16, literal(-3)))
          CFI ?RET_HIGH load(1, XDATA, add(CFA_XSP16, literal(-4)))
          CFI ?RET_LOW load(1, XDATA, add(CFA_XSP16, literal(-5)))
          CFI R7 load(1, XDATA, add(CFA_XSP16, literal(-6)))
          CFI V3 load(1, XDATA, add(CFA_XSP16, literal(-7)))
          CFI V2 load(1, XDATA, add(CFA_XSP16, literal(-8)))
          CFI V1 load(1, XDATA, add(CFA_XSP16, literal(-9)))
          CFI V0 load(1, XDATA, add(CFA_XSP16, literal(-10)))
          CFI VB load(1, XDATA, add(CFA_XSP16, literal(-11)))
          CFI R6 load(1, XDATA, add(CFA_XSP16, literal(-12)))
          CFI CFA_SP SP+0
          CFI CFA_XSP16 add(XSP16, 12)
        ; Saved register size: 12
        ; Auto size: 7
        MOV       A,#-0x7
        LCALL     ?ALLOC_XSTACK8
          CFI CFA_XSP16 add(XSP16, 19)
// 2859   uint16 i;
// 2860   nvDeviceListHdr_t hdr;
// 2861   ZDSecMgrEntry_t secMgrEntry;
// 2862   APSME_LinkKeyData_t *pApsLinkKey = NULL;
// 2863 
// 2864   // Initialize the header
// 2865   hdr.numRecs = 0;
        LCALL     ?Subroutine16 & 0xFFFF
// 2866 
// 2867   // clear the header
// 2868   osal_nv_write(ZCD_NV_APS_LINK_KEY_TABLE, 0, sizeof(nvDeviceListHdr_t), &hdr);
??CrossCallReturnLabel_6:
        LCALL     ?PUSH_XSTACK_I_TWO
          CFI CFA_XSP16 add(XSP16, 21)
        MOV       ?V0,#0x2
        MOV       ?V1,#0x0
        MOV       R0,#?V0
        LCALL     ?PUSH_XSTACK_I_TWO
          CFI CFA_XSP16 add(XSP16, 23)
        MOV       R4,#0x0
        MOV       R5,#0x0
        MOV       R2,#0x4c
        MOV       R3,#0x0
        LCALL     `??osal_nv_write::?relay`; Banked call to: osal_nv_write
        MOV       A,#0x4
        LCALL     ?DEALLOC_XSTACK8
          CFI CFA_XSP16 add(XSP16, 19)
// 2869 
// 2870   osal_memset( &secMgrEntry, 0x00, sizeof(ZDSecMgrEntry_t) );
        ; Setup parameters for call to function osal_memset
        MOV       R4,#0x5
        MOV       R5,#0x0
        MOV       R1,#0x0
        MOV       A,#0x2
        LCALL     ?XSTACK_DISP101_8
        LCALL     `??osal_memset::?relay`; Banked call to: osal_memset
// 2871 
// 2872   for ( i = 0; i < ZDSECMGR_ENTRY_MAX; i++ )
        MOV       R6,#0x0
        MOV       R7,#0x0
// 2873   {
// 2874     // Clear the record
// 2875     osal_nv_write( ZCD_NV_APS_LINK_KEY_TABLE,
// 2876                 (uint16)((sizeof(nvDeviceListHdr_t)) + (i * sizeof(ZDSecMgrEntry_t))),
// 2877                         sizeof(ZDSecMgrEntry_t), &secMgrEntry );
??ZDSecMgrSetDefaultNV_0:
        ; Setup parameters for call to function osal_nv_write
        MOV       A,#0x2
        LCALL     ?XSTACK_DISP100_8
        MOV       ?V0,R0
        MOV       ?V1,R1
        MOV       R0,#?V0
        LCALL     ?PUSH_XSTACK_I_TWO
          CFI CFA_XSP16 add(XSP16, 21)
        MOV       ?V0,#0x5
        MOV       ?V1,#0x0
        MOV       R0,#?V0
        LCALL     ?PUSH_XSTACK_I_TWO
          CFI CFA_XSP16 add(XSP16, 23)
        MOV       A,R6
        MOV       R0,A
        MOV       A,R7
        MOV       R1,A
        MOV       A,R0
        MOV       B,#0x5
        MUL       AB
        MOV       R0,A
        MOV       R2,B
        MOV       B,#0x5
        MOV       A,R1
        MUL       AB
        ADD       A,R2
        MOV       R1,A
        MOV       A,R0
        ADD       A,#0x2
        MOV       R4,A
        CLR       A
        ADDC      A,R1
        MOV       R5,A
        MOV       R2,#0x4c
        MOV       R3,#0x0
        LCALL     `??osal_nv_write::?relay`; Banked call to: osal_nv_write
        MOV       A,#0x4
        LCALL     ?DEALLOC_XSTACK8
          CFI CFA_XSP16 add(XSP16, 19)
// 2878   }
        INC       R6
        MOV       A,R6
        JNZ       ??ZDSecMgrSetDefaultNV_1
        INC       R7
??ZDSecMgrSetDefaultNV_1:
        CLR       C
        SUBB      A,#0x3
        MOV       A,R7
        SUBB      A,#0x0
        JC        ??ZDSecMgrSetDefaultNV_0
// 2879 
// 2880   pApsLinkKey = (APSME_LinkKeyData_t *)osal_mem_alloc(sizeof(APSME_LinkKeyData_t));
        ; Setup parameters for call to function osal_mem_alloc
        MOV       R2,#0x18
        MOV       R3,#0x0
        LCALL     `??osal_mem_alloc::?relay`; Banked call to: osal_mem_alloc
        MOV       ?V0,R2
        MOV       ?V1,R3
// 2881 
// 2882   if (pApsLinkKey != NULL)
        MOV       A,R2
        ORL       A,?V1
        JZ        ??ZDSecMgrSetDefaultNV_2
// 2883   {
// 2884     osal_memset( pApsLinkKey, 0x00, sizeof(APSME_LinkKeyData_t) );
        ; Setup parameters for call to function osal_memset
        MOV       R4,#0x18
        MOV       R5,#0x0
        MOV       R1,#0x0
        LCALL     `??osal_memset::?relay`; Banked call to: osal_memset
// 2885 
// 2886     for ( i = 0; i < ZDSECMGR_ENTRY_MAX; i++ )
        MOV       R6,#0x0
        MOV       R7,#0x0
// 2887     {
// 2888       // Clear the record
// 2889       osal_nv_write( (ZCD_NV_APS_LINK_KEY_DATA_START + i), 0,
// 2890                     sizeof(APSME_LinkKeyData_t), pApsLinkKey);
??ZDSecMgrSetDefaultNV_3:
        ; Setup parameters for call to function osal_nv_write
        MOV       R0,#?V0
        LCALL     ?PUSH_XSTACK_I_TWO
          CFI CFA_XSP16 add(XSP16, 21)
        MOV       ?V2,#0x18
        MOV       ?V3,#0x0
        MOV       R0,#?V2
        LCALL     ?PUSH_XSTACK_I_TWO
          CFI CFA_XSP16 add(XSP16, 23)
        MOV       R4,#0x0
        MOV       R5,#0x0
        MOV       A,R6
        ADD       A,#0x1
        MOV       R2,A
        MOV       A,R7
        ADDC      A,#0x2
        MOV       R3,A
        LCALL     `??osal_nv_write::?relay`; Banked call to: osal_nv_write
        MOV       A,#0x4
        LCALL     ?DEALLOC_XSTACK8
          CFI CFA_XSP16 add(XSP16, 19)
// 2891     }
        INC       R6
        MOV       A,R6
        JNZ       ??ZDSecMgrSetDefaultNV_4
        INC       R7
??ZDSecMgrSetDefaultNV_4:
        CLR       C
        SUBB      A,#0x3
        MOV       A,R7
        SUBB      A,#0x0
        JC        ??ZDSecMgrSetDefaultNV_3
// 2892 
// 2893     osal_mem_free(pApsLinkKey);
        ; Setup parameters for call to function osal_mem_free
        MOV       R2,?V0
        MOV       R3,?V1
        LCALL     `??osal_mem_free::?relay`; Banked call to: osal_mem_free
// 2894   }
// 2895 }
??ZDSecMgrSetDefaultNV_2:
        MOV       A,#0x7
          CFI EndBlock cfiBlock342
        REQUIRE ?Subroutine3
        ; // Fall through to label ?Subroutine3

        RSEG BANKED_CODE:HUGECODE:NOROOT(0)
?Subroutine3:
          CFI Block cfiBlock343 Using cfiCommon0
          CFI NoFunction
          CFI CFA_SP SP+0
          CFI CFA_XSP16 add(XSP16, 51)
          CFI VB load(1, XDATA, add(CFA_XSP16, literal(-11)))
          CFI DPL0 load(1, XDATA, add(CFA_XSP16, literal(-2)))
          CFI DPH0 load(1, XDATA, add(CFA_XSP16, literal(-1)))
          CFI R6 load(1, XDATA, add(CFA_XSP16, literal(-12)))
          CFI R7 load(1, XDATA, add(CFA_XSP16, literal(-6)))
          CFI V0 load(1, XDATA, add(CFA_XSP16, literal(-10)))
          CFI V1 load(1, XDATA, add(CFA_XSP16, literal(-9)))
          CFI V2 load(1, XDATA, add(CFA_XSP16, literal(-8)))
          CFI V3 load(1, XDATA, add(CFA_XSP16, literal(-7)))
          CFI ?BRET_EXT load(1, XDATA, add(CFA_XSP16, literal(-3)))
          CFI ?RET_HIGH load(1, XDATA, add(CFA_XSP16, literal(-4)))
          CFI ?RET_LOW load(1, XDATA, add(CFA_XSP16, literal(-5)))
          CFI Invalid
        LCALL     ?DEALLOC_XSTACK8
          CFI EndBlock cfiBlock343
        REQUIRE ??Subroutine71_0
        ; // Fall through to label ??Subroutine71_0

        RSEG BANKED_CODE:HUGECODE:NOROOT(0)
??Subroutine71_0:
          CFI Block cfiBlock344 Using cfiCommon0
          CFI NoFunction
          CFI CFA_SP SP+0
          CFI CFA_XSP16 add(XSP16, 12)
          CFI VB load(1, XDATA, add(CFA_XSP16, literal(-11)))
          CFI DPL0 load(1, XDATA, add(CFA_XSP16, literal(-2)))
          CFI DPH0 load(1, XDATA, add(CFA_XSP16, literal(-1)))
          CFI R6 load(1, XDATA, add(CFA_XSP16, literal(-12)))
          CFI R7 load(1, XDATA, add(CFA_XSP16, literal(-6)))
          CFI V0 load(1, XDATA, add(CFA_XSP16, literal(-10)))
          CFI V1 load(1, XDATA, add(CFA_XSP16, literal(-9)))
          CFI V2 load(1, XDATA, add(CFA_XSP16, literal(-8)))
          CFI V3 load(1, XDATA, add(CFA_XSP16, literal(-7)))
          CFI ?BRET_EXT load(1, XDATA, add(CFA_XSP16, literal(-3)))
          CFI ?RET_HIGH load(1, XDATA, add(CFA_XSP16, literal(-4)))
          CFI ?RET_LOW load(1, XDATA, add(CFA_XSP16, literal(-5)))
        MOV       R7,#0x4
        LJMP      ?BANKED_LEAVE_XDATA
          CFI EndBlock cfiBlock344

        RSEG BANKED_CODE:HUGECODE:NOROOT(0)
?Subroutine16:
          CFI Block cfiCond345 Using cfiCommon0
          CFI Function ZDSecMgrInitNV
          CFI Conditional ??CrossCallReturnLabel_5
          CFI R6 load(1, XDATA, add(CFA_XSP16, literal(-10)))
          CFI VB load(1, XDATA, add(CFA_XSP16, literal(-9)))
          CFI V0 load(1, XDATA, add(CFA_XSP16, literal(-8)))
          CFI V1 load(1, XDATA, add(CFA_XSP16, literal(-7)))
          CFI R7 load(1, XDATA, add(CFA_XSP16, literal(-6)))
          CFI ?RET_LOW load(1, XDATA, add(CFA_XSP16, literal(-5)))
          CFI ?RET_HIGH load(1, XDATA, add(CFA_XSP16, literal(-4)))
          CFI ?BRET_EXT load(1, XDATA, add(CFA_XSP16, literal(-3)))
          CFI DPL0 load(1, XDATA, add(CFA_XSP16, literal(-2)))
          CFI DPH0 load(1, XDATA, add(CFA_XSP16, literal(-1)))
          CFI CFA_SP SP+-2
          CFI CFA_XSP16 add(XSP16, 12)
          CFI Block cfiCond346 Using cfiCommon0
          CFI (cfiCond346) Function ZDSecMgrSetDefaultNV
          CFI (cfiCond346) Conditional ??CrossCallReturnLabel_6
          CFI (cfiCond346) R6 load(1, XDATA, add(CFA_XSP16, literal(-12)))
          CFI (cfiCond346) VB load(1, XDATA, add(CFA_XSP16, literal(-11)))
          CFI (cfiCond346) V0 load(1, XDATA, add(CFA_XSP16, literal(-10)))
          CFI (cfiCond346) V1 load(1, XDATA, add(CFA_XSP16, literal(-9)))
          CFI (cfiCond346) V2 load(1, XDATA, add(CFA_XSP16, literal(-8)))
          CFI (cfiCond346) V3 load(1, XDATA, add(CFA_XSP16, literal(-7)))
          CFI (cfiCond346) R7 load(1, XDATA, add(CFA_XSP16, literal(-6)))
          CFI (cfiCond346) ?RET_LOW load(1, XDATA, add(CFA_XSP16, literal(-5)))
          CFI (cfiCond346) ?RET_HIGH load(1, XDATA, add(CFA_XSP16, literal(-4)))
          CFI (cfiCond346) ?BRET_EXT load(1, XDATA, add(CFA_XSP16, literal(-3)))
          CFI (cfiCond346) DPL0 load(1, XDATA, add(CFA_XSP16, literal(-2)))
          CFI (cfiCond346) DPH0 load(1, XDATA, add(CFA_XSP16, literal(-1)))
          CFI (cfiCond346) CFA_SP SP+-2
          CFI (cfiCond346) CFA_XSP16 add(XSP16, 19)
          CFI Block cfiPicker347 Using cfiCommon1
          CFI (cfiPicker347) NoFunction
          CFI (cfiPicker347) Picker
        MOV       DPL,?XSP + 0
        MOV       DPH,?XSP + 1
        CLR       A
        MOVX      @DPTR,A
        INC       DPTR
        MOVX      @DPTR,A
        ; Setup parameters for call to function osal_nv_write
        ; Setup parameters for call to function osal_nv_write
        MOV       R0,?XSP + 0
        MOV       R1,?XSP + 1
        MOV       ?V0,R0
        MOV       ?V1,R1
        MOV       R0,#?V0
        RET
          CFI EndBlock cfiCond345
          CFI EndBlock cfiCond346
          CFI EndBlock cfiPicker347
// 2896 
// 2897 #if defined ( NV_RESTORE )
// 2898 /*********************************************************************
// 2899  * @fn      ZDSecMgrUpdateNV()
// 2900  *
// 2901  * @brief   Updates one entry of the APS link key table to NV
// 2902  *
// 2903  * @param   index - to the entry in security manager table
// 2904  *
// 2905  * @return  none
// 2906  */
// 2907 static void ZDSecMgrUpdateNV( uint16 index )
// 2908 {
// 2909   nvDeviceListHdr_t hdr;
// 2910 
// 2911   if (ZDSecMgrEntries != NULL)
// 2912   {
// 2913     // Save off the record
// 2914     osal_nv_write( ZCD_NV_APS_LINK_KEY_TABLE,
// 2915                    (uint16)((sizeof(nvDeviceListHdr_t)) + (index * sizeof(ZDSecMgrEntry_t))),
// 2916                    sizeof(ZDSecMgrEntry_t), &ZDSecMgrEntries[index] );
// 2917   }
// 2918 
// 2919   if (osal_nv_read(ZCD_NV_APS_LINK_KEY_TABLE, 0, sizeof(nvDeviceListHdr_t), &hdr) == ZSUCCESS)
// 2920   {
// 2921     if ( ZDSecMgrEntries[index].ami == INVALID_NODE_ADDR )
// 2922     {
// 2923       if (hdr.numRecs > 0)
// 2924       {
// 2925         hdr.numRecs--;
// 2926       }
// 2927     }
// 2928     else
// 2929     {
// 2930       hdr.numRecs++;
// 2931     }
// 2932 
// 2933     // Save off the header
// 2934     osal_nv_write( ZCD_NV_APS_LINK_KEY_TABLE, 0, sizeof( nvDeviceListHdr_t ), &hdr );
// 2935   }
// 2936 }
// 2937 #endif // NV_RESTORE
// 2938 
// 2939 /******************************************************************************
// 2940  * @fn          ZDSecMgrAPSRemove
// 2941  *
// 2942  * @brief       Remove device from network.
// 2943  *
// 2944  * @param       nwkAddr - device's NWK address
// 2945  * @param       extAddr - device's Extended address
// 2946  * @param       parentAddr - parent's NWK address
// 2947  *
// 2948  * @return      ZStatus_t
// 2949  */

        RSEG BANKED_CODE:HUGECODE:NOROOT(0)
// 2950 ZStatus_t ZDSecMgrAPSRemove( uint16 nwkAddr, uint8 *extAddr, uint16 parentAddr )
ZDSecMgrAPSRemove:
          CFI Block cfiBlock348 Using cfiCommon0
          CFI Function ZDSecMgrAPSRemove
        CODE
// 2951 {
        FUNCALL ZDSecMgrAPSRemove, ZDSecMgrDeviceRemove
        LOCFRAME ISTACK, 2, STACK
        LOCFRAME PSTACK, 0, STACK
        LOCFRAME XSTACK, 8, STACK
        LOCFRAME IOVERLAY, 0, STATIC
        LOCFRAME DOVERLAY, 0, STATIC
        ARGFRAME ISTACK, 2, STACK
        ARGFRAME PSTACK, 0, STACK
        ARGFRAME XSTACK, 8, STACK
        ARGFRAME IOVERLAY, 0, STATIC
        ARGFRAME DOVERLAY, 0, STATIC
        PUSH      DPL
          CFI DPL0 Frame(CFA_SP, 4)
          CFI CFA_SP SP+-4
        PUSH      DPH
          CFI DPH0 Frame(CFA_SP, 5)
          CFI CFA_SP SP+-5
        ; Saved register size: 2
        ; Auto size: 8
        MOV       A,#-0x8
        LCALL     ?ALLOC_XSTACK8
          CFI CFA_XSP16 add(XSP16, 8)
// 2952   ZDSecMgrDevice_t device;
// 2953 
// 2954   if ( ( nwkAddr == INVALID_NODE_ADDR ) ||
// 2955        ( extAddr == NULL )              ||
// 2956        ( parentAddr == INVALID_NODE_ADDR ) )
        MOV       A,#-0x2
        XRL       A,R2
        JNZ       ??ZDSecMgrAPSRemove_0
        MOV       A,#-0x1
        XRL       A,R3
??ZDSecMgrAPSRemove_0:
        JZ        ??ZDSecMgrAPSRemove_1
        MOV       A,R4
        ORL       A,R5
        JZ        ??ZDSecMgrAPSRemove_1
        MOV       A,#0x8
        LCALL     ?XSTACK_DISP0_8
        LCALL     ??Subroutine68_0 & 0xFFFF
??CrossCallReturnLabel_137:
        MOV       A,#-0x2
        XRL       A,R0
        JNZ       ??ZDSecMgrAPSRemove_2
        MOV       A,#-0x1
        XRL       A,R1
??ZDSecMgrAPSRemove_2:
        JNZ       ??ZDSecMgrAPSRemove_3
// 2957   {
// 2958     return ( ZFailure );
??ZDSecMgrAPSRemove_1:
        MOV       R1,#0x1
        SJMP      ??ZDSecMgrAPSRemove_4
// 2959   }
// 2960 
// 2961   device.nwkAddr = nwkAddr;
??ZDSecMgrAPSRemove_3:
        LCALL     ?Subroutine23 & 0xFFFF
// 2962   device.extAddr = extAddr;
??CrossCallReturnLabel_77:
        LCALL     ?XSTACK_DISP0_8
        MOV       A,R4
        MOVX      @DPTR,A
        INC       DPTR
        MOV       A,R5
        MOVX      @DPTR,A
// 2963   device.parentAddr = parentAddr;
        MOV       A,#0x4
        LCALL     ?XSTACK_DISP0_8
        MOV       A,R0
        MOVX      @DPTR,A
        INC       DPTR
        MOV       A,R1
        LCALL     ??Subroutine65_0 & 0xFFFF
// 2964 
// 2965   // remove device
// 2966   ZDSecMgrDeviceRemove( &device );
??CrossCallReturnLabel_125:
        LCALL     `??ZDSecMgrDeviceRemove::?relay`; Banked call to: ZDSecMgrDeviceRemove
// 2967 
// 2968   return ( ZSuccess );
        MOV       R1,#0x0
??ZDSecMgrAPSRemove_4:
        LJMP      ?Subroutine9 & 0xFFFF
// 2969 }
          CFI EndBlock cfiBlock348
// 2970 
// 2971 /******************************************************************************
// 2972  * @fn          APSME_TCLinkKeyInit
// 2973  *
// 2974  * @brief       Initialize the NV table for preconfigured TC link key
// 2975  *
// 2976  *              When zgUseDefaultTCL is set to TRUE, the default preconfig
// 2977  *              Trust Center Link Key is written to NV. A single tclk is used
// 2978  *              by all devices joining the network.
// 2979  *
// 2980  * @param       setDefault - TRUE to set default values
// 2981  *
// 2982  * @return      none
// 2983  */

        RSEG BANKED_CODE:HUGECODE:NOROOT(0)
// 2984 void APSME_TCLinkKeyInit(uint8 setDefault)
APSME_TCLinkKeyInit:
          CFI Block cfiBlock349 Using cfiCommon0
          CFI Function APSME_TCLinkKeyInit
        CODE
// 2985 {
        FUNCALL APSME_TCLinkKeyInit, osal_memset
        LOCFRAME ISTACK, 0, STACK
        LOCFRAME PSTACK, 0, STACK
        LOCFRAME XSTACK, 39, STACK
        LOCFRAME IOVERLAY, 0, STATIC
        LOCFRAME DOVERLAY, 0, STATIC
        ARGFRAME ISTACK, 0, STACK
        ARGFRAME PSTACK, 0, STACK
        ARGFRAME XSTACK, 39, STACK
        ARGFRAME IOVERLAY, 0, STATIC
        ARGFRAME DOVERLAY, 0, STATIC
        FUNCALL APSME_TCLinkKeyInit, osal_nv_item_init
        LOCFRAME ISTACK, 0, STACK
        LOCFRAME PSTACK, 0, STACK
        LOCFRAME XSTACK, 41, STACK
        LOCFRAME IOVERLAY, 0, STATIC
        LOCFRAME DOVERLAY, 0, STATIC
        ARGFRAME ISTACK, 0, STACK
        ARGFRAME PSTACK, 0, STACK
        ARGFRAME XSTACK, 41, STACK
        ARGFRAME IOVERLAY, 0, STATIC
        ARGFRAME DOVERLAY, 0, STATIC
        FUNCALL APSME_TCLinkKeyInit, osal_nv_write
        LOCFRAME ISTACK, 0, STACK
        LOCFRAME PSTACK, 0, STACK
        LOCFRAME XSTACK, 43, STACK
        LOCFRAME IOVERLAY, 0, STATIC
        LOCFRAME DOVERLAY, 0, STATIC
        ARGFRAME ISTACK, 0, STACK
        ARGFRAME PSTACK, 0, STACK
        ARGFRAME XSTACK, 43, STACK
        ARGFRAME IOVERLAY, 0, STATIC
        ARGFRAME DOVERLAY, 0, STATIC
        FUNCALL APSME_TCLinkKeyInit, osal_nv_read
        LOCFRAME ISTACK, 0, STACK
        LOCFRAME PSTACK, 0, STACK
        LOCFRAME XSTACK, 43, STACK
        LOCFRAME IOVERLAY, 0, STATIC
        LOCFRAME DOVERLAY, 0, STATIC
        ARGFRAME ISTACK, 0, STACK
        ARGFRAME PSTACK, 0, STACK
        ARGFRAME XSTACK, 43, STACK
        ARGFRAME IOVERLAY, 0, STATIC
        ARGFRAME DOVERLAY, 0, STATIC
        FUNCALL APSME_TCLinkKeyInit, osal_nv_write
        LOCFRAME ISTACK, 0, STACK
        LOCFRAME PSTACK, 0, STACK
        LOCFRAME XSTACK, 43, STACK
        LOCFRAME IOVERLAY, 0, STATIC
        LOCFRAME DOVERLAY, 0, STATIC
        ARGFRAME ISTACK, 0, STACK
        ARGFRAME PSTACK, 0, STACK
        ARGFRAME XSTACK, 43, STACK
        ARGFRAME IOVERLAY, 0, STATIC
        ARGFRAME DOVERLAY, 0, STATIC
        FUNCALL APSME_TCLinkKeyInit, osal_memset
        LOCFRAME ISTACK, 0, STACK
        LOCFRAME PSTACK, 0, STACK
        LOCFRAME XSTACK, 39, STACK
        LOCFRAME IOVERLAY, 0, STATIC
        LOCFRAME DOVERLAY, 0, STATIC
        ARGFRAME ISTACK, 0, STACK
        ARGFRAME PSTACK, 0, STACK
        ARGFRAME XSTACK, 39, STACK
        ARGFRAME IOVERLAY, 0, STATIC
        ARGFRAME DOVERLAY, 0, STATIC
        FUNCALL APSME_TCLinkKeyInit, APSME_EraseICEntry
        LOCFRAME ISTACK, 0, STACK
        LOCFRAME PSTACK, 0, STACK
        LOCFRAME XSTACK, 39, STACK
        LOCFRAME IOVERLAY, 0, STATIC
        LOCFRAME DOVERLAY, 0, STATIC
        ARGFRAME ISTACK, 0, STACK
        ARGFRAME PSTACK, 0, STACK
        ARGFRAME XSTACK, 39, STACK
        ARGFRAME IOVERLAY, 0, STATIC
        ARGFRAME DOVERLAY, 0, STATIC
        REQUIRE ?V0
        REQUIRE ?V1
        REQUIRE ?V2
        REQUIRE ?V3
        REQUIRE ?V4
        REQUIRE ?V5
        REQUIRE ?V6
        REQUIRE ?V7
        REQUIRE ?V8
        REQUIRE ?V10
        REQUIRE ?V11
        MOV       A,#-0x14
        LCALL     ?BANKED_ENTER_XDATA
          CFI DPH0 load(1, XDATA, add(CFA_XSP16, literal(-1)))
          CFI DPL0 load(1, XDATA, add(CFA_XSP16, literal(-2)))
          CFI ?BRET_EXT load(1, XDATA, add(CFA_XSP16, literal(-3)))
          CFI ?RET_HIGH load(1, XDATA, add(CFA_XSP16, literal(-4)))
          CFI ?RET_LOW load(1, XDATA, add(CFA_XSP16, literal(-5)))
          CFI R7 load(1, XDATA, add(CFA_XSP16, literal(-6)))
          CFI V11 load(1, XDATA, add(CFA_XSP16, literal(-7)))
          CFI V10 load(1, XDATA, add(CFA_XSP16, literal(-8)))
          CFI V9 load(1, XDATA, add(CFA_XSP16, literal(-9)))
          CFI V8 load(1, XDATA, add(CFA_XSP16, literal(-10)))
          CFI V7 load(1, XDATA, add(CFA_XSP16, literal(-11)))
          CFI V6 load(1, XDATA, add(CFA_XSP16, literal(-12)))
          CFI V5 load(1, XDATA, add(CFA_XSP16, literal(-13)))
          CFI V4 load(1, XDATA, add(CFA_XSP16, literal(-14)))
          CFI V3 load(1, XDATA, add(CFA_XSP16, literal(-15)))
          CFI V2 load(1, XDATA, add(CFA_XSP16, literal(-16)))
          CFI V1 load(1, XDATA, add(CFA_XSP16, literal(-17)))
          CFI V0 load(1, XDATA, add(CFA_XSP16, literal(-18)))
          CFI VB load(1, XDATA, add(CFA_XSP16, literal(-19)))
          CFI R6 load(1, XDATA, add(CFA_XSP16, literal(-20)))
          CFI CFA_SP SP+0
          CFI CFA_XSP16 add(XSP16, 20)
        ; Saved register size: 20
        ; Auto size: 19
        MOV       A,#-0x13
        LCALL     ?ALLOC_XSTACK8
          CFI CFA_XSP16 add(XSP16, 39)
        MOV       ?V8,R1
// 2986   APSME_TCLKDevEntry_t TCLKDevEntry;
// 2987   uint8                rtrn;
// 2988   uint16               i;
// 2989   
// 2990   // Clear the data for the keys
// 2991   osal_memset( &TCLKDevEntry, 0x00, sizeof(APSME_TCLKDevEntry_t) );
        ; Setup parameters for call to function osal_memset
        MOV       R4,#0x13
        MOV       R5,#0x0
        MOV       R1,#0x0
        MOV       R2,?XSP + 0
        MOV       R3,?XSP + 1
        LCALL     `??osal_memset::?relay`; Banked call to: osal_memset
// 2992   TCLKDevEntry.keyAttributes = ZG_DEFAULT_KEY;
        MOV       A,#0x10
        LCALL     ?XSTACK_DISP0_8
        MOV       A,#-0x1
        MOVX      @DPTR,A
// 2993   
// 2994   // Initialize all NV items
// 2995   for( i = 0; i < gZDSECMGR_TC_DEVICE_MAX; i++ )
        MOV       R6,#0x0
        MOV       R7,#0x0
// 2996   {
// 2997     // If the item doesn't exist in NV memory, create and initialize
// 2998     // it with the default value passed in, either defaultTCLK or 0
// 2999     rtrn = osal_nv_item_init( (ZCD_NV_TCLK_TABLE_START + i),
// 3000                                sizeof(APSME_TCLKDevEntry_t), &TCLKDevEntry);
// 3001 
// 3002     if (rtrn == SUCCESS)
??APSME_TCLinkKeyInit_0:
        MOV       A,R6
        ADD       A,#0x11
        MOV       ?V0,A
        MOV       A,R7
        ADDC      A,#0x1
        MOV       ?V1,A
        ; Setup parameters for call to function osal_nv_item_init
        MOV       R0,?XSP + 0
        MOV       R1,?XSP + 1
        MOV       ?V2,R0
        MOV       ?V3,R1
        MOV       R0,#?V2
        LCALL     ?PUSH_XSTACK_I_TWO
          CFI CFA_XSP16 add(XSP16, 41)
        MOV       R4,#0x13
        MOV       R5,#0x0
        MOV       R2,?V0
        MOV       R3,?V1
        LCALL     `??osal_nv_item_init::?relay`; Banked call to: osal_nv_item_init
        MOV       A,#0x2
        LCALL     ?DEALLOC_XSTACK8
          CFI CFA_XSP16 add(XSP16, 39)
        MOV       A,R1
        JZ        $+5
        LJMP      ??APSME_TCLinkKeyInit_1 & 0xFFFF
// 3003     {
// 3004       if(setDefault)
        MOV       A,R6
        MOV       R0,A
        MOV       A,R7
        MOV       R1,A
        MOV       A,R0
        MOV       B,#0x9
        MUL       AB
        MOV       R0,A
        MOV       R2,B
        MOV       B,#0x9
        MOV       A,R1
        LCALL     ?Subroutine35 & 0xFFFF
??CrossCallReturnLabel_37:
        ADD       A,#0x4
        MOV       ?V10,A
        CLR       A
        ADDC      A,?V3
        MOV       ?V11,A
        MOV       A,?V8
        MOV       R0,?XSP + 0
        MOV       R1,?XSP + 1
        MOV       ?V4,R0
        MOV       ?V5,R1
        MOV       R0,#?V4
        JZ        ??APSME_TCLinkKeyInit_2
// 3005       {
// 3006         //Force to initialize the entry
// 3007         osal_nv_write(ZCD_NV_TCLK_TABLE_START + i, 0, sizeof(APSME_TCLKDevEntry_t), &TCLKDevEntry);
        ; Setup parameters for call to function osal_nv_write
        LCALL     ?PUSH_XSTACK_I_TWO
          CFI CFA_XSP16 add(XSP16, 41)
        MOV       ?V4,#0x13
        MOV       ?V5,#0x0
        MOV       R0,#?V4
        LCALL     ?PUSH_XSTACK_I_TWO
          CFI CFA_XSP16 add(XSP16, 43)
        MOV       R4,#0x0
        MOV       R5,#0x0
        MOV       R2,?V0
        MOV       R3,?V1
        LCALL     `??osal_nv_write::?relay`; Banked call to: osal_nv_write
        MOV       A,#0x4
        LCALL     ?DEALLOC_XSTACK8
          CFI CFA_XSP16 add(XSP16, 39)
// 3008         TCLinkKeyFrmCntr[i].txFrmCntr = 0;
        MOV       DPL,?V2
        MOV       DPH,?V3
        LCALL     ??Subroutine73_0 & 0xFFFF
// 3009         TCLinkKeyFrmCntr[i].rxFrmCntr = 0;
??CrossCallReturnLabel_164:
        MOV       DPL,?V10
        MOV       DPH,?V11
        LCALL     ?Subroutine42 & 0xFFFF
// 3010       }
??CrossCallReturnLabel_170:
        LJMP      ??APSME_TCLinkKeyInit_3 & 0xFFFF
// 3011       else
// 3012       {
// 3013         // set the Frame counters to 0 to existing keys in NV
// 3014         osal_nv_read( ( ZCD_NV_TCLK_TABLE_START + i), 0,
// 3015                        sizeof(APSME_TCLKDevEntry_t), &TCLKDevEntry );
??APSME_TCLinkKeyInit_2:
        ; Setup parameters for call to function osal_nv_read
        LCALL     ?PUSH_XSTACK_I_TWO
          CFI CFA_XSP16 add(XSP16, 41)
        MOV       ?V4,#0x13
        MOV       ?V5,#0x0
        MOV       R0,#?V4
        LCALL     ?PUSH_XSTACK_I_TWO
          CFI CFA_XSP16 add(XSP16, 43)
        MOV       R4,#0x0
        MOV       R5,#0x0
        MOV       R2,?V0
        MOV       R3,?V1
        LCALL     `??osal_nv_read::?relay`; Banked call to: osal_nv_read
        MOV       A,#0x4
        LCALL     ?DEALLOC_XSTACK8
          CFI CFA_XSP16 add(XSP16, 39)
// 3016 
// 3017         // increase the value stored in NV
// 3018         TCLKDevEntry.txFrmCntr += ( MAX_TCLK_FRAMECOUNTER_CHANGES + 1 );
        MOV       DPTR,#__Constant_b
        MOV       R0,#?V4
        LCALL     ?L_MOV_X
        MOV       DPL,?XSP + 0
        MOV       DPH,?XSP + 1
        MOV       R0,#?V4
        LCALL     ?L_ADD_TO_X
// 3019 
// 3020         osal_nv_write( ( ZCD_NV_TCLK_TABLE_START + i), 0,
// 3021                         sizeof(APSME_TCLKDevEntry_t), &TCLKDevEntry );
        ; Setup parameters for call to function osal_nv_write
        MOV       R0,?XSP + 0
        MOV       R1,?XSP + 1
        MOV       ?V4,R0
        MOV       ?V5,R1
        MOV       R0,#?V4
        LCALL     ?PUSH_XSTACK_I_TWO
          CFI CFA_XSP16 add(XSP16, 41)
        MOV       ?V4,#0x13
        MOV       ?V5,#0x0
        MOV       R0,#?V4
        LCALL     ?PUSH_XSTACK_I_TWO
          CFI CFA_XSP16 add(XSP16, 43)
        MOV       R4,#0x0
        MOV       R5,#0x0
        MOV       R2,?V0
        MOV       R3,?V1
        LCALL     `??osal_nv_write::?relay`; Banked call to: osal_nv_write
        MOV       A,#0x4
        LCALL     ?DEALLOC_XSTACK8
          CFI CFA_XSP16 add(XSP16, 39)
// 3022 
// 3023         // set initial values for counters in RAM
// 3024         TCLinkKeyFrmCntr[i].txFrmCntr = TCLKDevEntry.txFrmCntr;
        MOV       DPL,?XSP + 0
        MOV       DPH,?XSP + 1
        LCALL     ?XLOAD_R0123
        MOV       DPL,?V2
        MOV       DPH,?V3
        LCALL     ?XSTORE_R0123
// 3025         TCLinkKeyFrmCntr[i].rxFrmCntr = TCLKDevEntry.rxFrmCntr;
        MOV       A,#0x4
        LCALL     ?XSTACK_DISP0_8
        LCALL     ?XLOAD_R0123
        MOV       DPL,?V10
        MOV       DPH,?V11
        LCALL     ?XSTORE_R0123
// 3026         
// 3027         // Making sure data is cleared and set to default for every key all the time
// 3028         osal_memset( &TCLKDevEntry, 0x00, sizeof(APSME_TCLKDevEntry_t) );
        ; Setup parameters for call to function osal_memset
        MOV       R4,#0x13
        MOV       R5,#0x0
        MOV       R1,#0x0
        MOV       R2,?XSP + 0
        MOV       R3,?XSP + 1
        LCALL     `??osal_memset::?relay`; Banked call to: osal_memset
// 3029         TCLKDevEntry.keyAttributes = ZG_DEFAULT_KEY;
        MOV       A,#0x10
        LCALL     ?XSTACK_DISP0_8
        MOV       A,#-0x1
??APSME_TCLinkKeyInit_3:
        MOVX      @DPTR,A
// 3030       }
// 3031     }
// 3032   }
??APSME_TCLinkKeyInit_1:
        INC       R6
        MOV       A,R6
        JNZ       ??APSME_TCLinkKeyInit_4
        INC       R7
??APSME_TCLinkKeyInit_4:
        CLR       C
        SUBB      A,#0x3
        MOV       A,R7
        SUBB      A,#0x0
        JNC       $+5
        LJMP      ??APSME_TCLinkKeyInit_0 & 0xFFFF
// 3033 
// 3034   if(setDefault)
        MOV       A,?V8
        JZ        ??APSME_TCLinkKeyInit_5
// 3035   {
// 3036     //Force to erase all IC
// 3037     APSME_EraseICEntry(NULL);
        ; Setup parameters for call to function APSME_EraseICEntry
        MOV       R2,#0x0
        MOV       R3,#0x0
        LCALL     `??APSME_EraseICEntry::?relay`; Banked call to: APSME_EraseICEntry
// 3038   }
// 3039 }
??APSME_TCLinkKeyInit_5:
        MOV       A,#0x13
        LCALL     ?DEALLOC_XSTACK8
          CFI CFA_XSP16 add(XSP16, 20)
        MOV       R7,#0xc
        LJMP      ?BANKED_LEAVE_XDATA
          CFI EndBlock cfiBlock349

        RSEG BANKED_CODE:HUGECODE:NOROOT(0)
?Subroutine42:
          CFI Block cfiCond350 Using cfiCommon0
          CFI Function ZDSecMgrDeviceJoinDirect
          CFI Conditional ??CrossCallReturnLabel_171, ??CrossCallReturnLabel_2
          CFI R6 load(1, XDATA, add(CFA_XSP16, literal(-12)))
          CFI VB load(1, XDATA, add(CFA_XSP16, literal(-11)))
          CFI V0 load(1, XDATA, add(CFA_XSP16, literal(-10)))
          CFI V1 load(1, XDATA, add(CFA_XSP16, literal(-9)))
          CFI V2 load(1, XDATA, add(CFA_XSP16, literal(-8)))
          CFI V3 load(1, XDATA, add(CFA_XSP16, literal(-7)))
          CFI R7 load(1, XDATA, add(CFA_XSP16, literal(-6)))
          CFI ?RET_LOW load(1, XDATA, add(CFA_XSP16, literal(-5)))
          CFI ?RET_HIGH load(1, XDATA, add(CFA_XSP16, literal(-4)))
          CFI ?BRET_EXT load(1, XDATA, add(CFA_XSP16, literal(-3)))
          CFI DPL0 load(1, XDATA, add(CFA_XSP16, literal(-2)))
          CFI DPH0 load(1, XDATA, add(CFA_XSP16, literal(-1)))
          CFI CFA_SP SP+-4
          CFI CFA_XSP16 add(XSP16, 32)
          CFI Block cfiCond351 Using cfiCommon0
          CFI (cfiCond351) Function ZDSecMgrTransportKeyInd
          CFI (cfiCond351) Conditional ??CrossCallReturnLabel_171, ??CrossCallReturnLabel_3
          CFI (cfiCond351) R6 load(1, XDATA, add(CFA_XSP16, literal(-14)))
          CFI (cfiCond351) VB load(1, XDATA, add(CFA_XSP16, literal(-13)))
          CFI (cfiCond351) V0 load(1, XDATA, add(CFA_XSP16, literal(-12)))
          CFI (cfiCond351) V1 load(1, XDATA, add(CFA_XSP16, literal(-11)))
          CFI (cfiCond351) V2 load(1, XDATA, add(CFA_XSP16, literal(-10)))
          CFI (cfiCond351) V3 load(1, XDATA, add(CFA_XSP16, literal(-9)))
          CFI (cfiCond351) V4 load(1, XDATA, add(CFA_XSP16, literal(-8)))
          CFI (cfiCond351) V5 load(1, XDATA, add(CFA_XSP16, literal(-7)))
          CFI (cfiCond351) R7 load(1, XDATA, add(CFA_XSP16, literal(-6)))
          CFI (cfiCond351) ?RET_LOW load(1, XDATA, add(CFA_XSP16, literal(-5)))
          CFI (cfiCond351) ?RET_HIGH load(1, XDATA, add(CFA_XSP16, literal(-4)))
          CFI (cfiCond351) ?BRET_EXT load(1, XDATA, add(CFA_XSP16, literal(-3)))
          CFI (cfiCond351) DPL0 load(1, XDATA, add(CFA_XSP16, literal(-2)))
          CFI (cfiCond351) DPH0 load(1, XDATA, add(CFA_XSP16, literal(-1)))
          CFI (cfiCond351) CFA_SP SP+-4
          CFI (cfiCond351) CFA_XSP16 add(XSP16, 50)
          CFI Block cfiCond352 Using cfiCommon0
          CFI (cfiCond352) Function APSME_TCLinkKeyLoad
          CFI (cfiCond352) Conditional ??CrossCallReturnLabel_171, ??CrossCallReturnLabel_4
          CFI (cfiCond352) R6 load(1, XDATA, add(CFA_XSP16, literal(-18)))
          CFI (cfiCond352) VB load(1, XDATA, add(CFA_XSP16, literal(-17)))
          CFI (cfiCond352) V0 load(1, XDATA, add(CFA_XSP16, literal(-16)))
          CFI (cfiCond352) V1 load(1, XDATA, add(CFA_XSP16, literal(-15)))
          CFI (cfiCond352) V2 load(1, XDATA, add(CFA_XSP16, literal(-14)))
          CFI (cfiCond352) V3 load(1, XDATA, add(CFA_XSP16, literal(-13)))
          CFI (cfiCond352) V4 load(1, XDATA, add(CFA_XSP16, literal(-12)))
          CFI (cfiCond352) V5 load(1, XDATA, add(CFA_XSP16, literal(-11)))
          CFI (cfiCond352) V6 load(1, XDATA, add(CFA_XSP16, literal(-10)))
          CFI (cfiCond352) V7 load(1, XDATA, add(CFA_XSP16, literal(-9)))
          CFI (cfiCond352) V8 load(1, XDATA, add(CFA_XSP16, literal(-8)))
          CFI (cfiCond352) V9 load(1, XDATA, add(CFA_XSP16, literal(-7)))
          CFI (cfiCond352) R7 load(1, XDATA, add(CFA_XSP16, literal(-6)))
          CFI (cfiCond352) ?RET_LOW load(1, XDATA, add(CFA_XSP16, literal(-5)))
          CFI (cfiCond352) ?RET_HIGH load(1, XDATA, add(CFA_XSP16, literal(-4)))
          CFI (cfiCond352) ?BRET_EXT load(1, XDATA, add(CFA_XSP16, literal(-3)))
          CFI (cfiCond352) DPL0 load(1, XDATA, add(CFA_XSP16, literal(-2)))
          CFI (cfiCond352) DPH0 load(1, XDATA, add(CFA_XSP16, literal(-1)))
          CFI (cfiCond352) CFA_SP SP+-4
          CFI (cfiCond352) CFA_XSP16 add(XSP16, 51)
          CFI Block cfiCond353 Using cfiCommon0
          CFI (cfiCond353) Function APSME_TCLinkKeyInit
          CFI (cfiCond353) Conditional ??CrossCallReturnLabel_170
          CFI (cfiCond353) R6 load(1, XDATA, add(CFA_XSP16, literal(-20)))
          CFI (cfiCond353) VB load(1, XDATA, add(CFA_XSP16, literal(-19)))
          CFI (cfiCond353) V0 load(1, XDATA, add(CFA_XSP16, literal(-18)))
          CFI (cfiCond353) V1 load(1, XDATA, add(CFA_XSP16, literal(-17)))
          CFI (cfiCond353) V2 load(1, XDATA, add(CFA_XSP16, literal(-16)))
          CFI (cfiCond353) V3 load(1, XDATA, add(CFA_XSP16, literal(-15)))
          CFI (cfiCond353) V4 load(1, XDATA, add(CFA_XSP16, literal(-14)))
          CFI (cfiCond353) V5 load(1, XDATA, add(CFA_XSP16, literal(-13)))
          CFI (cfiCond353) V6 load(1, XDATA, add(CFA_XSP16, literal(-12)))
          CFI (cfiCond353) V7 load(1, XDATA, add(CFA_XSP16, literal(-11)))
          CFI (cfiCond353) V8 load(1, XDATA, add(CFA_XSP16, literal(-10)))
          CFI (cfiCond353) V9 load(1, XDATA, add(CFA_XSP16, literal(-9)))
          CFI (cfiCond353) V10 load(1, XDATA, add(CFA_XSP16, literal(-8)))
          CFI (cfiCond353) V11 load(1, XDATA, add(CFA_XSP16, literal(-7)))
          CFI (cfiCond353) R7 load(1, XDATA, add(CFA_XSP16, literal(-6)))
          CFI (cfiCond353) ?RET_LOW load(1, XDATA, add(CFA_XSP16, literal(-5)))
          CFI (cfiCond353) ?RET_HIGH load(1, XDATA, add(CFA_XSP16, literal(-4)))
          CFI (cfiCond353) ?BRET_EXT load(1, XDATA, add(CFA_XSP16, literal(-3)))
          CFI (cfiCond353) DPL0 load(1, XDATA, add(CFA_XSP16, literal(-2)))
          CFI (cfiCond353) DPH0 load(1, XDATA, add(CFA_XSP16, literal(-1)))
          CFI (cfiCond353) CFA_SP SP+-2
          CFI (cfiCond353) CFA_XSP16 add(XSP16, 39)
          CFI Block cfiCond354 Using cfiCommon0
          CFI (cfiCond354) Function APSME_LinkKeySet
          CFI (cfiCond354) Conditional ??CrossCallReturnLabel_172, ??CrossCallReturnLabel_168
          CFI (cfiCond354) R6 load(1, XDATA, add(CFA_XSP16, literal(-15)))
          CFI (cfiCond354) VB load(1, XDATA, add(CFA_XSP16, literal(-14)))
          CFI (cfiCond354) V0 load(1, XDATA, add(CFA_XSP16, literal(-13)))
          CFI (cfiCond354) V1 load(1, XDATA, add(CFA_XSP16, literal(-12)))
          CFI (cfiCond354) V2 load(1, XDATA, add(CFA_XSP16, literal(-11)))
          CFI (cfiCond354) V3 load(1, XDATA, add(CFA_XSP16, literal(-10)))
          CFI (cfiCond354) V4 load(1, XDATA, add(CFA_XSP16, literal(-9)))
          CFI (cfiCond354) V5 load(1, XDATA, add(CFA_XSP16, literal(-8)))
          CFI (cfiCond354) V6 load(1, XDATA, add(CFA_XSP16, literal(-7)))
          CFI (cfiCond354) R7 load(1, XDATA, add(CFA_XSP16, literal(-6)))
          CFI (cfiCond354) ?RET_LOW load(1, XDATA, add(CFA_XSP16, literal(-5)))
          CFI (cfiCond354) ?RET_HIGH load(1, XDATA, add(CFA_XSP16, literal(-4)))
          CFI (cfiCond354) ?BRET_EXT load(1, XDATA, add(CFA_XSP16, literal(-3)))
          CFI (cfiCond354) DPL0 load(1, XDATA, add(CFA_XSP16, literal(-2)))
          CFI (cfiCond354) DPH0 load(1, XDATA, add(CFA_XSP16, literal(-1)))
          CFI (cfiCond354) CFA_SP SP+-4
          CFI (cfiCond354) CFA_XSP16 add(XSP16, 19)
          CFI Block cfiCond355 Using cfiCommon0
          CFI (cfiCond355) Function APSME_LinkKeySet
          CFI (cfiCond355) Conditional ??CrossCallReturnLabel_172, ??CrossCallReturnLabel_169
          CFI (cfiCond355) R6 load(1, XDATA, add(CFA_XSP16, literal(-15)))
          CFI (cfiCond355) VB load(1, XDATA, add(CFA_XSP16, literal(-14)))
          CFI (cfiCond355) V0 load(1, XDATA, add(CFA_XSP16, literal(-13)))
          CFI (cfiCond355) V1 load(1, XDATA, add(CFA_XSP16, literal(-12)))
          CFI (cfiCond355) V2 load(1, XDATA, add(CFA_XSP16, literal(-11)))
          CFI (cfiCond355) V3 load(1, XDATA, add(CFA_XSP16, literal(-10)))
          CFI (cfiCond355) V4 load(1, XDATA, add(CFA_XSP16, literal(-9)))
          CFI (cfiCond355) V5 load(1, XDATA, add(CFA_XSP16, literal(-8)))
          CFI (cfiCond355) V6 load(1, XDATA, add(CFA_XSP16, literal(-7)))
          CFI (cfiCond355) R7 load(1, XDATA, add(CFA_XSP16, literal(-6)))
          CFI (cfiCond355) ?RET_LOW load(1, XDATA, add(CFA_XSP16, literal(-5)))
          CFI (cfiCond355) ?RET_HIGH load(1, XDATA, add(CFA_XSP16, literal(-4)))
          CFI (cfiCond355) ?BRET_EXT load(1, XDATA, add(CFA_XSP16, literal(-3)))
          CFI (cfiCond355) DPL0 load(1, XDATA, add(CFA_XSP16, literal(-2)))
          CFI (cfiCond355) DPH0 load(1, XDATA, add(CFA_XSP16, literal(-1)))
          CFI (cfiCond355) CFA_SP SP+-4
          CFI (cfiCond355) CFA_XSP16 add(XSP16, 19)
          CFI Block cfiCond356 Using cfiCommon0
          CFI (cfiCond356) Function APSME_LinkKeySet
          CFI (cfiCond356) Conditional ??CrossCallReturnLabel_172, ??CrossCallReturnLabel_166
          CFI (cfiCond356) R6 load(1, XDATA, add(CFA_XSP16, literal(-15)))
          CFI (cfiCond356) VB load(1, XDATA, add(CFA_XSP16, literal(-14)))
          CFI (cfiCond356) V0 load(1, XDATA, add(CFA_XSP16, literal(-13)))
          CFI (cfiCond356) V1 load(1, XDATA, add(CFA_XSP16, literal(-12)))
          CFI (cfiCond356) V2 load(1, XDATA, add(CFA_XSP16, literal(-11)))
          CFI (cfiCond356) V3 load(1, XDATA, add(CFA_XSP16, literal(-10)))
          CFI (cfiCond356) V4 load(1, XDATA, add(CFA_XSP16, literal(-9)))
          CFI (cfiCond356) V5 load(1, XDATA, add(CFA_XSP16, literal(-8)))
          CFI (cfiCond356) V6 load(1, XDATA, add(CFA_XSP16, literal(-7)))
          CFI (cfiCond356) R7 load(1, XDATA, add(CFA_XSP16, literal(-6)))
          CFI (cfiCond356) ?RET_LOW load(1, XDATA, add(CFA_XSP16, literal(-5)))
          CFI (cfiCond356) ?RET_HIGH load(1, XDATA, add(CFA_XSP16, literal(-4)))
          CFI (cfiCond356) ?BRET_EXT load(1, XDATA, add(CFA_XSP16, literal(-3)))
          CFI (cfiCond356) DPL0 load(1, XDATA, add(CFA_XSP16, literal(-2)))
          CFI (cfiCond356) DPH0 load(1, XDATA, add(CFA_XSP16, literal(-1)))
          CFI (cfiCond356) CFA_SP SP+-4
          CFI (cfiCond356) CFA_XSP16 add(XSP16, 19)
          CFI Block cfiCond357 Using cfiCommon0
          CFI (cfiCond357) Function APSME_LinkKeySet
          CFI (cfiCond357) Conditional ??CrossCallReturnLabel_172, ??CrossCallReturnLabel_167
          CFI (cfiCond357) R6 load(1, XDATA, add(CFA_XSP16, literal(-15)))
          CFI (cfiCond357) VB load(1, XDATA, add(CFA_XSP16, literal(-14)))
          CFI (cfiCond357) V0 load(1, XDATA, add(CFA_XSP16, literal(-13)))
          CFI (cfiCond357) V1 load(1, XDATA, add(CFA_XSP16, literal(-12)))
          CFI (cfiCond357) V2 load(1, XDATA, add(CFA_XSP16, literal(-11)))
          CFI (cfiCond357) V3 load(1, XDATA, add(CFA_XSP16, literal(-10)))
          CFI (cfiCond357) V4 load(1, XDATA, add(CFA_XSP16, literal(-9)))
          CFI (cfiCond357) V5 load(1, XDATA, add(CFA_XSP16, literal(-8)))
          CFI (cfiCond357) V6 load(1, XDATA, add(CFA_XSP16, literal(-7)))
          CFI (cfiCond357) R7 load(1, XDATA, add(CFA_XSP16, literal(-6)))
          CFI (cfiCond357) ?RET_LOW load(1, XDATA, add(CFA_XSP16, literal(-5)))
          CFI (cfiCond357) ?RET_HIGH load(1, XDATA, add(CFA_XSP16, literal(-4)))
          CFI (cfiCond357) ?BRET_EXT load(1, XDATA, add(CFA_XSP16, literal(-3)))
          CFI (cfiCond357) DPL0 load(1, XDATA, add(CFA_XSP16, literal(-2)))
          CFI (cfiCond357) DPH0 load(1, XDATA, add(CFA_XSP16, literal(-1)))
          CFI (cfiCond357) CFA_SP SP+-4
          CFI (cfiCond357) CFA_XSP16 add(XSP16, 19)
          CFI Block cfiCond358 Using cfiCommon0
          CFI (cfiCond358) Function ZDSecMgrDeviceJoinDirect
          CFI (cfiCond358) Conditional ??CrossCallReturnLabel_172, ??CrossCallReturnLabel_161
          CFI (cfiCond358) R6 load(1, XDATA, add(CFA_XSP16, literal(-12)))
          CFI (cfiCond358) VB load(1, XDATA, add(CFA_XSP16, literal(-11)))
          CFI (cfiCond358) V0 load(1, XDATA, add(CFA_XSP16, literal(-10)))
          CFI (cfiCond358) V1 load(1, XDATA, add(CFA_XSP16, literal(-9)))
          CFI (cfiCond358) V2 load(1, XDATA, add(CFA_XSP16, literal(-8)))
          CFI (cfiCond358) V3 load(1, XDATA, add(CFA_XSP16, literal(-7)))
          CFI (cfiCond358) R7 load(1, XDATA, add(CFA_XSP16, literal(-6)))
          CFI (cfiCond358) ?RET_LOW load(1, XDATA, add(CFA_XSP16, literal(-5)))
          CFI (cfiCond358) ?RET_HIGH load(1, XDATA, add(CFA_XSP16, literal(-4)))
          CFI (cfiCond358) ?BRET_EXT load(1, XDATA, add(CFA_XSP16, literal(-3)))
          CFI (cfiCond358) DPL0 load(1, XDATA, add(CFA_XSP16, literal(-2)))
          CFI (cfiCond358) DPH0 load(1, XDATA, add(CFA_XSP16, literal(-1)))
          CFI (cfiCond358) CFA_SP SP+-4
          CFI (cfiCond358) CFA_XSP16 add(XSP16, 32)
          CFI Block cfiCond359 Using cfiCommon0
          CFI (cfiCond359) Function ZDSecMgrDeviceJoinDirect
          CFI (cfiCond359) Conditional ??CrossCallReturnLabel_172, ??CrossCallReturnLabel_162
          CFI (cfiCond359) R6 load(1, XDATA, add(CFA_XSP16, literal(-12)))
          CFI (cfiCond359) VB load(1, XDATA, add(CFA_XSP16, literal(-11)))
          CFI (cfiCond359) V0 load(1, XDATA, add(CFA_XSP16, literal(-10)))
          CFI (cfiCond359) V1 load(1, XDATA, add(CFA_XSP16, literal(-9)))
          CFI (cfiCond359) V2 load(1, XDATA, add(CFA_XSP16, literal(-8)))
          CFI (cfiCond359) V3 load(1, XDATA, add(CFA_XSP16, literal(-7)))
          CFI (cfiCond359) R7 load(1, XDATA, add(CFA_XSP16, literal(-6)))
          CFI (cfiCond359) ?RET_LOW load(1, XDATA, add(CFA_XSP16, literal(-5)))
          CFI (cfiCond359) ?RET_HIGH load(1, XDATA, add(CFA_XSP16, literal(-4)))
          CFI (cfiCond359) ?BRET_EXT load(1, XDATA, add(CFA_XSP16, literal(-3)))
          CFI (cfiCond359) DPL0 load(1, XDATA, add(CFA_XSP16, literal(-2)))
          CFI (cfiCond359) DPH0 load(1, XDATA, add(CFA_XSP16, literal(-1)))
          CFI (cfiCond359) CFA_SP SP+-4
          CFI (cfiCond359) CFA_XSP16 add(XSP16, 32)
          CFI Block cfiCond360 Using cfiCommon0
          CFI (cfiCond360) Function ZDSecMgrTransportKeyInd
          CFI (cfiCond360) Conditional ??CrossCallReturnLabel_172, ??CrossCallReturnLabel_163
          CFI (cfiCond360) R6 load(1, XDATA, add(CFA_XSP16, literal(-14)))
          CFI (cfiCond360) VB load(1, XDATA, add(CFA_XSP16, literal(-13)))
          CFI (cfiCond360) V0 load(1, XDATA, add(CFA_XSP16, literal(-12)))
          CFI (cfiCond360) V1 load(1, XDATA, add(CFA_XSP16, literal(-11)))
          CFI (cfiCond360) V2 load(1, XDATA, add(CFA_XSP16, literal(-10)))
          CFI (cfiCond360) V3 load(1, XDATA, add(CFA_XSP16, literal(-9)))
          CFI (cfiCond360) V4 load(1, XDATA, add(CFA_XSP16, literal(-8)))
          CFI (cfiCond360) V5 load(1, XDATA, add(CFA_XSP16, literal(-7)))
          CFI (cfiCond360) R7 load(1, XDATA, add(CFA_XSP16, literal(-6)))
          CFI (cfiCond360) ?RET_LOW load(1, XDATA, add(CFA_XSP16, literal(-5)))
          CFI (cfiCond360) ?RET_HIGH load(1, XDATA, add(CFA_XSP16, literal(-4)))
          CFI (cfiCond360) ?BRET_EXT load(1, XDATA, add(CFA_XSP16, literal(-3)))
          CFI (cfiCond360) DPL0 load(1, XDATA, add(CFA_XSP16, literal(-2)))
          CFI (cfiCond360) DPH0 load(1, XDATA, add(CFA_XSP16, literal(-1)))
          CFI (cfiCond360) CFA_SP SP+-4
          CFI (cfiCond360) CFA_XSP16 add(XSP16, 50)
          CFI Block cfiCond361 Using cfiCommon0
          CFI (cfiCond361) Function APSME_TCLinkKeyInit
          CFI (cfiCond361) Conditional ??CrossCallReturnLabel_172, ??CrossCallReturnLabel_164
          CFI (cfiCond361) R6 load(1, XDATA, add(CFA_XSP16, literal(-20)))
          CFI (cfiCond361) VB load(1, XDATA, add(CFA_XSP16, literal(-19)))
          CFI (cfiCond361) V0 load(1, XDATA, add(CFA_XSP16, literal(-18)))
          CFI (cfiCond361) V1 load(1, XDATA, add(CFA_XSP16, literal(-17)))
          CFI (cfiCond361) V2 load(1, XDATA, add(CFA_XSP16, literal(-16)))
          CFI (cfiCond361) V3 load(1, XDATA, add(CFA_XSP16, literal(-15)))
          CFI (cfiCond361) V4 load(1, XDATA, add(CFA_XSP16, literal(-14)))
          CFI (cfiCond361) V5 load(1, XDATA, add(CFA_XSP16, literal(-13)))
          CFI (cfiCond361) V6 load(1, XDATA, add(CFA_XSP16, literal(-12)))
          CFI (cfiCond361) V7 load(1, XDATA, add(CFA_XSP16, literal(-11)))
          CFI (cfiCond361) V8 load(1, XDATA, add(CFA_XSP16, literal(-10)))
          CFI (cfiCond361) V9 load(1, XDATA, add(CFA_XSP16, literal(-9)))
          CFI (cfiCond361) V10 load(1, XDATA, add(CFA_XSP16, literal(-8)))
          CFI (cfiCond361) V11 load(1, XDATA, add(CFA_XSP16, literal(-7)))
          CFI (cfiCond361) R7 load(1, XDATA, add(CFA_XSP16, literal(-6)))
          CFI (cfiCond361) ?RET_LOW load(1, XDATA, add(CFA_XSP16, literal(-5)))
          CFI (cfiCond361) ?RET_HIGH load(1, XDATA, add(CFA_XSP16, literal(-4)))
          CFI (cfiCond361) ?BRET_EXT load(1, XDATA, add(CFA_XSP16, literal(-3)))
          CFI (cfiCond361) DPL0 load(1, XDATA, add(CFA_XSP16, literal(-2)))
          CFI (cfiCond361) DPH0 load(1, XDATA, add(CFA_XSP16, literal(-1)))
          CFI (cfiCond361) CFA_SP SP+-4
          CFI (cfiCond361) CFA_XSP16 add(XSP16, 39)
          CFI Block cfiCond362 Using cfiCommon0
          CFI (cfiCond362) Function APSME_TCLinkKeyLoad
          CFI (cfiCond362) Conditional ??CrossCallReturnLabel_172, ??CrossCallReturnLabel_165
          CFI (cfiCond362) R6 load(1, XDATA, add(CFA_XSP16, literal(-18)))
          CFI (cfiCond362) VB load(1, XDATA, add(CFA_XSP16, literal(-17)))
          CFI (cfiCond362) V0 load(1, XDATA, add(CFA_XSP16, literal(-16)))
          CFI (cfiCond362) V1 load(1, XDATA, add(CFA_XSP16, literal(-15)))
          CFI (cfiCond362) V2 load(1, XDATA, add(CFA_XSP16, literal(-14)))
          CFI (cfiCond362) V3 load(1, XDATA, add(CFA_XSP16, literal(-13)))
          CFI (cfiCond362) V4 load(1, XDATA, add(CFA_XSP16, literal(-12)))
          CFI (cfiCond362) V5 load(1, XDATA, add(CFA_XSP16, literal(-11)))
          CFI (cfiCond362) V6 load(1, XDATA, add(CFA_XSP16, literal(-10)))
          CFI (cfiCond362) V7 load(1, XDATA, add(CFA_XSP16, literal(-9)))
          CFI (cfiCond362) V8 load(1, XDATA, add(CFA_XSP16, literal(-8)))
          CFI (cfiCond362) V9 load(1, XDATA, add(CFA_XSP16, literal(-7)))
          CFI (cfiCond362) R7 load(1, XDATA, add(CFA_XSP16, literal(-6)))
          CFI (cfiCond362) ?RET_LOW load(1, XDATA, add(CFA_XSP16, literal(-5)))
          CFI (cfiCond362) ?RET_HIGH load(1, XDATA, add(CFA_XSP16, literal(-4)))
          CFI (cfiCond362) ?BRET_EXT load(1, XDATA, add(CFA_XSP16, literal(-3)))
          CFI (cfiCond362) DPL0 load(1, XDATA, add(CFA_XSP16, literal(-2)))
          CFI (cfiCond362) DPH0 load(1, XDATA, add(CFA_XSP16, literal(-1)))
          CFI (cfiCond362) CFA_SP SP+-4
          CFI (cfiCond362) CFA_XSP16 add(XSP16, 51)
          CFI Block cfiCond363 Using cfiCommon0
          CFI (cfiCond363) Function ZDSecMgrDeviceJoinDirect
          CFI (cfiCond363) Conditional ??CrossCallReturnLabel_172, ??CrossCallReturnLabel_160
          CFI (cfiCond363) R6 load(1, XDATA, add(CFA_XSP16, literal(-12)))
          CFI (cfiCond363) VB load(1, XDATA, add(CFA_XSP16, literal(-11)))
          CFI (cfiCond363) V0 load(1, XDATA, add(CFA_XSP16, literal(-10)))
          CFI (cfiCond363) V1 load(1, XDATA, add(CFA_XSP16, literal(-9)))
          CFI (cfiCond363) V2 load(1, XDATA, add(CFA_XSP16, literal(-8)))
          CFI (cfiCond363) V3 load(1, XDATA, add(CFA_XSP16, literal(-7)))
          CFI (cfiCond363) R7 load(1, XDATA, add(CFA_XSP16, literal(-6)))
          CFI (cfiCond363) ?RET_LOW load(1, XDATA, add(CFA_XSP16, literal(-5)))
          CFI (cfiCond363) ?RET_HIGH load(1, XDATA, add(CFA_XSP16, literal(-4)))
          CFI (cfiCond363) ?BRET_EXT load(1, XDATA, add(CFA_XSP16, literal(-3)))
          CFI (cfiCond363) DPL0 load(1, XDATA, add(CFA_XSP16, literal(-2)))
          CFI (cfiCond363) DPH0 load(1, XDATA, add(CFA_XSP16, literal(-1)))
          CFI (cfiCond363) CFA_SP SP+-4
          CFI (cfiCond363) CFA_XSP16 add(XSP16, 32)
          CFI Block cfiPicker364 Using cfiCommon1
          CFI (cfiPicker364) NoFunction
          CFI (cfiPicker364) Picker
        MOVX      @DPTR,A
        INC       DPTR
        MOVX      @DPTR,A
        INC       DPTR
        MOVX      @DPTR,A
        INC       DPTR
        RET
          CFI EndBlock cfiCond350
          CFI EndBlock cfiCond351
          CFI EndBlock cfiCond352
          CFI EndBlock cfiCond353
          CFI EndBlock cfiCond354
          CFI EndBlock cfiCond355
          CFI EndBlock cfiCond356
          CFI EndBlock cfiCond357
          CFI EndBlock cfiCond358
          CFI EndBlock cfiCond359
          CFI EndBlock cfiCond360
          CFI EndBlock cfiCond361
          CFI EndBlock cfiCond362
          CFI EndBlock cfiCond363
          CFI EndBlock cfiPicker364

        RSEG BANKED_CODE:HUGECODE:NOROOT(0)
?Subroutine15:
          CFI Block cfiCond365 Using cfiCommon0
          CFI Function APSME_LinkKeySet
          CFI Conditional ??CrossCallReturnLabel_168
          CFI R6 load(1, XDATA, add(CFA_XSP16, literal(-15)))
          CFI VB load(1, XDATA, add(CFA_XSP16, literal(-14)))
          CFI V0 load(1, XDATA, add(CFA_XSP16, literal(-13)))
          CFI V1 load(1, XDATA, add(CFA_XSP16, literal(-12)))
          CFI V2 load(1, XDATA, add(CFA_XSP16, literal(-11)))
          CFI V3 load(1, XDATA, add(CFA_XSP16, literal(-10)))
          CFI V4 load(1, XDATA, add(CFA_XSP16, literal(-9)))
          CFI V5 load(1, XDATA, add(CFA_XSP16, literal(-8)))
          CFI V6 load(1, XDATA, add(CFA_XSP16, literal(-7)))
          CFI R7 load(1, XDATA, add(CFA_XSP16, literal(-6)))
          CFI ?RET_LOW load(1, XDATA, add(CFA_XSP16, literal(-5)))
          CFI ?RET_HIGH load(1, XDATA, add(CFA_XSP16, literal(-4)))
          CFI ?BRET_EXT load(1, XDATA, add(CFA_XSP16, literal(-3)))
          CFI DPL0 load(1, XDATA, add(CFA_XSP16, literal(-2)))
          CFI DPH0 load(1, XDATA, add(CFA_XSP16, literal(-1)))
          CFI CFA_SP SP+-2
          CFI CFA_XSP16 add(XSP16, 19)
          CFI Block cfiCond366 Using cfiCommon0
          CFI (cfiCond366) Function APSME_LinkKeySet
          CFI (cfiCond366) Conditional ??CrossCallReturnLabel_169
          CFI (cfiCond366) R6 load(1, XDATA, add(CFA_XSP16, literal(-15)))
          CFI (cfiCond366) VB load(1, XDATA, add(CFA_XSP16, literal(-14)))
          CFI (cfiCond366) V0 load(1, XDATA, add(CFA_XSP16, literal(-13)))
          CFI (cfiCond366) V1 load(1, XDATA, add(CFA_XSP16, literal(-12)))
          CFI (cfiCond366) V2 load(1, XDATA, add(CFA_XSP16, literal(-11)))
          CFI (cfiCond366) V3 load(1, XDATA, add(CFA_XSP16, literal(-10)))
          CFI (cfiCond366) V4 load(1, XDATA, add(CFA_XSP16, literal(-9)))
          CFI (cfiCond366) V5 load(1, XDATA, add(CFA_XSP16, literal(-8)))
          CFI (cfiCond366) V6 load(1, XDATA, add(CFA_XSP16, literal(-7)))
          CFI (cfiCond366) R7 load(1, XDATA, add(CFA_XSP16, literal(-6)))
          CFI (cfiCond366) ?RET_LOW load(1, XDATA, add(CFA_XSP16, literal(-5)))
          CFI (cfiCond366) ?RET_HIGH load(1, XDATA, add(CFA_XSP16, literal(-4)))
          CFI (cfiCond366) ?BRET_EXT load(1, XDATA, add(CFA_XSP16, literal(-3)))
          CFI (cfiCond366) DPL0 load(1, XDATA, add(CFA_XSP16, literal(-2)))
          CFI (cfiCond366) DPH0 load(1, XDATA, add(CFA_XSP16, literal(-1)))
          CFI (cfiCond366) CFA_SP SP+-2
          CFI (cfiCond366) CFA_XSP16 add(XSP16, 19)
          CFI Block cfiPicker367 Using cfiCommon1
          CFI (cfiPicker367) NoFunction
          CFI (cfiPicker367) Picker
        MOV       DPL,A
        CLR       A
        ADDC      A,?V3
          CFI EndBlock cfiCond365
          CFI EndBlock cfiCond366
          CFI EndBlock cfiPicker367
        REQUIRE ??Subroutine72_0
        ; // Fall through to label ??Subroutine72_0

        RSEG BANKED_CODE:HUGECODE:NOROOT(0)
??Subroutine72_0:
          CFI Block cfiCond368 Using cfiCommon0
          CFI Function APSME_LinkKeySet
          CFI Conditional ??CrossCallReturnLabel_166
          CFI R6 load(1, XDATA, add(CFA_XSP16, literal(-15)))
          CFI VB load(1, XDATA, add(CFA_XSP16, literal(-14)))
          CFI V0 load(1, XDATA, add(CFA_XSP16, literal(-13)))
          CFI V1 load(1, XDATA, add(CFA_XSP16, literal(-12)))
          CFI V2 load(1, XDATA, add(CFA_XSP16, literal(-11)))
          CFI V3 load(1, XDATA, add(CFA_XSP16, literal(-10)))
          CFI V4 load(1, XDATA, add(CFA_XSP16, literal(-9)))
          CFI V5 load(1, XDATA, add(CFA_XSP16, literal(-8)))
          CFI V6 load(1, XDATA, add(CFA_XSP16, literal(-7)))
          CFI R7 load(1, XDATA, add(CFA_XSP16, literal(-6)))
          CFI ?RET_LOW load(1, XDATA, add(CFA_XSP16, literal(-5)))
          CFI ?RET_HIGH load(1, XDATA, add(CFA_XSP16, literal(-4)))
          CFI ?BRET_EXT load(1, XDATA, add(CFA_XSP16, literal(-3)))
          CFI DPL0 load(1, XDATA, add(CFA_XSP16, literal(-2)))
          CFI DPH0 load(1, XDATA, add(CFA_XSP16, literal(-1)))
          CFI CFA_SP SP+-2
          CFI CFA_XSP16 add(XSP16, 19)
          CFI Block cfiCond369 Using cfiCommon0
          CFI (cfiCond369) Function APSME_LinkKeySet
          CFI (cfiCond369) Conditional ??CrossCallReturnLabel_167
          CFI (cfiCond369) R6 load(1, XDATA, add(CFA_XSP16, literal(-15)))
          CFI (cfiCond369) VB load(1, XDATA, add(CFA_XSP16, literal(-14)))
          CFI (cfiCond369) V0 load(1, XDATA, add(CFA_XSP16, literal(-13)))
          CFI (cfiCond369) V1 load(1, XDATA, add(CFA_XSP16, literal(-12)))
          CFI (cfiCond369) V2 load(1, XDATA, add(CFA_XSP16, literal(-11)))
          CFI (cfiCond369) V3 load(1, XDATA, add(CFA_XSP16, literal(-10)))
          CFI (cfiCond369) V4 load(1, XDATA, add(CFA_XSP16, literal(-9)))
          CFI (cfiCond369) V5 load(1, XDATA, add(CFA_XSP16, literal(-8)))
          CFI (cfiCond369) V6 load(1, XDATA, add(CFA_XSP16, literal(-7)))
          CFI (cfiCond369) R7 load(1, XDATA, add(CFA_XSP16, literal(-6)))
          CFI (cfiCond369) ?RET_LOW load(1, XDATA, add(CFA_XSP16, literal(-5)))
          CFI (cfiCond369) ?RET_HIGH load(1, XDATA, add(CFA_XSP16, literal(-4)))
          CFI (cfiCond369) ?BRET_EXT load(1, XDATA, add(CFA_XSP16, literal(-3)))
          CFI (cfiCond369) DPL0 load(1, XDATA, add(CFA_XSP16, literal(-2)))
          CFI (cfiCond369) DPH0 load(1, XDATA, add(CFA_XSP16, literal(-1)))
          CFI (cfiCond369) CFA_SP SP+-2
          CFI (cfiCond369) CFA_XSP16 add(XSP16, 19)
          CFI Block cfiCond370 Using cfiCommon0
          CFI (cfiCond370) Function APSME_LinkKeySet
          CFI (cfiCond370) Conditional ??CrossCallReturnLabel_168
          CFI (cfiCond370) R6 load(1, XDATA, add(CFA_XSP16, literal(-15)))
          CFI (cfiCond370) VB load(1, XDATA, add(CFA_XSP16, literal(-14)))
          CFI (cfiCond370) V0 load(1, XDATA, add(CFA_XSP16, literal(-13)))
          CFI (cfiCond370) V1 load(1, XDATA, add(CFA_XSP16, literal(-12)))
          CFI (cfiCond370) V2 load(1, XDATA, add(CFA_XSP16, literal(-11)))
          CFI (cfiCond370) V3 load(1, XDATA, add(CFA_XSP16, literal(-10)))
          CFI (cfiCond370) V4 load(1, XDATA, add(CFA_XSP16, literal(-9)))
          CFI (cfiCond370) V5 load(1, XDATA, add(CFA_XSP16, literal(-8)))
          CFI (cfiCond370) V6 load(1, XDATA, add(CFA_XSP16, literal(-7)))
          CFI (cfiCond370) R7 load(1, XDATA, add(CFA_XSP16, literal(-6)))
          CFI (cfiCond370) ?RET_LOW load(1, XDATA, add(CFA_XSP16, literal(-5)))
          CFI (cfiCond370) ?RET_HIGH load(1, XDATA, add(CFA_XSP16, literal(-4)))
          CFI (cfiCond370) ?BRET_EXT load(1, XDATA, add(CFA_XSP16, literal(-3)))
          CFI (cfiCond370) DPL0 load(1, XDATA, add(CFA_XSP16, literal(-2)))
          CFI (cfiCond370) DPH0 load(1, XDATA, add(CFA_XSP16, literal(-1)))
          CFI (cfiCond370) CFA_SP SP+-2
          CFI (cfiCond370) CFA_XSP16 add(XSP16, 19)
          CFI Block cfiCond371 Using cfiCommon0
          CFI (cfiCond371) Function APSME_LinkKeySet
          CFI (cfiCond371) Conditional ??CrossCallReturnLabel_169
          CFI (cfiCond371) R6 load(1, XDATA, add(CFA_XSP16, literal(-15)))
          CFI (cfiCond371) VB load(1, XDATA, add(CFA_XSP16, literal(-14)))
          CFI (cfiCond371) V0 load(1, XDATA, add(CFA_XSP16, literal(-13)))
          CFI (cfiCond371) V1 load(1, XDATA, add(CFA_XSP16, literal(-12)))
          CFI (cfiCond371) V2 load(1, XDATA, add(CFA_XSP16, literal(-11)))
          CFI (cfiCond371) V3 load(1, XDATA, add(CFA_XSP16, literal(-10)))
          CFI (cfiCond371) V4 load(1, XDATA, add(CFA_XSP16, literal(-9)))
          CFI (cfiCond371) V5 load(1, XDATA, add(CFA_XSP16, literal(-8)))
          CFI (cfiCond371) V6 load(1, XDATA, add(CFA_XSP16, literal(-7)))
          CFI (cfiCond371) R7 load(1, XDATA, add(CFA_XSP16, literal(-6)))
          CFI (cfiCond371) ?RET_LOW load(1, XDATA, add(CFA_XSP16, literal(-5)))
          CFI (cfiCond371) ?RET_HIGH load(1, XDATA, add(CFA_XSP16, literal(-4)))
          CFI (cfiCond371) ?BRET_EXT load(1, XDATA, add(CFA_XSP16, literal(-3)))
          CFI (cfiCond371) DPL0 load(1, XDATA, add(CFA_XSP16, literal(-2)))
          CFI (cfiCond371) DPH0 load(1, XDATA, add(CFA_XSP16, literal(-1)))
          CFI (cfiCond371) CFA_SP SP+-2
          CFI (cfiCond371) CFA_XSP16 add(XSP16, 19)
          CFI Block cfiPicker372 Using cfiCommon1
          CFI (cfiPicker372) NoFunction
          CFI (cfiPicker372) Picker
        MOV       DPH,A
          CFI EndBlock cfiCond368
          CFI EndBlock cfiCond369
          CFI EndBlock cfiCond370
          CFI EndBlock cfiCond371
          CFI EndBlock cfiPicker372
        REQUIRE ??Subroutine73_0
        ; // Fall through to label ??Subroutine73_0

        RSEG BANKED_CODE:HUGECODE:NOROOT(0)
??Subroutine73_0:
          CFI Block cfiCond373 Using cfiCommon0
          CFI Function ZDSecMgrDeviceJoinDirect
          CFI Conditional ??CrossCallReturnLabel_161
          CFI R6 load(1, XDATA, add(CFA_XSP16, literal(-12)))
          CFI VB load(1, XDATA, add(CFA_XSP16, literal(-11)))
          CFI V0 load(1, XDATA, add(CFA_XSP16, literal(-10)))
          CFI V1 load(1, XDATA, add(CFA_XSP16, literal(-9)))
          CFI V2 load(1, XDATA, add(CFA_XSP16, literal(-8)))
          CFI V3 load(1, XDATA, add(CFA_XSP16, literal(-7)))
          CFI R7 load(1, XDATA, add(CFA_XSP16, literal(-6)))
          CFI ?RET_LOW load(1, XDATA, add(CFA_XSP16, literal(-5)))
          CFI ?RET_HIGH load(1, XDATA, add(CFA_XSP16, literal(-4)))
          CFI ?BRET_EXT load(1, XDATA, add(CFA_XSP16, literal(-3)))
          CFI DPL0 load(1, XDATA, add(CFA_XSP16, literal(-2)))
          CFI DPH0 load(1, XDATA, add(CFA_XSP16, literal(-1)))
          CFI CFA_SP SP+-2
          CFI CFA_XSP16 add(XSP16, 32)
          CFI Block cfiCond374 Using cfiCommon0
          CFI (cfiCond374) Function ZDSecMgrDeviceJoinDirect
          CFI (cfiCond374) Conditional ??CrossCallReturnLabel_162
          CFI (cfiCond374) R6 load(1, XDATA, add(CFA_XSP16, literal(-12)))
          CFI (cfiCond374) VB load(1, XDATA, add(CFA_XSP16, literal(-11)))
          CFI (cfiCond374) V0 load(1, XDATA, add(CFA_XSP16, literal(-10)))
          CFI (cfiCond374) V1 load(1, XDATA, add(CFA_XSP16, literal(-9)))
          CFI (cfiCond374) V2 load(1, XDATA, add(CFA_XSP16, literal(-8)))
          CFI (cfiCond374) V3 load(1, XDATA, add(CFA_XSP16, literal(-7)))
          CFI (cfiCond374) R7 load(1, XDATA, add(CFA_XSP16, literal(-6)))
          CFI (cfiCond374) ?RET_LOW load(1, XDATA, add(CFA_XSP16, literal(-5)))
          CFI (cfiCond374) ?RET_HIGH load(1, XDATA, add(CFA_XSP16, literal(-4)))
          CFI (cfiCond374) ?BRET_EXT load(1, XDATA, add(CFA_XSP16, literal(-3)))
          CFI (cfiCond374) DPL0 load(1, XDATA, add(CFA_XSP16, literal(-2)))
          CFI (cfiCond374) DPH0 load(1, XDATA, add(CFA_XSP16, literal(-1)))
          CFI (cfiCond374) CFA_SP SP+-2
          CFI (cfiCond374) CFA_XSP16 add(XSP16, 32)
          CFI Block cfiCond375 Using cfiCommon0
          CFI (cfiCond375) Function ZDSecMgrTransportKeyInd
          CFI (cfiCond375) Conditional ??CrossCallReturnLabel_163
          CFI (cfiCond375) R6 load(1, XDATA, add(CFA_XSP16, literal(-14)))
          CFI (cfiCond375) VB load(1, XDATA, add(CFA_XSP16, literal(-13)))
          CFI (cfiCond375) V0 load(1, XDATA, add(CFA_XSP16, literal(-12)))
          CFI (cfiCond375) V1 load(1, XDATA, add(CFA_XSP16, literal(-11)))
          CFI (cfiCond375) V2 load(1, XDATA, add(CFA_XSP16, literal(-10)))
          CFI (cfiCond375) V3 load(1, XDATA, add(CFA_XSP16, literal(-9)))
          CFI (cfiCond375) V4 load(1, XDATA, add(CFA_XSP16, literal(-8)))
          CFI (cfiCond375) V5 load(1, XDATA, add(CFA_XSP16, literal(-7)))
          CFI (cfiCond375) R7 load(1, XDATA, add(CFA_XSP16, literal(-6)))
          CFI (cfiCond375) ?RET_LOW load(1, XDATA, add(CFA_XSP16, literal(-5)))
          CFI (cfiCond375) ?RET_HIGH load(1, XDATA, add(CFA_XSP16, literal(-4)))
          CFI (cfiCond375) ?BRET_EXT load(1, XDATA, add(CFA_XSP16, literal(-3)))
          CFI (cfiCond375) DPL0 load(1, XDATA, add(CFA_XSP16, literal(-2)))
          CFI (cfiCond375) DPH0 load(1, XDATA, add(CFA_XSP16, literal(-1)))
          CFI (cfiCond375) CFA_SP SP+-2
          CFI (cfiCond375) CFA_XSP16 add(XSP16, 50)
          CFI Block cfiCond376 Using cfiCommon0
          CFI (cfiCond376) Function APSME_TCLinkKeyInit
          CFI (cfiCond376) Conditional ??CrossCallReturnLabel_164
          CFI (cfiCond376) R6 load(1, XDATA, add(CFA_XSP16, literal(-20)))
          CFI (cfiCond376) VB load(1, XDATA, add(CFA_XSP16, literal(-19)))
          CFI (cfiCond376) V0 load(1, XDATA, add(CFA_XSP16, literal(-18)))
          CFI (cfiCond376) V1 load(1, XDATA, add(CFA_XSP16, literal(-17)))
          CFI (cfiCond376) V2 load(1, XDATA, add(CFA_XSP16, literal(-16)))
          CFI (cfiCond376) V3 load(1, XDATA, add(CFA_XSP16, literal(-15)))
          CFI (cfiCond376) V4 load(1, XDATA, add(CFA_XSP16, literal(-14)))
          CFI (cfiCond376) V5 load(1, XDATA, add(CFA_XSP16, literal(-13)))
          CFI (cfiCond376) V6 load(1, XDATA, add(CFA_XSP16, literal(-12)))
          CFI (cfiCond376) V7 load(1, XDATA, add(CFA_XSP16, literal(-11)))
          CFI (cfiCond376) V8 load(1, XDATA, add(CFA_XSP16, literal(-10)))
          CFI (cfiCond376) V9 load(1, XDATA, add(CFA_XSP16, literal(-9)))
          CFI (cfiCond376) V10 load(1, XDATA, add(CFA_XSP16, literal(-8)))
          CFI (cfiCond376) V11 load(1, XDATA, add(CFA_XSP16, literal(-7)))
          CFI (cfiCond376) R7 load(1, XDATA, add(CFA_XSP16, literal(-6)))
          CFI (cfiCond376) ?RET_LOW load(1, XDATA, add(CFA_XSP16, literal(-5)))
          CFI (cfiCond376) ?RET_HIGH load(1, XDATA, add(CFA_XSP16, literal(-4)))
          CFI (cfiCond376) ?BRET_EXT load(1, XDATA, add(CFA_XSP16, literal(-3)))
          CFI (cfiCond376) DPL0 load(1, XDATA, add(CFA_XSP16, literal(-2)))
          CFI (cfiCond376) DPH0 load(1, XDATA, add(CFA_XSP16, literal(-1)))
          CFI (cfiCond376) CFA_SP SP+-2
          CFI (cfiCond376) CFA_XSP16 add(XSP16, 39)
          CFI Block cfiCond377 Using cfiCommon0
          CFI (cfiCond377) Function APSME_TCLinkKeyLoad
          CFI (cfiCond377) Conditional ??CrossCallReturnLabel_165
          CFI (cfiCond377) R6 load(1, XDATA, add(CFA_XSP16, literal(-18)))
          CFI (cfiCond377) VB load(1, XDATA, add(CFA_XSP16, literal(-17)))
          CFI (cfiCond377) V0 load(1, XDATA, add(CFA_XSP16, literal(-16)))
          CFI (cfiCond377) V1 load(1, XDATA, add(CFA_XSP16, literal(-15)))
          CFI (cfiCond377) V2 load(1, XDATA, add(CFA_XSP16, literal(-14)))
          CFI (cfiCond377) V3 load(1, XDATA, add(CFA_XSP16, literal(-13)))
          CFI (cfiCond377) V4 load(1, XDATA, add(CFA_XSP16, literal(-12)))
          CFI (cfiCond377) V5 load(1, XDATA, add(CFA_XSP16, literal(-11)))
          CFI (cfiCond377) V6 load(1, XDATA, add(CFA_XSP16, literal(-10)))
          CFI (cfiCond377) V7 load(1, XDATA, add(CFA_XSP16, literal(-9)))
          CFI (cfiCond377) V8 load(1, XDATA, add(CFA_XSP16, literal(-8)))
          CFI (cfiCond377) V9 load(1, XDATA, add(CFA_XSP16, literal(-7)))
          CFI (cfiCond377) R7 load(1, XDATA, add(CFA_XSP16, literal(-6)))
          CFI (cfiCond377) ?RET_LOW load(1, XDATA, add(CFA_XSP16, literal(-5)))
          CFI (cfiCond377) ?RET_HIGH load(1, XDATA, add(CFA_XSP16, literal(-4)))
          CFI (cfiCond377) ?BRET_EXT load(1, XDATA, add(CFA_XSP16, literal(-3)))
          CFI (cfiCond377) DPL0 load(1, XDATA, add(CFA_XSP16, literal(-2)))
          CFI (cfiCond377) DPH0 load(1, XDATA, add(CFA_XSP16, literal(-1)))
          CFI (cfiCond377) CFA_SP SP+-2
          CFI (cfiCond377) CFA_XSP16 add(XSP16, 51)
          CFI Block cfiCond378 Using cfiCommon0
          CFI (cfiCond378) Function APSME_LinkKeySet
          CFI (cfiCond378) Conditional ??CrossCallReturnLabel_166
          CFI (cfiCond378) R6 load(1, XDATA, add(CFA_XSP16, literal(-15)))
          CFI (cfiCond378) VB load(1, XDATA, add(CFA_XSP16, literal(-14)))
          CFI (cfiCond378) V0 load(1, XDATA, add(CFA_XSP16, literal(-13)))
          CFI (cfiCond378) V1 load(1, XDATA, add(CFA_XSP16, literal(-12)))
          CFI (cfiCond378) V2 load(1, XDATA, add(CFA_XSP16, literal(-11)))
          CFI (cfiCond378) V3 load(1, XDATA, add(CFA_XSP16, literal(-10)))
          CFI (cfiCond378) V4 load(1, XDATA, add(CFA_XSP16, literal(-9)))
          CFI (cfiCond378) V5 load(1, XDATA, add(CFA_XSP16, literal(-8)))
          CFI (cfiCond378) V6 load(1, XDATA, add(CFA_XSP16, literal(-7)))
          CFI (cfiCond378) R7 load(1, XDATA, add(CFA_XSP16, literal(-6)))
          CFI (cfiCond378) ?RET_LOW load(1, XDATA, add(CFA_XSP16, literal(-5)))
          CFI (cfiCond378) ?RET_HIGH load(1, XDATA, add(CFA_XSP16, literal(-4)))
          CFI (cfiCond378) ?BRET_EXT load(1, XDATA, add(CFA_XSP16, literal(-3)))
          CFI (cfiCond378) DPL0 load(1, XDATA, add(CFA_XSP16, literal(-2)))
          CFI (cfiCond378) DPH0 load(1, XDATA, add(CFA_XSP16, literal(-1)))
          CFI (cfiCond378) CFA_SP SP+-2
          CFI (cfiCond378) CFA_XSP16 add(XSP16, 19)
          CFI Block cfiCond379 Using cfiCommon0
          CFI (cfiCond379) Function APSME_LinkKeySet
          CFI (cfiCond379) Conditional ??CrossCallReturnLabel_167
          CFI (cfiCond379) R6 load(1, XDATA, add(CFA_XSP16, literal(-15)))
          CFI (cfiCond379) VB load(1, XDATA, add(CFA_XSP16, literal(-14)))
          CFI (cfiCond379) V0 load(1, XDATA, add(CFA_XSP16, literal(-13)))
          CFI (cfiCond379) V1 load(1, XDATA, add(CFA_XSP16, literal(-12)))
          CFI (cfiCond379) V2 load(1, XDATA, add(CFA_XSP16, literal(-11)))
          CFI (cfiCond379) V3 load(1, XDATA, add(CFA_XSP16, literal(-10)))
          CFI (cfiCond379) V4 load(1, XDATA, add(CFA_XSP16, literal(-9)))
          CFI (cfiCond379) V5 load(1, XDATA, add(CFA_XSP16, literal(-8)))
          CFI (cfiCond379) V6 load(1, XDATA, add(CFA_XSP16, literal(-7)))
          CFI (cfiCond379) R7 load(1, XDATA, add(CFA_XSP16, literal(-6)))
          CFI (cfiCond379) ?RET_LOW load(1, XDATA, add(CFA_XSP16, literal(-5)))
          CFI (cfiCond379) ?RET_HIGH load(1, XDATA, add(CFA_XSP16, literal(-4)))
          CFI (cfiCond379) ?BRET_EXT load(1, XDATA, add(CFA_XSP16, literal(-3)))
          CFI (cfiCond379) DPL0 load(1, XDATA, add(CFA_XSP16, literal(-2)))
          CFI (cfiCond379) DPH0 load(1, XDATA, add(CFA_XSP16, literal(-1)))
          CFI (cfiCond379) CFA_SP SP+-2
          CFI (cfiCond379) CFA_XSP16 add(XSP16, 19)
          CFI Block cfiCond380 Using cfiCommon0
          CFI (cfiCond380) Function APSME_LinkKeySet
          CFI (cfiCond380) Conditional ??CrossCallReturnLabel_168
          CFI (cfiCond380) R6 load(1, XDATA, add(CFA_XSP16, literal(-15)))
          CFI (cfiCond380) VB load(1, XDATA, add(CFA_XSP16, literal(-14)))
          CFI (cfiCond380) V0 load(1, XDATA, add(CFA_XSP16, literal(-13)))
          CFI (cfiCond380) V1 load(1, XDATA, add(CFA_XSP16, literal(-12)))
          CFI (cfiCond380) V2 load(1, XDATA, add(CFA_XSP16, literal(-11)))
          CFI (cfiCond380) V3 load(1, XDATA, add(CFA_XSP16, literal(-10)))
          CFI (cfiCond380) V4 load(1, XDATA, add(CFA_XSP16, literal(-9)))
          CFI (cfiCond380) V5 load(1, XDATA, add(CFA_XSP16, literal(-8)))
          CFI (cfiCond380) V6 load(1, XDATA, add(CFA_XSP16, literal(-7)))
          CFI (cfiCond380) R7 load(1, XDATA, add(CFA_XSP16, literal(-6)))
          CFI (cfiCond380) ?RET_LOW load(1, XDATA, add(CFA_XSP16, literal(-5)))
          CFI (cfiCond380) ?RET_HIGH load(1, XDATA, add(CFA_XSP16, literal(-4)))
          CFI (cfiCond380) ?BRET_EXT load(1, XDATA, add(CFA_XSP16, literal(-3)))
          CFI (cfiCond380) DPL0 load(1, XDATA, add(CFA_XSP16, literal(-2)))
          CFI (cfiCond380) DPH0 load(1, XDATA, add(CFA_XSP16, literal(-1)))
          CFI (cfiCond380) CFA_SP SP+-2
          CFI (cfiCond380) CFA_XSP16 add(XSP16, 19)
          CFI Block cfiCond381 Using cfiCommon0
          CFI (cfiCond381) Function APSME_LinkKeySet
          CFI (cfiCond381) Conditional ??CrossCallReturnLabel_169
          CFI (cfiCond381) R6 load(1, XDATA, add(CFA_XSP16, literal(-15)))
          CFI (cfiCond381) VB load(1, XDATA, add(CFA_XSP16, literal(-14)))
          CFI (cfiCond381) V0 load(1, XDATA, add(CFA_XSP16, literal(-13)))
          CFI (cfiCond381) V1 load(1, XDATA, add(CFA_XSP16, literal(-12)))
          CFI (cfiCond381) V2 load(1, XDATA, add(CFA_XSP16, literal(-11)))
          CFI (cfiCond381) V3 load(1, XDATA, add(CFA_XSP16, literal(-10)))
          CFI (cfiCond381) V4 load(1, XDATA, add(CFA_XSP16, literal(-9)))
          CFI (cfiCond381) V5 load(1, XDATA, add(CFA_XSP16, literal(-8)))
          CFI (cfiCond381) V6 load(1, XDATA, add(CFA_XSP16, literal(-7)))
          CFI (cfiCond381) R7 load(1, XDATA, add(CFA_XSP16, literal(-6)))
          CFI (cfiCond381) ?RET_LOW load(1, XDATA, add(CFA_XSP16, literal(-5)))
          CFI (cfiCond381) ?RET_HIGH load(1, XDATA, add(CFA_XSP16, literal(-4)))
          CFI (cfiCond381) ?BRET_EXT load(1, XDATA, add(CFA_XSP16, literal(-3)))
          CFI (cfiCond381) DPL0 load(1, XDATA, add(CFA_XSP16, literal(-2)))
          CFI (cfiCond381) DPH0 load(1, XDATA, add(CFA_XSP16, literal(-1)))
          CFI (cfiCond381) CFA_SP SP+-2
          CFI (cfiCond381) CFA_XSP16 add(XSP16, 19)
          CFI Block cfiPicker382 Using cfiCommon1
          CFI (cfiPicker382) NoFunction
          CFI (cfiPicker382) Picker
        CLR       A
          CFI EndBlock cfiCond373
          CFI EndBlock cfiCond374
          CFI EndBlock cfiCond375
          CFI EndBlock cfiCond376
          CFI EndBlock cfiCond377
          CFI EndBlock cfiCond378
          CFI EndBlock cfiCond379
          CFI EndBlock cfiCond380
          CFI EndBlock cfiCond381
          CFI EndBlock cfiPicker382
        REQUIRE ??Subroutine74_0
        ; // Fall through to label ??Subroutine74_0

        RSEG BANKED_CODE:HUGECODE:NOROOT(0)
??Subroutine74_0:
          CFI Block cfiCond383 Using cfiCommon0
          CFI Function ZDSecMgrDeviceJoinDirect
          CFI Conditional ??CrossCallReturnLabel_160
          CFI R6 load(1, XDATA, add(CFA_XSP16, literal(-12)))
          CFI VB load(1, XDATA, add(CFA_XSP16, literal(-11)))
          CFI V0 load(1, XDATA, add(CFA_XSP16, literal(-10)))
          CFI V1 load(1, XDATA, add(CFA_XSP16, literal(-9)))
          CFI V2 load(1, XDATA, add(CFA_XSP16, literal(-8)))
          CFI V3 load(1, XDATA, add(CFA_XSP16, literal(-7)))
          CFI R7 load(1, XDATA, add(CFA_XSP16, literal(-6)))
          CFI ?RET_LOW load(1, XDATA, add(CFA_XSP16, literal(-5)))
          CFI ?RET_HIGH load(1, XDATA, add(CFA_XSP16, literal(-4)))
          CFI ?BRET_EXT load(1, XDATA, add(CFA_XSP16, literal(-3)))
          CFI DPL0 load(1, XDATA, add(CFA_XSP16, literal(-2)))
          CFI DPH0 load(1, XDATA, add(CFA_XSP16, literal(-1)))
          CFI CFA_SP SP+-2
          CFI CFA_XSP16 add(XSP16, 32)
          CFI Block cfiCond384 Using cfiCommon0
          CFI (cfiCond384) Function ZDSecMgrDeviceJoinDirect
          CFI (cfiCond384) Conditional ??CrossCallReturnLabel_161
          CFI (cfiCond384) R6 load(1, XDATA, add(CFA_XSP16, literal(-12)))
          CFI (cfiCond384) VB load(1, XDATA, add(CFA_XSP16, literal(-11)))
          CFI (cfiCond384) V0 load(1, XDATA, add(CFA_XSP16, literal(-10)))
          CFI (cfiCond384) V1 load(1, XDATA, add(CFA_XSP16, literal(-9)))
          CFI (cfiCond384) V2 load(1, XDATA, add(CFA_XSP16, literal(-8)))
          CFI (cfiCond384) V3 load(1, XDATA, add(CFA_XSP16, literal(-7)))
          CFI (cfiCond384) R7 load(1, XDATA, add(CFA_XSP16, literal(-6)))
          CFI (cfiCond384) ?RET_LOW load(1, XDATA, add(CFA_XSP16, literal(-5)))
          CFI (cfiCond384) ?RET_HIGH load(1, XDATA, add(CFA_XSP16, literal(-4)))
          CFI (cfiCond384) ?BRET_EXT load(1, XDATA, add(CFA_XSP16, literal(-3)))
          CFI (cfiCond384) DPL0 load(1, XDATA, add(CFA_XSP16, literal(-2)))
          CFI (cfiCond384) DPH0 load(1, XDATA, add(CFA_XSP16, literal(-1)))
          CFI (cfiCond384) CFA_SP SP+-2
          CFI (cfiCond384) CFA_XSP16 add(XSP16, 32)
          CFI Block cfiCond385 Using cfiCommon0
          CFI (cfiCond385) Function ZDSecMgrDeviceJoinDirect
          CFI (cfiCond385) Conditional ??CrossCallReturnLabel_162
          CFI (cfiCond385) R6 load(1, XDATA, add(CFA_XSP16, literal(-12)))
          CFI (cfiCond385) VB load(1, XDATA, add(CFA_XSP16, literal(-11)))
          CFI (cfiCond385) V0 load(1, XDATA, add(CFA_XSP16, literal(-10)))
          CFI (cfiCond385) V1 load(1, XDATA, add(CFA_XSP16, literal(-9)))
          CFI (cfiCond385) V2 load(1, XDATA, add(CFA_XSP16, literal(-8)))
          CFI (cfiCond385) V3 load(1, XDATA, add(CFA_XSP16, literal(-7)))
          CFI (cfiCond385) R7 load(1, XDATA, add(CFA_XSP16, literal(-6)))
          CFI (cfiCond385) ?RET_LOW load(1, XDATA, add(CFA_XSP16, literal(-5)))
          CFI (cfiCond385) ?RET_HIGH load(1, XDATA, add(CFA_XSP16, literal(-4)))
          CFI (cfiCond385) ?BRET_EXT load(1, XDATA, add(CFA_XSP16, literal(-3)))
          CFI (cfiCond385) DPL0 load(1, XDATA, add(CFA_XSP16, literal(-2)))
          CFI (cfiCond385) DPH0 load(1, XDATA, add(CFA_XSP16, literal(-1)))
          CFI (cfiCond385) CFA_SP SP+-2
          CFI (cfiCond385) CFA_XSP16 add(XSP16, 32)
          CFI Block cfiCond386 Using cfiCommon0
          CFI (cfiCond386) Function ZDSecMgrTransportKeyInd
          CFI (cfiCond386) Conditional ??CrossCallReturnLabel_163
          CFI (cfiCond386) R6 load(1, XDATA, add(CFA_XSP16, literal(-14)))
          CFI (cfiCond386) VB load(1, XDATA, add(CFA_XSP16, literal(-13)))
          CFI (cfiCond386) V0 load(1, XDATA, add(CFA_XSP16, literal(-12)))
          CFI (cfiCond386) V1 load(1, XDATA, add(CFA_XSP16, literal(-11)))
          CFI (cfiCond386) V2 load(1, XDATA, add(CFA_XSP16, literal(-10)))
          CFI (cfiCond386) V3 load(1, XDATA, add(CFA_XSP16, literal(-9)))
          CFI (cfiCond386) V4 load(1, XDATA, add(CFA_XSP16, literal(-8)))
          CFI (cfiCond386) V5 load(1, XDATA, add(CFA_XSP16, literal(-7)))
          CFI (cfiCond386) R7 load(1, XDATA, add(CFA_XSP16, literal(-6)))
          CFI (cfiCond386) ?RET_LOW load(1, XDATA, add(CFA_XSP16, literal(-5)))
          CFI (cfiCond386) ?RET_HIGH load(1, XDATA, add(CFA_XSP16, literal(-4)))
          CFI (cfiCond386) ?BRET_EXT load(1, XDATA, add(CFA_XSP16, literal(-3)))
          CFI (cfiCond386) DPL0 load(1, XDATA, add(CFA_XSP16, literal(-2)))
          CFI (cfiCond386) DPH0 load(1, XDATA, add(CFA_XSP16, literal(-1)))
          CFI (cfiCond386) CFA_SP SP+-2
          CFI (cfiCond386) CFA_XSP16 add(XSP16, 50)
          CFI Block cfiCond387 Using cfiCommon0
          CFI (cfiCond387) Function APSME_TCLinkKeyInit
          CFI (cfiCond387) Conditional ??CrossCallReturnLabel_164
          CFI (cfiCond387) R6 load(1, XDATA, add(CFA_XSP16, literal(-20)))
          CFI (cfiCond387) VB load(1, XDATA, add(CFA_XSP16, literal(-19)))
          CFI (cfiCond387) V0 load(1, XDATA, add(CFA_XSP16, literal(-18)))
          CFI (cfiCond387) V1 load(1, XDATA, add(CFA_XSP16, literal(-17)))
          CFI (cfiCond387) V2 load(1, XDATA, add(CFA_XSP16, literal(-16)))
          CFI (cfiCond387) V3 load(1, XDATA, add(CFA_XSP16, literal(-15)))
          CFI (cfiCond387) V4 load(1, XDATA, add(CFA_XSP16, literal(-14)))
          CFI (cfiCond387) V5 load(1, XDATA, add(CFA_XSP16, literal(-13)))
          CFI (cfiCond387) V6 load(1, XDATA, add(CFA_XSP16, literal(-12)))
          CFI (cfiCond387) V7 load(1, XDATA, add(CFA_XSP16, literal(-11)))
          CFI (cfiCond387) V8 load(1, XDATA, add(CFA_XSP16, literal(-10)))
          CFI (cfiCond387) V9 load(1, XDATA, add(CFA_XSP16, literal(-9)))
          CFI (cfiCond387) V10 load(1, XDATA, add(CFA_XSP16, literal(-8)))
          CFI (cfiCond387) V11 load(1, XDATA, add(CFA_XSP16, literal(-7)))
          CFI (cfiCond387) R7 load(1, XDATA, add(CFA_XSP16, literal(-6)))
          CFI (cfiCond387) ?RET_LOW load(1, XDATA, add(CFA_XSP16, literal(-5)))
          CFI (cfiCond387) ?RET_HIGH load(1, XDATA, add(CFA_XSP16, literal(-4)))
          CFI (cfiCond387) ?BRET_EXT load(1, XDATA, add(CFA_XSP16, literal(-3)))
          CFI (cfiCond387) DPL0 load(1, XDATA, add(CFA_XSP16, literal(-2)))
          CFI (cfiCond387) DPH0 load(1, XDATA, add(CFA_XSP16, literal(-1)))
          CFI (cfiCond387) CFA_SP SP+-2
          CFI (cfiCond387) CFA_XSP16 add(XSP16, 39)
          CFI Block cfiCond388 Using cfiCommon0
          CFI (cfiCond388) Function APSME_TCLinkKeyLoad
          CFI (cfiCond388) Conditional ??CrossCallReturnLabel_165
          CFI (cfiCond388) R6 load(1, XDATA, add(CFA_XSP16, literal(-18)))
          CFI (cfiCond388) VB load(1, XDATA, add(CFA_XSP16, literal(-17)))
          CFI (cfiCond388) V0 load(1, XDATA, add(CFA_XSP16, literal(-16)))
          CFI (cfiCond388) V1 load(1, XDATA, add(CFA_XSP16, literal(-15)))
          CFI (cfiCond388) V2 load(1, XDATA, add(CFA_XSP16, literal(-14)))
          CFI (cfiCond388) V3 load(1, XDATA, add(CFA_XSP16, literal(-13)))
          CFI (cfiCond388) V4 load(1, XDATA, add(CFA_XSP16, literal(-12)))
          CFI (cfiCond388) V5 load(1, XDATA, add(CFA_XSP16, literal(-11)))
          CFI (cfiCond388) V6 load(1, XDATA, add(CFA_XSP16, literal(-10)))
          CFI (cfiCond388) V7 load(1, XDATA, add(CFA_XSP16, literal(-9)))
          CFI (cfiCond388) V8 load(1, XDATA, add(CFA_XSP16, literal(-8)))
          CFI (cfiCond388) V9 load(1, XDATA, add(CFA_XSP16, literal(-7)))
          CFI (cfiCond388) R7 load(1, XDATA, add(CFA_XSP16, literal(-6)))
          CFI (cfiCond388) ?RET_LOW load(1, XDATA, add(CFA_XSP16, literal(-5)))
          CFI (cfiCond388) ?RET_HIGH load(1, XDATA, add(CFA_XSP16, literal(-4)))
          CFI (cfiCond388) ?BRET_EXT load(1, XDATA, add(CFA_XSP16, literal(-3)))
          CFI (cfiCond388) DPL0 load(1, XDATA, add(CFA_XSP16, literal(-2)))
          CFI (cfiCond388) DPH0 load(1, XDATA, add(CFA_XSP16, literal(-1)))
          CFI (cfiCond388) CFA_SP SP+-2
          CFI (cfiCond388) CFA_XSP16 add(XSP16, 51)
          CFI Block cfiCond389 Using cfiCommon0
          CFI (cfiCond389) Function APSME_LinkKeySet
          CFI (cfiCond389) Conditional ??CrossCallReturnLabel_166
          CFI (cfiCond389) R6 load(1, XDATA, add(CFA_XSP16, literal(-15)))
          CFI (cfiCond389) VB load(1, XDATA, add(CFA_XSP16, literal(-14)))
          CFI (cfiCond389) V0 load(1, XDATA, add(CFA_XSP16, literal(-13)))
          CFI (cfiCond389) V1 load(1, XDATA, add(CFA_XSP16, literal(-12)))
          CFI (cfiCond389) V2 load(1, XDATA, add(CFA_XSP16, literal(-11)))
          CFI (cfiCond389) V3 load(1, XDATA, add(CFA_XSP16, literal(-10)))
          CFI (cfiCond389) V4 load(1, XDATA, add(CFA_XSP16, literal(-9)))
          CFI (cfiCond389) V5 load(1, XDATA, add(CFA_XSP16, literal(-8)))
          CFI (cfiCond389) V6 load(1, XDATA, add(CFA_XSP16, literal(-7)))
          CFI (cfiCond389) R7 load(1, XDATA, add(CFA_XSP16, literal(-6)))
          CFI (cfiCond389) ?RET_LOW load(1, XDATA, add(CFA_XSP16, literal(-5)))
          CFI (cfiCond389) ?RET_HIGH load(1, XDATA, add(CFA_XSP16, literal(-4)))
          CFI (cfiCond389) ?BRET_EXT load(1, XDATA, add(CFA_XSP16, literal(-3)))
          CFI (cfiCond389) DPL0 load(1, XDATA, add(CFA_XSP16, literal(-2)))
          CFI (cfiCond389) DPH0 load(1, XDATA, add(CFA_XSP16, literal(-1)))
          CFI (cfiCond389) CFA_SP SP+-2
          CFI (cfiCond389) CFA_XSP16 add(XSP16, 19)
          CFI Block cfiCond390 Using cfiCommon0
          CFI (cfiCond390) Function APSME_LinkKeySet
          CFI (cfiCond390) Conditional ??CrossCallReturnLabel_167
          CFI (cfiCond390) R6 load(1, XDATA, add(CFA_XSP16, literal(-15)))
          CFI (cfiCond390) VB load(1, XDATA, add(CFA_XSP16, literal(-14)))
          CFI (cfiCond390) V0 load(1, XDATA, add(CFA_XSP16, literal(-13)))
          CFI (cfiCond390) V1 load(1, XDATA, add(CFA_XSP16, literal(-12)))
          CFI (cfiCond390) V2 load(1, XDATA, add(CFA_XSP16, literal(-11)))
          CFI (cfiCond390) V3 load(1, XDATA, add(CFA_XSP16, literal(-10)))
          CFI (cfiCond390) V4 load(1, XDATA, add(CFA_XSP16, literal(-9)))
          CFI (cfiCond390) V5 load(1, XDATA, add(CFA_XSP16, literal(-8)))
          CFI (cfiCond390) V6 load(1, XDATA, add(CFA_XSP16, literal(-7)))
          CFI (cfiCond390) R7 load(1, XDATA, add(CFA_XSP16, literal(-6)))
          CFI (cfiCond390) ?RET_LOW load(1, XDATA, add(CFA_XSP16, literal(-5)))
          CFI (cfiCond390) ?RET_HIGH load(1, XDATA, add(CFA_XSP16, literal(-4)))
          CFI (cfiCond390) ?BRET_EXT load(1, XDATA, add(CFA_XSP16, literal(-3)))
          CFI (cfiCond390) DPL0 load(1, XDATA, add(CFA_XSP16, literal(-2)))
          CFI (cfiCond390) DPH0 load(1, XDATA, add(CFA_XSP16, literal(-1)))
          CFI (cfiCond390) CFA_SP SP+-2
          CFI (cfiCond390) CFA_XSP16 add(XSP16, 19)
          CFI Block cfiCond391 Using cfiCommon0
          CFI (cfiCond391) Function APSME_LinkKeySet
          CFI (cfiCond391) Conditional ??CrossCallReturnLabel_168
          CFI (cfiCond391) R6 load(1, XDATA, add(CFA_XSP16, literal(-15)))
          CFI (cfiCond391) VB load(1, XDATA, add(CFA_XSP16, literal(-14)))
          CFI (cfiCond391) V0 load(1, XDATA, add(CFA_XSP16, literal(-13)))
          CFI (cfiCond391) V1 load(1, XDATA, add(CFA_XSP16, literal(-12)))
          CFI (cfiCond391) V2 load(1, XDATA, add(CFA_XSP16, literal(-11)))
          CFI (cfiCond391) V3 load(1, XDATA, add(CFA_XSP16, literal(-10)))
          CFI (cfiCond391) V4 load(1, XDATA, add(CFA_XSP16, literal(-9)))
          CFI (cfiCond391) V5 load(1, XDATA, add(CFA_XSP16, literal(-8)))
          CFI (cfiCond391) V6 load(1, XDATA, add(CFA_XSP16, literal(-7)))
          CFI (cfiCond391) R7 load(1, XDATA, add(CFA_XSP16, literal(-6)))
          CFI (cfiCond391) ?RET_LOW load(1, XDATA, add(CFA_XSP16, literal(-5)))
          CFI (cfiCond391) ?RET_HIGH load(1, XDATA, add(CFA_XSP16, literal(-4)))
          CFI (cfiCond391) ?BRET_EXT load(1, XDATA, add(CFA_XSP16, literal(-3)))
          CFI (cfiCond391) DPL0 load(1, XDATA, add(CFA_XSP16, literal(-2)))
          CFI (cfiCond391) DPH0 load(1, XDATA, add(CFA_XSP16, literal(-1)))
          CFI (cfiCond391) CFA_SP SP+-2
          CFI (cfiCond391) CFA_XSP16 add(XSP16, 19)
          CFI Block cfiCond392 Using cfiCommon0
          CFI (cfiCond392) Function APSME_LinkKeySet
          CFI (cfiCond392) Conditional ??CrossCallReturnLabel_169
          CFI (cfiCond392) R6 load(1, XDATA, add(CFA_XSP16, literal(-15)))
          CFI (cfiCond392) VB load(1, XDATA, add(CFA_XSP16, literal(-14)))
          CFI (cfiCond392) V0 load(1, XDATA, add(CFA_XSP16, literal(-13)))
          CFI (cfiCond392) V1 load(1, XDATA, add(CFA_XSP16, literal(-12)))
          CFI (cfiCond392) V2 load(1, XDATA, add(CFA_XSP16, literal(-11)))
          CFI (cfiCond392) V3 load(1, XDATA, add(CFA_XSP16, literal(-10)))
          CFI (cfiCond392) V4 load(1, XDATA, add(CFA_XSP16, literal(-9)))
          CFI (cfiCond392) V5 load(1, XDATA, add(CFA_XSP16, literal(-8)))
          CFI (cfiCond392) V6 load(1, XDATA, add(CFA_XSP16, literal(-7)))
          CFI (cfiCond392) R7 load(1, XDATA, add(CFA_XSP16, literal(-6)))
          CFI (cfiCond392) ?RET_LOW load(1, XDATA, add(CFA_XSP16, literal(-5)))
          CFI (cfiCond392) ?RET_HIGH load(1, XDATA, add(CFA_XSP16, literal(-4)))
          CFI (cfiCond392) ?BRET_EXT load(1, XDATA, add(CFA_XSP16, literal(-3)))
          CFI (cfiCond392) DPL0 load(1, XDATA, add(CFA_XSP16, literal(-2)))
          CFI (cfiCond392) DPH0 load(1, XDATA, add(CFA_XSP16, literal(-1)))
          CFI (cfiCond392) CFA_SP SP+-2
          CFI (cfiCond392) CFA_XSP16 add(XSP16, 19)
          CFI Block cfiPicker393 Using cfiCommon1
          CFI (cfiPicker393) NoFunction
          CFI (cfiPicker393) Picker
        LCALL     ?Subroutine42 & 0xFFFF
??CrossCallReturnLabel_172:
        MOVX      @DPTR,A
        RET
          CFI EndBlock cfiCond383
          CFI EndBlock cfiCond384
          CFI EndBlock cfiCond385
          CFI EndBlock cfiCond386
          CFI EndBlock cfiCond387
          CFI EndBlock cfiCond388
          CFI EndBlock cfiCond389
          CFI EndBlock cfiCond390
          CFI EndBlock cfiCond391
          CFI EndBlock cfiCond392
          CFI EndBlock cfiPicker393
// 3040 
// 3041 
// 3042 /******************************************************************************
// 3043  * @fn          APSME_TCLinkKeySync
// 3044  *
// 3045  * @brief       Sync Trust Center LINK key data.
// 3046  *
// 3047  * @param       srcAddr - [in] srcAddr
// 3048  * @param       si      - [in, out] SSP_Info_t
// 3049  *
// 3050  * @return      ZStatus_t
// 3051  */

        RSEG BANKED_CODE:HUGECODE:NOROOT(0)
// 3052 ZStatus_t APSME_TCLinkKeySync( uint16 srcAddr, SSP_Info_t* si )
APSME_TCLinkKeySync:
          CFI Block cfiBlock394 Using cfiCommon0
          CFI Function APSME_TCLinkKeySync
        CODE
// 3053 {
        FUNCALL APSME_TCLinkKeySync, AddrMgrExtAddrValid
        LOCFRAME ISTACK, 0, STACK
        LOCFRAME PSTACK, 0, STACK
        LOCFRAME XSTACK, 46, STACK
        LOCFRAME IOVERLAY, 0, STATIC
        LOCFRAME DOVERLAY, 0, STATIC
        ARGFRAME ISTACK, 0, STACK
        ARGFRAME PSTACK, 0, STACK
        ARGFRAME XSTACK, 46, STACK
        ARGFRAME IOVERLAY, 0, STATIC
        ARGFRAME DOVERLAY, 0, STATIC
        FUNCALL APSME_TCLinkKeySync, APSME_LookupExtAddr
        LOCFRAME ISTACK, 0, STACK
        LOCFRAME PSTACK, 0, STACK
        LOCFRAME XSTACK, 46, STACK
        LOCFRAME IOVERLAY, 0, STATIC
        LOCFRAME DOVERLAY, 0, STATIC
        ARGFRAME ISTACK, 0, STACK
        ARGFRAME PSTACK, 0, STACK
        ARGFRAME XSTACK, 46, STACK
        ARGFRAME IOVERLAY, 0, STATIC
        ARGFRAME DOVERLAY, 0, STATIC
        FUNCALL APSME_TCLinkKeySync, APSME_SearchTCLinkKeyEntry
        LOCFRAME ISTACK, 0, STACK
        LOCFRAME PSTACK, 0, STACK
        LOCFRAME XSTACK, 48, STACK
        LOCFRAME IOVERLAY, 0, STATIC
        LOCFRAME DOVERLAY, 0, STATIC
        ARGFRAME ISTACK, 0, STACK
        ARGFRAME PSTACK, 0, STACK
        ARGFRAME XSTACK, 48, STACK
        ARGFRAME IOVERLAY, 0, STATIC
        ARGFRAME DOVERLAY, 0, STATIC
        FUNCALL APSME_TCLinkKeySync, osal_memset
        LOCFRAME ISTACK, 0, STACK
        LOCFRAME PSTACK, 0, STACK
        LOCFRAME XSTACK, 46, STACK
        LOCFRAME IOVERLAY, 0, STATIC
        LOCFRAME DOVERLAY, 0, STATIC
        ARGFRAME ISTACK, 0, STACK
        ARGFRAME PSTACK, 0, STACK
        ARGFRAME XSTACK, 46, STACK
        ARGFRAME IOVERLAY, 0, STATIC
        ARGFRAME DOVERLAY, 0, STATIC
        FUNCALL APSME_TCLinkKeySync, APSME_SearchTCLinkKeyEntry
        LOCFRAME ISTACK, 0, STACK
        LOCFRAME PSTACK, 0, STACK
        LOCFRAME XSTACK, 48, STACK
        LOCFRAME IOVERLAY, 0, STATIC
        LOCFRAME DOVERLAY, 0, STATIC
        ARGFRAME ISTACK, 0, STACK
        ARGFRAME PSTACK, 0, STACK
        ARGFRAME XSTACK, 48, STACK
        ARGFRAME IOVERLAY, 0, STATIC
        ARGFRAME DOVERLAY, 0, STATIC
        FUNCALL APSME_TCLinkKeySync, osal_memcpy
        LOCFRAME ISTACK, 0, STACK
        LOCFRAME PSTACK, 0, STACK
        LOCFRAME XSTACK, 49, STACK
        LOCFRAME IOVERLAY, 0, STATIC
        LOCFRAME DOVERLAY, 0, STATIC
        ARGFRAME ISTACK, 0, STACK
        ARGFRAME PSTACK, 0, STACK
        ARGFRAME XSTACK, 49, STACK
        ARGFRAME IOVERLAY, 0, STATIC
        ARGFRAME DOVERLAY, 0, STATIC
        FUNCALL APSME_TCLinkKeySync, bdb_doTrustCenterRequireKeyExchange
        LOCFRAME ISTACK, 0, STACK
        LOCFRAME PSTACK, 0, STACK
        LOCFRAME XSTACK, 46, STACK
        LOCFRAME IOVERLAY, 0, STATIC
        LOCFRAME DOVERLAY, 0, STATIC
        ARGFRAME ISTACK, 0, STACK
        ARGFRAME PSTACK, 0, STACK
        ARGFRAME XSTACK, 46, STACK
        ARGFRAME IOVERLAY, 0, STATIC
        ARGFRAME DOVERLAY, 0, STATIC
        REQUIRE ?V0
        REQUIRE ?V2
        REQUIRE ?V3
        REQUIRE ?V4
        REQUIRE ?V5
        REQUIRE ?V6
        REQUIRE ?V7
        REQUIRE ?V8
        REQUIRE ?V9
        MOV       A,#-0x12
        LCALL     ?BANKED_ENTER_XDATA
          CFI DPH0 load(1, XDATA, add(CFA_XSP16, literal(-1)))
          CFI DPL0 load(1, XDATA, add(CFA_XSP16, literal(-2)))
          CFI ?BRET_EXT load(1, XDATA, add(CFA_XSP16, literal(-3)))
          CFI ?RET_HIGH load(1, XDATA, add(CFA_XSP16, literal(-4)))
          CFI ?RET_LOW load(1, XDATA, add(CFA_XSP16, literal(-5)))
          CFI R7 load(1, XDATA, add(CFA_XSP16, literal(-6)))
          CFI V9 load(1, XDATA, add(CFA_XSP16, literal(-7)))
          CFI V8 load(1, XDATA, add(CFA_XSP16, literal(-8)))
          CFI V7 load(1, XDATA, add(CFA_XSP16, literal(-9)))
          CFI V6 load(1, XDATA, add(CFA_XSP16, literal(-10)))
          CFI V5 load(1, XDATA, add(CFA_XSP16, literal(-11)))
          CFI V4 load(1, XDATA, add(CFA_XSP16, literal(-12)))
          CFI V3 load(1, XDATA, add(CFA_XSP16, literal(-13)))
          CFI V2 load(1, XDATA, add(CFA_XSP16, literal(-14)))
          CFI V1 load(1, XDATA, add(CFA_XSP16, literal(-15)))
          CFI V0 load(1, XDATA, add(CFA_XSP16, literal(-16)))
          CFI VB load(1, XDATA, add(CFA_XSP16, literal(-17)))
          CFI R6 load(1, XDATA, add(CFA_XSP16, literal(-18)))
          CFI CFA_SP SP+0
          CFI CFA_XSP16 add(XSP16, 18)
        ; Saved register size: 18
        ; Auto size: 28
        MOV       A,#-0x1c
        LCALL     ?ALLOC_XSTACK8
          CFI CFA_XSP16 add(XSP16, 46)
        MOV       ?V4,R2
        MOV       ?V5,R3
        MOV       A,R4
        MOV       R6,A
        MOV       A,R5
        MOV       R7,A
// 3054   APSME_TCLKDevEntry_t  TCLKDevEntry;
// 3055   ZStatus_t             status = ZSecNoKey;
        MOV       ?V0,#-0x5f
// 3056   uint32                *tclkRxFrmCntr;
// 3057   uint16                entryIndex = 0xFFFF;
// 3058   uint16                selectedId = gZDSECMGR_TC_DEVICE_MAX;
// 3059   uint8                 entryFound = FALSE;
        MOV       DPL,?XSP + 0
        MOV       DPH,?XSP + 1
        CLR       A
        MOVX      @DPTR,A
// 3060   
// 3061 #if ZG_BUILD_JOINING_TYPE
// 3062   uint8   defaultEntry[Z_EXTADDR_LEN];
// 3063 #endif
// 3064  
// 3065   // Look up the IEEE address of the trust center if it's available
// 3066   if ( AddrMgrExtAddrValid( si->extAddr ) == FALSE )
        MOV       A,R6
        ADD       A,#0x6
        MOV       ?V2,A
        CLR       A
        ADDC      A,R7
        MOV       ?V3,A
        ; Setup parameters for call to function AddrMgrExtAddrValid
        MOV       R2,?V2
        MOV       R3,A
        LCALL     `??AddrMgrExtAddrValid::?relay`; Banked call to: AddrMgrExtAddrValid
        MOV       A,R1
        JNZ       ??APSME_TCLinkKeySync_0
// 3067   {
// 3068     APSME_LookupExtAddr( srcAddr, si->extAddr );
        ; Setup parameters for call to function APSME_LookupExtAddr
        MOV       R4,?V2
        MOV       R5,?V3
        MOV       R2,?V4
        MOV       R3,?V5
        LCALL     `??APSME_LookupExtAddr::?relay`; Banked call to: APSME_LookupExtAddr
// 3069   }
// 3070 
// 3071   entryIndex = APSME_SearchTCLinkKeyEntry(si->extAddr,&entryFound,&TCLKDevEntry);
??APSME_TCLinkKeySync_0:
        ; Setup parameters for call to function APSME_SearchTCLinkKeyEntry
        MOV       A,#0x9
        LCALL     ?XSTACK_DISP100_8
        MOV       ?V4,R0
        MOV       ?V5,R1
        MOV       R0,#?V4
        LCALL     ?PUSH_XSTACK_I_TWO
          CFI CFA_XSP16 add(XSP16, 48)
        MOV       A,#0x2
        LCALL     ?XSTACK_DISP102_8
        MOV       R2,?V2
        MOV       R3,?V3
        LCALL     `??APSME_SearchTCLinkKeyEntry::?relay`; Banked call to: APSME_SearchTCLinkKeyEntry
        MOV       A,#0x2
        LCALL     ?DEALLOC_XSTACK8
          CFI CFA_XSP16 add(XSP16, 46)
        MOV       ?V2,R2
        MOV       ?V3,R3
        MOV       R0,?V2
        MOV       R1,?V3
// 3072   
// 3073 #if ZG_BUILD_JOINING_TYPE
// 3074   if(ZG_DEVICE_JOINING_TYPE && !entryFound)
        MOV       DPTR,#zgDeviceLogicalType
        MOVX      A,@DPTR
        XRL       A,#0x1
        JZ        ??APSME_TCLinkKeySync_1
        MOVX      A,@DPTR
        XRL       A,#0x2
        JNZ       ??APSME_TCLinkKeySync_2
??APSME_TCLinkKeySync_1:
        MOV       DPL,?XSP + 0
        MOV       DPH,?XSP + 1
        MOVX      A,@DPTR
        JNZ       ??APSME_TCLinkKeySync_2
// 3075   {
// 3076     osal_memset(defaultEntry, 0, Z_EXTADDR_LEN);
        ; Setup parameters for call to function osal_memset
        MOV       R4,#0x8
        MOV       R5,#0x0
        MOV       R1,#0x0
        MOV       A,#0x1
        LCALL     ?XSTACK_DISP101_8
        LCALL     `??osal_memset::?relay`; Banked call to: osal_memset
// 3077     entryIndex = APSME_SearchTCLinkKeyEntry(defaultEntry,&entryFound,&TCLKDevEntry);
        ; Setup parameters for call to function APSME_SearchTCLinkKeyEntry
        MOV       A,#0x9
        LCALL     ?XSTACK_DISP100_8
        MOV       ?V2,R0
        MOV       ?V3,R1
        MOV       R0,#?V2
        LCALL     ?PUSH_XSTACK_I_TWO
          CFI CFA_XSP16 add(XSP16, 48)
        MOV       A,#0x2
        LCALL     ?XSTACK_DISP102_8
        MOV       A,#0x3
        LCALL     ?XSTACK_DISP101_8
        LCALL     `??APSME_SearchTCLinkKeyEntry::?relay`; Banked call to: APSME_SearchTCLinkKeyEntry
        MOV       A,#0x2
        LCALL     ?DEALLOC_XSTACK8
          CFI CFA_XSP16 add(XSP16, 46)
        MOV       ?V2,R2
        MOV       ?V3,R3
        MOV       R0,?V2
        MOV       R1,?V3
// 3078   }
// 3079 #endif
// 3080   
// 3081   if(entryFound)
??APSME_TCLinkKeySync_2:
        MOV       A,R6
        ADD       A,#0xf
        MOV       ?V2,A
        CLR       A
        ADDC      A,R7
        MOV       ?V3,A
        MOV       DPL,?XSP + 0
        MOV       DPH,?XSP + 1
        MOVX      A,@DPTR
        JNZ       $+5
        LJMP      ??APSME_TCLinkKeySync_3 & 0xFFFF
// 3082   {
// 3083     status = ZSuccess;
        MOV       ?V0,#0x0
// 3084     
// 3085     selectedId = entryIndex - ZCD_NV_TCLK_TABLE_START;
// 3086 
// 3087     switch(TCLKDevEntry.keyAttributes)
        MOV       A,R6
        ADD       A,#0x20
        MOV       R2,A
        CLR       A
        ADDC      A,R7
        MOV       R3,A
        MOV       A,#0x19
        LCALL     ?XSTACK_DISP0_8
        MOVX      A,@DPTR
        JZ        ??APSME_TCLinkKeySync_4
        DEC       A
        JZ        ??APSME_TCLinkKeySync_5
        DEC       A
        JZ        ??APSME_TCLinkKeySync_6
        ADD       A,#0x5
        JZ        ??APSME_TCLinkKeySync_6
        ADD       A,#-0x2
        JZ        ??APSME_TCLinkKeySync_7
        LJMP      ??APSME_TCLinkKeySync_8 & 0xFFFF
// 3088     {
// 3089       case ZG_UNVERIFIED_KEY:
// 3090         #if ZG_BUILD_JOINING_TYPE
// 3091         if(ZG_DEVICE_JOINING_TYPE)
??APSME_TCLinkKeySync_5:
        MOV       DPTR,#zgDeviceLogicalType
        MOVX      A,@DPTR
        XRL       A,#0x1
        JNZ       $+5
        LJMP      ??APSME_TCLinkKeySync_9 & 0xFFFF
        MOVX      A,@DPTR
        XRL       A,#0x2
        JNZ       ??APSME_TCLinkKeySync_10
        LJMP      ??APSME_TCLinkKeySync_9 & 0xFFFF
// 3092         {   
// 3093           si->keyNvId = ZCD_NV_TCLK_JOIN_DEV;
// 3094           break;
// 3095         }
// 3096         #endif
// 3097       case ZG_DEFAULT_KEY:
// 3098         if(ZG_DEVICE_JOINING_TYPE)
??APSME_TCLinkKeySync_7:
        MOV       DPTR,#zgDeviceLogicalType
        MOVX      A,@DPTR
        XRL       A,#0x1
        JZ        ??APSME_TCLinkKeySync_11
??APSME_TCLinkKeySync_10:
        MOVX      A,@DPTR
        XRL       A,#0x2
        JNZ       ??APSME_TCLinkKeySync_12
// 3099         { 
// 3100           //If default was found, then it is joining as FN, then try distributed key as well
// 3101           si->distributedKeyTry = TRUE;
??APSME_TCLinkKeySync_11:
        MOV       DPL,R2
        MOV       DPH,R3
        MOV       A,#0x1
        MOVX      @DPTR,A
// 3102         }
// 3103         si->keyNvId = ZCD_NV_TCLK_DEFAULT;
??APSME_TCLinkKeySync_12:
        MOV       DPL,?V2
        MOV       DPH,?V3
        MOV       A,#0x3
        MOVX      @DPTR,A
        INC       DPTR
        MOV       A,#0x1
        LJMP      ??APSME_TCLinkKeySync_13 & 0xFFFF
// 3104       break;
// 3105       case ZG_PROVISIONAL_KEY:
// 3106         si->keyNvId = ZCD_NV_TCLK_IC_TABLE_START + TCLKDevEntry.SeedShift_IcIndex;
??APSME_TCLinkKeySync_4:
        MOV       A,#0x1b
        LCALL     ?XSTACK_DISP0_8
        LCALL     ?Subroutine34 & 0xFFFF
??CrossCallReturnLabel_35:
        MOV       DPL,?V2
        MOV       DPH,?V3
        LCALL     ??Subroutine59_0 & 0xFFFF
// 3107         //Attempt to use default keys (centralized and distributed) if IC fails?
// 3108         si->distributedKeyTry = gZDSECMGR_TC_ATTEMPT_DEFAULT_KEY;
??CrossCallReturnLabel_115:
        MOV       DPTR,#gZDSECMGR_TC_ATTEMPT_DEFAULT_KEY
        MOVX      A,@DPTR
        MOV       DPL,R2
        MOV       DPH,R3
        MOVX      @DPTR,A
// 3109         si->defaultKeyTry = gZDSECMGR_TC_ATTEMPT_DEFAULT_KEY;
        MOV       DPTR,#gZDSECMGR_TC_ATTEMPT_DEFAULT_KEY
        MOVX      A,@DPTR
        PUSH      A
          CFI CFA_SP SP+-1
        MOV       A,R6
        ADD       A,#0x21
        MOV       DPL,A
        CLR       A
        ADDC      A,R7
        MOV       DPH,A
        POP       A
          CFI CFA_SP SP+0
        SJMP      ??APSME_TCLinkKeySync_13
// 3110       break;
// 3111       case ZG_VERIFIED_KEY:
// 3112       case ZG_NON_R21_NWK_JOINED:
// 3113         //Only verify the frame counter for Verified keys, or keys used with non R21 TC
// 3114         tclkRxFrmCntr = &TCLinkKeyFrmCntr[selectedId].rxFrmCntr;
??APSME_TCLinkKeySync_6:
        MOV       A,R0
        MOV       B,#0x9
        MUL       AB
        MOV       R0,A
        MOV       R2,B
        MOV       B,#0x9
        MOV       A,R1
        MUL       AB
        ADD       A,R2
        MOV       R1,A
        MOV       A,#(TCLinkKeyFrmCntr + 107) & 0xff
        ADD       A,R0
        MOV       ?V8,A
        MOV       A,#((TCLinkKeyFrmCntr - 2453) >> 8) & 0xff
        ADDC      A,R1
        MOV       ?V9,A
// 3115 
// 3116         if ( si->frmCntr >= *tclkRxFrmCntr )
        LCALL     ?Subroutine41 & 0xFFFF
??CrossCallReturnLabel_47:
        MOV       R0,#?V4
        LCALL     ?L_MOV_X
        MOV       DPL,?V8
        MOV       DPH,?V9
        MOV       R0,#?V4
        LCALL     ?UL_GE_X
        JNC       ??APSME_TCLinkKeySync_14
// 3117         {
// 3118           // update the rx frame counter
// 3119           *tclkRxFrmCntr = si->frmCntr + 1;
        MOV       DPTR,#__Constant_1
        MOV       R0,#?V4
        LCALL     ?L_ADD_X
        MOV       DPL,?V8
        MOV       DPH,?V9
        MOV       A,?V4
        MOVX      @DPTR,A
        INC       DPTR
        MOV       A,?V5
        MOVX      @DPTR,A
        INC       DPTR
        MOV       A,?V6
        MOVX      @DPTR,A
        INC       DPTR
        MOV       A,?V7
        MOVX      @DPTR,A
// 3120           status = ZSuccess;
// 3121           
// 3122           #if ZG_BUILD_JOINING_TYPE
// 3123           if(ZG_DEVICE_JOINING_TYPE)
        MOV       DPTR,#zgDeviceLogicalType
        MOVX      A,@DPTR
        XRL       A,#0x1
        JZ        ??APSME_TCLinkKeySync_9
        MOVX      A,@DPTR
        XRL       A,#0x2
        JNZ       ??APSME_TCLinkKeySync_15
// 3124           {   
// 3125             si->keyNvId = ZCD_NV_TCLK_JOIN_DEV;
??APSME_TCLinkKeySync_9:
        MOV       DPL,?V2
        MOV       DPH,?V3
        MOV       A,#0x2
        MOVX      @DPTR,A
        INC       DPTR
        DEC       A
??APSME_TCLinkKeySync_13:
        MOVX      @DPTR,A
// 3126             break;
        SJMP      ??APSME_TCLinkKeySync_8
// 3127           }
// 3128           #endif
// 3129           #if ZG_BUILD_COORDINATOR_TYPE
// 3130           if(ZG_DEVICE_COORDINATOR_TYPE)
// 3131           {
// 3132             si->keyNvId = ZCD_NV_TCLK_SEED;
// 3133             si->seedShift = TCLKDevEntry.SeedShift_IcIndex;
// 3134           }
// 3135           #endif
// 3136           osal_memcpy(si->dstExtAddr, TCLKDevEntry.extAddr,Z_EXTADDR_LEN);
??APSME_TCLinkKeySync_15:
        ; Setup parameters for call to function osal_memcpy
        MOV       A,#0x11
        LCALL     ?XSTACK_DISP0_8
        MOV       R1,DPL
        MOV       R2,DPH
        MOV       ?V4,R1
        MOV       ?V5,R2
        MOV       ?V6,#0x0
        MOV       R0,#?V4
        LCALL     ?PUSH_XSTACK_I_THREE
          CFI CFA_XSP16 add(XSP16, 49)
        MOV       R4,#0x8
        MOV       R5,#0x0
        MOV       A,R6
        ADD       A,#0x18
        MOV       R2,A
        CLR       A
        ADDC      A,R7
        MOV       R3,A
        LCALL     `??osal_memcpy::?relay`; Banked call to: osal_memcpy
        MOV       A,#0x3
        LCALL     ?DEALLOC_XSTACK8
          CFI CFA_XSP16 add(XSP16, 46)
        SJMP      ??APSME_TCLinkKeySync_8
// 3137         }
// 3138         else
// 3139         {
// 3140           status = ZSecOldFrmCount;
??APSME_TCLinkKeySync_14:
        MOV       ?V0,#-0x5e
        SJMP      ??APSME_TCLinkKeySync_8
// 3141         }
// 3142       break;
// 3143       default:
// 3144         //This should not happen
// 3145       break;
// 3146     }
// 3147   }
// 3148   else
// 3149   {
// 3150     if (ZG_DEVICE_COORDINATOR_TYPE) 
??APSME_TCLinkKeySync_3:
        MOV       DPTR,#zgDeviceLogicalType
        MOVX      A,@DPTR
        JNZ       ??APSME_TCLinkKeySync_8
// 3151     {    
// 3152       if(bdb_doTrustCenterRequireKeyExchange() == FALSE)
        ; Setup parameters for call to function bdb_doTrustCenterRequireKeyExchange
        LCALL     `??bdb_doTrustCenterRequireKeyExchange::?relay`; Banked call to: bdb_doTrustCenterRequireKeyExchange
        MOV       A,R1
        JNZ       ??APSME_TCLinkKeySync_8
// 3153       {
// 3154         //If the TCLK exchange is not mandated, and the key cannot be found for this device, 
// 3155         //is because we have erased the entry. Try with default key.
// 3156         si->keyNvId = ZCD_NV_TCLK_DEFAULT;
        MOV       DPL,?V2
        MOV       DPH,?V3
        MOV       A,#0x3
        MOVX      @DPTR,A
        INC       DPTR
        MOV       A,#0x1
        MOVX      @DPTR,A
// 3157         status = ZSuccess;
        MOV       ?V0,#0x0
// 3158       }
// 3159     }
// 3160   }
// 3161   
// 3162   
// 3163   return status;
??APSME_TCLinkKeySync_8:
        MOV       R1,?V0
        MOV       A,#0x1c
        LJMP      ?Subroutine5 & 0xFFFF
// 3164 }
          CFI EndBlock cfiBlock394
// 3165 
// 3166 /******************************************************************************
// 3167  * @fn          APSME_TCLinkKeyLoad
// 3168  *
// 3169  * @brief       Load Trust Center LINK key data.
// 3170  *
// 3171  * @param       dstAddr - [in] dstAddr
// 3172  * @param       si      - [in, out] SSP_Info_t
// 3173  *
// 3174  * @return      ZStatus_t
// 3175  */

        RSEG BANKED_CODE:HUGECODE:NOROOT(0)
// 3176 ZStatus_t APSME_TCLinkKeyLoad( uint16 dstAddr, SSP_Info_t* si )
APSME_TCLinkKeyLoad:
          CFI Block cfiBlock395 Using cfiCommon0
          CFI Function APSME_TCLinkKeyLoad
        CODE
// 3177 {
        FUNCALL APSME_TCLinkKeyLoad, AddrMgrExtAddrValid
        LOCFRAME ISTACK, 0, STACK
        LOCFRAME PSTACK, 0, STACK
        LOCFRAME XSTACK, 51, STACK
        LOCFRAME IOVERLAY, 0, STATIC
        LOCFRAME DOVERLAY, 0, STATIC
        ARGFRAME ISTACK, 0, STACK
        ARGFRAME PSTACK, 0, STACK
        ARGFRAME XSTACK, 51, STACK
        ARGFRAME IOVERLAY, 0, STATIC
        ARGFRAME DOVERLAY, 0, STATIC
        FUNCALL APSME_TCLinkKeyLoad, APSME_SearchTCLinkKeyEntry
        LOCFRAME ISTACK, 0, STACK
        LOCFRAME PSTACK, 0, STACK
        LOCFRAME XSTACK, 53, STACK
        LOCFRAME IOVERLAY, 0, STATIC
        LOCFRAME DOVERLAY, 0, STATIC
        ARGFRAME ISTACK, 0, STACK
        ARGFRAME PSTACK, 0, STACK
        ARGFRAME XSTACK, 53, STACK
        ARGFRAME IOVERLAY, 0, STATIC
        ARGFRAME DOVERLAY, 0, STATIC
        FUNCALL APSME_TCLinkKeyLoad, osal_memcpy
        LOCFRAME ISTACK, 0, STACK
        LOCFRAME PSTACK, 0, STACK
        LOCFRAME XSTACK, 54, STACK
        LOCFRAME IOVERLAY, 0, STATIC
        LOCFRAME DOVERLAY, 0, STATIC
        ARGFRAME ISTACK, 0, STACK
        ARGFRAME PSTACK, 0, STACK
        ARGFRAME XSTACK, 54, STACK
        ARGFRAME IOVERLAY, 0, STATIC
        ARGFRAME DOVERLAY, 0, STATIC
        FUNCALL APSME_TCLinkKeyLoad, osal_memcpy
        LOCFRAME ISTACK, 0, STACK
        LOCFRAME PSTACK, 0, STACK
        LOCFRAME XSTACK, 54, STACK
        LOCFRAME IOVERLAY, 0, STATIC
        LOCFRAME DOVERLAY, 0, STATIC
        ARGFRAME ISTACK, 0, STACK
        ARGFRAME PSTACK, 0, STACK
        ARGFRAME XSTACK, 54, STACK
        ARGFRAME IOVERLAY, 0, STATIC
        ARGFRAME DOVERLAY, 0, STATIC
        FUNCALL APSME_TCLinkKeyLoad, osal_rand
        LOCFRAME ISTACK, 0, STACK
        LOCFRAME PSTACK, 0, STACK
        LOCFRAME XSTACK, 51, STACK
        LOCFRAME IOVERLAY, 0, STATIC
        LOCFRAME DOVERLAY, 0, STATIC
        ARGFRAME ISTACK, 0, STACK
        ARGFRAME PSTACK, 0, STACK
        ARGFRAME XSTACK, 51, STACK
        ARGFRAME IOVERLAY, 0, STATIC
        ARGFRAME DOVERLAY, 0, STATIC
        FUNCALL APSME_TCLinkKeyLoad, osal_nv_write
        LOCFRAME ISTACK, 0, STACK
        LOCFRAME PSTACK, 0, STACK
        LOCFRAME XSTACK, 55, STACK
        LOCFRAME IOVERLAY, 0, STATIC
        LOCFRAME DOVERLAY, 0, STATIC
        ARGFRAME ISTACK, 0, STACK
        ARGFRAME PSTACK, 0, STACK
        ARGFRAME XSTACK, 55, STACK
        ARGFRAME IOVERLAY, 0, STATIC
        ARGFRAME DOVERLAY, 0, STATIC
        FUNCALL APSME_TCLinkKeyLoad, osal_memset
        LOCFRAME ISTACK, 0, STACK
        LOCFRAME PSTACK, 0, STACK
        LOCFRAME XSTACK, 51, STACK
        LOCFRAME IOVERLAY, 0, STATIC
        LOCFRAME DOVERLAY, 0, STATIC
        ARGFRAME ISTACK, 0, STACK
        ARGFRAME PSTACK, 0, STACK
        ARGFRAME XSTACK, 51, STACK
        ARGFRAME IOVERLAY, 0, STATIC
        ARGFRAME DOVERLAY, 0, STATIC
        FUNCALL APSME_TCLinkKeyLoad, AddrMgrEntryLookupNwk
        LOCFRAME ISTACK, 0, STACK
        LOCFRAME PSTACK, 0, STACK
        LOCFRAME XSTACK, 51, STACK
        LOCFRAME IOVERLAY, 0, STATIC
        LOCFRAME DOVERLAY, 0, STATIC
        ARGFRAME ISTACK, 0, STACK
        ARGFRAME PSTACK, 0, STACK
        ARGFRAME XSTACK, 51, STACK
        ARGFRAME IOVERLAY, 0, STATIC
        ARGFRAME DOVERLAY, 0, STATIC
        FUNCALL APSME_TCLinkKeyLoad, AddrMgrEntryRelease
        LOCFRAME ISTACK, 0, STACK
        LOCFRAME PSTACK, 0, STACK
        LOCFRAME XSTACK, 51, STACK
        LOCFRAME IOVERLAY, 0, STATIC
        LOCFRAME DOVERLAY, 0, STATIC
        ARGFRAME ISTACK, 0, STACK
        ARGFRAME PSTACK, 0, STACK
        ARGFRAME XSTACK, 51, STACK
        ARGFRAME IOVERLAY, 0, STATIC
        ARGFRAME DOVERLAY, 0, STATIC
        REQUIRE ?V0
        REQUIRE ?V1
        REQUIRE ?V2
        REQUIRE ?V3
        REQUIRE ?V4
        REQUIRE ?V5
        REQUIRE ?V6
        REQUIRE ?V8
        REQUIRE ?V9
        MOV       A,#-0x12
        LCALL     ?BANKED_ENTER_XDATA
          CFI DPH0 load(1, XDATA, add(CFA_XSP16, literal(-1)))
          CFI DPL0 load(1, XDATA, add(CFA_XSP16, literal(-2)))
          CFI ?BRET_EXT load(1, XDATA, add(CFA_XSP16, literal(-3)))
          CFI ?RET_HIGH load(1, XDATA, add(CFA_XSP16, literal(-4)))
          CFI ?RET_LOW load(1, XDATA, add(CFA_XSP16, literal(-5)))
          CFI R7 load(1, XDATA, add(CFA_XSP16, literal(-6)))
          CFI V9 load(1, XDATA, add(CFA_XSP16, literal(-7)))
          CFI V8 load(1, XDATA, add(CFA_XSP16, literal(-8)))
          CFI V7 load(1, XDATA, add(CFA_XSP16, literal(-9)))
          CFI V6 load(1, XDATA, add(CFA_XSP16, literal(-10)))
          CFI V5 load(1, XDATA, add(CFA_XSP16, literal(-11)))
          CFI V4 load(1, XDATA, add(CFA_XSP16, literal(-12)))
          CFI V3 load(1, XDATA, add(CFA_XSP16, literal(-13)))
          CFI V2 load(1, XDATA, add(CFA_XSP16, literal(-14)))
          CFI V1 load(1, XDATA, add(CFA_XSP16, literal(-15)))
          CFI V0 load(1, XDATA, add(CFA_XSP16, literal(-16)))
          CFI VB load(1, XDATA, add(CFA_XSP16, literal(-17)))
          CFI R6 load(1, XDATA, add(CFA_XSP16, literal(-18)))
          CFI CFA_SP SP+0
          CFI CFA_XSP16 add(XSP16, 18)
        ; Saved register size: 18
        ; Auto size: 33
        MOV       A,#-0x21
        LCALL     ?ALLOC_XSTACK8
          CFI CFA_XSP16 add(XSP16, 51)
        MOV       A,R4
        MOV       R6,A
        MOV       A,R5
        MOV       R7,A
// 3178   APSME_TCLKDevEntry_t TCLKDevEntry;
// 3179   AddrMgrEntry_t       addrEntry;
// 3180   ZStatus_t            status = ZSecNoKey;
        MOV       ?V0,#-0x5f
// 3181   uint16               entryIndex;
// 3182   uint8                extAddrFound;
// 3183   uint8                found;
// 3184 
// 3185   
// 3186   // Look up the ami of the srcAddr if available
// 3187   addrEntry.user    = ADDRMGR_USER_DEFAULT;
        MOV       A,#0x14
        LCALL     ?XSTACK_DISP0_8
        CLR       A
        MOVX      @DPTR,A
// 3188   addrEntry.nwkAddr = dstAddr;
        MOV       A,#0x15
        LCALL     ?XSTACK_DISP0_8
        MOV       A,R2
        MOVX      @DPTR,A
        INC       DPTR
        MOV       A,R3
        MOVX      @DPTR,A
// 3189 
// 3190   extAddrFound = AddrMgrExtAddrValid( si->extAddr );
// 3191   
// 3192   if(extAddrFound)
        MOV       A,R6
        ADD       A,#0x6
        MOV       ?V4,A
        CLR       A
        ADDC      A,R7
        MOV       ?V5,A
        ; Setup parameters for call to function AddrMgrExtAddrValid
        MOV       R2,?V4
        MOV       R3,A
        LCALL     `??AddrMgrExtAddrValid::?relay`; Banked call to: AddrMgrExtAddrValid
        MOV       A,R1
        JNZ       $+5
        LJMP      ??APSME_TCLinkKeyLoad_0 & 0xFFFF
// 3193   {
// 3194     entryIndex = APSME_SearchTCLinkKeyEntry(si->extAddr,&found,&TCLKDevEntry);
        ; Setup parameters for call to function APSME_SearchTCLinkKeyEntry
        MOV       A,#0x1
        LCALL     ?XSTACK_DISP100_8
        MOV       ?V0,R0
        MOV       ?V1,R1
        MOV       R0,#?V0
        LCALL     ?PUSH_XSTACK_I_TWO
          CFI CFA_XSP16 add(XSP16, 53)
        MOV       A,#0x2
        LCALL     ?XSTACK_DISP102_8
        MOV       R2,?V4
        MOV       R3,?V5
        LCALL     `??APSME_SearchTCLinkKeyEntry::?relay`; Banked call to: APSME_SearchTCLinkKeyEntry
        MOV       A,#0x2
        LCALL     ?DEALLOC_XSTACK8
          CFI CFA_XSP16 add(XSP16, 51)
        MOV       ?V2,R2
        MOV       ?V3,R3
// 3195     if(entryIndex != 0xFFFF)
        MOV       A,R6
        ADD       A,#0xf
        MOV       ?V0,A
        CLR       A
        ADDC      A,R7
        MOV       ?V1,A
        MOV       A,#-0x1
        XRL       A,?V2
        JNZ       ??APSME_TCLinkKeyLoad_1
        MOV       A,#-0x1
        XRL       A,?V3
??APSME_TCLinkKeyLoad_1:
        JNZ       $+5
        LJMP      ??APSME_TCLinkKeyLoad_2 & 0xFFFF
// 3196     {
// 3197       uint16 i = entryIndex - ZCD_NV_TCLK_TABLE_START;
        LCALL     ?Subroutine39 & 0xFFFF
// 3198       
// 3199       if(found)
??CrossCallReturnLabel_44:
        MOV       R2,B
        MOV       B,#0x9
        MOV       A,R1
        MUL       AB
        ADD       A,R2
        MOV       R1,A
        MOV       A,#TCLinkKeyFrmCntr & 0xff
        ADD       A,R0
        MOV       ?V8,A
        MOV       A,#(TCLinkKeyFrmCntr >> 8) & 0xff
        ADDC      A,R1
        MOV       ?V9,A
        MOV       DPL,?XSP + 0
        MOV       DPH,?XSP + 1
        MOVX      A,@DPTR
        JNZ       $+5
        LJMP      ??APSME_TCLinkKeyLoad_3 & 0xFFFF
// 3200       {
// 3201         switch(TCLKDevEntry.keyAttributes)
        MOV       A,#0x11
        LCALL     ?XSTACK_DISP0_8
        MOVX      A,@DPTR
        JZ        ??APSME_TCLinkKeyLoad_4
        DEC       A
        JZ        ??APSME_TCLinkKeyLoad_5
        DEC       A
        JZ        ??APSME_TCLinkKeyLoad_6
        ADD       A,#0x5
        JZ        ??APSME_TCLinkKeyLoad_7
        ADD       A,#-0x2
        JZ        ??APSME_TCLinkKeyLoad_7
        LJMP      ??APSME_TCLinkKeyLoad_8 & 0xFFFF
// 3202         {
// 3203           case ZG_UNVERIFIED_KEY:
// 3204             #if ZG_BUILD_JOINING_TYPE
// 3205             if(ZG_DEVICE_JOINING_TYPE)
??APSME_TCLinkKeyLoad_5:
        MOV       DPTR,#zgDeviceLogicalType
        MOVX      A,@DPTR
        XRL       A,#0x1
        JZ        ??APSME_TCLinkKeyLoad_9
        MOVX      A,@DPTR
        XRL       A,#0x2
        JZ        ??APSME_TCLinkKeyLoad_9
// 3206             {   
// 3207               si->keyNvId = ZCD_NV_TCLK_JOIN_DEV;
// 3208               break;
// 3209             }
// 3210             #endif
// 3211           case ZG_DEFAULT_KEY:
// 3212           case ZG_NON_R21_NWK_JOINED:
// 3213             si->keyNvId = ZCD_NV_TCLK_DEFAULT;
??APSME_TCLinkKeyLoad_7:
        LJMP      ??APSME_TCLinkKeyLoad_10 & 0xFFFF
// 3214           break;
// 3215           case ZG_PROVISIONAL_KEY:
// 3216             si->keyNvId = ZCD_NV_TCLK_IC_TABLE_START + TCLKDevEntry.SeedShift_IcIndex;
??APSME_TCLinkKeyLoad_4:
        MOV       A,#0x13
        LCALL     ?XSTACK_DISP0_8
        LCALL     ?Subroutine34 & 0xFFFF
??CrossCallReturnLabel_36:
        MOV       DPL,?V0
        MOV       DPH,?V1
        MOV       A,R0
        MOVX      @DPTR,A
        INC       DPTR
        MOV       A,R1
        LJMP      ??APSME_TCLinkKeyLoad_11 & 0xFFFF
// 3217           break;
// 3218           case ZG_VERIFIED_KEY:
// 3219             #if ZG_BUILD_JOINING_TYPE
// 3220             if(ZG_DEVICE_JOINING_TYPE)
??APSME_TCLinkKeyLoad_6:
        MOV       DPTR,#zgDeviceLogicalType
        MOVX      A,@DPTR
        XRL       A,#0x1
        JZ        ??APSME_TCLinkKeyLoad_9
        MOVX      A,@DPTR
        XRL       A,#0x2
        JNZ       ??APSME_TCLinkKeyLoad_12
// 3221             {   
// 3222               si->keyNvId = ZCD_NV_TCLK_JOIN_DEV;
??APSME_TCLinkKeyLoad_9:
        MOV       DPL,?V0
        MOV       DPH,?V1
        MOV       A,#0x2
        MOVX      @DPTR,A
        INC       DPTR
        DEC       A
        LJMP      ??APSME_TCLinkKeyLoad_11 & 0xFFFF
// 3223               break;
// 3224             }
// 3225             #endif
// 3226             #if ZG_BUILD_COORDINATOR_TYPE
// 3227             if(ZG_DEVICE_COORDINATOR_TYPE)
// 3228             {
// 3229               si->keyNvId = ZCD_NV_TCLK_SEED;
// 3230               si->seedShift = TCLKDevEntry.SeedShift_IcIndex;
// 3231             }
// 3232             #endif
// 3233             osal_memcpy(si->dstExtAddr, TCLKDevEntry.extAddr,Z_EXTADDR_LEN);
??APSME_TCLinkKeyLoad_12:
        ; Setup parameters for call to function osal_memcpy
        MOV       A,#0x9
        LCALL     ?XSTACK_DISP0_8
        MOV       R1,DPL
        MOV       R2,DPH
        MOV       ?V0,R1
        MOV       ?V1,R2
        MOV       ?V2,#0x0
        MOV       R0,#?V0
        LCALL     ?PUSH_XSTACK_I_THREE
          CFI CFA_XSP16 add(XSP16, 54)
        MOV       R4,#0x8
        MOV       R5,#0x0
        MOV       A,R6
        ADD       A,#0x18
        MOV       R2,A
        CLR       A
        ADDC      A,R7
        MOV       R3,A
        LCALL     `??osal_memcpy::?relay`; Banked call to: osal_memcpy
        MOV       A,#0x3
        LCALL     ?DEALLOC_XSTACK8
          CFI CFA_XSP16 add(XSP16, 51)
// 3234           break;
        LJMP      ??APSME_TCLinkKeyLoad_8 & 0xFFFF
// 3235           default:
// 3236             //This should not happen
// 3237           break;
// 3238         }
// 3239       }
// 3240       //Not found, then create an entry for it. Adding the device to the TCLKDev Entries for first time
// 3241       else
// 3242       {
// 3243         //Initialize the entry
// 3244         osal_memcpy(TCLKDevEntry.extAddr, si->extAddr, Z_EXTADDR_LEN);
??APSME_TCLinkKeyLoad_3:
        ; Setup parameters for call to function osal_memcpy
        MOV       ?V6,#0x0
        MOV       R0,#?V4
        LCALL     ?PUSH_XSTACK_I_THREE
          CFI CFA_XSP16 add(XSP16, 54)
        MOV       R4,#0x8
        MOV       R5,#0x0
        MOV       A,#0xc
        LCALL     ?XSTACK_DISP0_8
        MOV       R2,DPL
        MOV       R3,DPH
        LCALL     `??osal_memcpy::?relay`; Banked call to: osal_memcpy
        MOV       A,#0x3
        LCALL     ?DEALLOC_XSTACK8
          CFI CFA_XSP16 add(XSP16, 51)
// 3245         TCLKDevEntry.keyAttributes = ZG_DEFAULT_KEY;
        MOV       A,#0x11
        LCALL     ?XSTACK_DISP0_8
        MOV       A,#-0x1
        MOVX      @DPTR,A
// 3246         TCLKDevEntry.keyType = ZG_GLOBAL_LINK_KEY;
        MOV       A,#0x12
        LCALL     ?XSTACK_DISP0_8
        MOV       A,#0x1
        MOVX      @DPTR,A
// 3247         //Create the entry with a random shift of the seed. Validate the maximum shift of the seed which is 15
// 3248         TCLKDevEntry.SeedShift_IcIndex = osal_rand() & 0x000F;
        ; Setup parameters for call to function osal_rand
        LCALL     `??osal_rand::?relay`; Banked call to: osal_rand
        MOV       A,R2
        ANL       A,#0xf
        PUSH      A
          CFI CFA_SP SP+-1
        MOV       A,#0x13
        LCALL     ?XSTACK_DISP0_8
        POP       A
          CFI CFA_SP SP+0
        MOVX      @DPTR,A
// 3249         TCLKDevEntry.txFrmCntr = 0;
        MOV       A,#0x1
        LCALL     ?XSTACK_DISP0_8
        LCALL     ??Subroutine73_0 & 0xFFFF
// 3250         TCLKDevEntry.rxFrmCntr = 0;
??CrossCallReturnLabel_165:
        MOV       A,#0x5
        LCALL     ?XSTACK_DISP0_8
        LCALL     ?Subroutine14 & 0xFFFF
// 3251         //save entry in nv
// 3252         osal_nv_write(entryIndex,0,sizeof(APSME_TCLKDevEntry_t),&TCLKDevEntry);
??CrossCallReturnLabel_4:
        LCALL     ?XSTACK_DISP100_8
        MOV       ?V4,R0
        MOV       ?V5,R1
        MOV       R0,#?V4
        LCALL     ?PUSH_XSTACK_I_TWO
          CFI CFA_XSP16 add(XSP16, 53)
        MOV       ?V4,#0x13
        MOV       ?V5,#0x0
        MOV       R0,#?V4
        LCALL     ?PUSH_XSTACK_I_TWO
          CFI CFA_XSP16 add(XSP16, 55)
        MOV       R4,#0x0
        MOV       R5,#0x0
        MOV       R2,?V2
        MOV       R3,?V3
        LCALL     `??osal_nv_write::?relay`; Banked call to: osal_nv_write
        MOV       A,#0x4
        LCALL     ?DEALLOC_XSTACK8
          CFI CFA_XSP16 add(XSP16, 51)
// 3253         //Initialize framecounter
// 3254         osal_memset(&TCLinkKeyFrmCntr[i],0,sizeof(APSME_TCLinkKeyFrmCntr_t));
        ; Setup parameters for call to function osal_memset
        MOV       R4,#0x9
        MOV       R5,#0x0
        MOV       R1,#0x0
        MOV       R2,?V8
        MOV       R3,?V9
        LCALL     `??osal_memset::?relay`; Banked call to: osal_memset
// 3255         // set the keyNvId to use
// 3256         si->keyNvId = ZCD_NV_TCLK_DEFAULT;
??APSME_TCLinkKeyLoad_10:
        MOV       DPL,?V0
        MOV       DPH,?V1
        MOV       A,#0x3
        MOVX      @DPTR,A
        INC       DPTR
        MOV       A,#0x1
??APSME_TCLinkKeyLoad_11:
        MOVX      @DPTR,A
// 3257       }
// 3258 
// 3259       // update link key related fields
// 3260       si->keyID   = SEC_KEYID_LINK;
??APSME_TCLinkKeyLoad_8:
        MOV       A,R6
        ADD       A,#0xe
        MOV       DPL,A
        CLR       A
        ADDC      A,R7
        MOV       DPH,A
        CLR       A
        MOVX      @DPTR,A
// 3261       si->frmCntr = TCLinkKeyFrmCntr[i].txFrmCntr;
        MOV       DPL,?V8
        MOV       DPH,?V9
        LCALL     ?XLOAD_R0123
        LCALL     ?Subroutine41 & 0xFFFF
??CrossCallReturnLabel_48:
        LCALL     ?XSTORE_R0123
// 3262 
// 3263       // update outgoing frame counter
// 3264       TCLinkKeyFrmCntr[i].txFrmCntr++;
        MOV       DPTR,#__Constant_1
        MOV       R0,#?V0
        LCALL     ?L_MOV_X
        MOV       DPL,?V8
        MOV       DPH,?V9
        MOV       R0,#?V0
        LCALL     ?L_ADD_TO_X
        SJMP      ??APSME_TCLinkKeyLoad_13
// 3265 
// 3266   #if defined ( NV_RESTORE )
// 3267       // write periodically to NV
// 3268       if ( !(TCLinkKeyFrmCntr[i].txFrmCntr % MAX_TCLK_FRAMECOUNTER_CHANGES) )
// 3269       {
// 3270         // set the flag to write key to NV
// 3271         TCLinkKeyFrmCntr[i].pendingFlag = TRUE;
// 3272 
// 3273         // Notify the ZDApp that the frame counter has changed.
// 3274         osal_set_event( ZDAppTaskID, ZDO_TCLK_FRAMECOUNTER_CHANGE );
// 3275       }
// 3276   #endif
// 3277     }  
// 3278     else
// 3279     {
// 3280       //If no more TCLK entries, try global so we can try to add legacy devices
// 3281       si->keyNvId = ZCD_NV_TCLK_DEFAULT;
??APSME_TCLinkKeyLoad_2:
        MOV       DPL,?V0
        MOV       DPH,?V1
        MOV       A,#0x3
        MOVX      @DPTR,A
        INC       DPTR
        MOV       A,#0x1
        MOVX      @DPTR,A
// 3282     }
// 3283     status = ZSuccess;
??APSME_TCLinkKeyLoad_13:
        MOV       ?V0,#0x0
        SJMP      ??APSME_TCLinkKeyLoad_14
??APSME_TCLinkKeyLoad_0:
        ; Setup parameters for call to function AddrMgrEntryLookupNwk
// 3284   }
        MOV       A,#0x14
        LCALL     ?XSTACK_DISP101_8
        LCALL     `??AddrMgrEntryLookupNwk::?relay`; Banked call to: AddrMgrEntryLookupNwk
        MOV       A,R1
        XRL       A,#0x1
        JNZ       ??APSME_TCLinkKeyLoad_14
// 3285   
// 3286   // If no TC link key found, remove the device from the address manager
// 3287   if ( (status != ZSuccess) && (AddrMgrEntryLookupNwk(&addrEntry) == TRUE) )
// 3288   {
// 3289     AddrMgrEntryRelease( &addrEntry );
        ; Setup parameters for call to function AddrMgrEntryRelease
        MOV       A,#0x14
        LCALL     ?XSTACK_DISP101_8
        LCALL     `??AddrMgrEntryRelease::?relay`; Banked call to: AddrMgrEntryRelease
// 3290   }
// 3291 
// 3292   return status;
??APSME_TCLinkKeyLoad_14:
        MOV       R1,?V0
        MOV       A,#0x21
          CFI EndBlock cfiBlock395
        REQUIRE ?Subroutine5
        ; // Fall through to label ?Subroutine5
// 3293 }

        RSEG BANKED_CODE:HUGECODE:NOROOT(0)
?Subroutine5:
          CFI Block cfiBlock396 Using cfiCommon0
          CFI NoFunction
          CFI CFA_SP SP+0
          CFI CFA_XSP16 add(XSP16, 34)
          CFI VB load(1, XDATA, add(CFA_XSP16, literal(-17)))
          CFI DPL0 load(1, XDATA, add(CFA_XSP16, literal(-2)))
          CFI DPH0 load(1, XDATA, add(CFA_XSP16, literal(-1)))
          CFI R6 load(1, XDATA, add(CFA_XSP16, literal(-18)))
          CFI R7 load(1, XDATA, add(CFA_XSP16, literal(-6)))
          CFI V0 load(1, XDATA, add(CFA_XSP16, literal(-16)))
          CFI V1 load(1, XDATA, add(CFA_XSP16, literal(-15)))
          CFI V2 load(1, XDATA, add(CFA_XSP16, literal(-14)))
          CFI V3 load(1, XDATA, add(CFA_XSP16, literal(-13)))
          CFI V4 load(1, XDATA, add(CFA_XSP16, literal(-12)))
          CFI V5 load(1, XDATA, add(CFA_XSP16, literal(-11)))
          CFI V6 load(1, XDATA, add(CFA_XSP16, literal(-10)))
          CFI V7 load(1, XDATA, add(CFA_XSP16, literal(-9)))
          CFI V8 load(1, XDATA, add(CFA_XSP16, literal(-8)))
          CFI V9 load(1, XDATA, add(CFA_XSP16, literal(-7)))
          CFI ?BRET_EXT load(1, XDATA, add(CFA_XSP16, literal(-3)))
          CFI ?RET_HIGH load(1, XDATA, add(CFA_XSP16, literal(-4)))
          CFI ?RET_LOW load(1, XDATA, add(CFA_XSP16, literal(-5)))
          CFI Invalid
        LCALL     ?DEALLOC_XSTACK8
          CFI EndBlock cfiBlock396
        REQUIRE ??Subroutine75_0
        ; // Fall through to label ??Subroutine75_0

        RSEG BANKED_CODE:HUGECODE:NOROOT(0)
??Subroutine75_0:
          CFI Block cfiBlock397 Using cfiCommon0
          CFI NoFunction
          CFI CFA_SP SP+0
          CFI CFA_XSP16 add(XSP16, 18)
          CFI VB load(1, XDATA, add(CFA_XSP16, literal(-17)))
          CFI DPL0 load(1, XDATA, add(CFA_XSP16, literal(-2)))
          CFI DPH0 load(1, XDATA, add(CFA_XSP16, literal(-1)))
          CFI R6 load(1, XDATA, add(CFA_XSP16, literal(-18)))
          CFI R7 load(1, XDATA, add(CFA_XSP16, literal(-6)))
          CFI V0 load(1, XDATA, add(CFA_XSP16, literal(-16)))
          CFI V1 load(1, XDATA, add(CFA_XSP16, literal(-15)))
          CFI V2 load(1, XDATA, add(CFA_XSP16, literal(-14)))
          CFI V3 load(1, XDATA, add(CFA_XSP16, literal(-13)))
          CFI V4 load(1, XDATA, add(CFA_XSP16, literal(-12)))
          CFI V5 load(1, XDATA, add(CFA_XSP16, literal(-11)))
          CFI V6 load(1, XDATA, add(CFA_XSP16, literal(-10)))
          CFI V7 load(1, XDATA, add(CFA_XSP16, literal(-9)))
          CFI V8 load(1, XDATA, add(CFA_XSP16, literal(-8)))
          CFI V9 load(1, XDATA, add(CFA_XSP16, literal(-7)))
          CFI ?BRET_EXT load(1, XDATA, add(CFA_XSP16, literal(-3)))
          CFI ?RET_HIGH load(1, XDATA, add(CFA_XSP16, literal(-4)))
          CFI ?RET_LOW load(1, XDATA, add(CFA_XSP16, literal(-5)))
        MOV       R7,#0xa
        LJMP      ?BANKED_LEAVE_XDATA
          CFI EndBlock cfiBlock397

        RSEG BANKED_CODE:HUGECODE:NOROOT(0)
?Subroutine41:
          CFI Block cfiCond398 Using cfiCommon0
          CFI Function APSME_TCLinkKeySync
          CFI Conditional ??CrossCallReturnLabel_47
          CFI R6 load(1, XDATA, add(CFA_XSP16, literal(-18)))
          CFI VB load(1, XDATA, add(CFA_XSP16, literal(-17)))
          CFI V0 load(1, XDATA, add(CFA_XSP16, literal(-16)))
          CFI V1 load(1, XDATA, add(CFA_XSP16, literal(-15)))
          CFI V2 load(1, XDATA, add(CFA_XSP16, literal(-14)))
          CFI V3 load(1, XDATA, add(CFA_XSP16, literal(-13)))
          CFI V4 load(1, XDATA, add(CFA_XSP16, literal(-12)))
          CFI V5 load(1, XDATA, add(CFA_XSP16, literal(-11)))
          CFI V6 load(1, XDATA, add(CFA_XSP16, literal(-10)))
          CFI V7 load(1, XDATA, add(CFA_XSP16, literal(-9)))
          CFI V8 load(1, XDATA, add(CFA_XSP16, literal(-8)))
          CFI V9 load(1, XDATA, add(CFA_XSP16, literal(-7)))
          CFI R7 load(1, XDATA, add(CFA_XSP16, literal(-6)))
          CFI ?RET_LOW load(1, XDATA, add(CFA_XSP16, literal(-5)))
          CFI ?RET_HIGH load(1, XDATA, add(CFA_XSP16, literal(-4)))
          CFI ?BRET_EXT load(1, XDATA, add(CFA_XSP16, literal(-3)))
          CFI DPL0 load(1, XDATA, add(CFA_XSP16, literal(-2)))
          CFI DPH0 load(1, XDATA, add(CFA_XSP16, literal(-1)))
          CFI CFA_SP SP+-2
          CFI CFA_XSP16 add(XSP16, 46)
          CFI Block cfiCond399 Using cfiCommon0
          CFI (cfiCond399) Function APSME_TCLinkKeyLoad
          CFI (cfiCond399) Conditional ??CrossCallReturnLabel_48
          CFI (cfiCond399) R6 load(1, XDATA, add(CFA_XSP16, literal(-18)))
          CFI (cfiCond399) VB load(1, XDATA, add(CFA_XSP16, literal(-17)))
          CFI (cfiCond399) V0 load(1, XDATA, add(CFA_XSP16, literal(-16)))
          CFI (cfiCond399) V1 load(1, XDATA, add(CFA_XSP16, literal(-15)))
          CFI (cfiCond399) V2 load(1, XDATA, add(CFA_XSP16, literal(-14)))
          CFI (cfiCond399) V3 load(1, XDATA, add(CFA_XSP16, literal(-13)))
          CFI (cfiCond399) V4 load(1, XDATA, add(CFA_XSP16, literal(-12)))
          CFI (cfiCond399) V5 load(1, XDATA, add(CFA_XSP16, literal(-11)))
          CFI (cfiCond399) V6 load(1, XDATA, add(CFA_XSP16, literal(-10)))
          CFI (cfiCond399) V7 load(1, XDATA, add(CFA_XSP16, literal(-9)))
          CFI (cfiCond399) V8 load(1, XDATA, add(CFA_XSP16, literal(-8)))
          CFI (cfiCond399) V9 load(1, XDATA, add(CFA_XSP16, literal(-7)))
          CFI (cfiCond399) R7 load(1, XDATA, add(CFA_XSP16, literal(-6)))
          CFI (cfiCond399) ?RET_LOW load(1, XDATA, add(CFA_XSP16, literal(-5)))
          CFI (cfiCond399) ?RET_HIGH load(1, XDATA, add(CFA_XSP16, literal(-4)))
          CFI (cfiCond399) ?BRET_EXT load(1, XDATA, add(CFA_XSP16, literal(-3)))
          CFI (cfiCond399) DPL0 load(1, XDATA, add(CFA_XSP16, literal(-2)))
          CFI (cfiCond399) DPH0 load(1, XDATA, add(CFA_XSP16, literal(-1)))
          CFI (cfiCond399) CFA_SP SP+-2
          CFI (cfiCond399) CFA_XSP16 add(XSP16, 51)
          CFI Block cfiPicker400 Using cfiCommon1
          CFI (cfiPicker400) NoFunction
          CFI (cfiPicker400) Picker
        MOV       A,R6
        ADD       A,#0x12
        MOV       DPL,A
        CLR       A
        ADDC      A,R7
        MOV       DPH,A
        RET
          CFI EndBlock cfiCond398
          CFI EndBlock cfiCond399
          CFI EndBlock cfiPicker400

        RSEG BANKED_CODE:HUGECODE:NOROOT(0)
?Subroutine39:
          CFI Block cfiCond401 Using cfiCommon0
          CFI Function ZDSecMgrDeviceJoinDirect
          CFI Conditional ??CrossCallReturnLabel_43
          CFI R6 load(1, XDATA, add(CFA_XSP16, literal(-12)))
          CFI VB load(1, XDATA, add(CFA_XSP16, literal(-11)))
          CFI V0 load(1, XDATA, add(CFA_XSP16, literal(-10)))
          CFI V1 load(1, XDATA, add(CFA_XSP16, literal(-9)))
          CFI V2 load(1, XDATA, add(CFA_XSP16, literal(-8)))
          CFI V3 load(1, XDATA, add(CFA_XSP16, literal(-7)))
          CFI R7 load(1, XDATA, add(CFA_XSP16, literal(-6)))
          CFI ?RET_LOW load(1, XDATA, add(CFA_XSP16, literal(-5)))
          CFI ?RET_HIGH load(1, XDATA, add(CFA_XSP16, literal(-4)))
          CFI ?BRET_EXT load(1, XDATA, add(CFA_XSP16, literal(-3)))
          CFI DPL0 load(1, XDATA, add(CFA_XSP16, literal(-2)))
          CFI DPH0 load(1, XDATA, add(CFA_XSP16, literal(-1)))
          CFI CFA_SP SP+-2
          CFI CFA_XSP16 add(XSP16, 32)
          CFI Block cfiCond402 Using cfiCommon0
          CFI (cfiCond402) Function APSME_TCLinkKeyLoad
          CFI (cfiCond402) Conditional ??CrossCallReturnLabel_44
          CFI (cfiCond402) R6 load(1, XDATA, add(CFA_XSP16, literal(-18)))
          CFI (cfiCond402) VB load(1, XDATA, add(CFA_XSP16, literal(-17)))
          CFI (cfiCond402) V0 load(1, XDATA, add(CFA_XSP16, literal(-16)))
          CFI (cfiCond402) V1 load(1, XDATA, add(CFA_XSP16, literal(-15)))
          CFI (cfiCond402) V2 load(1, XDATA, add(CFA_XSP16, literal(-14)))
          CFI (cfiCond402) V3 load(1, XDATA, add(CFA_XSP16, literal(-13)))
          CFI (cfiCond402) V4 load(1, XDATA, add(CFA_XSP16, literal(-12)))
          CFI (cfiCond402) V5 load(1, XDATA, add(CFA_XSP16, literal(-11)))
          CFI (cfiCond402) V6 load(1, XDATA, add(CFA_XSP16, literal(-10)))
          CFI (cfiCond402) V7 load(1, XDATA, add(CFA_XSP16, literal(-9)))
          CFI (cfiCond402) V8 load(1, XDATA, add(CFA_XSP16, literal(-8)))
          CFI (cfiCond402) V9 load(1, XDATA, add(CFA_XSP16, literal(-7)))
          CFI (cfiCond402) R7 load(1, XDATA, add(CFA_XSP16, literal(-6)))
          CFI (cfiCond402) ?RET_LOW load(1, XDATA, add(CFA_XSP16, literal(-5)))
          CFI (cfiCond402) ?RET_HIGH load(1, XDATA, add(CFA_XSP16, literal(-4)))
          CFI (cfiCond402) ?BRET_EXT load(1, XDATA, add(CFA_XSP16, literal(-3)))
          CFI (cfiCond402) DPL0 load(1, XDATA, add(CFA_XSP16, literal(-2)))
          CFI (cfiCond402) DPH0 load(1, XDATA, add(CFA_XSP16, literal(-1)))
          CFI (cfiCond402) CFA_SP SP+-2
          CFI (cfiCond402) CFA_XSP16 add(XSP16, 51)
          CFI Block cfiPicker403 Using cfiCommon1
          CFI (cfiPicker403) NoFunction
          CFI (cfiPicker403) Picker
        MOV       A,R2
        ADD       A,#-0x11
        MOV       R0,A
        MOV       A,R3
        ADDC      A,#-0x2
        MOV       R1,A
        MOV       A,R0
        MOV       B,#0x9
        MUL       AB
        MOV       R0,A
        RET
          CFI EndBlock cfiCond401
          CFI EndBlock cfiCond402
          CFI EndBlock cfiPicker403

        RSEG BANKED_CODE:HUGECODE:NOROOT(0)
?Subroutine34:
          CFI Block cfiCond404 Using cfiCommon0
          CFI Function APSME_TCLinkKeySync
          CFI Conditional ??CrossCallReturnLabel_35
          CFI R6 load(1, XDATA, add(CFA_XSP16, literal(-18)))
          CFI VB load(1, XDATA, add(CFA_XSP16, literal(-17)))
          CFI V0 load(1, XDATA, add(CFA_XSP16, literal(-16)))
          CFI V1 load(1, XDATA, add(CFA_XSP16, literal(-15)))
          CFI V2 load(1, XDATA, add(CFA_XSP16, literal(-14)))
          CFI V3 load(1, XDATA, add(CFA_XSP16, literal(-13)))
          CFI V4 load(1, XDATA, add(CFA_XSP16, literal(-12)))
          CFI V5 load(1, XDATA, add(CFA_XSP16, literal(-11)))
          CFI V6 load(1, XDATA, add(CFA_XSP16, literal(-10)))
          CFI V7 load(1, XDATA, add(CFA_XSP16, literal(-9)))
          CFI V8 load(1, XDATA, add(CFA_XSP16, literal(-8)))
          CFI V9 load(1, XDATA, add(CFA_XSP16, literal(-7)))
          CFI R7 load(1, XDATA, add(CFA_XSP16, literal(-6)))
          CFI ?RET_LOW load(1, XDATA, add(CFA_XSP16, literal(-5)))
          CFI ?RET_HIGH load(1, XDATA, add(CFA_XSP16, literal(-4)))
          CFI ?BRET_EXT load(1, XDATA, add(CFA_XSP16, literal(-3)))
          CFI DPL0 load(1, XDATA, add(CFA_XSP16, literal(-2)))
          CFI DPH0 load(1, XDATA, add(CFA_XSP16, literal(-1)))
          CFI CFA_SP SP+-2
          CFI CFA_XSP16 add(XSP16, 46)
          CFI Block cfiCond405 Using cfiCommon0
          CFI (cfiCond405) Function APSME_TCLinkKeyLoad
          CFI (cfiCond405) Conditional ??CrossCallReturnLabel_36
          CFI (cfiCond405) R6 load(1, XDATA, add(CFA_XSP16, literal(-18)))
          CFI (cfiCond405) VB load(1, XDATA, add(CFA_XSP16, literal(-17)))
          CFI (cfiCond405) V0 load(1, XDATA, add(CFA_XSP16, literal(-16)))
          CFI (cfiCond405) V1 load(1, XDATA, add(CFA_XSP16, literal(-15)))
          CFI (cfiCond405) V2 load(1, XDATA, add(CFA_XSP16, literal(-14)))
          CFI (cfiCond405) V3 load(1, XDATA, add(CFA_XSP16, literal(-13)))
          CFI (cfiCond405) V4 load(1, XDATA, add(CFA_XSP16, literal(-12)))
          CFI (cfiCond405) V5 load(1, XDATA, add(CFA_XSP16, literal(-11)))
          CFI (cfiCond405) V6 load(1, XDATA, add(CFA_XSP16, literal(-10)))
          CFI (cfiCond405) V7 load(1, XDATA, add(CFA_XSP16, literal(-9)))
          CFI (cfiCond405) V8 load(1, XDATA, add(CFA_XSP16, literal(-8)))
          CFI (cfiCond405) V9 load(1, XDATA, add(CFA_XSP16, literal(-7)))
          CFI (cfiCond405) R7 load(1, XDATA, add(CFA_XSP16, literal(-6)))
          CFI (cfiCond405) ?RET_LOW load(1, XDATA, add(CFA_XSP16, literal(-5)))
          CFI (cfiCond405) ?RET_HIGH load(1, XDATA, add(CFA_XSP16, literal(-4)))
          CFI (cfiCond405) ?BRET_EXT load(1, XDATA, add(CFA_XSP16, literal(-3)))
          CFI (cfiCond405) DPL0 load(1, XDATA, add(CFA_XSP16, literal(-2)))
          CFI (cfiCond405) DPH0 load(1, XDATA, add(CFA_XSP16, literal(-1)))
          CFI (cfiCond405) CFA_SP SP+-2
          CFI (cfiCond405) CFA_XSP16 add(XSP16, 51)
          CFI Block cfiPicker406 Using cfiCommon1
          CFI (cfiPicker406) NoFunction
          CFI (cfiPicker406) Picker
        MOVX      A,@DPTR
        ADD       A,#0x4
        MOV       R0,A
        CLR       A
        ADDC      A,#0x1
        MOV       R1,A
        RET
          CFI EndBlock cfiCond404
          CFI EndBlock cfiCond405
          CFI EndBlock cfiPicker406
// 3294 
// 3295 /******************************************************************************
// 3296  * @fn          APSME_IsDefaultTCLK
// 3297  *
// 3298  * @brief       Return TRUE or FALSE based on the extended address.  If the
// 3299  *              input ext address is all FFs, it means the trust center link
// 3300  *              assoiciated with the address is the default trust center link key
// 3301  *
// 3302  * @param       extAddr - [in] extended address
// 3303  *
// 3304  * @return      uint8 TRUE/FALSE
// 3305  */

        RSEG BANKED_CODE:HUGECODE:NOROOT(0)
// 3306 uint8 APSME_IsDefaultTCLK( uint8 *extAddr )
APSME_IsDefaultTCLK:
          CFI Block cfiBlock407 Using cfiCommon0
          CFI Function APSME_IsDefaultTCLK
        CODE
// 3307 {
        FUNCALL APSME_IsDefaultTCLK, osal_isbufset
        LOCFRAME ISTACK, 2, STACK
        LOCFRAME PSTACK, 0, STACK
        LOCFRAME XSTACK, 0, STACK
        LOCFRAME IOVERLAY, 0, STATIC
        LOCFRAME DOVERLAY, 0, STATIC
        ARGFRAME ISTACK, 2, STACK
        ARGFRAME PSTACK, 0, STACK
        ARGFRAME XSTACK, 0, STACK
        ARGFRAME IOVERLAY, 0, STATIC
        ARGFRAME DOVERLAY, 0, STATIC
        PUSH      DPL
          CFI DPL0 Frame(CFA_SP, 4)
          CFI CFA_SP SP+-4
        PUSH      DPH
          CFI DPH0 Frame(CFA_SP, 5)
          CFI CFA_SP SP+-5
        ; Saved register size: 2
        ; Auto size: 0
// 3308   return osal_isbufset( extAddr, 0xFF, Z_EXTADDR_LEN );
        ; Setup parameters for call to function osal_isbufset
        MOV       R4,#0x8
        MOV       R1,#-0x1
        LCALL     `??osal_isbufset::?relay`; Banked call to: osal_isbufset
        LJMP      ??Subroutine60_0 & 0xFFFF
// 3309 }
          CFI EndBlock cfiBlock407
// 3310 
// 3311 /******************************************************************************
// 3312  * @fn          ZDSecMgrNwkKeyInit
// 3313  *
// 3314  * @brief       Initialize the NV items for
// 3315  *                  ZCD_NV_NWKKEY,
// 3316  *                  ZCD_NV_NWK_ACTIVE_KEY_INFO and
// 3317  *                  ZCD_NV_NWK_ALTERN_KEY_INFO
// 3318  *
// 3319  * @param       setDefault
// 3320  *
// 3321  * @return      none
// 3322  */

        RSEG BANKED_CODE:HUGECODE:NOROOT(0)
// 3323 void ZDSecMgrNwkKeyInit(uint8 setDefault)
ZDSecMgrNwkKeyInit:
          CFI Block cfiBlock408 Using cfiCommon0
          CFI Function ZDSecMgrNwkKeyInit
        CODE
// 3324 {
        FUNCALL ZDSecMgrNwkKeyInit, osal_memset
        LOCFRAME ISTACK, 0, STACK
        LOCFRAME PSTACK, 0, STACK
        LOCFRAME XSTACK, 62, STACK
        LOCFRAME IOVERLAY, 0, STATIC
        LOCFRAME DOVERLAY, 0, STATIC
        ARGFRAME ISTACK, 0, STACK
        ARGFRAME PSTACK, 0, STACK
        ARGFRAME XSTACK, 62, STACK
        ARGFRAME IOVERLAY, 0, STATIC
        ARGFRAME DOVERLAY, 0, STATIC
        FUNCALL ZDSecMgrNwkKeyInit, osal_nv_item_init
        LOCFRAME ISTACK, 0, STACK
        LOCFRAME PSTACK, 0, STACK
        LOCFRAME XSTACK, 64, STACK
        LOCFRAME IOVERLAY, 0, STATIC
        LOCFRAME DOVERLAY, 0, STATIC
        ARGFRAME ISTACK, 0, STACK
        ARGFRAME PSTACK, 0, STACK
        ARGFRAME XSTACK, 64, STACK
        ARGFRAME IOVERLAY, 0, STATIC
        ARGFRAME DOVERLAY, 0, STATIC
        FUNCALL ZDSecMgrNwkKeyInit, osal_nv_write
        LOCFRAME ISTACK, 0, STACK
        LOCFRAME PSTACK, 0, STACK
        LOCFRAME XSTACK, 66, STACK
        LOCFRAME IOVERLAY, 0, STATIC
        LOCFRAME DOVERLAY, 0, STATIC
        ARGFRAME ISTACK, 0, STACK
        ARGFRAME PSTACK, 0, STACK
        ARGFRAME XSTACK, 66, STACK
        ARGFRAME IOVERLAY, 0, STATIC
        ARGFRAME DOVERLAY, 0, STATIC
        FUNCALL ZDSecMgrNwkKeyInit, osal_memset
        LOCFRAME ISTACK, 0, STACK
        LOCFRAME PSTACK, 0, STACK
        LOCFRAME XSTACK, 62, STACK
        LOCFRAME IOVERLAY, 0, STATIC
        LOCFRAME DOVERLAY, 0, STATIC
        ARGFRAME ISTACK, 0, STACK
        ARGFRAME PSTACK, 0, STACK
        ARGFRAME XSTACK, 62, STACK
        ARGFRAME IOVERLAY, 0, STATIC
        ARGFRAME DOVERLAY, 0, STATIC
        FUNCALL ZDSecMgrNwkKeyInit, osal_nv_item_init
        LOCFRAME ISTACK, 0, STACK
        LOCFRAME PSTACK, 0, STACK
        LOCFRAME XSTACK, 64, STACK
        LOCFRAME IOVERLAY, 0, STATIC
        LOCFRAME DOVERLAY, 0, STATIC
        ARGFRAME ISTACK, 0, STACK
        ARGFRAME PSTACK, 0, STACK
        ARGFRAME XSTACK, 64, STACK
        ARGFRAME IOVERLAY, 0, STATIC
        ARGFRAME DOVERLAY, 0, STATIC
        FUNCALL ZDSecMgrNwkKeyInit, osal_nv_write
        LOCFRAME ISTACK, 0, STACK
        LOCFRAME PSTACK, 0, STACK
        LOCFRAME XSTACK, 66, STACK
        LOCFRAME IOVERLAY, 0, STATIC
        LOCFRAME DOVERLAY, 0, STATIC
        ARGFRAME ISTACK, 0, STACK
        ARGFRAME PSTACK, 0, STACK
        ARGFRAME XSTACK, 66, STACK
        ARGFRAME IOVERLAY, 0, STATIC
        ARGFRAME DOVERLAY, 0, STATIC
        FUNCALL ZDSecMgrNwkKeyInit, osal_memset
        LOCFRAME ISTACK, 0, STACK
        LOCFRAME PSTACK, 0, STACK
        LOCFRAME XSTACK, 62, STACK
        LOCFRAME IOVERLAY, 0, STATIC
        LOCFRAME DOVERLAY, 0, STATIC
        ARGFRAME ISTACK, 0, STACK
        ARGFRAME PSTACK, 0, STACK
        ARGFRAME XSTACK, 62, STACK
        ARGFRAME IOVERLAY, 0, STATIC
        ARGFRAME DOVERLAY, 0, STATIC
        FUNCALL ZDSecMgrNwkKeyInit, osal_nv_item_init
        LOCFRAME ISTACK, 0, STACK
        LOCFRAME PSTACK, 0, STACK
        LOCFRAME XSTACK, 64, STACK
        LOCFRAME IOVERLAY, 0, STATIC
        LOCFRAME DOVERLAY, 0, STATIC
        ARGFRAME ISTACK, 0, STACK
        ARGFRAME PSTACK, 0, STACK
        ARGFRAME XSTACK, 64, STACK
        ARGFRAME IOVERLAY, 0, STATIC
        ARGFRAME DOVERLAY, 0, STATIC
        FUNCALL ZDSecMgrNwkKeyInit, osal_nv_write
        LOCFRAME ISTACK, 0, STACK
        LOCFRAME PSTACK, 0, STACK
        LOCFRAME XSTACK, 66, STACK
        LOCFRAME IOVERLAY, 0, STATIC
        LOCFRAME DOVERLAY, 0, STATIC
        ARGFRAME ISTACK, 0, STACK
        ARGFRAME PSTACK, 0, STACK
        ARGFRAME XSTACK, 66, STACK
        ARGFRAME IOVERLAY, 0, STATIC
        ARGFRAME DOVERLAY, 0, STATIC
        FUNCALL ZDSecMgrNwkKeyInit, osal_memset
        LOCFRAME ISTACK, 0, STACK
        LOCFRAME PSTACK, 0, STACK
        LOCFRAME XSTACK, 62, STACK
        LOCFRAME IOVERLAY, 0, STATIC
        LOCFRAME DOVERLAY, 0, STATIC
        ARGFRAME ISTACK, 0, STACK
        ARGFRAME PSTACK, 0, STACK
        ARGFRAME XSTACK, 62, STACK
        ARGFRAME IOVERLAY, 0, STATIC
        ARGFRAME DOVERLAY, 0, STATIC
        FUNCALL ZDSecMgrNwkKeyInit, osal_nv_item_init
        LOCFRAME ISTACK, 0, STACK
        LOCFRAME PSTACK, 0, STACK
        LOCFRAME XSTACK, 64, STACK
        LOCFRAME IOVERLAY, 0, STATIC
        LOCFRAME DOVERLAY, 0, STATIC
        ARGFRAME ISTACK, 0, STACK
        ARGFRAME PSTACK, 0, STACK
        ARGFRAME XSTACK, 64, STACK
        ARGFRAME IOVERLAY, 0, STATIC
        ARGFRAME DOVERLAY, 0, STATIC
        FUNCALL ZDSecMgrNwkKeyInit, osal_nv_write
        LOCFRAME ISTACK, 0, STACK
        LOCFRAME PSTACK, 0, STACK
        LOCFRAME XSTACK, 66, STACK
        LOCFRAME IOVERLAY, 0, STATIC
        LOCFRAME DOVERLAY, 0, STATIC
        ARGFRAME ISTACK, 0, STACK
        ARGFRAME PSTACK, 0, STACK
        ARGFRAME XSTACK, 66, STACK
        ARGFRAME IOVERLAY, 0, STATIC
        ARGFRAME DOVERLAY, 0, STATIC
        FUNCALL ZDSecMgrNwkKeyInit, osal_nv_item_init
        LOCFRAME ISTACK, 0, STACK
        LOCFRAME PSTACK, 0, STACK
        LOCFRAME XSTACK, 64, STACK
        LOCFRAME IOVERLAY, 0, STATIC
        LOCFRAME DOVERLAY, 0, STATIC
        ARGFRAME ISTACK, 0, STACK
        ARGFRAME PSTACK, 0, STACK
        ARGFRAME XSTACK, 64, STACK
        ARGFRAME IOVERLAY, 0, STATIC
        ARGFRAME DOVERLAY, 0, STATIC
        FUNCALL ZDSecMgrNwkKeyInit, osal_nv_write
        LOCFRAME ISTACK, 0, STACK
        LOCFRAME PSTACK, 0, STACK
        LOCFRAME XSTACK, 66, STACK
        LOCFRAME IOVERLAY, 0, STATIC
        LOCFRAME DOVERLAY, 0, STATIC
        ARGFRAME ISTACK, 0, STACK
        ARGFRAME PSTACK, 0, STACK
        ARGFRAME XSTACK, 66, STACK
        ARGFRAME IOVERLAY, 0, STATIC
        ARGFRAME DOVERLAY, 0, STATIC
        REQUIRE ?V0
        REQUIRE ?V1
        REQUIRE ?V2
        REQUIRE ?V3
        MOV       A,#-0xc
        LCALL     ?BANKED_ENTER_XDATA
          CFI DPH0 load(1, XDATA, add(CFA_XSP16, literal(-1)))
          CFI DPL0 load(1, XDATA, add(CFA_XSP16, literal(-2)))
          CFI ?BRET_EXT load(1, XDATA, add(CFA_XSP16, literal(-3)))
          CFI ?RET_HIGH load(1, XDATA, add(CFA_XSP16, literal(-4)))
          CFI ?RET_LOW load(1, XDATA, add(CFA_XSP16, literal(-5)))
          CFI R7 load(1, XDATA, add(CFA_XSP16, literal(-6)))
          CFI V3 load(1, XDATA, add(CFA_XSP16, literal(-7)))
          CFI V2 load(1, XDATA, add(CFA_XSP16, literal(-8)))
          CFI V1 load(1, XDATA, add(CFA_XSP16, literal(-9)))
          CFI V0 load(1, XDATA, add(CFA_XSP16, literal(-10)))
          CFI VB load(1, XDATA, add(CFA_XSP16, literal(-11)))
          CFI R6 load(1, XDATA, add(CFA_XSP16, literal(-12)))
          CFI CFA_SP SP+0
          CFI CFA_XSP16 add(XSP16, 12)
        ; Saved register size: 12
        ; Auto size: 50
        MOV       A,#-0x32
        LCALL     ?ALLOC_XSTACK8
          CFI CFA_XSP16 add(XSP16, 62)
// 3325   uint8 status;
// 3326   nwkKeyDesc nwkKey;
// 3327   // Initialize NV items for NWK key, this structure contains the frame counter
// 3328   // and is only used when NV_RESTORE is enabled
// 3329   nwkActiveKeyItems keyItems;
// 3330   
// 3331 
// 3332   uint8 i,nwkFrameCounterReset = FALSE;
// 3333   nwkSecMaterialDesc_t nwkSecMaterialDesc;
// 3334   
// 3335   //NwkSecMaterial entry is empty if set to 0s
// 3336   osal_memset(&nwkSecMaterialDesc,0,sizeof(nwkSecMaterialDesc_t));
        ; Setup parameters for call to function osal_memset
        MOV       R4,#0xc
        MOV       R5,#0x0
        MOV       R1,#0x0
        MOV       R2,?XSP + 0
        MOV       R3,?XSP + 1
        LCALL     `??osal_memset::?relay`; Banked call to: osal_memset
// 3337 #ifdef NV_RESTORE  
// 3338   // Has been set to reset the nwk security material?
// 3339   if ( zgReadStartupOptions() & ZCD_STARTOPT_CLEAR_NWK_FRAME_COUNTER )
// 3340   {
// 3341     nwkFrameCounterReset = TRUE;
// 3342   }
// 3343 #else
// 3344   nwkFrameCounterReset = TRUE;
// 3345 #endif
// 3346   
// 3347   //Initialize the nwk security material
// 3348   for( i = 0; i < gMAX_NWK_SEC_MATERIAL_TABLE_ENTRIES; i++)
        MOV       ?V0,#0x0
        SJMP      ??ZDSecMgrNwkKeyInit_0
// 3349   {
// 3350     if((osal_nv_item_init(ZCD_NV_NWK_SEC_MATERIAL_TABLE_START + i,sizeof(nwkSecMaterialDesc_t),&nwkSecMaterialDesc) == SUCCESS) && (nwkFrameCounterReset))
??ZDSecMgrNwkKeyInit_1:
        MOV       A,R6
        ADD       A,#0x75
        MOV       R6,A
        JNC       ??ZDSecMgrNwkKeyInit_2
        INC       R7
??ZDSecMgrNwkKeyInit_2:
        ; Setup parameters for call to function osal_nv_item_init
        MOV       R0,?XSP + 0
        MOV       R1,?XSP + 1
        MOV       ?V2,R0
        MOV       ?V3,R1
        MOV       R0,#?V2
        LCALL     ?PUSH_XSTACK_I_TWO
          CFI CFA_XSP16 add(XSP16, 64)
        MOV       R4,#0xc
        MOV       R5,#0x0
        MOV       A,R6
        MOV       R2,A
        MOV       A,R7
        MOV       R3,A
        LCALL     `??osal_nv_item_init::?relay`; Banked call to: osal_nv_item_init
        MOV       A,#0x2
        LCALL     ?DEALLOC_XSTACK8
          CFI CFA_XSP16 add(XSP16, 62)
        MOV       A,R1
        JNZ       ??ZDSecMgrNwkKeyInit_3
// 3351     {
// 3352       osal_nv_write(ZCD_NV_NWK_SEC_MATERIAL_TABLE_START + i,0,sizeof(nwkSecMaterialDesc_t),&nwkSecMaterialDesc);
        ; Setup parameters for call to function osal_nv_write
        MOV       R0,#?V2
        LCALL     ?PUSH_XSTACK_I_TWO
          CFI CFA_XSP16 add(XSP16, 64)
        MOV       ?V2,#0xc
        MOV       ?V3,#0x0
        MOV       R0,#?V2
        LCALL     ?PUSH_XSTACK_I_TWO
          CFI CFA_XSP16 add(XSP16, 66)
        MOV       R4,#0x0
        MOV       R5,#0x0
        MOV       A,R6
        MOV       R2,A
        MOV       A,R7
        MOV       R3,A
        LCALL     `??osal_nv_write::?relay`; Banked call to: osal_nv_write
        MOV       A,#0x4
        LCALL     ?DEALLOC_XSTACK8
          CFI CFA_XSP16 add(XSP16, 62)
// 3353     }
// 3354   }
??ZDSecMgrNwkKeyInit_3:
        INC       ?V0
??ZDSecMgrNwkKeyInit_0:
        MOV       R6,?V0
        MOV       R7,#0x0
        MOV       DPTR,#gMAX_NWK_SEC_MATERIAL_TABLE_ENTRIES
        CLR       A
        MOVC      A,@A+DPTR
        MOV       R0,A
        MOV       A,R6
        CLR       C
        SUBB      A,R0
        JC        ??ZDSecMgrNwkKeyInit_1
// 3355   //Set the last item to the generic nwk security material by setting extPanId to 0xFFs
// 3356   osal_memset(nwkSecMaterialDesc.extendedPanID,0xFF,Z_EXTADDR_LEN);
        ; Setup parameters for call to function osal_memset
        MOV       R4,#0x8
        MOV       R5,#0x0
        MOV       R1,#-0x1
        MOV       A,#0x4
        LCALL     ?XSTACK_DISP0_8
        MOV       R2,DPL
        MOV       R3,DPH
        LCALL     `??osal_memset::?relay`; Banked call to: osal_memset
// 3357   
// 3358   if((osal_nv_item_init(ZCD_NV_NWK_SEC_MATERIAL_TABLE_START + i - 1,sizeof(nwkSecMaterialDesc_t),&nwkSecMaterialDesc) == SUCCESS) && (nwkFrameCounterReset))
        MOV       A,R6
        ADD       A,#0x74
        MOV       R6,A
        JNC       ??ZDSecMgrNwkKeyInit_4
        INC       R7
??ZDSecMgrNwkKeyInit_4:
        ; Setup parameters for call to function osal_nv_item_init
        MOV       R0,?XSP + 0
        MOV       R1,?XSP + 1
        MOV       ?V0,R0
        MOV       ?V1,R1
        MOV       R0,#?V0
        LCALL     ?PUSH_XSTACK_I_TWO
          CFI CFA_XSP16 add(XSP16, 64)
        MOV       R4,#0xc
        MOV       R5,#0x0
        MOV       A,R6
        MOV       R2,A
        MOV       A,R7
        MOV       R3,A
        LCALL     `??osal_nv_item_init::?relay`; Banked call to: osal_nv_item_init
        MOV       A,#0x2
        LCALL     ?DEALLOC_XSTACK8
          CFI CFA_XSP16 add(XSP16, 62)
        MOV       A,R1
        JNZ       ??ZDSecMgrNwkKeyInit_5
// 3359   {
// 3360     osal_nv_write(ZCD_NV_NWK_SEC_MATERIAL_TABLE_START + i - 1,0,sizeof(nwkSecMaterialDesc_t),&nwkSecMaterialDesc);
        ; Setup parameters for call to function osal_nv_write
        MOV       R0,#?V0
        LCALL     ?PUSH_XSTACK_I_TWO
          CFI CFA_XSP16 add(XSP16, 64)
        MOV       ?V0,#0xc
        MOV       ?V1,#0x0
        MOV       R0,#?V0
        LCALL     ?PUSH_XSTACK_I_TWO
          CFI CFA_XSP16 add(XSP16, 66)
        MOV       R4,#0x0
        MOV       R5,#0x0
        MOV       A,R6
        MOV       R2,A
        MOV       A,R7
        MOV       R3,A
        LCALL     `??osal_nv_write::?relay`; Banked call to: osal_nv_write
        MOV       A,#0x4
        LCALL     ?DEALLOC_XSTACK8
          CFI CFA_XSP16 add(XSP16, 62)
// 3361   }
// 3362 
// 3363 
// 3364   osal_memset( &keyItems, 0, sizeof( nwkActiveKeyItems ) );
??ZDSecMgrNwkKeyInit_5:
        ; Setup parameters for call to function osal_memset
        MOV       R4,#0x15
        MOV       R5,#0x0
        MOV       R1,#0x0
        MOV       A,#0x1d
        LCALL     ?XSTACK_DISP101_8
        LCALL     `??osal_memset::?relay`; Banked call to: osal_memset
// 3365 
// 3366   status = osal_nv_item_init( ZCD_NV_NWKKEY, sizeof(nwkActiveKeyItems), (void *)&keyItems );
// 3367 
// 3368 #if defined ( NV_RESTORE )
// 3369   // reset the values of NV items if NV_RESTORE is not enabled
// 3370   if ((status == SUCCESS) && (setDefault == TRUE))
// 3371   {
// 3372     // clear NV data to default values
// 3373     osal_nv_write( ZCD_NV_NWKKEY, 0, sizeof(nwkActiveKeyItems), &keyItems );
// 3374   }
// 3375 #else
// 3376   (void)setDefault;   // to eliminate compiler warning
// 3377 
// 3378   // reset the values of NV items if NV_RESTORE is not enabled
// 3379   if (status == SUCCESS)
        ; Setup parameters for call to function osal_nv_item_init
        MOV       A,#0x1d
        LCALL     ?XSTACK_DISP100_8
        MOV       ?V0,R0
        MOV       ?V1,R1
        MOV       R0,#?V0
        LCALL     ?PUSH_XSTACK_I_TWO
          CFI CFA_XSP16 add(XSP16, 64)
        MOV       R4,#0x15
        MOV       R5,#0x0
        MOV       R2,#-0x7e
        MOV       R3,#0x0
        LCALL     `??osal_nv_item_init::?relay`; Banked call to: osal_nv_item_init
        MOV       A,#0x2
        LCALL     ?DEALLOC_XSTACK8
          CFI CFA_XSP16 add(XSP16, 62)
        MOV       A,R1
        JNZ       ??ZDSecMgrNwkKeyInit_6
// 3380   {
// 3381     osal_nv_write( ZCD_NV_NWKKEY, 0, sizeof(nwkActiveKeyItems), &keyItems );
        ; Setup parameters for call to function osal_nv_write
        MOV       R0,#?V0
        LCALL     ?PUSH_XSTACK_I_TWO
          CFI CFA_XSP16 add(XSP16, 64)
        MOV       ?V0,#0x15
        MOV       ?V1,#0x0
        MOV       R0,#?V0
        LCALL     ?PUSH_XSTACK_I_TWO
          CFI CFA_XSP16 add(XSP16, 66)
        MOV       R4,#0x0
        MOV       R5,#0x0
        MOV       R2,#-0x7e
        MOV       R3,#0x0
        LCALL     `??osal_nv_write::?relay`; Banked call to: osal_nv_write
        MOV       A,#0x4
        LCALL     ?DEALLOC_XSTACK8
          CFI CFA_XSP16 add(XSP16, 62)
// 3382   }
// 3383 #endif // defined (NV_RESTORE)
// 3384 
// 3385   // Initialize NV items for NWK Active and Alternate keys. These items are used
// 3386   // all the time, independently of NV_RESTORE being set or not
// 3387   osal_memset( &nwkKey, 0x00, sizeof(nwkKey) );
??ZDSecMgrNwkKeyInit_6:
        ; Setup parameters for call to function osal_memset
        MOV       R4,#0x11
        MOV       R5,#0x0
        MOV       R1,#0x0
        MOV       A,#0xc
        LCALL     ?XSTACK_DISP101_8
        LCALL     `??osal_memset::?relay`; Banked call to: osal_memset
// 3388 
// 3389   status = osal_nv_item_init( ZCD_NV_NWK_ACTIVE_KEY_INFO, sizeof(nwkKey), &nwkKey);
// 3390 
// 3391 #if defined ( NV_RESTORE )
// 3392   // reset the values of NV items if NV_RESTORE is not enabled
// 3393   if ((status == SUCCESS) && (setDefault == TRUE))
// 3394   {
// 3395     // clear NV data to default values
// 3396     osal_nv_write( ZCD_NV_NWK_ACTIVE_KEY_INFO, 0, sizeof(nwkKey), &nwkKey );
// 3397   }
// 3398 #else
// 3399   // reset the values of NV items if NV_RESTORE is not enabled
// 3400   if (status == SUCCESS)
        ; Setup parameters for call to function osal_nv_item_init
        MOV       A,#0xc
        LCALL     ?XSTACK_DISP100_8
        MOV       ?V0,R0
        MOV       ?V1,R1
        MOV       R0,#?V0
        LCALL     ?PUSH_XSTACK_I_TWO
          CFI CFA_XSP16 add(XSP16, 64)
        MOV       R4,#0x11
        MOV       R5,#0x0
        MOV       R2,#0x3a
        MOV       R3,#0x0
        LCALL     `??osal_nv_item_init::?relay`; Banked call to: osal_nv_item_init
        MOV       A,#0x2
        LCALL     ?DEALLOC_XSTACK8
          CFI CFA_XSP16 add(XSP16, 62)
        MOV       A,R1
        JNZ       ??ZDSecMgrNwkKeyInit_7
// 3401   {
// 3402     osal_nv_write( ZCD_NV_NWK_ACTIVE_KEY_INFO, 0, sizeof(nwkKey), &nwkKey );
        ; Setup parameters for call to function osal_nv_write
        MOV       R0,#?V0
        LCALL     ?PUSH_XSTACK_I_TWO
          CFI CFA_XSP16 add(XSP16, 64)
        MOV       ?V0,#0x11
        MOV       ?V1,#0x0
        MOV       R0,#?V0
        LCALL     ?PUSH_XSTACK_I_TWO
          CFI CFA_XSP16 add(XSP16, 66)
        MOV       R4,#0x0
        MOV       R5,#0x0
        MOV       R2,#0x3a
        MOV       R3,#0x0
        LCALL     `??osal_nv_write::?relay`; Banked call to: osal_nv_write
        MOV       A,#0x4
        LCALL     ?DEALLOC_XSTACK8
          CFI CFA_XSP16 add(XSP16, 62)
// 3403   }
// 3404 #endif // defined (NV_RESTORE)
// 3405 
// 3406   status = osal_nv_item_init( ZCD_NV_NWK_ALTERN_KEY_INFO, sizeof(nwkKey), &nwkKey );
// 3407 
// 3408 #if defined ( NV_RESTORE )
// 3409   // reset the values of NV items if NV_RESTORE is not enabled
// 3410   if ((status == SUCCESS) && (setDefault == TRUE))
// 3411   {
// 3412     // clear NV data to default values
// 3413     osal_nv_write( ZCD_NV_NWK_ALTERN_KEY_INFO, 0, sizeof(nwkKey), &nwkKey );
// 3414   }
// 3415 #else
// 3416   // reset the values of NV items if NV_RESTORE is not enabled
// 3417   if (status == SUCCESS)
??ZDSecMgrNwkKeyInit_7:
        ; Setup parameters for call to function osal_nv_item_init
        MOV       A,#0xc
        LCALL     ?XSTACK_DISP100_8
        MOV       ?V0,R0
        MOV       ?V1,R1
        MOV       R0,#?V0
        LCALL     ?PUSH_XSTACK_I_TWO
          CFI CFA_XSP16 add(XSP16, 64)
        MOV       R4,#0x11
        MOV       R5,#0x0
        MOV       R2,#0x3b
        MOV       R3,#0x0
        LCALL     `??osal_nv_item_init::?relay`; Banked call to: osal_nv_item_init
        MOV       A,#0x2
        LCALL     ?DEALLOC_XSTACK8
          CFI CFA_XSP16 add(XSP16, 62)
        MOV       A,R1
        JNZ       ??ZDSecMgrNwkKeyInit_8
// 3418   {
// 3419     osal_nv_write( ZCD_NV_NWK_ALTERN_KEY_INFO, 0, sizeof(nwkKey), &nwkKey );
        ; Setup parameters for call to function osal_nv_write
        MOV       R0,#?V0
        LCALL     ?PUSH_XSTACK_I_TWO
          CFI CFA_XSP16 add(XSP16, 64)
        MOV       ?V0,#0x11
        MOV       ?V1,#0x0
        MOV       R0,#?V0
        LCALL     ?PUSH_XSTACK_I_TWO
          CFI CFA_XSP16 add(XSP16, 66)
        MOV       R4,#0x0
        MOV       R5,#0x0
        MOV       R2,#0x3b
        MOV       R3,#0x0
        LCALL     `??osal_nv_write::?relay`; Banked call to: osal_nv_write
        MOV       A,#0x4
        LCALL     ?DEALLOC_XSTACK8
          CFI CFA_XSP16 add(XSP16, 62)
// 3420   }
// 3421 #endif // defined (NV_RESTORE)
// 3422 
// 3423 }
??ZDSecMgrNwkKeyInit_8:
        MOV       A,#0x32
        LJMP      ?Subroutine3 & 0xFFFF
          CFI EndBlock cfiBlock408
// 3424 
// 3425 
// 3426 
// 3427 /*********************************************************************
// 3428  * @fn          ZDSecMgrReadKeyFromNv
// 3429  *
// 3430  * @brief       Looks for a specific key in NV based on Index value
// 3431  *
// 3432  * @param   keyNvId - Index of key to look in NV
// 3433  *                    valid values are:
// 3434  *                    ZCD_NV_NWK_ACTIVE_KEY_INFO
// 3435  *                    ZCD_NV_NWK_ALTERN_KEY_INFO
// 3436  *                    ZCD_NV_TCLK_TABLE_START + <offset_in_table>
// 3437  *                    ZCD_NV_APS_LINK_KEY_DATA_START + <offset_in_table>
// 3438  *                    ZCD_NV_PRECFGKEY
// 3439  *
// 3440  * @param  *keyinfo - Data is read into this buffer.
// 3441  *
// 3442  * @return  SUCCESS if NV data was copied to the keyinfo parameter .
// 3443  *          Otherwise, NV_OPER_FAILED for failure.
// 3444  */

        RSEG BANKED_CODE:HUGECODE:NOROOT(0)
// 3445 ZStatus_t ZDSecMgrReadKeyFromNv(uint16 keyNvId, void *keyinfo)
ZDSecMgrReadKeyFromNv:
          CFI Block cfiBlock409 Using cfiCommon0
          CFI Function ZDSecMgrReadKeyFromNv
        CODE
// 3446 {
        FUNCALL ZDSecMgrReadKeyFromNv, osal_nv_read
        LOCFRAME ISTACK, 0, STACK
        LOCFRAME PSTACK, 0, STACK
        LOCFRAME XSTACK, 19, STACK
        LOCFRAME IOVERLAY, 0, STATIC
        LOCFRAME DOVERLAY, 0, STATIC
        ARGFRAME ISTACK, 0, STACK
        ARGFRAME PSTACK, 0, STACK
        ARGFRAME XSTACK, 19, STACK
        ARGFRAME IOVERLAY, 0, STATIC
        ARGFRAME DOVERLAY, 0, STATIC
        FUNCALL ZDSecMgrReadKeyFromNv, osal_memcpy
        LOCFRAME ISTACK, 0, STACK
        LOCFRAME PSTACK, 0, STACK
        LOCFRAME XSTACK, 18, STACK
        LOCFRAME IOVERLAY, 0, STATIC
        LOCFRAME DOVERLAY, 0, STATIC
        ARGFRAME ISTACK, 0, STACK
        ARGFRAME PSTACK, 0, STACK
        ARGFRAME XSTACK, 18, STACK
        ARGFRAME IOVERLAY, 0, STATIC
        ARGFRAME DOVERLAY, 0, STATIC
        FUNCALL ZDSecMgrReadKeyFromNv, osal_memcpy
        LOCFRAME ISTACK, 0, STACK
        LOCFRAME PSTACK, 0, STACK
        LOCFRAME XSTACK, 18, STACK
        LOCFRAME IOVERLAY, 0, STATIC
        LOCFRAME DOVERLAY, 0, STATIC
        ARGFRAME ISTACK, 0, STACK
        ARGFRAME PSTACK, 0, STACK
        ARGFRAME XSTACK, 18, STACK
        ARGFRAME IOVERLAY, 0, STATIC
        ARGFRAME DOVERLAY, 0, STATIC
        FUNCALL ZDSecMgrReadKeyFromNv, osal_nv_read
        LOCFRAME ISTACK, 0, STACK
        LOCFRAME PSTACK, 0, STACK
        LOCFRAME XSTACK, 19, STACK
        LOCFRAME IOVERLAY, 0, STATIC
        LOCFRAME DOVERLAY, 0, STATIC
        ARGFRAME ISTACK, 0, STACK
        ARGFRAME PSTACK, 0, STACK
        ARGFRAME XSTACK, 19, STACK
        ARGFRAME IOVERLAY, 0, STATIC
        ARGFRAME DOVERLAY, 0, STATIC
        FUNCALL ZDSecMgrReadKeyFromNv, osal_nv_read
        LOCFRAME ISTACK, 0, STACK
        LOCFRAME PSTACK, 0, STACK
        LOCFRAME XSTACK, 19, STACK
        LOCFRAME IOVERLAY, 0, STATIC
        LOCFRAME DOVERLAY, 0, STATIC
        ARGFRAME ISTACK, 0, STACK
        ARGFRAME PSTACK, 0, STACK
        ARGFRAME XSTACK, 19, STACK
        ARGFRAME IOVERLAY, 0, STATIC
        ARGFRAME DOVERLAY, 0, STATIC
        FUNCALL ZDSecMgrReadKeyFromNv, osal_nv_read
        LOCFRAME ISTACK, 0, STACK
        LOCFRAME PSTACK, 0, STACK
        LOCFRAME XSTACK, 19, STACK
        LOCFRAME IOVERLAY, 0, STATIC
        LOCFRAME DOVERLAY, 0, STATIC
        ARGFRAME ISTACK, 0, STACK
        ARGFRAME PSTACK, 0, STACK
        ARGFRAME XSTACK, 19, STACK
        ARGFRAME IOVERLAY, 0, STATIC
        ARGFRAME DOVERLAY, 0, STATIC
        REQUIRE ?V0
        REQUIRE ?V1
        REQUIRE ?V4
        REQUIRE ?V5
        REQUIRE ?V6
        MOV       A,#-0xf
        LCALL     ?BANKED_ENTER_XDATA
          CFI DPH0 load(1, XDATA, add(CFA_XSP16, literal(-1)))
          CFI DPL0 load(1, XDATA, add(CFA_XSP16, literal(-2)))
          CFI ?BRET_EXT load(1, XDATA, add(CFA_XSP16, literal(-3)))
          CFI ?RET_HIGH load(1, XDATA, add(CFA_XSP16, literal(-4)))
          CFI ?RET_LOW load(1, XDATA, add(CFA_XSP16, literal(-5)))
          CFI R7 load(1, XDATA, add(CFA_XSP16, literal(-6)))
          CFI V6 load(1, XDATA, add(CFA_XSP16, literal(-7)))
          CFI V5 load(1, XDATA, add(CFA_XSP16, literal(-8)))
          CFI V4 load(1, XDATA, add(CFA_XSP16, literal(-9)))
          CFI V3 load(1, XDATA, add(CFA_XSP16, literal(-10)))
          CFI V2 load(1, XDATA, add(CFA_XSP16, literal(-11)))
          CFI V1 load(1, XDATA, add(CFA_XSP16, literal(-12)))
          CFI V0 load(1, XDATA, add(CFA_XSP16, literal(-13)))
          CFI VB load(1, XDATA, add(CFA_XSP16, literal(-14)))
          CFI R6 load(1, XDATA, add(CFA_XSP16, literal(-15)))
          CFI CFA_SP SP+0
          CFI CFA_XSP16 add(XSP16, 15)
        ; Saved register size: 15
        ; Auto size: 0
        MOV       ?V0,R4
        MOV       ?V1,R5
// 3447   if ((keyNvId == ZCD_NV_NWK_ACTIVE_KEY_INFO) ||
// 3448       (keyNvId == ZCD_NV_NWK_ALTERN_KEY_INFO))
        MOV       A,#0x3a
        XRL       A,R2
        JNZ       ??ZDSecMgrReadKeyFromNv_0
        MOV       A,R3
??ZDSecMgrReadKeyFromNv_0:
        JZ        ??ZDSecMgrReadKeyFromNv_1
        MOV       A,#0x3b
        XRL       A,R2
        ORL       A,R3
        JNZ       ??ZDSecMgrReadKeyFromNv_2
// 3449   {
// 3450     // get NWK active or alternate key from NV
// 3451     return (osal_nv_read(keyNvId,
// 3452                          osal_offsetof(nwkKeyDesc, key),
// 3453                          SEC_KEY_LEN,
// 3454                          keyinfo));
??ZDSecMgrReadKeyFromNv_1:
        ; Setup parameters for call to function osal_nv_read
        MOV       R0,#?V0
        LCALL     ?PUSH_XSTACK_I_TWO
          CFI CFA_XSP16 add(XSP16, 17)
        MOV       ?V0,#0x10
        MOV       ?V1,#0x0
        MOV       R0,#?V0
        LCALL     ?PUSH_XSTACK_I_TWO
          CFI CFA_XSP16 add(XSP16, 19)
        MOV       R4,#0x1
        LJMP      ??ZDSecMgrReadKeyFromNv_3 & 0xFFFF
          CFI CFA_XSP16 add(XSP16, 15)
// 3455   }
// 3456   
// 3457   else if(keyNvId == ZCD_NV_TCLK_DEFAULT)
??ZDSecMgrReadKeyFromNv_2:
        MOV       A,#0x3
        XRL       A,R2
        JNZ       ??ZDSecMgrReadKeyFromNv_4
        MOV       A,#0x1
        XRL       A,R3
??ZDSecMgrReadKeyFromNv_4:
        JNZ       ??ZDSecMgrReadKeyFromNv_5
// 3458   {
// 3459     osal_memcpy(keyinfo,defaultTCLinkKey,SEC_KEY_LEN);
        ; Setup parameters for call to function osal_memcpy
        MOV       ?V4,#defaultTCLinkKey & 0xff
        MOV       ?V5,#(defaultTCLinkKey >> 8) & 0xff
        SJMP      ??ZDSecMgrReadKeyFromNv_6
// 3460     return ZSuccess;
// 3461   }
// 3462   
// 3463 #if (ZG_BUILD_JOINING_TYPE) 
// 3464   else if(keyNvId == ZCD_NV_DISTRIBUTED_KEY)
??ZDSecMgrReadKeyFromNv_5:
        MOV       A,#0x68
        XRL       A,R2
        ORL       A,R3
        JNZ       ??ZDSecMgrReadKeyFromNv_7
// 3465   {
// 3466     if(ZG_DEVICE_JOINING_TYPE)
        MOV       DPTR,#zgDeviceLogicalType
        MOVX      A,@DPTR
        XRL       A,#0x1
        JZ        ??ZDSecMgrReadKeyFromNv_8
        MOVX      A,@DPTR
        XRL       A,#0x2
        JNZ       ??ZDSecMgrReadKeyFromNv_9
// 3467     {
// 3468       osal_memcpy(keyinfo,distributedDefaultKey,SEC_KEY_LEN);
??ZDSecMgrReadKeyFromNv_8:
        ; Setup parameters for call to function osal_memcpy
        MOV       ?V4,#distributedDefaultKey & 0xff
        MOV       ?V5,#(distributedDefaultKey >> 8) & 0xff
??ZDSecMgrReadKeyFromNv_6:
        MOV       ?V6,#-0x80
        MOV       R0,#?V4
        LCALL     ?PUSH_XSTACK_I_THREE
          CFI CFA_XSP16 add(XSP16, 18)
        MOV       R4,#0x10
        MOV       R5,#0x0
        MOV       R2,?V0
        MOV       R3,?V1
        LCALL     `??osal_memcpy::?relay`; Banked call to: osal_memcpy
        MOV       A,#0x3
        LCALL     ?DEALLOC_XSTACK8
          CFI CFA_XSP16 add(XSP16, 15)
// 3469       return ZSuccess;
        MOV       R1,#0x0
        SJMP      ??ZDSecMgrReadKeyFromNv_10
// 3470     }
// 3471   }
// 3472 #endif
// 3473   
// 3474   else if((keyNvId == ZCD_NV_TCLK_JOIN_DEV) || (keyNvId == ZCD_NV_PRECFGKEY)) 
??ZDSecMgrReadKeyFromNv_7:
        MOV       A,#0x2
        XRL       A,R2
        JNZ       ??ZDSecMgrReadKeyFromNv_11
        MOV       A,#0x1
        XRL       A,R3
??ZDSecMgrReadKeyFromNv_11:
        JZ        ??ZDSecMgrReadKeyFromNv_12
        MOV       A,#0x62
        XRL       A,R2
        ORL       A,R3
        JZ        ??ZDSecMgrReadKeyFromNv_12
// 3475   {
// 3476     // Read entry keyNvId of the TC link key table from NV. keyNvId should be
// 3477     // ZCD_NV_TCLK_TABLE_START + <offset_in_table>
// 3478     return (osal_nv_read(keyNvId,
// 3479                          0,
// 3480                          SEC_KEY_LEN,
// 3481                          keyinfo));
        ; Setup parameters for call to function osal_nv_read
// 3482   }
// 3483     else if (keyNvId == ZCD_NV_PRECFGKEY)
// 3484   {
// 3485     // Read entry keyNvId of the Preconfig key from NV.
// 3486     return (osal_nv_read(keyNvId,
// 3487                          0,
// 3488                          SEC_KEY_LEN,
// 3489                          keyinfo));
// 3490   }
// 3491 
// 3492   else if((keyNvId >= ZCD_NV_TCLK_IC_TABLE_START) &&
// 3493            (keyNvId < (ZCD_NV_TCLK_IC_TABLE_START + gZDSECMGR_TC_DEVICE_IC_MAX)))
        MOV       A,R2
        ADD       A,#-0x4
        MOV       R0,A
        MOV       A,R3
        ADDC      A,#-0x2
        MOV       R1,A
        MOV       A,R0
        ORL       A,R1
        JZ        ??ZDSecMgrReadKeyFromNv_12
// 3494   {
// 3495     //Read the key derived from the IC
// 3496     return (osal_nv_read(keyNvId,
// 3497                          0,
// 3498                          SEC_KEY_LEN,
// 3499                          keyinfo));
        ; Setup parameters for call to function osal_nv_read
// 3500   
// 3501   }
// 3502   else if ((keyNvId >= ZCD_NV_APS_LINK_KEY_DATA_START) &&
// 3503            (keyNvId < (ZCD_NV_APS_LINK_KEY_DATA_START + ZDSECMGR_ENTRY_MAX)))
        MOV       A,R2
        ADD       A,#-0x1
        MOV       R0,A
        MOV       A,R3
        ADDC      A,#-0x3
        MOV       R1,A
        CLR       C
        MOV       A,R0
        LCALL     ??Subroutine51_0 & 0xFFFF
??CrossCallReturnLabel_66:
        JNC       ??ZDSecMgrReadKeyFromNv_9
// 3504   {
// 3505     // Read entry keyNvId of the APS link key table from NV. keyNvId should be
// 3506     // ZCD_NV_APS_LINK_KEY_DATA_START + <offset_in_table>
// 3507     return (osal_nv_read(keyNvId,
// 3508                          osal_offsetof(APSME_LinkKeyData_t, key),
// 3509                          SEC_KEY_LEN,
// 3510                          keyinfo));
        ; Setup parameters for call to function osal_nv_read
??ZDSecMgrReadKeyFromNv_12:
        MOV       R0,#?V0
        LCALL     ?PUSH_XSTACK_I_TWO
          CFI CFA_XSP16 add(XSP16, 17)
        MOV       ?V0,#0x10
        MOV       ?V1,#0x0
        MOV       R0,#?V0
        LCALL     ?PUSH_XSTACK_I_TWO
          CFI CFA_XSP16 add(XSP16, 19)
        MOV       R4,#0x0
??ZDSecMgrReadKeyFromNv_3:
        MOV       R5,#0x0
        LCALL     `??osal_nv_read::?relay`; Banked call to: osal_nv_read
        MOV       A,#0x4
        LCALL     ?DEALLOC_XSTACK8
          CFI CFA_XSP16 add(XSP16, 15)
        SJMP      ??ZDSecMgrReadKeyFromNv_10
// 3511   }
// 3512 
// 3513   return NV_OPER_FAILED;
??ZDSecMgrReadKeyFromNv_9:
        MOV       R1,#0xa
??ZDSecMgrReadKeyFromNv_10:
        LJMP      ??Subroutine66_0 & 0xFFFF
// 3514 }
          CFI EndBlock cfiBlock409
// 3515 
// 3516 /******************************************************************************
// 3517  * @fn          ZDSecMgrApsLinkKeyInit
// 3518  *
// 3519  * @brief       Initialize the NV table for Application link keys
// 3520  *
// 3521  * @param       setDefault - TRUE to set default values
// 3522  *
// 3523  * @return      none
// 3524  */

        RSEG BANKED_CODE:HUGECODE:NOROOT(0)
// 3525 void ZDSecMgrApsLinkKeyInit(uint8 setDefault)
ZDSecMgrApsLinkKeyInit:
          CFI Block cfiBlock410 Using cfiCommon0
          CFI Function ZDSecMgrApsLinkKeyInit
        CODE
// 3526 {
        FUNCALL ZDSecMgrApsLinkKeyInit, osal_memset
        LOCFRAME ISTACK, 0, STACK
        LOCFRAME PSTACK, 0, STACK
        LOCFRAME XSTACK, 36, STACK
        LOCFRAME IOVERLAY, 0, STATIC
        LOCFRAME DOVERLAY, 0, STATIC
        ARGFRAME ISTACK, 0, STACK
        ARGFRAME PSTACK, 0, STACK
        ARGFRAME XSTACK, 36, STACK
        ARGFRAME IOVERLAY, 0, STATIC
        ARGFRAME DOVERLAY, 0, STATIC
        FUNCALL ZDSecMgrApsLinkKeyInit, osal_nv_item_init
        LOCFRAME ISTACK, 0, STACK
        LOCFRAME PSTACK, 0, STACK
        LOCFRAME XSTACK, 38, STACK
        LOCFRAME IOVERLAY, 0, STATIC
        LOCFRAME DOVERLAY, 0, STATIC
        ARGFRAME ISTACK, 0, STACK
        ARGFRAME PSTACK, 0, STACK
        ARGFRAME XSTACK, 38, STACK
        ARGFRAME IOVERLAY, 0, STATIC
        ARGFRAME DOVERLAY, 0, STATIC
        FUNCALL ZDSecMgrApsLinkKeyInit, osal_nv_write
        LOCFRAME ISTACK, 0, STACK
        LOCFRAME PSTACK, 0, STACK
        LOCFRAME XSTACK, 40, STACK
        LOCFRAME IOVERLAY, 0, STATIC
        LOCFRAME DOVERLAY, 0, STATIC
        ARGFRAME ISTACK, 0, STACK
        ARGFRAME PSTACK, 0, STACK
        ARGFRAME XSTACK, 40, STACK
        ARGFRAME IOVERLAY, 0, STATIC
        ARGFRAME DOVERLAY, 0, STATIC
        REQUIRE ?V0
        REQUIRE ?V2
        REQUIRE ?V3
        MOV       A,#-0xc
        LCALL     ?BANKED_ENTER_XDATA
          CFI DPH0 load(1, XDATA, add(CFA_XSP16, literal(-1)))
          CFI DPL0 load(1, XDATA, add(CFA_XSP16, literal(-2)))
          CFI ?BRET_EXT load(1, XDATA, add(CFA_XSP16, literal(-3)))
          CFI ?RET_HIGH load(1, XDATA, add(CFA_XSP16, literal(-4)))
          CFI ?RET_LOW load(1, XDATA, add(CFA_XSP16, literal(-5)))
          CFI R7 load(1, XDATA, add(CFA_XSP16, literal(-6)))
          CFI V3 load(1, XDATA, add(CFA_XSP16, literal(-7)))
          CFI V2 load(1, XDATA, add(CFA_XSP16, literal(-8)))
          CFI V1 load(1, XDATA, add(CFA_XSP16, literal(-9)))
          CFI V0 load(1, XDATA, add(CFA_XSP16, literal(-10)))
          CFI VB load(1, XDATA, add(CFA_XSP16, literal(-11)))
          CFI R6 load(1, XDATA, add(CFA_XSP16, literal(-12)))
          CFI CFA_SP SP+0
          CFI CFA_XSP16 add(XSP16, 12)
        ; Saved register size: 12
        ; Auto size: 24
        MOV       A,#-0x18
        LCALL     ?ALLOC_XSTACK8
          CFI CFA_XSP16 add(XSP16, 36)
// 3527   APSME_LinkKeyData_t pApsLinkKey;
// 3528   uint8 i;
// 3529   uint8 status;
// 3530 
// 3531   // Initialize all NV items for APS link key, if not exist already.
// 3532   osal_memset( &pApsLinkKey, 0x00, sizeof(APSME_LinkKeyData_t) );
        ; Setup parameters for call to function osal_memset
        MOV       R4,#0x18
        MOV       R5,#0x0
        MOV       R1,#0x0
        MOV       R2,?XSP + 0
        MOV       R3,?XSP + 1
        LCALL     `??osal_memset::?relay`; Banked call to: osal_memset
// 3533 
// 3534   for( i = 0; i < ZDSECMGR_ENTRY_MAX; i++ )
        MOV       ?V0,#0x0
// 3535   {
// 3536     status = osal_nv_item_init( (ZCD_NV_APS_LINK_KEY_DATA_START + i),
// 3537                                sizeof(APSME_LinkKeyData_t), &pApsLinkKey );
// 3538 
// 3539 #if defined ( NV_RESTORE )
// 3540   // If the set default is requested, the APS Link key needs to be erased, regardless of the NV_RESTORE enabled
// 3541       if ((status == SUCCESS) && (setDefault == TRUE ))
// 3542       {
// 3543         osal_nv_write( (ZCD_NV_APS_LINK_KEY_DATA_START + i), 0,
// 3544                       sizeof(APSME_LinkKeyData_t), &pApsLinkKey );
// 3545 
// 3546       }
// 3547 #else
// 3548     // reset the values of NV items if NV_RESTORE is not enabled
// 3549     if (status == SUCCESS)
??ZDSecMgrApsLinkKeyInit_0:
        MOV       A,?V0
        ADD       A,#0x1
        MOV       R6,A
        CLR       A
        ADDC      A,#0x2
        MOV       R7,A
        ; Setup parameters for call to function osal_nv_item_init
        MOV       R0,?XSP + 0
        MOV       R1,?XSP + 1
        MOV       ?V2,R0
        MOV       ?V3,R1
        MOV       R0,#?V2
        LCALL     ?PUSH_XSTACK_I_TWO
          CFI CFA_XSP16 add(XSP16, 38)
        MOV       R4,#0x18
        MOV       R5,#0x0
        MOV       A,R6
        MOV       R2,A
        MOV       A,R7
        MOV       R3,A
        LCALL     `??osal_nv_item_init::?relay`; Banked call to: osal_nv_item_init
        MOV       A,#0x2
        LCALL     ?DEALLOC_XSTACK8
          CFI CFA_XSP16 add(XSP16, 36)
        MOV       A,R1
        JNZ       ??ZDSecMgrApsLinkKeyInit_1
// 3550     {
// 3551       osal_nv_write( (ZCD_NV_APS_LINK_KEY_DATA_START + i), 0,
// 3552                     sizeof(APSME_LinkKeyData_t), &pApsLinkKey );
        ; Setup parameters for call to function osal_nv_write
        MOV       R0,#?V2
        LCALL     ?PUSH_XSTACK_I_TWO
          CFI CFA_XSP16 add(XSP16, 38)
        MOV       ?V2,#0x18
        MOV       ?V3,#0x0
        MOV       R0,#?V2
        LCALL     ?PUSH_XSTACK_I_TWO
          CFI CFA_XSP16 add(XSP16, 40)
        MOV       R4,#0x0
        MOV       R5,#0x0
        MOV       A,R6
        MOV       R2,A
        MOV       A,R7
        MOV       R3,A
        LCALL     `??osal_nv_write::?relay`; Banked call to: osal_nv_write
        MOV       A,#0x4
        LCALL     ?DEALLOC_XSTACK8
          CFI CFA_XSP16 add(XSP16, 36)
// 3553 
// 3554     }
// 3555 #endif // defined (NV_RESTORE)
// 3556   }
??ZDSecMgrApsLinkKeyInit_1:
        INC       ?V0
        MOV       A,R6
        CLR       C
        SUBB      A,#0x3
        JC        ??ZDSecMgrApsLinkKeyInit_0
// 3557 }
        MOV       A,#0x18
        LJMP      ?Subroutine3 & 0xFFFF
          CFI EndBlock cfiBlock410
// 3558 
// 3559 
// 3560 /******************************************************************************
// 3561  * @fn          ZDSecMgrInitNVKeyTables
// 3562  *
// 3563  * @brief       Initialize the NV table for All keys: NWK, Master, TCLK and APS
// 3564  *
// 3565  * @param       setDefault - TRUE to set default values
// 3566  *
// 3567  * @return      none
// 3568  */

        RSEG BANKED_CODE:HUGECODE:NOROOT(0)
// 3569 void ZDSecMgrInitNVKeyTables(uint8 setDefault)
ZDSecMgrInitNVKeyTables:
          CFI Block cfiBlock411 Using cfiCommon0
          CFI Function ZDSecMgrInitNVKeyTables
        CODE
// 3570 {
        FUNCALL ZDSecMgrInitNVKeyTables, ZDSecMgrNwkKeyInit
        LOCFRAME ISTACK, 0, STACK
        LOCFRAME PSTACK, 0, STACK
        LOCFRAME XSTACK, 9, STACK
        LOCFRAME IOVERLAY, 0, STATIC
        LOCFRAME DOVERLAY, 0, STATIC
        ARGFRAME ISTACK, 0, STACK
        ARGFRAME PSTACK, 0, STACK
        ARGFRAME XSTACK, 9, STACK
        ARGFRAME IOVERLAY, 0, STATIC
        ARGFRAME DOVERLAY, 0, STATIC
        FUNCALL ZDSecMgrInitNVKeyTables, ZDSecMgrApsLinkKeyInit
        LOCFRAME ISTACK, 0, STACK
        LOCFRAME PSTACK, 0, STACK
        LOCFRAME XSTACK, 9, STACK
        LOCFRAME IOVERLAY, 0, STATIC
        LOCFRAME DOVERLAY, 0, STATIC
        ARGFRAME ISTACK, 0, STACK
        ARGFRAME PSTACK, 0, STACK
        ARGFRAME XSTACK, 9, STACK
        ARGFRAME IOVERLAY, 0, STATIC
        ARGFRAME DOVERLAY, 0, STATIC
        FUNCALL ZDSecMgrInitNVKeyTables, APSME_TCLinkKeyInit
        LOCFRAME ISTACK, 0, STACK
        LOCFRAME PSTACK, 0, STACK
        LOCFRAME XSTACK, 9, STACK
        LOCFRAME IOVERLAY, 0, STATIC
        LOCFRAME DOVERLAY, 0, STATIC
        ARGFRAME ISTACK, 0, STACK
        ARGFRAME PSTACK, 0, STACK
        ARGFRAME XSTACK, 9, STACK
        ARGFRAME IOVERLAY, 0, STATIC
        ARGFRAME DOVERLAY, 0, STATIC
        MOV       A,#-0x9
        LCALL     ?BANKED_ENTER_XDATA
          CFI DPH0 load(1, XDATA, add(CFA_XSP16, literal(-1)))
          CFI DPL0 load(1, XDATA, add(CFA_XSP16, literal(-2)))
          CFI ?BRET_EXT load(1, XDATA, add(CFA_XSP16, literal(-3)))
          CFI ?RET_HIGH load(1, XDATA, add(CFA_XSP16, literal(-4)))
          CFI ?RET_LOW load(1, XDATA, add(CFA_XSP16, literal(-5)))
          CFI R7 load(1, XDATA, add(CFA_XSP16, literal(-6)))
          CFI V0 load(1, XDATA, add(CFA_XSP16, literal(-7)))
          CFI VB load(1, XDATA, add(CFA_XSP16, literal(-8)))
          CFI R6 load(1, XDATA, add(CFA_XSP16, literal(-9)))
          CFI CFA_SP SP+0
          CFI CFA_XSP16 add(XSP16, 9)
        ; Saved register size: 9
        ; Auto size: 0
        MOV       A,R1
        MOV       R6,A
// 3571   ZDSecMgrNwkKeyInit(setDefault);
        ; Setup parameters for call to function ZDSecMgrNwkKeyInit
        LCALL     `??ZDSecMgrNwkKeyInit::?relay`; Banked call to: ZDSecMgrNwkKeyInit
// 3572   ZDSecMgrApsLinkKeyInit(setDefault); 
        ; Setup parameters for call to function ZDSecMgrApsLinkKeyInit
        MOV       A,R6
        MOV       R1,A
        LCALL     `??ZDSecMgrApsLinkKeyInit::?relay`; Banked call to: ZDSecMgrApsLinkKeyInit
// 3573   APSME_TCLinkKeyInit(setDefault);
        ; Setup parameters for call to function APSME_TCLinkKeyInit
        MOV       A,R6
        MOV       R1,A
        LCALL     `??APSME_TCLinkKeyInit::?relay`; Banked call to: APSME_TCLinkKeyInit
// 3574   
// 3575 #if ZG_BUILD_COORDINATOR_TYPE
// 3576   if(ZG_DEVICE_COORDINATOR_TYPE)
// 3577   {
// 3578     ZDSecMgrGenerateSeed(setDefault);
// 3579     
// 3580   }
// 3581 #endif
// 3582 }
        LJMP      ??Subroutine63_0 & 0xFFFF
          CFI EndBlock cfiBlock411
// 3583 
// 3584 
// 3585 /******************************************************************************
// 3586  * @fn          ZDSecMgrSaveApsLinkKey
// 3587  *
// 3588  * @brief       Save APS Link Key to NV. It will loop through all the keys
// 3589  *              to see which one to save.
// 3590  *
// 3591  * @param       none
// 3592  *
// 3593  * @return      none
// 3594  */

        RSEG BANKED_CODE:HUGECODE:NOROOT(0)
// 3595 void ZDSecMgrSaveApsLinkKey(void)
ZDSecMgrSaveApsLinkKey:
          CFI Block cfiBlock412 Using cfiCommon0
          CFI Function ZDSecMgrSaveApsLinkKey
        CODE
// 3596 {
        FUNCALL ZDSecMgrSaveApsLinkKey, osal_mem_alloc
        LOCFRAME ISTACK, 0, STACK
        LOCFRAME PSTACK, 0, STACK
        LOCFRAME XSTACK, 18, STACK
        LOCFRAME IOVERLAY, 0, STATIC
        LOCFRAME DOVERLAY, 0, STATIC
        ARGFRAME ISTACK, 0, STACK
        ARGFRAME PSTACK, 0, STACK
        ARGFRAME XSTACK, 18, STACK
        ARGFRAME IOVERLAY, 0, STATIC
        ARGFRAME DOVERLAY, 0, STATIC
        FUNCALL ZDSecMgrSaveApsLinkKey, osal_nv_read
        LOCFRAME ISTACK, 0, STACK
        LOCFRAME PSTACK, 0, STACK
        LOCFRAME XSTACK, 22, STACK
        LOCFRAME IOVERLAY, 0, STATIC
        LOCFRAME DOVERLAY, 0, STATIC
        ARGFRAME ISTACK, 0, STACK
        ARGFRAME PSTACK, 0, STACK
        ARGFRAME XSTACK, 22, STACK
        ARGFRAME IOVERLAY, 0, STATIC
        ARGFRAME DOVERLAY, 0, STATIC
        FUNCALL ZDSecMgrSaveApsLinkKey, osal_nv_write
        LOCFRAME ISTACK, 0, STACK
        LOCFRAME PSTACK, 0, STACK
        LOCFRAME XSTACK, 22, STACK
        LOCFRAME IOVERLAY, 0, STATIC
        LOCFRAME DOVERLAY, 0, STATIC
        ARGFRAME ISTACK, 0, STACK
        ARGFRAME PSTACK, 0, STACK
        ARGFRAME XSTACK, 22, STACK
        ARGFRAME IOVERLAY, 0, STATIC
        ARGFRAME DOVERLAY, 0, STATIC
        FUNCALL ZDSecMgrSaveApsLinkKey, osal_memset
        LOCFRAME ISTACK, 0, STACK
        LOCFRAME PSTACK, 0, STACK
        LOCFRAME XSTACK, 18, STACK
        LOCFRAME IOVERLAY, 0, STATIC
        LOCFRAME DOVERLAY, 0, STATIC
        ARGFRAME ISTACK, 0, STACK
        ARGFRAME PSTACK, 0, STACK
        ARGFRAME XSTACK, 18, STACK
        ARGFRAME IOVERLAY, 0, STATIC
        ARGFRAME DOVERLAY, 0, STATIC
        FUNCALL ZDSecMgrSaveApsLinkKey, osal_mem_free
        LOCFRAME ISTACK, 0, STACK
        LOCFRAME PSTACK, 0, STACK
        LOCFRAME XSTACK, 18, STACK
        LOCFRAME IOVERLAY, 0, STATIC
        LOCFRAME DOVERLAY, 0, STATIC
        ARGFRAME ISTACK, 0, STACK
        ARGFRAME PSTACK, 0, STACK
        ARGFRAME XSTACK, 18, STACK
        ARGFRAME IOVERLAY, 0, STATIC
        ARGFRAME DOVERLAY, 0, STATIC
        REQUIRE ?V0
        REQUIRE ?V1
        REQUIRE ?V2
        REQUIRE ?V3
        REQUIRE ?V4
        REQUIRE ?V5
        REQUIRE ?V6
        REQUIRE ?V7
        REQUIRE ?V8
        REQUIRE ?V9
        MOV       A,#-0x12
        LCALL     ?BANKED_ENTER_XDATA
          CFI DPH0 load(1, XDATA, add(CFA_XSP16, literal(-1)))
          CFI DPL0 load(1, XDATA, add(CFA_XSP16, literal(-2)))
          CFI ?BRET_EXT load(1, XDATA, add(CFA_XSP16, literal(-3)))
          CFI ?RET_HIGH load(1, XDATA, add(CFA_XSP16, literal(-4)))
          CFI ?RET_LOW load(1, XDATA, add(CFA_XSP16, literal(-5)))
          CFI R7 load(1, XDATA, add(CFA_XSP16, literal(-6)))
          CFI V9 load(1, XDATA, add(CFA_XSP16, literal(-7)))
          CFI V8 load(1, XDATA, add(CFA_XSP16, literal(-8)))
          CFI V7 load(1, XDATA, add(CFA_XSP16, literal(-9)))
          CFI V6 load(1, XDATA, add(CFA_XSP16, literal(-10)))
          CFI V5 load(1, XDATA, add(CFA_XSP16, literal(-11)))
          CFI V4 load(1, XDATA, add(CFA_XSP16, literal(-12)))
          CFI V3 load(1, XDATA, add(CFA_XSP16, literal(-13)))
          CFI V2 load(1, XDATA, add(CFA_XSP16, literal(-14)))
          CFI V1 load(1, XDATA, add(CFA_XSP16, literal(-15)))
          CFI V0 load(1, XDATA, add(CFA_XSP16, literal(-16)))
          CFI VB load(1, XDATA, add(CFA_XSP16, literal(-17)))
          CFI R6 load(1, XDATA, add(CFA_XSP16, literal(-18)))
          CFI CFA_SP SP+0
          CFI CFA_XSP16 add(XSP16, 18)
        ; Saved register size: 18
        ; Auto size: 0
// 3597   APSME_LinkKeyData_t *pKeyData = NULL;
// 3598   int i;
// 3599 
// 3600   pKeyData = (APSME_LinkKeyData_t *)osal_mem_alloc(sizeof(APSME_LinkKeyData_t));
        ; Setup parameters for call to function osal_mem_alloc
        MOV       R2,#0x18
        MOV       R3,#0x0
        LCALL     `??osal_mem_alloc::?relay`; Banked call to: osal_mem_alloc
        MOV       ?V6,R2
        MOV       ?V7,R3
// 3601 
// 3602   if (pKeyData != NULL)
        MOV       A,R2
        ORL       A,?V7
        JNZ       $+5
        LJMP      ??ZDSecMgrSaveApsLinkKey_0 & 0xFFFF
// 3603   {
// 3604     // checks all pending flags to know which one to save
// 3605     for (i = 0; i < ZDSECMGR_ENTRY_MAX; i++)
        MOV       ?V0,#0x0
        MOV       ?V1,#0x0
// 3606     {
// 3607       if (ApsLinkKeyFrmCntr[i].pendingFlag == TRUE)
??ZDSecMgrSaveApsLinkKey_1:
        MOV       A,?V0
        MOV       B,#0x9
        MUL       AB
        MOV       R0,A
        MOV       R2,B
        MOV       B,#0x9
        MOV       A,?V1
        MUL       AB
        ADD       A,R2
        MOV       R1,A
        MOV       A,#ApsLinkKeyFrmCntr & 0xff
        ADD       A,R0
        MOV       ?V2,A
        MOV       A,#(ApsLinkKeyFrmCntr >> 8) & 0xff
        ADDC      A,R1
        MOV       ?V3,A
        MOV       A,?V2
        LCALL     ?Subroutine40 & 0xFFFF
??CrossCallReturnLabel_45:
        JZ        $+5
        LJMP      ??ZDSecMgrSaveApsLinkKey_2 & 0xFFFF
        MOV       A,?V0
        ADD       A,#0x1
        MOV       R6,A
        MOV       A,?V1
        ADDC      A,#0x2
        MOV       R7,A
        ; Setup parameters for call to function osal_nv_read
        MOV       R0,#?V6
        LCALL     ?PUSH_XSTACK_I_TWO
          CFI CFA_XSP16 add(XSP16, 20)
        MOV       ?V8,#0x18
        MOV       ?V9,#0x0
        MOV       R0,#?V8
        LCALL     ?PUSH_XSTACK_I_TWO
          CFI CFA_XSP16 add(XSP16, 22)
        MOV       R4,#0x0
        MOV       R5,#0x0
        MOV       A,R6
        MOV       R2,A
        MOV       A,R7
        MOV       R3,A
// 3608       {
// 3609         // retrieve key from NV
// 3610         if (osal_nv_read(ZCD_NV_APS_LINK_KEY_DATA_START + i, 0,
// 3611                          sizeof(APSME_LinkKeyData_t), pKeyData) == SUCCESS)
        LCALL     `??osal_nv_read::?relay`; Banked call to: osal_nv_read
        MOV       A,#0x4
        LCALL     ?DEALLOC_XSTACK8
          CFI CFA_XSP16 add(XSP16, 18)
        MOV       A,R1
        JNZ       ??ZDSecMgrSaveApsLinkKey_2
// 3612         {
// 3613           pKeyData->txFrmCntr = ApsLinkKeyFrmCntr[i].txFrmCntr;
        MOV       DPL,?V2
        MOV       DPH,?V3
        LCALL     ?XLOAD_R0123
        MOV       A,?V6
        ADD       A,#0x10
        MOV       DPL,A
        CLR       A
        ADDC      A,?V7
        MOV       DPH,A
        LCALL     ?XSTORE_R0123
// 3614           pKeyData->rxFrmCntr = ApsLinkKeyFrmCntr[i].rxFrmCntr;
        MOV       DPL,?V2
        MOV       DPH,?V3
        INC       DPTR
        INC       DPTR
        INC       DPTR
        INC       DPTR
        LCALL     ?XLOAD_R0123
        MOV       A,?V6
        ADD       A,#0x14
        MOV       DPL,A
        CLR       A
        ADDC      A,?V7
        MOV       DPH,A
        LCALL     ?XSTORE_R0123
// 3615 
// 3616           // Write the APS link key back to the NV
// 3617           osal_nv_write(ZCD_NV_APS_LINK_KEY_DATA_START + i, 0,
// 3618                         sizeof(APSME_LinkKeyData_t), pKeyData);
        ; Setup parameters for call to function osal_nv_write
        MOV       R0,#?V6
        LCALL     ?PUSH_XSTACK_I_TWO
          CFI CFA_XSP16 add(XSP16, 20)
        MOV       ?V2,#0x18
        MOV       ?V3,#0x0
        MOV       R0,#?V2
        LCALL     ?PUSH_XSTACK_I_TWO
          CFI CFA_XSP16 add(XSP16, 22)
        MOV       R4,#0x0
        MOV       R5,#0x0
        MOV       A,R6
        MOV       R2,A
        MOV       A,R7
        MOV       R3,A
        LCALL     `??osal_nv_write::?relay`; Banked call to: osal_nv_write
        MOV       A,#0x4
        LCALL     ?DEALLOC_XSTACK8
          CFI CFA_XSP16 add(XSP16, 18)
// 3619 
// 3620           // clear the pending write flag
// 3621           ApsLinkKeyFrmCntr[i].pendingFlag = FALSE;
        MOV       DPL,?V4
        MOV       DPH,?V5
        CLR       A
        MOVX      @DPTR,A
// 3622         }
// 3623       }
// 3624     }
??ZDSecMgrSaveApsLinkKey_2:
        INC       ?V0
        MOV       A,?V0
        JNZ       ??ZDSecMgrSaveApsLinkKey_3
        INC       ?V1
??ZDSecMgrSaveApsLinkKey_3:
        CLR       C
        SUBB      A,#0x3
        MOV       A,?V1
        SUBB      A,#0x0
        MOV       C,0xD0 /* PSW */.2
        XRL       A,PSW
        RLC       A
        JNC       $+5
        LJMP      ??ZDSecMgrSaveApsLinkKey_1 & 0xFFFF
// 3625 
// 3626     // clear copy of key in RAM
// 3627     osal_memset( pKeyData, 0x00, sizeof(APSME_LinkKeyData_t) );
        ; Setup parameters for call to function osal_memset
        MOV       R4,#0x18
        MOV       R5,#0x0
        MOV       R1,#0x0
        MOV       R2,?V6
        MOV       R3,?V7
        LCALL     `??osal_memset::?relay`; Banked call to: osal_memset
// 3628 
// 3629     osal_mem_free(pKeyData);
        ; Setup parameters for call to function osal_mem_free
        MOV       R2,?V6
        MOV       R3,?V7
        LCALL     `??osal_mem_free::?relay`; Banked call to: osal_mem_free
// 3630   }
// 3631 }
??ZDSecMgrSaveApsLinkKey_0:
        LJMP      ??Subroutine75_0 & 0xFFFF
          CFI EndBlock cfiBlock412
// 3632 
// 3633 /******************************************************************************
// 3634  * @fn          ZDSecMgrSaveTCLinkKey
// 3635  *
// 3636  * @brief       Save TC Link Key to NV. It will loop through all the keys
// 3637  *              to see which one to save.
// 3638  *
// 3639  * @param       none
// 3640  *
// 3641  * @return      none
// 3642  */

        RSEG BANKED_CODE:HUGECODE:NOROOT(0)
// 3643 void ZDSecMgrSaveTCLinkKey(void)
ZDSecMgrSaveTCLinkKey:
          CFI Block cfiBlock413 Using cfiCommon0
          CFI Function ZDSecMgrSaveTCLinkKey
        CODE
// 3644 {
        FUNCALL ZDSecMgrSaveTCLinkKey, osal_mem_alloc
        LOCFRAME ISTACK, 0, STACK
        LOCFRAME PSTACK, 0, STACK
        LOCFRAME XSTACK, 18, STACK
        LOCFRAME IOVERLAY, 0, STATIC
        LOCFRAME DOVERLAY, 0, STATIC
        ARGFRAME ISTACK, 0, STACK
        ARGFRAME PSTACK, 0, STACK
        ARGFRAME XSTACK, 18, STACK
        ARGFRAME IOVERLAY, 0, STATIC
        ARGFRAME DOVERLAY, 0, STATIC
        FUNCALL ZDSecMgrSaveTCLinkKey, osal_nv_read
        LOCFRAME ISTACK, 0, STACK
        LOCFRAME PSTACK, 0, STACK
        LOCFRAME XSTACK, 22, STACK
        LOCFRAME IOVERLAY, 0, STATIC
        LOCFRAME DOVERLAY, 0, STATIC
        ARGFRAME ISTACK, 0, STACK
        ARGFRAME PSTACK, 0, STACK
        ARGFRAME XSTACK, 22, STACK
        ARGFRAME IOVERLAY, 0, STATIC
        ARGFRAME DOVERLAY, 0, STATIC
        FUNCALL ZDSecMgrSaveTCLinkKey, osal_nv_write
        LOCFRAME ISTACK, 0, STACK
        LOCFRAME PSTACK, 0, STACK
        LOCFRAME XSTACK, 22, STACK
        LOCFRAME IOVERLAY, 0, STATIC
        LOCFRAME DOVERLAY, 0, STATIC
        ARGFRAME ISTACK, 0, STACK
        ARGFRAME PSTACK, 0, STACK
        ARGFRAME XSTACK, 22, STACK
        ARGFRAME IOVERLAY, 0, STATIC
        ARGFRAME DOVERLAY, 0, STATIC
        FUNCALL ZDSecMgrSaveTCLinkKey, osal_mem_free
        LOCFRAME ISTACK, 0, STACK
        LOCFRAME PSTACK, 0, STACK
        LOCFRAME XSTACK, 18, STACK
        LOCFRAME IOVERLAY, 0, STATIC
        LOCFRAME DOVERLAY, 0, STATIC
        ARGFRAME ISTACK, 0, STACK
        ARGFRAME PSTACK, 0, STACK
        ARGFRAME XSTACK, 18, STACK
        ARGFRAME IOVERLAY, 0, STATIC
        ARGFRAME DOVERLAY, 0, STATIC
        REQUIRE ?V0
        REQUIRE ?V1
        REQUIRE ?V2
        REQUIRE ?V3
        REQUIRE ?V4
        REQUIRE ?V5
        REQUIRE ?V6
        REQUIRE ?V7
        REQUIRE ?V8
        REQUIRE ?V9
        MOV       A,#-0x12
        LCALL     ?BANKED_ENTER_XDATA
          CFI DPH0 load(1, XDATA, add(CFA_XSP16, literal(-1)))
          CFI DPL0 load(1, XDATA, add(CFA_XSP16, literal(-2)))
          CFI ?BRET_EXT load(1, XDATA, add(CFA_XSP16, literal(-3)))
          CFI ?RET_HIGH load(1, XDATA, add(CFA_XSP16, literal(-4)))
          CFI ?RET_LOW load(1, XDATA, add(CFA_XSP16, literal(-5)))
          CFI R7 load(1, XDATA, add(CFA_XSP16, literal(-6)))
          CFI V9 load(1, XDATA, add(CFA_XSP16, literal(-7)))
          CFI V8 load(1, XDATA, add(CFA_XSP16, literal(-8)))
          CFI V7 load(1, XDATA, add(CFA_XSP16, literal(-9)))
          CFI V6 load(1, XDATA, add(CFA_XSP16, literal(-10)))
          CFI V5 load(1, XDATA, add(CFA_XSP16, literal(-11)))
          CFI V4 load(1, XDATA, add(CFA_XSP16, literal(-12)))
          CFI V3 load(1, XDATA, add(CFA_XSP16, literal(-13)))
          CFI V2 load(1, XDATA, add(CFA_XSP16, literal(-14)))
          CFI V1 load(1, XDATA, add(CFA_XSP16, literal(-15)))
          CFI V0 load(1, XDATA, add(CFA_XSP16, literal(-16)))
          CFI VB load(1, XDATA, add(CFA_XSP16, literal(-17)))
          CFI R6 load(1, XDATA, add(CFA_XSP16, literal(-18)))
          CFI CFA_SP SP+0
          CFI CFA_XSP16 add(XSP16, 18)
        ; Saved register size: 18
        ; Auto size: 0
// 3645   APSME_TCLKDevEntry_t *pKeyData = NULL;
// 3646   uint16 i;
// 3647 
// 3648   pKeyData = (APSME_TCLKDevEntry_t *)osal_mem_alloc(sizeof(APSME_TCLKDevEntry_t));
        ; Setup parameters for call to function osal_mem_alloc
        MOV       R2,#0x13
        MOV       R3,#0x0
        LCALL     `??osal_mem_alloc::?relay`; Banked call to: osal_mem_alloc
        MOV       ?V6,R2
        MOV       ?V7,R3
// 3649 
// 3650   if (pKeyData != NULL)
        MOV       A,R2
        ORL       A,?V7
        JNZ       $+5
        LJMP      ??ZDSecMgrSaveTCLinkKey_0 & 0xFFFF
// 3651   {
// 3652     for( i = 0; i < gZDSECMGR_TC_DEVICE_MAX; i++ )
        MOV       ?V0,#0x0
        MOV       ?V1,#0x0
// 3653     {
// 3654       if (TCLinkKeyFrmCntr[i].pendingFlag == TRUE)
??ZDSecMgrSaveTCLinkKey_1:
        MOV       A,?V0
        MOV       B,#0x9
        MUL       AB
        MOV       R0,A
        MOV       R2,B
        MOV       B,#0x9
        MOV       A,?V1
        LCALL     ?Subroutine35 & 0xFFFF
??CrossCallReturnLabel_38:
        LCALL     ?Subroutine40 & 0xFFFF
??CrossCallReturnLabel_46:
        JZ        $+5
        LJMP      ??ZDSecMgrSaveTCLinkKey_2 & 0xFFFF
// 3655       {
// 3656         if (osal_nv_read(ZCD_NV_TCLK_TABLE_START + i, 0,
// 3657                          sizeof(APSME_TCLKDevEntry_t), pKeyData) == SUCCESS)
        MOV       A,?V0
        ADD       A,#0x11
        MOV       R6,A
        MOV       A,?V1
        ADDC      A,#0x1
        MOV       R7,A
        ; Setup parameters for call to function osal_nv_read
        MOV       R0,#?V6
        LCALL     ?PUSH_XSTACK_I_TWO
          CFI CFA_XSP16 add(XSP16, 20)
        MOV       ?V8,#0x13
        MOV       ?V9,#0x0
        MOV       R0,#?V8
        LCALL     ?PUSH_XSTACK_I_TWO
          CFI CFA_XSP16 add(XSP16, 22)
        MOV       R4,#0x0
        MOV       R5,#0x0
        MOV       A,R6
        MOV       R2,A
        MOV       A,R7
        MOV       R3,A
        LCALL     `??osal_nv_read::?relay`; Banked call to: osal_nv_read
        MOV       A,#0x4
        LCALL     ?DEALLOC_XSTACK8
          CFI CFA_XSP16 add(XSP16, 18)
        MOV       A,R1
        JNZ       ??ZDSecMgrSaveTCLinkKey_2
// 3658         {
// 3659           pKeyData->txFrmCntr = TCLinkKeyFrmCntr[i].txFrmCntr;
        MOV       DPL,?V2
        MOV       DPH,?V3
        LCALL     ?XLOAD_R0123
        MOV       DPL,?V6
        MOV       DPH,?V7
        LCALL     ?XSTORE_R0123
// 3660           pKeyData->rxFrmCntr = TCLinkKeyFrmCntr[i].rxFrmCntr;
        MOV       DPL,?V2
        MOV       DPH,?V3
        INC       DPTR
        INC       DPTR
        INC       DPTR
        INC       DPTR
        LCALL     ?XLOAD_R0123
        MOV       DPL,?V6
        MOV       DPH,?V7
        INC       DPTR
        INC       DPTR
        INC       DPTR
        INC       DPTR
        LCALL     ?XSTORE_R0123
// 3661 
// 3662           // Write the TC link key back to the NV
// 3663           osal_nv_write(ZCD_NV_TCLK_TABLE_START + i, 0,
// 3664                         sizeof(APSME_TCLKDevEntry_t), pKeyData);
        ; Setup parameters for call to function osal_nv_write
        MOV       R0,#?V6
        LCALL     ?PUSH_XSTACK_I_TWO
          CFI CFA_XSP16 add(XSP16, 20)
        MOV       ?V2,#0x13
        MOV       ?V3,#0x0
        MOV       R0,#?V2
        LCALL     ?PUSH_XSTACK_I_TWO
          CFI CFA_XSP16 add(XSP16, 22)
        MOV       R4,#0x0
        MOV       R5,#0x0
        MOV       A,R6
        MOV       R2,A
        MOV       A,R7
        MOV       R3,A
        LCALL     `??osal_nv_write::?relay`; Banked call to: osal_nv_write
        MOV       A,#0x4
        LCALL     ?DEALLOC_XSTACK8
          CFI CFA_XSP16 add(XSP16, 18)
// 3665 
// 3666           // clear the pending write flag
// 3667           TCLinkKeyFrmCntr[i].pendingFlag = FALSE;
        MOV       DPL,?V4
        MOV       DPH,?V5
        CLR       A
        MOVX      @DPTR,A
// 3668         }
// 3669       }
// 3670     }
??ZDSecMgrSaveTCLinkKey_2:
        INC       ?V0
        MOV       A,?V0
        JNZ       ??ZDSecMgrSaveTCLinkKey_3
        INC       ?V1
??ZDSecMgrSaveTCLinkKey_3:
        CLR       C
        SUBB      A,#0x3
        MOV       A,?V1
        SUBB      A,#0x0
        JNC       $+5
        LJMP      ??ZDSecMgrSaveTCLinkKey_1 & 0xFFFF
// 3671 
// 3672     osal_mem_free(pKeyData);
        ; Setup parameters for call to function osal_mem_free
        MOV       R2,?V6
        MOV       R3,?V7
        LCALL     `??osal_mem_free::?relay`; Banked call to: osal_mem_free
// 3673   }
// 3674 }
??ZDSecMgrSaveTCLinkKey_0:
        LJMP      ??Subroutine75_0 & 0xFFFF
          CFI EndBlock cfiBlock413

        RSEG BANKED_CODE:HUGECODE:NOROOT(0)
?Subroutine40:
          CFI Block cfiCond414 Using cfiCommon0
          CFI Function ZDSecMgrSaveApsLinkKey
          CFI Conditional ??CrossCallReturnLabel_45
          CFI R6 load(1, XDATA, add(CFA_XSP16, literal(-18)))
          CFI VB load(1, XDATA, add(CFA_XSP16, literal(-17)))
          CFI V0 load(1, XDATA, add(CFA_XSP16, literal(-16)))
          CFI V1 load(1, XDATA, add(CFA_XSP16, literal(-15)))
          CFI V2 load(1, XDATA, add(CFA_XSP16, literal(-14)))
          CFI V3 load(1, XDATA, add(CFA_XSP16, literal(-13)))
          CFI V4 load(1, XDATA, add(CFA_XSP16, literal(-12)))
          CFI V5 load(1, XDATA, add(CFA_XSP16, literal(-11)))
          CFI V6 load(1, XDATA, add(CFA_XSP16, literal(-10)))
          CFI V7 load(1, XDATA, add(CFA_XSP16, literal(-9)))
          CFI V8 load(1, XDATA, add(CFA_XSP16, literal(-8)))
          CFI V9 load(1, XDATA, add(CFA_XSP16, literal(-7)))
          CFI R7 load(1, XDATA, add(CFA_XSP16, literal(-6)))
          CFI ?RET_LOW load(1, XDATA, add(CFA_XSP16, literal(-5)))
          CFI ?RET_HIGH load(1, XDATA, add(CFA_XSP16, literal(-4)))
          CFI ?BRET_EXT load(1, XDATA, add(CFA_XSP16, literal(-3)))
          CFI DPL0 load(1, XDATA, add(CFA_XSP16, literal(-2)))
          CFI DPH0 load(1, XDATA, add(CFA_XSP16, literal(-1)))
          CFI CFA_SP SP+-2
          CFI CFA_XSP16 add(XSP16, 18)
          CFI Block cfiCond415 Using cfiCommon0
          CFI (cfiCond415) Function ZDSecMgrSaveTCLinkKey
          CFI (cfiCond415) Conditional ??CrossCallReturnLabel_46
          CFI (cfiCond415) R6 load(1, XDATA, add(CFA_XSP16, literal(-18)))
          CFI (cfiCond415) VB load(1, XDATA, add(CFA_XSP16, literal(-17)))
          CFI (cfiCond415) V0 load(1, XDATA, add(CFA_XSP16, literal(-16)))
          CFI (cfiCond415) V1 load(1, XDATA, add(CFA_XSP16, literal(-15)))
          CFI (cfiCond415) V2 load(1, XDATA, add(CFA_XSP16, literal(-14)))
          CFI (cfiCond415) V3 load(1, XDATA, add(CFA_XSP16, literal(-13)))
          CFI (cfiCond415) V4 load(1, XDATA, add(CFA_XSP16, literal(-12)))
          CFI (cfiCond415) V5 load(1, XDATA, add(CFA_XSP16, literal(-11)))
          CFI (cfiCond415) V6 load(1, XDATA, add(CFA_XSP16, literal(-10)))
          CFI (cfiCond415) V7 load(1, XDATA, add(CFA_XSP16, literal(-9)))
          CFI (cfiCond415) V8 load(1, XDATA, add(CFA_XSP16, literal(-8)))
          CFI (cfiCond415) V9 load(1, XDATA, add(CFA_XSP16, literal(-7)))
          CFI (cfiCond415) R7 load(1, XDATA, add(CFA_XSP16, literal(-6)))
          CFI (cfiCond415) ?RET_LOW load(1, XDATA, add(CFA_XSP16, literal(-5)))
          CFI (cfiCond415) ?RET_HIGH load(1, XDATA, add(CFA_XSP16, literal(-4)))
          CFI (cfiCond415) ?BRET_EXT load(1, XDATA, add(CFA_XSP16, literal(-3)))
          CFI (cfiCond415) DPL0 load(1, XDATA, add(CFA_XSP16, literal(-2)))
          CFI (cfiCond415) DPH0 load(1, XDATA, add(CFA_XSP16, literal(-1)))
          CFI (cfiCond415) CFA_SP SP+-2
          CFI (cfiCond415) CFA_XSP16 add(XSP16, 18)
          CFI Block cfiPicker416 Using cfiCommon1
          CFI (cfiPicker416) NoFunction
          CFI (cfiPicker416) Picker
        ADD       A,#0x8
        MOV       ?V4,A
        CLR       A
        ADDC      A,?V3
        MOV       ?V5,A
        MOV       DPL,?V4
        MOV       DPH,A
        MOVX      A,@DPTR
        XRL       A,#0x1
        RET
          CFI EndBlock cfiCond414
          CFI EndBlock cfiCond415
          CFI EndBlock cfiPicker416

        RSEG BANKED_CODE:HUGECODE:NOROOT(0)
?Subroutine35:
          CFI Block cfiCond417 Using cfiCommon0
          CFI Function APSME_TCLinkKeyInit
          CFI Conditional ??CrossCallReturnLabel_37
          CFI R6 load(1, XDATA, add(CFA_XSP16, literal(-20)))
          CFI VB load(1, XDATA, add(CFA_XSP16, literal(-19)))
          CFI V0 load(1, XDATA, add(CFA_XSP16, literal(-18)))
          CFI V1 load(1, XDATA, add(CFA_XSP16, literal(-17)))
          CFI V2 load(1, XDATA, add(CFA_XSP16, literal(-16)))
          CFI V3 load(1, XDATA, add(CFA_XSP16, literal(-15)))
          CFI V4 load(1, XDATA, add(CFA_XSP16, literal(-14)))
          CFI V5 load(1, XDATA, add(CFA_XSP16, literal(-13)))
          CFI V6 load(1, XDATA, add(CFA_XSP16, literal(-12)))
          CFI V7 load(1, XDATA, add(CFA_XSP16, literal(-11)))
          CFI V8 load(1, XDATA, add(CFA_XSP16, literal(-10)))
          CFI V9 load(1, XDATA, add(CFA_XSP16, literal(-9)))
          CFI V10 load(1, XDATA, add(CFA_XSP16, literal(-8)))
          CFI V11 load(1, XDATA, add(CFA_XSP16, literal(-7)))
          CFI R7 load(1, XDATA, add(CFA_XSP16, literal(-6)))
          CFI ?RET_LOW load(1, XDATA, add(CFA_XSP16, literal(-5)))
          CFI ?RET_HIGH load(1, XDATA, add(CFA_XSP16, literal(-4)))
          CFI ?BRET_EXT load(1, XDATA, add(CFA_XSP16, literal(-3)))
          CFI DPL0 load(1, XDATA, add(CFA_XSP16, literal(-2)))
          CFI DPH0 load(1, XDATA, add(CFA_XSP16, literal(-1)))
          CFI CFA_SP SP+-2
          CFI CFA_XSP16 add(XSP16, 39)
          CFI Block cfiCond418 Using cfiCommon0
          CFI (cfiCond418) Function ZDSecMgrSaveTCLinkKey
          CFI (cfiCond418) Conditional ??CrossCallReturnLabel_38
          CFI (cfiCond418) R6 load(1, XDATA, add(CFA_XSP16, literal(-18)))
          CFI (cfiCond418) VB load(1, XDATA, add(CFA_XSP16, literal(-17)))
          CFI (cfiCond418) V0 load(1, XDATA, add(CFA_XSP16, literal(-16)))
          CFI (cfiCond418) V1 load(1, XDATA, add(CFA_XSP16, literal(-15)))
          CFI (cfiCond418) V2 load(1, XDATA, add(CFA_XSP16, literal(-14)))
          CFI (cfiCond418) V3 load(1, XDATA, add(CFA_XSP16, literal(-13)))
          CFI (cfiCond418) V4 load(1, XDATA, add(CFA_XSP16, literal(-12)))
          CFI (cfiCond418) V5 load(1, XDATA, add(CFA_XSP16, literal(-11)))
          CFI (cfiCond418) V6 load(1, XDATA, add(CFA_XSP16, literal(-10)))
          CFI (cfiCond418) V7 load(1, XDATA, add(CFA_XSP16, literal(-9)))
          CFI (cfiCond418) V8 load(1, XDATA, add(CFA_XSP16, literal(-8)))
          CFI (cfiCond418) V9 load(1, XDATA, add(CFA_XSP16, literal(-7)))
          CFI (cfiCond418) R7 load(1, XDATA, add(CFA_XSP16, literal(-6)))
          CFI (cfiCond418) ?RET_LOW load(1, XDATA, add(CFA_XSP16, literal(-5)))
          CFI (cfiCond418) ?RET_HIGH load(1, XDATA, add(CFA_XSP16, literal(-4)))
          CFI (cfiCond418) ?BRET_EXT load(1, XDATA, add(CFA_XSP16, literal(-3)))
          CFI (cfiCond418) DPL0 load(1, XDATA, add(CFA_XSP16, literal(-2)))
          CFI (cfiCond418) DPH0 load(1, XDATA, add(CFA_XSP16, literal(-1)))
          CFI (cfiCond418) CFA_SP SP+-2
          CFI (cfiCond418) CFA_XSP16 add(XSP16, 18)
          CFI Block cfiPicker419 Using cfiCommon1
          CFI (cfiPicker419) NoFunction
          CFI (cfiPicker419) Picker
        MUL       AB
        ADD       A,R2
        MOV       R1,A
        MOV       A,#TCLinkKeyFrmCntr & 0xff
        ADD       A,R0
        MOV       ?V2,A
        MOV       A,#(TCLinkKeyFrmCntr >> 8) & 0xff
        ADDC      A,R1
        MOV       ?V3,A
        MOV       A,?V2
        RET
          CFI EndBlock cfiCond417
          CFI EndBlock cfiCond418
          CFI EndBlock cfiPicker419
// 3675 
// 3676 /******************************************************************************
// 3677  * @fn          ZDSecMgrUpdateTCAddress
// 3678  *
// 3679  * @brief       Update Trust Center address and save to NV.
// 3680  *
// 3681  * @param       extAddr - [in] extended address or NULL if no TC protected
// 3682  *
// 3683  * @return      none
// 3684  */

        RSEG BANKED_CODE:HUGECODE:NOROOT(0)
// 3685 void ZDSecMgrUpdateTCAddress( uint8 *extAddr )
ZDSecMgrUpdateTCAddress:
          CFI Block cfiBlock420 Using cfiCommon0
          CFI Function ZDSecMgrUpdateTCAddress
        CODE
// 3686 {
        FUNCALL ZDSecMgrUpdateTCAddress, APSME_SetRequest
        LOCFRAME ISTACK, 0, STACK
        LOCFRAME PSTACK, 0, STACK
        LOCFRAME XSTACK, 18, STACK
        LOCFRAME IOVERLAY, 0, STATIC
        LOCFRAME DOVERLAY, 0, STATIC
        ARGFRAME ISTACK, 0, STACK
        ARGFRAME PSTACK, 0, STACK
        ARGFRAME XSTACK, 18, STACK
        ARGFRAME IOVERLAY, 0, STATIC
        ARGFRAME DOVERLAY, 0, STATIC
        FUNCALL ZDSecMgrUpdateTCAddress, sAddrExtCpy
        LOCFRAME ISTACK, 0, STACK
        LOCFRAME PSTACK, 0, STACK
        LOCFRAME XSTACK, 18, STACK
        LOCFRAME IOVERLAY, 0, STATIC
        LOCFRAME DOVERLAY, 0, STATIC
        ARGFRAME ISTACK, 0, STACK
        ARGFRAME PSTACK, 0, STACK
        ARGFRAME XSTACK, 18, STACK
        ARGFRAME IOVERLAY, 0, STATIC
        ARGFRAME DOVERLAY, 0, STATIC
        REQUIRE ?V0
        REQUIRE ?V1
        MOV       A,#-0xa
        LCALL     ?BANKED_ENTER_XDATA
          CFI DPH0 load(1, XDATA, add(CFA_XSP16, literal(-1)))
          CFI DPL0 load(1, XDATA, add(CFA_XSP16, literal(-2)))
          CFI ?BRET_EXT load(1, XDATA, add(CFA_XSP16, literal(-3)))
          CFI ?RET_HIGH load(1, XDATA, add(CFA_XSP16, literal(-4)))
          CFI ?RET_LOW load(1, XDATA, add(CFA_XSP16, literal(-5)))
          CFI R7 load(1, XDATA, add(CFA_XSP16, literal(-6)))
          CFI V1 load(1, XDATA, add(CFA_XSP16, literal(-7)))
          CFI V0 load(1, XDATA, add(CFA_XSP16, literal(-8)))
          CFI VB load(1, XDATA, add(CFA_XSP16, literal(-9)))
          CFI R6 load(1, XDATA, add(CFA_XSP16, literal(-10)))
          CFI CFA_SP SP+0
          CFI CFA_XSP16 add(XSP16, 10)
        ; Saved register size: 10
        ; Auto size: 8
        MOV       A,#-0x8
        LCALL     ?ALLOC_XSTACK8
          CFI CFA_XSP16 add(XSP16, 18)
// 3687   uint8 noTCAddress[Z_EXTADDR_LEN] = { 0xFF, 0xFF, 0xFF, 0xFF, 0xFF, 0xFF, 0xFF, 0xFF };
        MOV       DPTR,#`?<Constant {255, 255, 255, 255, 255, 255, 255,`
        MOV       R4,?XSP + 0
        MOV       R5,?XSP + 1
        MOV       A,#0x8
        LCALL     ?MOVE_LONG8_XDATA_XDATA
// 3688   APSME_SetRequest( apsTrustCenterAddress, 0, ( extAddr != NULL) ? extAddr : noTCAddress );
        MOV       A,R2
        ORL       A,R3
        JZ        ??ZDSecMgrUpdateTCAddress_0
        MOV       A,R2
        MOV       R6,A
        MOV       A,R3
        MOV       R7,A
        SJMP      ??ZDSecMgrUpdateTCAddress_1
??ZDSecMgrUpdateTCAddress_0:
        MOV       R0,?XSP + 0
        MOV       R1,?XSP + 1
        MOV       ?V0,R0
        MOV       ?V1,R1
        MOV       R6,?V0
        MOV       R7,?V1
??ZDSecMgrUpdateTCAddress_1:
        ; Setup parameters for call to function APSME_SetRequest
        MOV       A,R6
        MOV       R4,A
        MOV       A,R7
        MOV       R5,A
        MOV       R2,#0x0
        MOV       R3,#0x0
        MOV       R1,#-0x55
        LCALL     `??APSME_SetRequest::?relay`; Banked call to: APSME_SetRequest
// 3689   osal_cpyExtAddr( zgApsTrustCenterAddr, ( extAddr != NULL) ? extAddr : noTCAddress );
        MOV       A,R6
        MOV       R4,A
        MOV       A,R7
        MOV       R5,A
        ; Setup parameters for call to function sAddrExtCpy
        MOV       R2,#zgApsTrustCenterAddr & 0xff
        MOV       R3,#(zgApsTrustCenterAddr >> 8) & 0xff
        LCALL     `??sAddrExtCpy::?relay`; Banked call to: sAddrExtCpy
// 3690   
// 3691 #if defined ( NV_RESTORE )
// 3692   osal_nv_write( ZCD_NV_TRUSTCENTER_ADDR, 0, Z_EXTADDR_LEN, zgApsTrustCenterAddr );
// 3693 #endif
// 3694 }
        LJMP      ?Subroutine4 & 0xFFFF
          CFI EndBlock cfiBlock420

        RSEG XDATA_ID:CODE:NOROOT(0)
`?<Initializer for requestNewTrustCenterLinkKey`:
        DATA8
        DB 1

        RSEG XDATA_ID:CODE:NOROOT(0)
`?<Initializer for requestLinkKeyTimeout>`:
        DATA32
        DD 5000

        RSEG XDATA_ID:CODE:NOROOT(0)
`?<Initializer for ZDSecMgrAppKeyType>`:
        DATA8
        DB 3

        RSEG BANK_RELAYS:CODE:REORDER:NOROOT(0)
`??ZDSecMgrAddrStore::?relay`:
        CODE
        LCALL   ?BDISPATCH
        DATA24
        DC24    ZDSecMgrAddrStore

        RSEG BANK_RELAYS:CODE:REORDER:NOROOT(0)
`??ZDSecMgrExtAddrStore::?relay`:
        CODE
        LCALL   ?BDISPATCH
        DATA24
        DC24    ZDSecMgrExtAddrStore

        RSEG BANK_RELAYS:CODE:REORDER:NOROOT(0)
`??ZDSecMgrExtAddrLookup::?relay`:
        CODE
        LCALL   ?BDISPATCH
        DATA24
        DC24    ZDSecMgrExtAddrLookup

        RSEG BANK_RELAYS:CODE:REORDER:NOROOT(0)
`??ZDSecMgrAddrClear::?relay`:
        CODE
        LCALL   ?BDISPATCH
        DATA24
        DC24    ZDSecMgrAddrClear

        RSEG BANK_RELAYS:CODE:REORDER:NOROOT(0)
`??ZDSecMgrEntryInit::?relay`:
        CODE
        LCALL   ?BDISPATCH
        DATA24
        DC24    ZDSecMgrEntryInit

        RSEG BANK_RELAYS:CODE:REORDER:NOROOT(0)
`??ZDSecMgrEntryLookup::?relay`:
        CODE
        LCALL   ?BDISPATCH
        DATA24
        DC24    ZDSecMgrEntryLookup

        RSEG BANK_RELAYS:CODE:REORDER:NOROOT(0)
`??ZDSecMgrEntryLookupAMI::?relay`:
        CODE
        LCALL   ?BDISPATCH
        DATA24
        DC24    ZDSecMgrEntryLookupAMI

        RSEG BANK_RELAYS:CODE:REORDER:NOROOT(0)
`??ZDSecMgrEntryLookupExt::?relay`:
        CODE
        LCALL   ?BDISPATCH
        DATA24
        DC24    ZDSecMgrEntryLookupExt

        RSEG BANK_RELAYS:CODE:REORDER:NOROOT(0)
`??ZDSecMgrEntryLookupExtGetIndex::?relay`:
        CODE
        LCALL   ?BDISPATCH
        DATA24
        DC24    ZDSecMgrEntryLookupExtGetIndex

        RSEG BANK_RELAYS:CODE:REORDER:NOROOT(0)
`??ZDSecMgrEntryLookupAMIGetIndex::?relay`:
        CODE
        LCALL   ?BDISPATCH
        DATA24
        DC24    ZDSecMgrEntryLookupAMIGetIndex

        RSEG BANK_RELAYS:CODE:REORDER:NOROOT(0)
`??ZDSecMgrEntryFree::?relay`:
        CODE
        LCALL   ?BDISPATCH
        DATA24
        DC24    ZDSecMgrEntryFree

        RSEG BANK_RELAYS:CODE:REORDER:NOROOT(0)
`??ZDSecMgrEntryNew::?relay`:
        CODE
        LCALL   ?BDISPATCH
        DATA24
        DC24    ZDSecMgrEntryNew

        RSEG BANK_RELAYS:CODE:REORDER:NOROOT(0)
`??ZDSecMgrAppKeyGet::?relay`:
        CODE
        LCALL   ?BDISPATCH
        DATA24
        DC24    ZDSecMgrAppKeyGet

        RSEG BANK_RELAYS:CODE:REORDER:NOROOT(0)
`??ZDSecMgrAppKeyReq::?relay`:
        CODE
        LCALL   ?BDISPATCH
        DATA24
        DC24    ZDSecMgrAppKeyReq

        RSEG BANK_RELAYS:CODE:REORDER:NOROOT(0)
`??ZDSecMgrTclkReq::?relay`:
        CODE
        LCALL   ?BDISPATCH
        DATA24
        DC24    ZDSecMgrTclkReq

        RSEG BANK_RELAYS:CODE:REORDER:NOROOT(0)
`??ZDSecMgrAppConfKeyReq::?relay`:
        CODE
        LCALL   ?BDISPATCH
        DATA24
        DC24    ZDSecMgrAppConfKeyReq

        RSEG BANK_RELAYS:CODE:REORDER:NOROOT(0)
`??ZDSecMgrSendNwkKey::?relay`:
        CODE
        LCALL   ?BDISPATCH
        DATA24
        DC24    ZDSecMgrSendNwkKey

        RSEG BANK_RELAYS:CODE:REORDER:NOROOT(0)
`??ZDSecMgrDeviceRemoveByExtAddr::?relay`:
        CODE
        LCALL   ?BDISPATCH
        DATA24
        DC24    ZDSecMgrDeviceRemoveByExtAddr

        RSEG BANK_RELAYS:CODE:REORDER:NOROOT(0)
`??ZDSecMgrDeviceRemove::?relay`:
        CODE
        LCALL   ?BDISPATCH
        DATA24
        DC24    ZDSecMgrDeviceRemove

        RSEG BANK_RELAYS:CODE:REORDER:NOROOT(0)
`??ZDSecMgrDeviceValidateRM::?relay`:
        CODE
        LCALL   ?BDISPATCH
        DATA24
        DC24    ZDSecMgrDeviceValidateRM

        RSEG BANK_RELAYS:CODE:REORDER:NOROOT(0)
`??ZDSecMgrDeviceValidate::?relay`:
        CODE
        LCALL   ?BDISPATCH
        DATA24
        DC24    ZDSecMgrDeviceValidate

        RSEG BANK_RELAYS:CODE:REORDER:NOROOT(0)
`??ZDSecMgrDeviceJoin::?relay`:
        CODE
        LCALL   ?BDISPATCH
        DATA24
        DC24    ZDSecMgrDeviceJoin

        RSEG BANK_RELAYS:CODE:REORDER:NOROOT(0)
`??ZDSecMgrDeviceJoinDirect::?relay`:
        CODE
        LCALL   ?BDISPATCH
        DATA24
        DC24    ZDSecMgrDeviceJoinDirect

        RSEG BANK_RELAYS:CODE:REORDER:NOROOT(0)
`??ZDSecMgrDeviceJoinFwd::?relay`:
        CODE
        LCALL   ?BDISPATCH
        DATA24
        DC24    ZDSecMgrDeviceJoinFwd

        RSEG BANK_RELAYS:CODE:REORDER:NOROOT(0)
`??ZDSecMgrDeviceNew::?relay`:
        CODE
        LCALL   ?BDISPATCH
        DATA24
        DC24    ZDSecMgrDeviceNew

        RSEG BANK_RELAYS:CODE:REORDER:NOROOT(0)
`??ZDSecMgrAssocDeviceAuth::?relay`:
        CODE
        LCALL   ?BDISPATCH
        DATA24
        DC24    ZDSecMgrAssocDeviceAuth

        RSEG BANK_RELAYS:CODE:REORDER:NOROOT(0)
`??ZDSecMgrAuthNwkKey::?relay`:
        CODE
        LCALL   ?BDISPATCH
        DATA24
        DC24    ZDSecMgrAuthNwkKey

        RSEG BANK_RELAYS:CODE:REORDER:NOROOT(0)
`??ZDSecMgrInit::?relay`:
        CODE
        LCALL   ?BDISPATCH
        DATA24
        DC24    ZDSecMgrInit

        RSEG BANK_RELAYS:CODE:REORDER:NOROOT(0)
`??ZDSecMgrConfig::?relay`:
        CODE
        LCALL   ?BDISPATCH
        DATA24
        DC24    ZDSecMgrConfig

        RSEG BANK_RELAYS:CODE:REORDER:NOROOT(0)
`??ZDSecMgrPermitJoining::?relay`:
        CODE
        LCALL   ?BDISPATCH
        DATA24
        DC24    ZDSecMgrPermitJoining

        RSEG BANK_RELAYS:CODE:REORDER:NOROOT(0)
`??ZDSecMgrPermitJoiningTimeout::?relay`:
        CODE
        LCALL   ?BDISPATCH
        DATA24
        DC24    ZDSecMgrPermitJoiningTimeout

        RSEG BANK_RELAYS:CODE:REORDER:NOROOT(0)
`??ZDSecMgrNewDeviceEvent::?relay`:
        CODE
        LCALL   ?BDISPATCH
        DATA24
        DC24    ZDSecMgrNewDeviceEvent

        RSEG BANK_RELAYS:CODE:REORDER:NOROOT(0)
`??ZDSecMgrTCExtAddrCheck::?relay`:
        CODE
        LCALL   ?BDISPATCH
        DATA24
        DC24    ZDSecMgrTCExtAddrCheck

        RSEG BANK_RELAYS:CODE:REORDER:NOROOT(0)
`??ZDSecMgrTCDataLoad::?relay`:
        CODE
        LCALL   ?BDISPATCH
        DATA24
        DC24    ZDSecMgrTCDataLoad

        RSEG BANK_RELAYS:CODE:REORDER:NOROOT(0)
`??ZDSecMgrTransportKeyInd::?relay`:
        CODE
        LCALL   ?BDISPATCH
        DATA24
        DC24    ZDSecMgrTransportKeyInd

        RSEG BANK_RELAYS:CODE:REORDER:NOROOT(0)
`??ZDSecMgrUpdateDeviceInd::?relay`:
        CODE
        LCALL   ?BDISPATCH
        DATA24
        DC24    ZDSecMgrUpdateDeviceInd

        RSEG BANK_RELAYS:CODE:REORDER:NOROOT(0)
`??ZDSecMgrRemoveDeviceInd::?relay`:
        CODE
        LCALL   ?BDISPATCH
        DATA24
        DC24    ZDSecMgrRemoveDeviceInd

        RSEG BANK_RELAYS:CODE:REORDER:NOROOT(0)
`??ZDSecMgrRequestKeyInd::?relay`:
        CODE
        LCALL   ?BDISPATCH
        DATA24
        DC24    ZDSecMgrRequestKeyInd

        RSEG BANK_RELAYS:CODE:REORDER:NOROOT(0)
`??ZDSecMgrVerifyKeyInd::?relay`:
        CODE
        LCALL   ?BDISPATCH
        DATA24
        DC24    ZDSecMgrVerifyKeyInd

        RSEG BANK_RELAYS:CODE:REORDER:NOROOT(0)
`??ZDSecMgrSwitchKeyInd::?relay`:
        CODE
        LCALL   ?BDISPATCH
        DATA24
        DC24    ZDSecMgrSwitchKeyInd

        RSEG BANK_RELAYS:CODE:REORDER:NOROOT(0)
`??ZDSecMgrGenerateSeed::?relay`:
        CODE
        LCALL   ?BDISPATCH
        DATA24
        DC24    ZDSecMgrGenerateSeed

        RSEG BANK_RELAYS:CODE:REORDER:NOROOT(0)
`??ZDSecMgrGenerateKeyFromSeed::?relay`:
        CODE
        LCALL   ?BDISPATCH
        DATA24
        DC24    ZDSecMgrGenerateKeyFromSeed

        RSEG BANK_RELAYS:CODE:REORDER:NOROOT(0)
`??ZDSecMgrGenerateRndKey::?relay`:
        CODE
        LCALL   ?BDISPATCH
        DATA24
        DC24    ZDSecMgrGenerateRndKey

        RSEG BANK_RELAYS:CODE:REORDER:NOROOT(0)
`??ZDSecMgrRequestAppKey::?relay`:
        CODE
        LCALL   ?BDISPATCH
        DATA24
        DC24    ZDSecMgrRequestAppKey

        RSEG BANK_RELAYS:CODE:REORDER:NOROOT(0)
`??ZDSecMgrSetupPartner::?relay`:
        CODE
        LCALL   ?BDISPATCH
        DATA24
        DC24    ZDSecMgrSetupPartner

        RSEG BANK_RELAYS:CODE:REORDER:NOROOT(0)
`??APSME_LinkKeySet::?relay`:
        CODE
        LCALL   ?BDISPATCH
        DATA24
        DC24    APSME_LinkKeySet

        RSEG BANK_RELAYS:CODE:REORDER:NOROOT(0)
`??ZDSecMgrAuthenticationSet::?relay`:
        CODE
        LCALL   ?BDISPATCH
        DATA24
        DC24    ZDSecMgrAuthenticationSet

        RSEG BANK_RELAYS:CODE:REORDER:NOROOT(0)
`??ZDSecMgrAuthenticationCheck::?relay`:
        CODE
        LCALL   ?BDISPATCH
        DATA24
        DC24    ZDSecMgrAuthenticationCheck

        RSEG BANK_RELAYS:CODE:REORDER:NOROOT(0)
`??APSME_LinkKeyNVIdGet::?relay`:
        CODE
        LCALL   ?BDISPATCH
        DATA24
        DC24    APSME_LinkKeyNVIdGet

        RSEG BANK_RELAYS:CODE:REORDER:NOROOT(0)
`??APSME_IsLinkKeyValid::?relay`:
        CODE
        LCALL   ?BDISPATCH
        DATA24
        DC24    APSME_IsLinkKeyValid

        RSEG BANK_RELAYS:CODE:REORDER:NOROOT(0)
`??APSME_KeyFwdToChild::?relay`:
        CODE
        LCALL   ?BDISPATCH
        DATA24
        DC24    APSME_KeyFwdToChild

        RSEG BANK_RELAYS:CODE:REORDER:NOROOT(0)
`??ZDSecMgrAddLinkKey::?relay`:
        CODE
        LCALL   ?BDISPATCH
        DATA24
        DC24    ZDSecMgrAddLinkKey

        RSEG BANK_RELAYS:CODE:REORDER:NOROOT(0)
`??ZDSecMgrInitNV::?relay`:
        CODE
        LCALL   ?BDISPATCH
        DATA24
        DC24    ZDSecMgrInitNV

        RSEG BANK_RELAYS:CODE:REORDER:NOROOT(0)
`??ZDSecMgrSetDefaultNV::?relay`:
        CODE
        LCALL   ?BDISPATCH
        DATA24
        DC24    ZDSecMgrSetDefaultNV

        RSEG BANK_RELAYS:CODE:REORDER:NOROOT(0)
`??ZDSecMgrAPSRemove::?relay`:
        CODE
        LCALL   ?BDISPATCH
        DATA24
        DC24    ZDSecMgrAPSRemove

        RSEG BANK_RELAYS:CODE:REORDER:NOROOT(0)
`??APSME_TCLinkKeyInit::?relay`:
        CODE
        LCALL   ?BDISPATCH
        DATA24
        DC24    APSME_TCLinkKeyInit

        RSEG BANK_RELAYS:CODE:REORDER:NOROOT(0)
`??APSME_TCLinkKeySync::?relay`:
        CODE
        LCALL   ?BDISPATCH
        DATA24
        DC24    APSME_TCLinkKeySync

        RSEG BANK_RELAYS:CODE:REORDER:NOROOT(0)
`??APSME_TCLinkKeyLoad::?relay`:
        CODE
        LCALL   ?BDISPATCH
        DATA24
        DC24    APSME_TCLinkKeyLoad

        RSEG BANK_RELAYS:CODE:REORDER:NOROOT(0)
`??APSME_IsDefaultTCLK::?relay`:
        CODE
        LCALL   ?BDISPATCH
        DATA24
        DC24    APSME_IsDefaultTCLK

        RSEG BANK_RELAYS:CODE:REORDER:NOROOT(0)
`??ZDSecMgrNwkKeyInit::?relay`:
        CODE
        LCALL   ?BDISPATCH
        DATA24
        DC24    ZDSecMgrNwkKeyInit

        RSEG BANK_RELAYS:CODE:REORDER:NOROOT(0)
`??ZDSecMgrReadKeyFromNv::?relay`:
        CODE
        LCALL   ?BDISPATCH
        DATA24
        DC24    ZDSecMgrReadKeyFromNv

        RSEG BANK_RELAYS:CODE:REORDER:NOROOT(0)
`??ZDSecMgrApsLinkKeyInit::?relay`:
        CODE
        LCALL   ?BDISPATCH
        DATA24
        DC24    ZDSecMgrApsLinkKeyInit

        RSEG BANK_RELAYS:CODE:REORDER:NOROOT(0)
`??ZDSecMgrInitNVKeyTables::?relay`:
        CODE
        LCALL   ?BDISPATCH
        DATA24
        DC24    ZDSecMgrInitNVKeyTables

        RSEG BANK_RELAYS:CODE:REORDER:NOROOT(0)
`??ZDSecMgrSaveApsLinkKey::?relay`:
        CODE
        LCALL   ?BDISPATCH
        DATA24
        DC24    ZDSecMgrSaveApsLinkKey

        RSEG BANK_RELAYS:CODE:REORDER:NOROOT(0)
`??ZDSecMgrSaveTCLinkKey::?relay`:
        CODE
        LCALL   ?BDISPATCH
        DATA24
        DC24    ZDSecMgrSaveTCLinkKey

        RSEG BANK_RELAYS:CODE:REORDER:NOROOT(0)
`??ZDSecMgrUpdateTCAddress::?relay`:
        CODE
        LCALL   ?BDISPATCH
        DATA24
        DC24    ZDSecMgrUpdateTCAddress

        RSEG XDATA_ROM_C:CONST:REORDER:NOROOT(0)
        DATA8
`?<Constant {255, 255, 255, 255, 255, 255, 255,`:
        DB 255
        DB 255
        DB 255
        DB 255
        DB 255
        DB 255
        DB 255
        DB 255

        RSEG XDATA_ROM_C:CONST:REORDER:NOROOT(0)
        DATA32
__Constant_b:
        DD 11

        RSEG XDATA_ROM_C:CONST:REORDER:NOROOT(0)
        DATA32
__Constant_1:
        DD 1

        END
// 3695 
// 3696 #if defined ( ZBA_FALLBACK_NWKKEY )
// 3697 /******************************************************************************
// 3698  * @fn          ZDSecMgrFallbackNwkKey
// 3699  *
// 3700  * @brief       Use the ZBA fallback network key.
// 3701  *
// 3702  * @param       none
// 3703  *
// 3704  * @return      none
// 3705  */
// 3706 void ZDSecMgrFallbackNwkKey( void )
// 3707 {
// 3708   if ( !_NIB.nwkKeyLoaded )
// 3709   {
// 3710     uint8 fallbackKey[SEC_KEY_LEN];
// 3711 
// 3712     ZDSecMgrReadKeyFromNv( ZCD_NV_PRECFGKEY, fallbackKey );
// 3713     SSP_UpdateNwkKey( fallbackKey, 0);
// 3714     SSP_SwitchNwkKey( 0 );
// 3715 
// 3716     // clear local copy of key
// 3717     osal_memset( fallbackKey, 0x00, SEC_KEY_LEN );
// 3718 
// 3719     // handle next step in authentication process
// 3720     ZDSecMgrAuthNwkKey();
// 3721   }
// 3722 }
// 3723 #endif // defined ( ZBA_FALLBACK_NWKKEY )
// 3724 
// 3725 #if defined ( NV_RESTORE )
// 3726 /******************************************************************************
// 3727  * @fn          ZDSecMgrClearNVKeyValues
// 3728  *
// 3729  * @brief       If NV_RESTORE is enabled and the status of the network needs
// 3730  *              default values this fuction clears ZCD_NV_NWKKEY,
// 3731  *              ZCD_NV_NWK_ACTIVE_KEY_INFO and ZCD_NV_NWK_ALTERN_KEY_INFO link
// 3732  *
// 3733  * @param       none
// 3734  *
// 3735  * @return      none
// 3736  */
// 3737 void ZDSecMgrClearNVKeyValues(void)
// 3738 {
// 3739   nwkActiveKeyItems keyItems;
// 3740   nwkKeyDesc nwkKey;
// 3741 
// 3742   osal_memset(&keyItems, 0x00, sizeof(nwkActiveKeyItems));
// 3743 
// 3744   osal_nv_write(ZCD_NV_NWKKEY, 0, sizeof(nwkActiveKeyItems), &keyItems);
// 3745 
// 3746   // Initialize NV items for NWK Active and Alternate keys.
// 3747   osal_memset( &nwkKey, 0x00, sizeof(nwkKeyDesc) );
// 3748 
// 3749   osal_nv_write(ZCD_NV_NWK_ACTIVE_KEY_INFO, 0, sizeof(nwkKeyDesc), &nwkKey);
// 3750 
// 3751   osal_nv_write(ZCD_NV_NWK_ALTERN_KEY_INFO, 0, sizeof(nwkKeyDesc), &nwkKey);
// 3752 }
// 3753 #endif // defined ( NV_RESTORE )
// 3754 
// 3755 /******************************************************************************
// 3756 ******************************************************************************/
// 
// 8 767 bytes in segment BANKED_CODE
//   396 bytes in segment BANK_RELAYS
//     4 bytes in segment CODE_C
//     6 bytes in segment XDATA_I
//     6 bytes in segment XDATA_ID
//    16 bytes in segment XDATA_ROM_C
//    87 bytes in segment XDATA_Z
// 
//   406 bytes of CODE     memory
//     8 bytes of CONST    memory (+ 8 bytes shared)
// 8 767 bytes of HUGECODE memory
//    93 bytes of XDATA    memory
//
//Errors: none
//Warnings: none
