###############################################################################
#
# IAR C/C++ Compiler V10.10.1.4655 for 8051               23/Dec/2025  23:27:03
# Copyright 2004-2017 IAR Systems AB.
# Standalone license - IAR Embedded Workbench for 8051
#
#    Core               =  plain
#    Code model         =  banked
#    Data model         =  large
#    Calling convention =  xdata reentrant
#    Constant location  =  data_rom
#    Dptr setup         =  1,16
#                          
#    Source file        =  
#        C:\Users\ASUS\Desktop\work\graduration project\software\Z-Stack
#        3.0.2\Projects\zstack\HomeAutomation\SampleTemperatureSensor\Source\OSAL_SampleTemperatureSensor.c
#    Command line       =  
#        -f C:\Users\ASUS\AppData\Local\Temp\EW977A.tmp
#        ("C:\Users\ASUS\Desktop\work\graduration project\software\Z-Stack
#        3.0.2\Projects\zstack\HomeAutomation\SampleTemperatureSensor\Source\OSAL_SampleTemperatureSensor.c"
#        -D BDB_REPORTING -D SECURE=1 -D TC_LINKKEY_JOIN -D NV_INIT -D
#        NV_RESTORE -D xZTOOL_P1 -D xMT_TASK -D xMT_APP_FUNC -D xMT_SYS_FUNC -D
#        xMT_ZDO_FUNC -D xMT_APP_CNF_FUNC -D LCD_SUPPORTED=DEBUG -D
#        MULTICAST_ENABLED=FALSE -D ZCL_READ -D ZCL_DISCOVER -D ZCL_WRITE -D
#        ZCL_BASIC -D ZCL_IDENTIFY -D ZCL_TEMPERATURE_MEASUREMENT -D ZCL_GROUPS
#        -lC "C:\Users\ASUS\Desktop\work\graduration project\software\Z-Stack
#        3.0.2\Projects\zstack\HomeAutomation\SampleTemperatureSensor\CC2530DB\CoordinatorEB\List"
#        -lA "C:\Users\ASUS\Desktop\work\graduration project\software\Z-Stack
#        3.0.2\Projects\zstack\HomeAutomation\SampleTemperatureSensor\CC2530DB\CoordinatorEB\List"
#        --diag_suppress Pe001,Pa010 -o "C:\Users\ASUS\Desktop\work\graduration
#        project\software\Z-Stack
#        3.0.2\Projects\zstack\HomeAutomation\SampleTemperatureSensor\CC2530DB\CoordinatorEB\Obj"
#        -e --debug --core=plain --dptr=16,1 --data_model=large
#        --code_model=banked --calling_convention=xdata_reentrant
#        --place_constants=data_rom --nr_virtual_regs 16 -f
#        "C:\Users\ASUS\Desktop\work\graduration project\software\Z-Stack
#        3.0.2\Projects\zstack\HomeAutomation\SampleTemperatureSensor\CC2530DB\..\..\..\Tools\CC2530DB\f8wCoord.cfg"
#        (-DCPU32MHZ -DROOT=__near_func -DMAC_CFG_APP_PENDING_QUEUE=TRUE
#        -DMAC_CFG_TX_DATA_MAX=5 -DMAC_CFG_TX_MAX=8 -DMAC_CFG_RX_MAX=5
#        -DZDO_COORDINATOR -DRTR_NWK) -f
#        "C:\Users\ASUS\Desktop\work\graduration project\software\Z-Stack
#        3.0.2\Projects\zstack\HomeAutomation\SampleTemperatureSensor\CC2530DB\..\..\..\Tools\CC2530DB\f8wConfig.cfg"
#        (-DZIGBEEPRO -DSECURE=1 -DZG_SECURE_DYNAMIC=0 -DREFLECTOR
#        -DDEFAULT_CHANLIST=0x00000800 -DZDAPP_CONFIG_PAN_ID=0x1234
#        -DNWK_START_DELAY=100 -DEXTENDED_JOINING_RANDOM_MASK=0x007F
#        -DBEACON_REQUEST_DELAY=100 -DBEACON_REQ_DELAY_MASK=0x00FF
#        -DLINK_STATUS_JITTER_MASK=0x007F -DROUTE_EXPIRY_TIME=30
#        -DAPSC_ACK_WAIT_DURATION_POLLED=3000 -DNWK_INDIRECT_MSG_TIMEOUT=7
#        -DMAX_RREQ_ENTRIES=8 -DAPSC_MAX_FRAME_RETRIES=3
#        -DNWK_MAX_DATA_RETRIES=2 -DMAX_POLL_FAILURE_RETRIES=2 -DMAX_BCAST=9
#        -DAPS_MAX_GROUPS=16 -DMAX_RTG_ENTRIES=40 -DNWK_MAX_BINDING_ENTRIES=4
#        -DMAX_BINDING_CLUSTER_IDS=4 -DDEFAULT_KEY={0} -DMAC_MAX_FRAME_SIZE=116
#        -DZDNWKMGR_MIN_TRANSMISSIONS=20 "-DCONST=const __code"
#        -DGENERIC=__generic -DRFD_RCVC_ALWAYS_ON=FALSE -DPOLL_RATE=1000
#        -DQUEUED_POLL_RATE=100 -DRESPONSE_POLL_RATE=100 -DREJOIN_POLL_RATE=440
#        -DREJOIN_BACKOFF=900000 -DREJOIN_SCAN=900000 -DENABLE_LED4_DISABLE_S1)
#        -f "C:\Users\ASUS\Desktop\work\graduration project\software\Z-Stack
#        3.0.2\Projects\zstack\HomeAutomation\SampleTemperatureSensor\CC2530DB\..\..\..\Tools\CC2530DB\f8wZCL.cfg"
#        -I "C:\Users\ASUS\Desktop\work\graduration project\software\Z-Stack
#        3.0.2\Projects\zstack\HomeAutomation\SampleTemperatureSensor\CC2530DB\"
#        -I "C:\Users\ASUS\Desktop\work\graduration project\software\Z-Stack
#        3.0.2\Projects\zstack\HomeAutomation\SampleTemperatureSensor\CC2530DB\..\Source\"
#        -I "C:\Users\ASUS\Desktop\work\graduration project\software\Z-Stack
#        3.0.2\Projects\zstack\HomeAutomation\SampleTemperatureSensor\CC2530DB\..\..\Source\"
#        -I "C:\Users\ASUS\Desktop\work\graduration project\software\Z-Stack
#        3.0.2\Projects\zstack\HomeAutomation\SampleTemperatureSensor\CC2530DB\..\..\..\ZMain\TI2530DB\"
#        -I "C:\Users\ASUS\Desktop\work\graduration project\software\Z-Stack
#        3.0.2\Projects\zstack\HomeAutomation\SampleTemperatureSensor\CC2530DB\..\..\..\..\..\Components\hal\include\"
#        -I "C:\Users\ASUS\Desktop\work\graduration project\software\Z-Stack
#        3.0.2\Projects\zstack\HomeAutomation\SampleTemperatureSensor\CC2530DB\..\..\..\..\..\Components\hal\target\CC2530EB\"
#        -I "C:\Users\ASUS\Desktop\work\graduration project\software\Z-Stack
#        3.0.2\Projects\zstack\HomeAutomation\SampleTemperatureSensor\CC2530DB\..\..\..\..\..\Components\mac\include\"
#        -I "C:\Users\ASUS\Desktop\work\graduration project\software\Z-Stack
#        3.0.2\Projects\zstack\HomeAutomation\SampleTemperatureSensor\CC2530DB\..\..\..\..\..\Components\mac\high_level\"
#        -I "C:\Users\ASUS\Desktop\work\graduration project\software\Z-Stack
#        3.0.2\Projects\zstack\HomeAutomation\SampleTemperatureSensor\CC2530DB\..\..\..\..\..\Components\mac\low_level\srf04\"
#        -I "C:\Users\ASUS\Desktop\work\graduration project\software\Z-Stack
#        3.0.2\Projects\zstack\HomeAutomation\SampleTemperatureSensor\CC2530DB\..\..\..\..\..\Components\mac\low_level\srf04\single_chip\"
#        -I "C:\Users\ASUS\Desktop\work\graduration project\software\Z-Stack
#        3.0.2\Projects\zstack\HomeAutomation\SampleTemperatureSensor\CC2530DB\..\..\..\..\..\Components\mt\"
#        -I "C:\Users\ASUS\Desktop\work\graduration project\software\Z-Stack
#        3.0.2\Projects\zstack\HomeAutomation\SampleTemperatureSensor\CC2530DB\..\..\..\..\..\Components\osal\include\"
#        -I "C:\Users\ASUS\Desktop\work\graduration project\software\Z-Stack
#        3.0.2\Projects\zstack\HomeAutomation\SampleTemperatureSensor\CC2530DB\..\..\..\..\..\Components\services\saddr\"
#        -I "C:\Users\ASUS\Desktop\work\graduration project\software\Z-Stack
#        3.0.2\Projects\zstack\HomeAutomation\SampleTemperatureSensor\CC2530DB\..\..\..\..\..\Components\services\sdata\"
#        -I "C:\Users\ASUS\Desktop\work\graduration project\software\Z-Stack
#        3.0.2\Projects\zstack\HomeAutomation\SampleTemperatureSensor\CC2530DB\..\..\..\..\..\Components\stack\af\"
#        -I "C:\Users\ASUS\Desktop\work\graduration project\software\Z-Stack
#        3.0.2\Projects\zstack\HomeAutomation\SampleTemperatureSensor\CC2530DB\..\..\..\..\..\Components\stack\bdb\"
#        -I "C:\Users\ASUS\Desktop\work\graduration project\software\Z-Stack
#        3.0.2\Projects\zstack\HomeAutomation\SampleTemperatureSensor\CC2530DB\..\..\..\..\..\Components\stack\gp\"
#        -I "C:\Users\ASUS\Desktop\work\graduration project\software\Z-Stack
#        3.0.2\Projects\zstack\HomeAutomation\SampleTemperatureSensor\CC2530DB\..\..\..\..\..\Components\stack\nwk\"
#        -I "C:\Users\ASUS\Desktop\work\graduration project\software\Z-Stack
#        3.0.2\Projects\zstack\HomeAutomation\SampleTemperatureSensor\CC2530DB\..\..\..\..\..\Components\stack\sapi\"
#        -I "C:\Users\ASUS\Desktop\work\graduration project\software\Z-Stack
#        3.0.2\Projects\zstack\HomeAutomation\SampleTemperatureSensor\CC2530DB\..\..\..\..\..\Components\stack\sec\"
#        -I "C:\Users\ASUS\Desktop\work\graduration project\software\Z-Stack
#        3.0.2\Projects\zstack\HomeAutomation\SampleTemperatureSensor\CC2530DB\..\..\..\..\..\Components\stack\sys\"
#        -I "C:\Users\ASUS\Desktop\work\graduration project\software\Z-Stack
#        3.0.2\Projects\zstack\HomeAutomation\SampleTemperatureSensor\CC2530DB\..\..\..\..\..\Components\stack\zcl\"
#        -I "C:\Users\ASUS\Desktop\work\graduration project\software\Z-Stack
#        3.0.2\Projects\zstack\HomeAutomation\SampleTemperatureSensor\CC2530DB\..\..\..\..\..\Components\stack\zdo\"
#        -I "C:\Users\ASUS\Desktop\work\graduration project\software\Z-Stack
#        3.0.2\Projects\zstack\HomeAutomation\SampleTemperatureSensor\CC2530DB\..\..\..\..\..\Components\zmac\"
#        -I "C:\Users\ASUS\Desktop\work\graduration project\software\Z-Stack
#        3.0.2\Projects\zstack\HomeAutomation\SampleTemperatureSensor\CC2530DB\..\..\..\..\..\Components\zmac\f8w\"
#        -Ohz --require_prototypes)
#    Locale             =  Chinese (Simplified)_China.936
#    List file          =  
#        C:\Users\ASUS\Desktop\work\graduration project\software\Z-Stack
#        3.0.2\Projects\zstack\HomeAutomation\SampleTemperatureSensor\CC2530DB\CoordinatorEB\List\OSAL_SampleTemperatureSensor.lst
#    Object file        =  
#        C:\Users\ASUS\Desktop\work\graduration project\software\Z-Stack
#        3.0.2\Projects\zstack\HomeAutomation\SampleTemperatureSensor\CC2530DB\CoordinatorEB\Obj\OSAL_SampleTemperatureSensor.r51
#
###############################################################################

C:\Users\ASUS\Desktop\work\graduration project\software\Z-Stack 3.0.2\Projects\zstack\HomeAutomation\SampleTemperatureSensor\Source\OSAL_SampleTemperatureSensor.c
      1          /**************************************************************************************************
      2            Filename:       OSAL_SampleTemperatureSensor.c
      3            Revised:        $Date: 2013-04-22 14:49:05 -0700 (Mon, 22 Apr 2013) $
      4            Revision:       $Revision: 33994 $
      5          
      6            Description:    This file contains all the settings and other functions
      7                            that the user should set and change.
      8          
      9          
     10            Copyright 2013 Texas Instruments Incorporated. All rights reserved.
     11          
     12            IMPORTANT: Your use of this Software is limited to those specific rights
     13            granted under the terms of a software license agreement between the user
     14            who downloaded the software, his/her employer (which must be your employer)
     15            and Texas Instruments Incorporated (the "License").  You may not use this
     16            Software unless you agree to abide by the terms of the License. The License
     17            limits your use, and you acknowledge, that the Software may not be modified,
     18            copied or distributed unless embedded on a Texas Instruments microcontroller
     19            or used solely and exclusively in conjunction with a Texas Instruments radio
     20            frequency transceiver, which is integrated into your product.  Other than for
     21            the foregoing purpose, you may not use, reproduce, copy, prepare derivative
     22            works of, modify, distribute, perform, display or sell this Software and/or
     23            its documentation for any purpose.
     24          
     25            YOU FURTHER ACKNOWLEDGE AND AGREE THAT THE SOFTWARE AND DOCUMENTATION ARE
     26            PROVIDED “AS IS” WITHOUT WARRANTY OF ANY KIND, EITHER EXPRESS OR IMPLIED,
     27            INCLUDING WITHOUT LIMITATION, ANY WARRANTY OF MERCHANTABILITY, TITLE,
     28            NON-INFRINGEMENT AND FITNESS FOR A PARTICULAR PURPOSE. IN NO EVENT SHALL
     29            TEXAS INSTRUMENTS OR ITS LICENSORS BE LIABLE OR OBLIGATED UNDER CONTRACT,
     30            NEGLIGENCE, STRICT LIABILITY, CONTRIBUTION, BREACH OF WARRANTY, OR OTHER
     31            LEGAL EQUITABLE THEORY ANY DIRECT OR INDIRECT DAMAGES OR EXPENSES
     32            INCLUDING BUT NOT LIMITED TO ANY INCIDENTAL, SPECIAL, INDIRECT, PUNITIVE
     33            OR CONSEQUENTIAL DAMAGES, LOST PROFITS OR LOST DATA, COST OF PROCUREMENT
     34            OF SUBSTITUTE GOODS, TECHNOLOGY, SERVICES, OR ANY CLAIMS BY THIRD PARTIES
     35            (INCLUDING BUT NOT LIMITED TO ANY DEFENSE THEREOF), OR OTHER SIMILAR COSTS.
     36          
     37            Should you have any questions regarding your right to use this Software,
     38            contact Texas Instruments Incorporated at www.TI.com.
     39          **************************************************************************************************/
     40          
     41          /*********************************************************************
     42           * INCLUDES
     43           */
     44          
     45          #include "ZComDef.h"
     46          #include "hal_drivers.h"
     47          #include "OSAL.h"
     48          #include "OSAL_Tasks.h"
     49          
     50          #if defined ( MT_TASK )
     51            #include "MT.h"
     52            #include "MT_TASK.h"
     53          #endif
     54          
     55          #include "nwk.h"
     56          #include "APS.h"
     57          #include "ZDApp.h"
     58          #if defined ( ZIGBEE_FREQ_AGILITY ) || defined ( ZIGBEE_PANID_CONFLICT )
     59            #include "ZDNwkMgr.h"
     60          #endif
     61          #if defined ( ZIGBEE_FRAGMENTATION )
     62            #include "aps_frag.h"
     63          #endif
     64          
     65          #include "zcl_sampletemperaturesensor.h"
     66          
     67          #include "bdb_interface.h"
     68          #if !defined (DISABLE_GREENPOWER_BASIC_PROXY) && (ZG_BUILD_RTR_TYPE)
     69            #include "gp_common.h"
     70          #endif  
     71          
     72          #ifdef BDB_REPORTING
     73          #include "bdb_Reporting.h"
     74          #endif
     75          
     76          /*********************************************************************
     77           * GLOBAL VARIABLES
     78           */
     79          
     80          // The order in this table must be identical to the task initialization calls below in osalInitTask.

   \                                 In  segment XDATA_ROM_C, align 1
     81          const pTaskEventHandlerFn tasksArr[] = {
   \                     tasksArr:
   \   000000   ....         DW `??macEventLoop::?relay`
   \   000002   ....         DW `??nwk_event_loop::?relay`
   \   000004   ....         DW `??gp_event_loop::?relay`
   \   000006   ....         DW `??Hal_ProcessEvent::?relay`
   \   000008   ....         DW `??APS_event_loop::?relay`
   \   00000A   ....         DW `??APSF_ProcessEvent::?relay`
   \   00000C   ....         DW `??ZDApp_event_loop::?relay`
   \   00000E   ....         DW `??ZDNwkMgr_event_loop::?relay`
   \   000010   ....         DW `??zcl_event_loop::?relay`
   \   000012   ....         DW `??bdb_event_loop::?relay`
   \   000014   ....         DW `??zclSampleTemperatureSensor_event_loop::?relay`
     82            macEventLoop,
     83            nwk_event_loop,
     84          #if !defined (DISABLE_GREENPOWER_BASIC_PROXY) && (ZG_BUILD_RTR_TYPE)
     85            gp_event_loop,
     86          #endif  
     87            Hal_ProcessEvent,
     88          #if defined( MT_TASK )
     89            MT_ProcessEvent,
     90          #endif
     91            APS_event_loop,
     92          #if defined ( ZIGBEE_FRAGMENTATION )
     93            APSF_ProcessEvent,
     94          #endif
     95            ZDApp_event_loop,
     96          #if defined ( ZIGBEE_FREQ_AGILITY ) || defined ( ZIGBEE_PANID_CONFLICT )
     97            ZDNwkMgr_event_loop,
     98          #endif
     99            zcl_event_loop,
    100            bdb_event_loop,
    101            zclSampleTemperatureSensor_event_loop
    102          };
    103          

   \                                 In  segment XDATA_ROM_C, align 1
    104          const uint8 tasksCnt = sizeof( tasksArr ) / sizeof( tasksArr[0] );
   \                     tasksCnt:
   \   000000   0B           DB 11

   \                                 In  segment XDATA_Z, align 1, keep-with-next
    105          uint16 *tasksEvents;
   \                     tasksEvents:
   \   000000                DS 2
   \   000002                REQUIRE __INIT_XDATA_Z
    106          
    107          /*********************************************************************
    108           * FUNCTIONS
    109           *********************************************************************/
    110          
    111          /*********************************************************************
    112           * @fn      osalInitTasks
    113           *
    114           * @brief   This function invokes the initialization function for each task.
    115           *
    116           * @param   void
    117           *
    118           * @return  none
    119           */

   \                                 In  segment BANKED_CODE, align 1, keep-with-next
    120          void osalInitTasks( void )
   \                     osalInitTasks:
    121          {
   \   000000   C082         PUSH      DPL
   \   000002   C083         PUSH      DPH
   \   000004                ; Saved register size: 2
   \   000004                ; Auto size: 0
    122            uint8 taskID = 0;
    123          
    124            tasksEvents = (uint16 *)osal_mem_alloc( sizeof( uint16 ) * tasksCnt);
   \   000004                ; Setup parameters for call to function osal_mem_alloc
   \   000004   7A16         MOV       R2,#0x16
   \   000006   7B00         MOV       R3,#0x0
   \   000008   12....       LCALL     `??osal_mem_alloc::?relay`; Banked call to: osal_mem_alloc
   \   00000B   90....       MOV       DPTR,#tasksEvents
   \   00000E   EA           MOV       A,R2
   \   00000F   F0           MOVX      @DPTR,A
   \   000010   A3           INC       DPTR
   \   000011   EB           MOV       A,R3
   \   000012   F0           MOVX      @DPTR,A
    125            osal_memset( tasksEvents, 0, (sizeof( uint16 ) * tasksCnt));
   \   000013                ; Setup parameters for call to function osal_memset
   \   000013   7C16         MOV       R4,#0x16
   \   000015   7D00         MOV       R5,#0x0
   \   000017   7900         MOV       R1,#0x0
   \   000019   12....       LCALL     `??osal_memset::?relay`; Banked call to: osal_memset
    126          
    127            macTaskInit( taskID++ );
   \   00001C                ; Setup parameters for call to function macTaskInit
   \   00001C   7900         MOV       R1,#0x0
   \   00001E   12....       LCALL     `??macTaskInit::?relay`; Banked call to: macTaskInit
    128            nwk_init( taskID++ );
   \   000021                ; Setup parameters for call to function nwk_init
   \   000021   7901         MOV       R1,#0x1
   \   000023   12....       LCALL     `??nwk_init::?relay`; Banked call to: nwk_init
    129          #if !defined (DISABLE_GREENPOWER_BASIC_PROXY) && (ZG_BUILD_RTR_TYPE)
    130            gp_Init( taskID++ );
   \   000026                ; Setup parameters for call to function gp_Init
   \   000026   7902         MOV       R1,#0x2
   \   000028   12....       LCALL     `??gp_Init::?relay`; Banked call to: gp_Init
    131          #endif
    132            Hal_Init( taskID++ );
   \   00002B                ; Setup parameters for call to function Hal_Init
   \   00002B   7903         MOV       R1,#0x3
   \   00002D   12....       LCALL     `??Hal_Init::?relay`; Banked call to: Hal_Init
    133          #if defined( MT_TASK )
    134            MT_TaskInit( taskID++ );
    135          #endif
    136            APS_Init( taskID++ );
   \   000030                ; Setup parameters for call to function APS_Init
   \   000030   7904         MOV       R1,#0x4
   \   000032   12....       LCALL     `??APS_Init::?relay`; Banked call to: APS_Init
    137          #if defined ( ZIGBEE_FRAGMENTATION )
    138            APSF_Init( taskID++ );
   \   000035                ; Setup parameters for call to function APSF_Init
   \   000035   7905         MOV       R1,#0x5
   \   000037   12....       LCALL     `??APSF_Init::?relay`; Banked call to: APSF_Init
    139          #endif
    140            ZDApp_Init( taskID++ );
   \   00003A                ; Setup parameters for call to function ZDApp_Init
   \   00003A   7906         MOV       R1,#0x6
   \   00003C   12....       LCALL     `??ZDApp_Init::?relay`; Banked call to: ZDApp_Init
    141          #if defined ( ZIGBEE_FREQ_AGILITY ) || defined ( ZIGBEE_PANID_CONFLICT )
    142            ZDNwkMgr_Init( taskID++ );
   \   00003F                ; Setup parameters for call to function ZDNwkMgr_Init
   \   00003F   7907         MOV       R1,#0x7
   \   000041   12....       LCALL     `??ZDNwkMgr_Init::?relay`; Banked call to: ZDNwkMgr_Init
    143          #endif
    144            zcl_Init( taskID++ );
   \   000044                ; Setup parameters for call to function zcl_Init
   \   000044   7908         MOV       R1,#0x8
   \   000046   12....       LCALL     `??zcl_Init::?relay`; Banked call to: zcl_Init
    145            bdb_Init( taskID++ );
   \   000049                ; Setup parameters for call to function bdb_Init
   \   000049   7909         MOV       R1,#0x9
   \   00004B   12....       LCALL     `??bdb_Init::?relay`; Banked call to: bdb_Init
    146            zclSampleTemperatureSensor_Init( taskID );
   \   00004E                ; Setup parameters for call to function zclSampleTemperatureSensor_Init
   \   00004E   790A         MOV       R1,#0xa
   \   000050   12....       LCALL     `??zclSampleTemperatureSensor_Init::?relay`; Banked call to: zclSampleTemperatureSensor_Init
    147            
    148          
    149          }
   \   000053   D083         POP       DPH
   \   000055   D082         POP       DPL
   \   000057   02....       LJMP      ?BRET

   \                                 In  segment BANK_RELAYS, align 1
   \                     `??osalInitTasks::?relay`:
   \   000000   12....       LCALL   ?BDISPATCH
   \   000003   ......       DC24    osalInitTasks
    150          
    151          /*********************************************************************
    152          *********************************************************************/

   Maximum stack usage in bytes:

   ISTACK Function
   ------ --------
      2   osalInitTasks
        2   -> APSF_Init
        2   -> APS_Init
        2   -> Hal_Init
        2   -> ZDApp_Init
        2   -> ZDNwkMgr_Init
        2   -> bdb_Init
        2   -> gp_Init
        2   -> macTaskInit
        2   -> nwk_init
        2   -> osal_mem_alloc
        2   -> osal_memset
        2   -> zclSampleTemperatureSensor_Init
        2   -> zcl_Init


   Segment part sizes:

   Bytes  Function/Label
   -----  --------------
      90  osalInitTasks
       6  osalInitTasks::?relay
      22  tasksArr
       1  tasksCnt
       2  tasksEvents

 
 90 bytes in segment BANKED_CODE
  6 bytes in segment BANK_RELAYS
 23 bytes in segment XDATA_ROM_C
  2 bytes in segment XDATA_Z
 
  6 bytes of CODE     memory
 23 bytes of CONST    memory
 90 bytes of HUGECODE memory
  2 bytes of XDATA    memory

Errors: none
Warnings: none
