///////////////////////////////////////////////////////////////////////////////
//
// IAR C/C++ Compiler V10.10.1.4655 for 8051              30/Oct/2024  15:54:15
// Copyright 2004-2017 IAR Systems AB.
// Standalone license - IAR Embedded Workbench for 8051
//
//    Core               =  plain
//    Code model         =  banked
//    Data model         =  large
//    Calling convention =  xdata reentrant
//    Constant location  =  data_rom
//    Dptr setup         =  1,16
//                          
//    Source file        =  
//        D:\Z-Stack 3.0.2\Z-Stack
//        3.0.2\Projects\zstack\HomeAutomation\SampleSwitch\Source\zcl_samplesw.c
//    Command line       =  
//        -f C:\Users\ASUS\AppData\Local\Temp\EWA8BF.tmp ("D:\Z-Stack
//        3.0.2\Z-Stack
//        3.0.2\Projects\zstack\HomeAutomation\SampleSwitch\Source\zcl_samplesw.c"
//        -D SECURE=1 -D TC_LINKKEY_JOIN -D NV_INIT -D NV_RESTORE -D xZTOOL_P1
//        -D xMT_TASK -D xMT_APP_FUNC -D xMT_SYS_FUNC -D xMT_ZDO_FUNC -D
//        xMT_ZDO_MGMT -D xMT_APP_CNF_FUNC -D LCD_SUPPORTED=DEBUG -D
//        MULTICAST_ENABLED=FALSE -D ZCL_READ -D ZCL_DISCOVER -D ZCL_WRITE -D
//        ZCL_BASIC -D ZCL_IDENTIFY -D ZCL_ON_OFF -D ZCL_GROUPS -lC "D:\Z-Stack
//        3.0.2\Z-Stack
//        3.0.2\Projects\zstack\HomeAutomation\SampleSwitch\CC2530DB\RouterEB\List"
//        -lA "D:\Z-Stack 3.0.2\Z-Stack
//        3.0.2\Projects\zstack\HomeAutomation\SampleSwitch\CC2530DB\RouterEB\List"
//        --diag_suppress Pe001,Pa010 -o "D:\Z-Stack 3.0.2\Z-Stack
//        3.0.2\Projects\zstack\HomeAutomation\SampleSwitch\CC2530DB\RouterEB\Obj"
//        -e --debug --core=plain --dptr=16,1 --data_model=large
//        --code_model=banked --calling_convention=xdata_reentrant
//        --place_constants=data_rom --nr_virtual_regs 16 -f "D:\Z-Stack
//        3.0.2\Z-Stack
//        3.0.2\Projects\zstack\HomeAutomation\SampleSwitch\CC2530DB\..\..\..\Tools\CC2530DB\f8wRouter.cfg"
//        (-DCPU32MHZ -DROOT=__near_func -DMAC_CFG_APP_PENDING_QUEUE=TRUE
//        -DMAC_CFG_TX_DATA_MAX=5 -DMAC_CFG_TX_MAX=8 -DMAC_CFG_RX_MAX=5
//        -DRTR_NWK) -f "D:\Z-Stack 3.0.2\Z-Stack
//        3.0.2\Projects\zstack\HomeAutomation\SampleSwitch\CC2530DB\..\..\..\Tools\CC2530DB\f8wConfig.cfg"
//        (-DZIGBEEPRO -DSECURE=1 -DZG_SECURE_DYNAMIC=0 -DREFLECTOR
//        -DDEFAULT_CHANLIST=0x00000800 -DZDAPP_CONFIG_PAN_ID=0x1234
//        -DNWK_START_DELAY=100 -DEXTENDED_JOINING_RANDOM_MASK=0x007F
//        -DBEACON_REQUEST_DELAY=100 -DBEACON_REQ_DELAY_MASK=0x00FF
//        -DLINK_STATUS_JITTER_MASK=0x007F -DROUTE_EXPIRY_TIME=30
//        -DAPSC_ACK_WAIT_DURATION_POLLED=3000 -DNWK_INDIRECT_MSG_TIMEOUT=7
//        -DMAX_RREQ_ENTRIES=8 -DAPSC_MAX_FRAME_RETRIES=3
//        -DNWK_MAX_DATA_RETRIES=2 -DMAX_POLL_FAILURE_RETRIES=2 -DMAX_BCAST=9
//        -DAPS_MAX_GROUPS=16 -DMAX_RTG_ENTRIES=40 -DNWK_MAX_BINDING_ENTRIES=4
//        -DMAX_BINDING_CLUSTER_IDS=4 -DDEFAULT_KEY={0}
//        -DMAC_MAX_FRAME_SIZE=116 -DZDNWKMGR_MIN_TRANSMISSIONS=20
//        "-DCONST=const __code" -DGENERIC=__generic -DRFD_RCVC_ALWAYS_ON=FALSE
//        -DPOLL_RATE=1000 -DQUEUED_POLL_RATE=100 -DRESPONSE_POLL_RATE=100
//        -DREJOIN_POLL_RATE=440 -DREJOIN_BACKOFF=900000 -DREJOIN_SCAN=900000
//        -DENABLE_LED4_DISABLE_S1) -f "D:\Z-Stack 3.0.2\Z-Stack
//        3.0.2\Projects\zstack\HomeAutomation\SampleSwitch\CC2530DB\..\..\..\Tools\CC2530DB\f8wZCL.cfg"
//        -I "D:\Z-Stack 3.0.2\Z-Stack
//        3.0.2\Projects\zstack\HomeAutomation\SampleSwitch\CC2530DB\" -I
//        "D:\Z-Stack 3.0.2\Z-Stack
//        3.0.2\Projects\zstack\HomeAutomation\SampleSwitch\CC2530DB\..\Source\"
//        -I "D:\Z-Stack 3.0.2\Z-Stack
//        3.0.2\Projects\zstack\HomeAutomation\SampleSwitch\CC2530DB\..\..\Source\"
//        -I "D:\Z-Stack 3.0.2\Z-Stack
//        3.0.2\Projects\zstack\HomeAutomation\SampleSwitch\CC2530DB\..\..\..\ZMain\TI2530DB\"
//        -I "D:\Z-Stack 3.0.2\Z-Stack
//        3.0.2\Projects\zstack\HomeAutomation\SampleSwitch\CC2530DB\..\..\..\..\..\Components\hal\include\"
//        -I "D:\Z-Stack 3.0.2\Z-Stack
//        3.0.2\Projects\zstack\HomeAutomation\SampleSwitch\CC2530DB\..\..\..\..\..\Components\hal\target\CC2530EB\"
//        -I "D:\Z-Stack 3.0.2\Z-Stack
//        3.0.2\Projects\zstack\HomeAutomation\SampleSwitch\CC2530DB\..\..\..\..\..\Components\mac\include\"
//        -I "D:\Z-Stack 3.0.2\Z-Stack
//        3.0.2\Projects\zstack\HomeAutomation\SampleSwitch\CC2530DB\..\..\..\..\..\Components\mac\high_level\"
//        -I "D:\Z-Stack 3.0.2\Z-Stack
//        3.0.2\Projects\zstack\HomeAutomation\SampleSwitch\CC2530DB\..\..\..\..\..\Components\mac\low_level\srf04\"
//        -I "D:\Z-Stack 3.0.2\Z-Stack
//        3.0.2\Projects\zstack\HomeAutomation\SampleSwitch\CC2530DB\..\..\..\..\..\Components\mac\low_level\srf04\single_chip\"
//        -I "D:\Z-Stack 3.0.2\Z-Stack
//        3.0.2\Projects\zstack\HomeAutomation\SampleSwitch\CC2530DB\..\..\..\..\..\Components\mt\"
//        -I "D:\Z-Stack 3.0.2\Z-Stack
//        3.0.2\Projects\zstack\HomeAutomation\SampleSwitch\CC2530DB\..\..\..\..\..\Components\osal\include\"
//        -I "D:\Z-Stack 3.0.2\Z-Stack
//        3.0.2\Projects\zstack\HomeAutomation\SampleSwitch\CC2530DB\..\..\..\..\..\Components\services\saddr\"
//        -I "D:\Z-Stack 3.0.2\Z-Stack
//        3.0.2\Projects\zstack\HomeAutomation\SampleSwitch\CC2530DB\..\..\..\..\..\Components\services\sdata\"
//        -I "D:\Z-Stack 3.0.2\Z-Stack
//        3.0.2\Projects\zstack\HomeAutomation\SampleSwitch\CC2530DB\..\..\..\..\..\Components\stack\af\"
//        -I "D:\Z-Stack 3.0.2\Z-Stack
//        3.0.2\Projects\zstack\HomeAutomation\SampleSwitch\CC2530DB\..\..\..\..\..\Components\stack\bdb\"
//        -I "D:\Z-Stack 3.0.2\Z-Stack
//        3.0.2\Projects\zstack\HomeAutomation\SampleSwitch\CC2530DB\..\..\..\..\..\Components\stack\gp\"
//        -I "D:\Z-Stack 3.0.2\Z-Stack
//        3.0.2\Projects\zstack\HomeAutomation\SampleSwitch\CC2530DB\..\..\..\..\..\Components\stack\nwk\"
//        -I "D:\Z-Stack 3.0.2\Z-Stack
//        3.0.2\Projects\zstack\HomeAutomation\SampleSwitch\CC2530DB\..\..\..\..\..\Components\stack\sapi\"
//        -I "D:\Z-Stack 3.0.2\Z-Stack
//        3.0.2\Projects\zstack\HomeAutomation\SampleSwitch\CC2530DB\..\..\..\..\..\Components\stack\sec\"
//        -I "D:\Z-Stack 3.0.2\Z-Stack
//        3.0.2\Projects\zstack\HomeAutomation\SampleSwitch\CC2530DB\..\..\..\..\..\Components\stack\sys\"
//        -I "D:\Z-Stack 3.0.2\Z-Stack
//        3.0.2\Projects\zstack\HomeAutomation\SampleSwitch\CC2530DB\..\..\..\..\..\Components\stack\zcl\"
//        -I "D:\Z-Stack 3.0.2\Z-Stack
//        3.0.2\Projects\zstack\HomeAutomation\SampleSwitch\CC2530DB\..\..\..\..\..\Components\stack\zdo\"
//        -I "D:\Z-Stack 3.0.2\Z-Stack
//        3.0.2\Projects\zstack\HomeAutomation\SampleSwitch\CC2530DB\..\..\..\..\..\Components\zmac\"
//        -I "D:\Z-Stack 3.0.2\Z-Stack
//        3.0.2\Projects\zstack\HomeAutomation\SampleSwitch\CC2530DB\..\..\..\..\..\Components\zmac\f8w\"
//        -Ohz --require_prototypes)
//    Locale             =  Chinese (Simplified)_China.936
//    List file          =  
//        D:\Z-Stack 3.0.2\Z-Stack
//        3.0.2\Projects\zstack\HomeAutomation\SampleSwitch\CC2530DB\RouterEB\List\zcl_samplesw.s51
//
///////////////////////////////////////////////////////////////////////////////

        NAME zcl_samplesw

        RTMODEL "__SystemLibrary", "CLib"
        RTMODEL "__calling_convention", "xdata_reentrant"
        RTMODEL "__code_model", "banked"
        RTMODEL "__core", "plain"
        RTMODEL "__data_model", "large"
        RTMODEL "__dptr_size", "16"
        RTMODEL "__extended_stack", "disabled"
        RTMODEL "__iar_require _formatted_write", ""
        RTMODEL "__location_for_constants", "data"
        RTMODEL "__number_of_dptrs", "1"
        RTMODEL "__register_banks", "*"
        RTMODEL "__rt_version", "1"

        RSEG DOVERLAY:DATA:NOROOT(0)
        RSEG IOVERLAY:IDATA:NOROOT(0)
        RSEG ISTACK:IDATA:NOROOT(0)
        RSEG PSTACK:XDATA:NOROOT(0)
        RSEG XSTACK:XDATA:NOROOT(0)

        EXTERN ?V0
        EXTERN ?V1
        EXTERN ?V2
        EXTERN ?V3
        EXTERN ?V4
        EXTERN ?V5
        EXTERN ?ALLOC_XSTACK8
        EXTERN ?BANKED_ENTER_XDATA
        EXTERN ?BANKED_LEAVE_XDATA
        EXTERN ?BDISPATCH
        EXTERN ?BRET
        EXTERN ?DEALLOC_XSTACK8
        EXTERN ?MOVE_LONG8_XDATA_XDATA
        EXTERN ?PUSH_XSTACK8_X_FOUR
        EXTERN ?PUSH_XSTACK_I_ONE
        EXTERN ?PUSH_XSTACK_I_TWO
        EXTERN ?US_SWITCH_DENSE
        EXTERN ?XSP
        EXTERN ?XSTACK_DISP0_8
        EXTERN ?XSTACK_DISP101_8
        EXTERN __INIT_XDATA_I
        EXTERN __INIT_XDATA_Z

        FUNCTION `??zclSampleApp_BatteryWarningCB::?relay`,0203H
        FUNCTION `??zclSampleSw_BasicResetCB::?relay`,0203H
        PUBLIC `??zclSampleSw_Init::?relay`
        FUNCTION `??zclSampleSw_Init::?relay`,0203H
        FUNCTION `??zclSampleSw_ProcessCommissioningStatus::?rela`,0203H
        FUNCTION `??zclSampleSw_ProcessInDiscCmdsRspCmd::?relay`,0203H
        FUNCTION `??zclSampleSw_ProcessIncomingMsg::?relay`,0203H
        FUNCTION `??zclSampleSw_ReportTest::?relay`,0203H
        PUBLIC `??zclSampleSw_UiActionToggleLight::?relay`
        FUNCTION `??zclSampleSw_UiActionToggleLight::?relay`,0203H
        PUBLIC `??zclSampleSw_UiUpdateLcd::?relay`
        FUNCTION `??zclSampleSw_UiUpdateLcd::?relay`,0203H
        PUBLIC `??zclSampleSw_event_loop::?relay`
        FUNCTION `??zclSampleSw_event_loop::?relay`,0203H
        PUBWEAK __Constant_1f4
        PUBWEAK __Constant_3e8
        PUBWEAK __Constant_bb8
        FUNCTION zclSampleApp_BatteryWarningCB,0603H
        ARGFRAME XSTACK, 0, STACK
        PUBLIC zclSampleSwSeqNum
        FUNCTION zclSampleSw_BasicResetCB,021603H
        ARGFRAME XSTACK, 0, STACK
        LOCFRAME ISTACK, 2, STACK
        PUBLIC zclSampleSw_DstAddr
        PUBLIC zclSampleSw_Init
        FUNCTION zclSampleSw_Init,0a1203H
        ARGFRAME XSTACK, 0, STACK
        LOCFRAME XSTACK, 36, STACK
        PUBLIC zclSampleSw_NwkState
        PUBLIC zclSampleSw_OnOffSwitchActions
        PUBLIC zclSampleSw_OnOffSwitchType
        FUNCTION zclSampleSw_ProcessCommissioningStatus,0a1603H
        ARGFRAME XSTACK, 0, STACK
        LOCFRAME XSTACK, 14, STACK
        FUNCTION zclSampleSw_ProcessInDiscCmdsRspCmd,0203H
        ARGFRAME XSTACK, 14, STACK
        ARGFRAME IOVERLAY, 0, STATIC
        ARGFRAME DOVERLAY, 0, STATIC
        LOCFRAME ISTACK, 2, STACK
        FUNCTION zclSampleSw_ProcessIncomingMsg,0a1203H
        ARGFRAME XSTACK, 12, STACK
        ARGFRAME IOVERLAY, 0, STATIC
        ARGFRAME DOVERLAY, 0, STATIC
        LOCFRAME XSTACK, 15, STACK
        FUNCTION zclSampleSw_ReportTest,0a1203H
        ARGFRAME XSTACK, 12, STACK
        ARGFRAME IOVERLAY, 0, STATIC
        ARGFRAME DOVERLAY, 0, STATIC
        LOCFRAME ISTACK, 1, STACK
        LOCFRAME XSTACK, 29, STACK
        PUBLIC zclSampleSw_TaskID
        PUBLIC zclSampleSw_TestAddr
        PUBLIC zclSampleSw_UiActionToggleLight
        FUNCTION zclSampleSw_UiActionToggleLight,0a1603H
        ARGFRAME XSTACK, 0, STACK
        LOCFRAME XSTACK, 21, STACK
        PUBLIC zclSampleSw_UiStatesMain
        PUBLIC zclSampleSw_UiUpdateLcd
        FUNCTION zclSampleSw_UiUpdateLcd,0603H
        ARGFRAME XSTACK, 0, STACK
        LOCFRAME ISTACK, 2, STACK
        PUBLIC zclSampleSw_event_loop
        FUNCTION zclSampleSw_event_loop,0a1203H
        ARGFRAME XSTACK, 0, STACK
        LOCFRAME XSTACK, 23, STACK
        
          CFI Names cfiNames0
          CFI StackFrame CFA_SP SP IDATA
          CFI StackFrame CFA_PSP16 PSP16 XDATA
          CFI StackFrame CFA_XSP16 XSP16 XDATA
          CFI StaticOverlayFrame CFA_IOVERLAY IOVERLAY
          CFI StaticOverlayFrame CFA_DOVERLAY DOVERLAY
          CFI Resource `PSW.CY`:1, `B.BR0`:1, `B.BR1`:1, `B.BR2`:1, `B.BR3`:1
          CFI Resource `B.BR4`:1, `B.BR5`:1, `B.BR6`:1, `B.BR7`:1, `VB.BR8`:1
          CFI Resource `VB.BR9`:1, `VB.BR10`:1, `VB.BR11`:1, `VB.BR12`:1
          CFI Resource `VB.BR13`:1, `VB.BR14`:1, `VB.BR15`:1, VB:8, B:8, A:8
          CFI Resource PSW:8, DPL0:8, DPH0:8, R0:8, R1:8, R2:8, R3:8, R4:8, R5:8
          CFI Resource R6:8, R7:8, V0:8, V1:8, V2:8, V3:8, V4:8, V5:8, V6:8, V7:8
          CFI Resource V8:8, V9:8, V10:8, V11:8, V12:8, V13:8, V14:8, V15:8, SP:8
          CFI Resource PSPH:8, PSPL:8, PSP16:16, XSPH:8, XSPL:8, XSP16:16
          CFI VirtualResource ?RET:24
          CFI Resource ?BRET_EXT:8
          CFI VirtualResource ?RET_HIGH:8, ?RET_LOW:8
          CFI ResourceParts PSP16 PSPH, PSPL
          CFI ResourceParts XSP16 XSPH, XSPL
          CFI ResourceParts ?RET ?BRET_EXT, ?RET_HIGH, ?RET_LOW
          CFI EndNames cfiNames0
        
          CFI Common cfiCommon0 Using cfiNames0
          CFI CodeAlign 1
          CFI DataAlign -1
          CFI ReturnAddress ?RET CODE
          CFI CFA_DOVERLAY Used
          CFI CFA_IOVERLAY Used
          CFI CFA_SP SP+-3
          CFI CFA_PSP16 PSP16+0
          CFI CFA_XSP16 XSP16+0
          CFI `PSW.CY` SameValue
          CFI `B.BR0` SameValue
          CFI `B.BR1` SameValue
          CFI `B.BR2` SameValue
          CFI `B.BR3` SameValue
          CFI `B.BR4` SameValue
          CFI `B.BR5` SameValue
          CFI `B.BR6` SameValue
          CFI `B.BR7` SameValue
          CFI `VB.BR8` SameValue
          CFI `VB.BR9` SameValue
          CFI `VB.BR10` SameValue
          CFI `VB.BR11` SameValue
          CFI `VB.BR12` SameValue
          CFI `VB.BR13` SameValue
          CFI `VB.BR14` SameValue
          CFI `VB.BR15` SameValue
          CFI VB SameValue
          CFI B Undefined
          CFI A Undefined
          CFI PSW SameValue
          CFI DPL0 SameValue
          CFI DPH0 SameValue
          CFI R0 Undefined
          CFI R1 Undefined
          CFI R2 Undefined
          CFI R3 Undefined
          CFI R4 Undefined
          CFI R5 Undefined
          CFI R6 SameValue
          CFI R7 SameValue
          CFI V0 SameValue
          CFI V1 SameValue
          CFI V2 SameValue
          CFI V3 SameValue
          CFI V4 SameValue
          CFI V5 SameValue
          CFI V6 SameValue
          CFI V7 SameValue
          CFI V8 SameValue
          CFI V9 SameValue
          CFI V10 SameValue
          CFI V11 SameValue
          CFI V12 SameValue
          CFI V13 SameValue
          CFI V14 SameValue
          CFI V15 SameValue
          CFI PSPH Undefined
          CFI PSPL Undefined
          CFI XSPH Undefined
          CFI XSPL Undefined
          CFI ?RET Concat
          CFI ?BRET_EXT Frame(CFA_SP, 3)
          CFI ?RET_HIGH Frame(CFA_SP, 2)
          CFI ?RET_LOW Frame(CFA_SP, 1)
          CFI EndCommon cfiCommon0
        
        
          CFI Common cfiCommon1 Using cfiNames0
          CFI CodeAlign 1
          CFI DataAlign -1
          CFI ReturnAddress ?RET CODE
          CFI CFA_DOVERLAY Used
          CFI CFA_IOVERLAY Used
          CFI CFA_SP SP+-2
          CFI CFA_PSP16 PSP16+0
          CFI CFA_XSP16 XSP16+0
          CFI `PSW.CY` SameValue
          CFI `B.BR0` SameValue
          CFI `B.BR1` SameValue
          CFI `B.BR2` SameValue
          CFI `B.BR3` SameValue
          CFI `B.BR4` SameValue
          CFI `B.BR5` SameValue
          CFI `B.BR6` SameValue
          CFI `B.BR7` SameValue
          CFI `VB.BR8` SameValue
          CFI `VB.BR9` SameValue
          CFI `VB.BR10` SameValue
          CFI `VB.BR11` SameValue
          CFI `VB.BR12` SameValue
          CFI `VB.BR13` SameValue
          CFI `VB.BR14` SameValue
          CFI `VB.BR15` SameValue
          CFI VB SameValue
          CFI B SameValue
          CFI A SameValue
          CFI PSW SameValue
          CFI DPL0 SameValue
          CFI DPH0 SameValue
          CFI R0 SameValue
          CFI R1 SameValue
          CFI R2 SameValue
          CFI R3 SameValue
          CFI R4 SameValue
          CFI R5 SameValue
          CFI R6 SameValue
          CFI R7 SameValue
          CFI V0 SameValue
          CFI V1 SameValue
          CFI V2 SameValue
          CFI V3 SameValue
          CFI V4 SameValue
          CFI V5 SameValue
          CFI V6 SameValue
          CFI V7 SameValue
          CFI V8 SameValue
          CFI V9 SameValue
          CFI V10 SameValue
          CFI V11 SameValue
          CFI V12 SameValue
          CFI V13 SameValue
          CFI V14 SameValue
          CFI V15 SameValue
          CFI PSPH Undefined
          CFI PSPL Undefined
          CFI XSPH Undefined
          CFI XSPL Undefined
          CFI ?RET Concat
          CFI ?BRET_EXT SameValue
          CFI ?RET_HIGH Frame(CFA_SP, 2)
          CFI ?RET_LOW Frame(CFA_SP, 1)
          CFI EndCommon cfiCommon1
        
HalLcdWriteStringValue SYMBOL "HalLcdWriteStringValue"
`??HalLcdWriteStringValue::?relay` SYMBOL "?relay", HalLcdWriteStringValue
RegisterForKeys     SYMBOL "RegisterForKeys"
`??RegisterForKeys::?relay` SYMBOL "?relay", RegisterForKeys
RegisterVoltageWarningCB SYMBOL "RegisterVoltageWarningCB"
`??RegisterVoltageWarningCB::?relay` SYMBOL "?relay", RegisterVoltageWarningCB
`?<Name UI_ActionBackFromApp 6>` SYMBOL "UI_ActionBackFromAppMenu"
`??UI_ActionBackFromAppMenu::?relay` SYMBOL "?relay", `?<Name UI_ActionBackFromApp 6>`
UI_DeviceStateUpdated SYMBOL "UI_DeviceStateUpdated"
`??UI_DeviceStateUpdated::?relay` SYMBOL "?relay", UI_DeviceStateUpdated
UI_Init             SYMBOL "UI_Init"
`??UI_Init::?relay` SYMBOL "?relay", UI_Init
UI_MainStateMachine SYMBOL "UI_MainStateMachine"
`??UI_MainStateMachine::?relay` SYMBOL "?relay", UI_MainStateMachine
UI_UpdateComissioningStatus SYMBOL "UI_UpdateComissioningStatus"
`??UI_UpdateComissioningStatus::?relay` SYMBOL "?relay", UI_UpdateComissioningStatus
UI_UpdateLcd        SYMBOL "UI_UpdateLcd"
`??UI_UpdateLcd::?relay` SYMBOL "?relay", UI_UpdateLcd
afRegister          SYMBOL "afRegister"
`??afRegister::?relay` SYMBOL "?relay", afRegister
aps_AddGroup        SYMBOL "aps_AddGroup"
`??aps_AddGroup::?relay` SYMBOL "?relay", aps_AddGroup
bdb_RegisterCommissioningStatusCB SYMBOL "bdb_RegisterCommissioningStatusCB"
`??bdb_RegisterCommissioningStatusCB::?relay` SYMBOL "?relay", bdb_RegisterCommissioningStatusCB
bdb_RegisterSimpleDescriptor SYMBOL "bdb_RegisterSimpleDescriptor"
`??bdb_RegisterSimpleDescriptor::?relay` SYMBOL "?relay", bdb_RegisterSimpleDescriptor
bdb_StartCommissioning SYMBOL "bdb_StartCommissioning"
`??bdb_StartCommissioning::?relay` SYMBOL "?relay", bdb_StartCommissioning
bdb_getZCLFrameCounter SYMBOL "bdb_getZCLFrameCounter"
`??bdb_getZCLFrameCounter::?relay` SYMBOL "?relay", bdb_getZCLFrameCounter
osal_mem_alloc      SYMBOL "osal_mem_alloc"
`??osal_mem_alloc::?relay` SYMBOL "?relay", osal_mem_alloc
osal_mem_free       SYMBOL "osal_mem_free"
`??osal_mem_free::?relay` SYMBOL "?relay", osal_mem_free
osal_msg_deallocate SYMBOL "osal_msg_deallocate"
`??osal_msg_deallocate::?relay` SYMBOL "?relay", osal_msg_deallocate
osal_msg_receive    SYMBOL "osal_msg_receive"
`??osal_msg_receive::?relay` SYMBOL "?relay", osal_msg_receive
osal_start_timerEx  SYMBOL "osal_start_timerEx"
`??osal_start_timerEx::?relay` SYMBOL "?relay", osal_start_timerEx
printf              SYMBOL "printf"
`??printf::?relay`  SYMBOL "?relay", printf
zclGeneral_RegisterCmdCallbacks SYMBOL "zclGeneral_RegisterCmdCallbacks"
`??zclGeneral_RegisterCmdCallbacks::?relay` SYMBOL "?relay", zclGeneral_RegisterCmdCallbacks
zclSampleSw_ResetAttributesToDefaultValues SYMBOL "zclSampleSw_ResetAttributesToDefaultValues"
`??zclSampleSw_ResetAttributesToDefaultValues::?` SYMBOL "?relay", zclSampleSw_ResetAttributesToDefaultValues
zcl_SendCommand     SYMBOL "zcl_SendCommand"
`??zcl_SendCommand::?relay` SYMBOL "?relay", zcl_SendCommand
zcl_SendReportCmd   SYMBOL "zcl_SendReportCmd"
`??zcl_SendReportCmd::?relay` SYMBOL "?relay", zcl_SendReportCmd
zcl_registerAttrList SYMBOL "zcl_registerAttrList"
`??zcl_registerAttrList::?relay` SYMBOL "?relay", zcl_registerAttrList
zcl_registerForMsg  SYMBOL "zcl_registerForMsg"
`??zcl_registerForMsg::?relay` SYMBOL "?relay", zcl_registerForMsg
zclSampleSw_Init    SYMBOL "zclSampleSw_Init"
`??zclSampleSw_Init::?relay` SYMBOL "?relay", zclSampleSw_Init
zclSampleSw_UiActionToggleLight SYMBOL "zclSampleSw_UiActionToggleLight"
`??zclSampleSw_UiActionToggleLight::?relay` SYMBOL "?relay", zclSampleSw_UiActionToggleLight
zclSampleSw_UiUpdateLcd SYMBOL "zclSampleSw_UiUpdateLcd"
`??zclSampleSw_UiUpdateLcd::?relay` SYMBOL "?relay", zclSampleSw_UiUpdateLcd
zclSampleSw_event_loop SYMBOL "zclSampleSw_event_loop"
`??zclSampleSw_event_loop::?relay` SYMBOL "?relay", zclSampleSw_event_loop

        EXTERN `??HalLcdWriteStringValue::?relay`
        FUNCTION `??HalLcdWriteStringValue::?relay`,00H
        EXTERN `??RegisterForKeys::?relay`
        FUNCTION `??RegisterForKeys::?relay`,00H
        EXTERN `??RegisterVoltageWarningCB::?relay`
        FUNCTION `??RegisterVoltageWarningCB::?relay`,00H
        EXTERN `??UI_ActionBackFromAppMenu::?relay`
        FUNCTION `??UI_ActionBackFromAppMenu::?relay`,00H
        EXTERN `??UI_DeviceStateUpdated::?relay`
        FUNCTION `??UI_DeviceStateUpdated::?relay`,00H
        EXTERN `??UI_Init::?relay`
        FUNCTION `??UI_Init::?relay`,00H
        EXTERN `??UI_MainStateMachine::?relay`
        FUNCTION `??UI_MainStateMachine::?relay`,00H
        EXTERN `??UI_UpdateComissioningStatus::?relay`
        FUNCTION `??UI_UpdateComissioningStatus::?relay`,00H
        EXTERN `??UI_UpdateLcd::?relay`
        FUNCTION `??UI_UpdateLcd::?relay`,00H
        EXTERN `??afRegister::?relay`
        FUNCTION `??afRegister::?relay`,00H
        EXTERN `??aps_AddGroup::?relay`
        FUNCTION `??aps_AddGroup::?relay`,00H
        EXTERN `??bdb_RegisterCommissioningStatusCB::?relay`
        FUNCTION `??bdb_RegisterCommissioningStatusCB::?relay`,00H
        EXTERN `??bdb_RegisterSimpleDescriptor::?relay`
        FUNCTION `??bdb_RegisterSimpleDescriptor::?relay`,00H
        EXTERN `??bdb_StartCommissioning::?relay`
        FUNCTION `??bdb_StartCommissioning::?relay`,00H
        EXTERN `??bdb_getZCLFrameCounter::?relay`
        FUNCTION `??bdb_getZCLFrameCounter::?relay`,00H
        EXTERN `??osal_mem_alloc::?relay`
        FUNCTION `??osal_mem_alloc::?relay`,00H
        EXTERN `??osal_mem_free::?relay`
        FUNCTION `??osal_mem_free::?relay`,00H
        EXTERN `??osal_msg_deallocate::?relay`
        FUNCTION `??osal_msg_deallocate::?relay`,00H
        EXTERN `??osal_msg_receive::?relay`
        FUNCTION `??osal_msg_receive::?relay`,00H
        EXTERN `??osal_start_timerEx::?relay`
        FUNCTION `??osal_start_timerEx::?relay`,00H
        EXTERN `??printf::?relay`
        FUNCTION `??printf::?relay`,00H
        EXTERN `??zclGeneral_RegisterCmdCallbacks::?relay`
        FUNCTION `??zclGeneral_RegisterCmdCallbacks::?relay`,00H
        EXTERN `??zclSampleSw_ResetAttributesToDefaultValues::?`
        FUNCTION `??zclSampleSw_ResetAttributesToDefaultValues::?`,00H
        EXTERN `??zcl_SendCommand::?relay`
        FUNCTION `??zcl_SendCommand::?relay`,00H
        EXTERN `??zcl_SendReportCmd::?relay`
        FUNCTION `??zcl_SendReportCmd::?relay`,00H
        EXTERN `??zcl_registerAttrList::?relay`
        FUNCTION `??zcl_registerAttrList::?relay`,00H
        EXTERN `??zcl_registerForMsg::?relay`
        FUNCTION `??zcl_registerForMsg::?relay`,00H
        EXTERN HalLcdWriteStringValue
        FUNCTION HalLcdWriteStringValue,0202H
        ARGFRAME ISTACK, 0, STACK
        ARGFRAME PSTACK, 0, STACK
        ARGFRAME XSTACK, 25, STACK
        ARGFRAME IOVERLAY, 0, STATIC
        ARGFRAME DOVERLAY, 0, STATIC
        EXTERN RegisterForKeys
        FUNCTION RegisterForKeys,0202H
        ARGFRAME ISTACK, 0, STACK
        ARGFRAME PSTACK, 0, STACK
        ARGFRAME XSTACK, 28, STACK
        ARGFRAME IOVERLAY, 0, STATIC
        ARGFRAME DOVERLAY, 0, STATIC
        EXTERN RegisterVoltageWarningCB
        FUNCTION RegisterVoltageWarningCB,0202H
        ARGFRAME ISTACK, 0, STACK
        ARGFRAME PSTACK, 0, STACK
        ARGFRAME XSTACK, 28, STACK
        ARGFRAME IOVERLAY, 0, STATIC
        ARGFRAME DOVERLAY, 0, STATIC
        EXTERN UI_DeviceStateUpdated
        FUNCTION UI_DeviceStateUpdated,0202H
        ARGFRAME ISTACK, 0, STACK
        ARGFRAME PSTACK, 0, STACK
        ARGFRAME XSTACK, 12, STACK
        ARGFRAME IOVERLAY, 0, STATIC
        ARGFRAME DOVERLAY, 0, STATIC
        EXTERN UI_Init
        FUNCTION UI_Init,0202H
        ARGFRAME ISTACK, 0, STACK
        ARGFRAME PSTACK, 0, STACK
        ARGFRAME XSTACK, 36, STACK
        ARGFRAME IOVERLAY, 0, STATIC
        ARGFRAME DOVERLAY, 0, STATIC
        EXTERN UI_MainStateMachine
        FUNCTION UI_MainStateMachine,0202H
        ARGFRAME ISTACK, 0, STACK
        ARGFRAME PSTACK, 0, STACK
        ARGFRAME XSTACK, 12, STACK
        ARGFRAME IOVERLAY, 0, STATIC
        ARGFRAME DOVERLAY, 0, STATIC
        EXTERN UI_UpdateComissioningStatus
        FUNCTION UI_UpdateComissioningStatus,0202H
        ARGFRAME ISTACK, 0, STACK
        ARGFRAME PSTACK, 0, STACK
        ARGFRAME XSTACK, 10, STACK
        ARGFRAME IOVERLAY, 0, STATIC
        ARGFRAME DOVERLAY, 0, STATIC
        EXTERN UI_UpdateLcd
        FUNCTION UI_UpdateLcd,0202H
        ARGFRAME ISTACK, 2, STACK
        ARGFRAME PSTACK, 0, STACK
        ARGFRAME XSTACK, 28, STACK
        ARGFRAME IOVERLAY, 0, STATIC
        ARGFRAME DOVERLAY, 0, STATIC
        EXTERN afRegister
        FUNCTION afRegister,0202H
        ARGFRAME ISTACK, 0, STACK
        ARGFRAME PSTACK, 0, STACK
        ARGFRAME XSTACK, 28, STACK
        ARGFRAME IOVERLAY, 0, STATIC
        ARGFRAME DOVERLAY, 0, STATIC
        EXTERN aps_AddGroup
        FUNCTION aps_AddGroup,0202H
        ARGFRAME ISTACK, 0, STACK
        ARGFRAME PSTACK, 0, STACK
        ARGFRAME XSTACK, 28, STACK
        ARGFRAME IOVERLAY, 0, STATIC
        ARGFRAME DOVERLAY, 0, STATIC
        EXTERN bdb_RegisterCommissioningStatusCB
        FUNCTION bdb_RegisterCommissioningStatusCB,0202H
        ARGFRAME ISTACK, 0, STACK
        ARGFRAME PSTACK, 0, STACK
        ARGFRAME XSTACK, 28, STACK
        ARGFRAME IOVERLAY, 0, STATIC
        ARGFRAME DOVERLAY, 0, STATIC
        EXTERN bdb_RegisterSimpleDescriptor
        FUNCTION bdb_RegisterSimpleDescriptor,0202H
        ARGFRAME ISTACK, 0, STACK
        ARGFRAME PSTACK, 0, STACK
        ARGFRAME XSTACK, 28, STACK
        ARGFRAME IOVERLAY, 0, STATIC
        ARGFRAME DOVERLAY, 0, STATIC
        EXTERN bdb_StartCommissioning
        FUNCTION bdb_StartCommissioning,0202H
        ARGFRAME ISTACK, 0, STACK
        ARGFRAME PSTACK, 0, STACK
        ARGFRAME XSTACK, 28, STACK
        ARGFRAME IOVERLAY, 0, STATIC
        ARGFRAME DOVERLAY, 0, STATIC
        EXTERN bdb_getZCLFrameCounter
        FUNCTION bdb_getZCLFrameCounter,0202H
        ARGFRAME ISTACK, 0, STACK
        ARGFRAME PSTACK, 0, STACK
        ARGFRAME XSTACK, 10, STACK
        ARGFRAME IOVERLAY, 0, STATIC
        ARGFRAME DOVERLAY, 0, STATIC
        EXTERN osal_mem_alloc
        FUNCTION osal_mem_alloc,0202H
        ARGFRAME ISTACK, 0, STACK
        ARGFRAME PSTACK, 0, STACK
        ARGFRAME XSTACK, 24, STACK
        ARGFRAME IOVERLAY, 0, STATIC
        ARGFRAME DOVERLAY, 0, STATIC
        EXTERN osal_mem_free
        FUNCTION osal_mem_free,0202H
        ARGFRAME ISTACK, 0, STACK
        ARGFRAME PSTACK, 0, STACK
        ARGFRAME XSTACK, 24, STACK
        ARGFRAME IOVERLAY, 0, STATIC
        ARGFRAME DOVERLAY, 0, STATIC
        EXTERN osal_msg_deallocate
        FUNCTION osal_msg_deallocate,0202H
        ARGFRAME ISTACK, 0, STACK
        ARGFRAME PSTACK, 0, STACK
        ARGFRAME XSTACK, 12, STACK
        ARGFRAME IOVERLAY, 0, STATIC
        ARGFRAME DOVERLAY, 0, STATIC
        EXTERN osal_msg_receive
        FUNCTION osal_msg_receive,0202H
        ARGFRAME ISTACK, 0, STACK
        ARGFRAME PSTACK, 0, STACK
        ARGFRAME XSTACK, 12, STACK
        ARGFRAME IOVERLAY, 0, STATIC
        ARGFRAME DOVERLAY, 0, STATIC
        EXTERN osal_start_timerEx
        FUNCTION osal_start_timerEx,0202H
        ARGFRAME ISTACK, 0, STACK
        ARGFRAME PSTACK, 0, STACK
        ARGFRAME XSTACK, 32, STACK
        ARGFRAME IOVERLAY, 0, STATIC
        ARGFRAME DOVERLAY, 0, STATIC
        EXTERN printf
        FUNCTION printf,0202H
        ARGFRAME ISTACK, 0, STACK
        ARGFRAME PSTACK, 0, STACK
        ARGFRAME XSTACK, 10, STACK
        ARGFRAME IOVERLAY, 0, STATIC
        ARGFRAME DOVERLAY, 0, STATIC
        EXTERN zclGeneral_RegisterCmdCallbacks
        FUNCTION zclGeneral_RegisterCmdCallbacks,0202H
        ARGFRAME ISTACK, 0, STACK
        ARGFRAME PSTACK, 0, STACK
        ARGFRAME XSTACK, 28, STACK
        ARGFRAME IOVERLAY, 0, STATIC
        ARGFRAME DOVERLAY, 0, STATIC
        EXTERN zclSampleSw_Attrs
        EXTERN zclSampleSw_IdentifyTime
        EXTERN zclSampleSw_NumAttributes
        EXTERN zclSampleSw_ResetAttributesToDefaultValues
        FUNCTION zclSampleSw_ResetAttributesToDefaultValues,0202H
        ARGFRAME ISTACK, 2, STACK
        ARGFRAME PSTACK, 0, STACK
        ARGFRAME XSTACK, 28, STACK
        ARGFRAME IOVERLAY, 0, STATIC
        ARGFRAME DOVERLAY, 0, STATIC
        EXTERN zclSampleSw_SimpleDesc
        EXTERN zcl_SendCommand
        FUNCTION zcl_SendCommand,0202H
        ARGFRAME ISTACK, 0, STACK
        ARGFRAME PSTACK, 0, STACK
        ARGFRAME XSTACK, 23, STACK
        ARGFRAME IOVERLAY, 0, STATIC
        ARGFRAME DOVERLAY, 0, STATIC
        EXTERN zcl_SendReportCmd
        FUNCTION zcl_SendReportCmd,0202H
        ARGFRAME ISTACK, 0, STACK
        ARGFRAME PSTACK, 0, STACK
        ARGFRAME XSTACK, 29, STACK
        ARGFRAME IOVERLAY, 0, STATIC
        ARGFRAME DOVERLAY, 0, STATIC
        EXTERN zcl_registerAttrList
        FUNCTION zcl_registerAttrList,0202H
        ARGFRAME ISTACK, 0, STACK
        ARGFRAME PSTACK, 0, STACK
        ARGFRAME XSTACK, 28, STACK
        ARGFRAME IOVERLAY, 0, STATIC
        ARGFRAME DOVERLAY, 0, STATIC
        EXTERN zcl_registerForMsg
        FUNCTION zcl_registerForMsg,0202H
        ARGFRAME ISTACK, 0, STACK
        ARGFRAME PSTACK, 0, STACK
        ARGFRAME XSTACK, 28, STACK
        ARGFRAME IOVERLAY, 0, STATIC
        ARGFRAME DOVERLAY, 0, STATIC
        EXTERN zdpExternalStateTaskID

// D:\Z-Stack 3.0.2\Z-Stack 3.0.2\Projects\zstack\HomeAutomation\SampleSwitch\Source\zcl_samplesw.c
//    1 /**************************************************************************************************
//    2   Filename:       zcl_samplesw.c
//    3   Revised:        $Date: 2015-08-19 17:11:00 -0700 (Wed, 19 Aug 2015) $
//    4   Revision:       $Revision: 44460 $
//    5 
//    6   Description:    Zigbee Cluster Library - sample switch application.
//    7 
//    8 
//    9   Copyright 2006-2013 Texas Instruments Incorporated. All rights reserved.
//   10 
//   11   IMPORTANT: Your use of this Software is limited to those specific rights
//   12   granted under the terms of a software license agreement between the user
//   13   who downloaded the software, his/her employer (which must be your employer)
//   14   and Texas Instruments Incorporated (the "License").  You may not use this
//   15   Software unless you agree to abide by the terms of the License. The License
//   16   limits your use, and you acknowledge, that the Software may not be modified,
//   17   copied or distributed unless embedded on a Texas Instruments microcontroller
//   18   or used solely and exclusively in conjunction with a Texas Instruments radio
//   19   frequency transceiver, which is integrated into your product.  Other than for
//   20   the foregoing purpose, you may not use, reproduce, copy, prepare derivative
//   21   works of, modify, distribute, perform, display or sell this Software and/or
//   22   its documentation for any purpose.
//   23 
//   24   YOU FURTHER ACKNOWLEDGE AND AGREE THAT THE SOFTWARE AND DOCUMENTATION ARE
//   25   PROVIDED AS IS? WITHOUT WARRANTY OF ANY KIND, EITHER EXPRESS OR IMPLIED,
//   26   INCLUDING WITHOUT LIMITATION, ANY WARRANTY OF MERCHANTABILITY, TITLE,
//   27   NON-INFRINGEMENT AND FITNESS FOR A PARTICULAR PURPOSE. IN NO EVENT SHALL
//   28   TEXAS INSTRUMENTS OR ITS LICENSORS BE LIABLE OR OBLIGATED UNDER CONTRACT,
//   29   NEGLIGENCE, STRICT LIABILITY, CONTRIBUTION, BREACH OF WARRANTY, OR OTHER
//   30   LEGAL EQUITABLE THEORY ANY DIRECT OR INDIRECT DAMAGES OR EXPENSES
//   31   INCLUDING BUT NOT LIMITED TO ANY INCIDENTAL, SPECIAL, INDIRECT, PUNITIVE
//   32   OR CONSEQUENTIAL DAMAGES, LOST PROFITS OR LOST DATA, COST OF PROCUREMENT
//   33   OF SUBSTITUTE GOODS, TECHNOLOGY, SERVICES, OR ANY CLAIMS BY THIRD PARTIES
//   34   (INCLUDING BUT NOT LIMITED TO ANY DEFENSE THEREOF), OR OTHER SIMILAR COSTS.
//   35 
//   36   Should you have any questions regarding your right to use this Software,
//   37   contact Texas Instruments Incorporated at www.TI.com.
//   38 **************************************************************************************************/
//   39 
//   40 /*********************************************************************
//   41   This application implements a ZigBee On/Off Switch, based on Z-Stack 3.0.
//   42 
//   43   This application is based on the common sample-application user interface. Please see the main
//   44   comment in zcl_sampleapp_ui.c. The rest of this comment describes only the content specific for
//   45   this sample applicetion.
//   46   
//   47   Application-specific UI peripherals being used:
//   48 
//   49   - none (LED1 is currently unused by this application).
//   50 
//   51   Application-specific menu system:
//   52 
//   53     <TOGGLE LIGHT> Send an On, Off or Toggle command targeting appropriate devices from the binding table.
//   54       Pressing / releasing [OK] will have the following functionality, depending on the value of the 
//   55       zclSampleSw_OnOffSwitchActions attribute:
//   56       - OnOffSwitchActions == 0: pressing [OK] will send ON command, releasing it will send OFF command;
//   57       - OnOffSwitchActions == 1: pressing [OK] will send OFF command, releasing it will send ON command;
//   58       - OnOffSwitchActions == 2: pressing [OK] will send TOGGLE command, releasing it will not send any command.
//   59 
//   60 *********************************************************************/
//   61 
//   62 #if ! defined ZCL_ON_OFF
//   63 #error ZCL_ON_OFF must be defined for this project.
//   64 #endif
//   65 
//   66 /*********************************************************************
//   67  * INCLUDES
//   68  */
//   69 #include "ZComDef.h"
//   70 #include "OSAL.h"
//   71 #include "AF.h"
//   72 #include "ZDApp.h"
//   73 #include "ZDObject.h"
//   74 #include "ZDProfile.h"
//   75 #include "MT_SYS.h"
//   76 
//   77 #include "zcl.h"
//   78 #include "zcl_general.h"
//   79 #include "zcl_ha.h"
//   80 #include "zcl_samplesw.h"
//   81 #include "zcl_diagnostic.h"
//   82 
//   83 #include "onboard.h"
//   84 
//   85 /* HAL */
//   86 #include "hal_lcd.h"
//   87 #include "hal_led.h"
//   88 #include "hal_key.h"
//   89 
//   90 #if defined (OTA_CLIENT) && (OTA_CLIENT == TRUE)
//   91 #include "zcl_ota.h"
//   92 #include "hal_ota.h"
//   93 #endif
//   94 
//   95 #include "bdb.h"
//   96 #include "bdb_interface.h"
//   97 
//   98 #include "zcl_sampleapps_ui.h"
//   99 
//  100 /*********************************************************************
//  101  * MACROS
//  102  */
//  103 #define UI_STATE_TOGGLE_LIGHT 1 //UI_STATE_BACK_FROM_APP_MENU is item #0, so app item numbers should start from 1
//  104 
//  105 #define APP_TITLE "TI Sample Switch"
//  106 
//  107 /*********************************************************************
//  108  * TYPEDEFS
//  109  */
//  110 #define CLUSTER_P2P             0
//  111 #define CLUSTER_BROADCAST       1
//  112 #define CLUSTER_GROUPCAST       2
//  113 /*********************************************************************
//  114  * GLOBAL VARIABLES
//  115  */

        RSEG XDATA_Z:XDATA:NOROOT(0)
        DATA8
//  116 byte zclSampleSw_TaskID;
zclSampleSw_TaskID:
        DS 1
        REQUIRE __INIT_XDATA_Z
//  117 
//  118 // 在适当的头文件或源文件中添加

        RSEG XDATA_Z:XDATA:NOROOT(0)
        DATA16
//  119 uint16 zclSampleSw_TestAddr;  // 确保定义类型与实际使用一致
zclSampleSw_TestAddr:
        DS 2
        REQUIRE __INIT_XDATA_Z
//  120 

        RSEG XDATA_Z:XDATA:NOROOT(0)
        DATA8
//  121 uint8 zclSampleSwSeqNum;
zclSampleSwSeqNum:
        DS 1
        REQUIRE __INIT_XDATA_Z
//  122 

        RSEG XDATA_I:XDATA:NOROOT(0)
//  123 uint8 zclSampleSw_OnOffSwitchType = ON_OFF_SWITCH_TYPE_MOMENTARY;
zclSampleSw_OnOffSwitchType:
        DATA8
        DS 1
        REQUIRE `?<Initializer for zclSampleSw_OnOffSwitchType>`
        REQUIRE __INIT_XDATA_I
//  124 

        RSEG XDATA_Z:XDATA:NOROOT(0)
        DATA8
//  125 uint8 zclSampleSw_OnOffSwitchActions;
zclSampleSw_OnOffSwitchActions:
        DS 1
        REQUIRE __INIT_XDATA_Z
//  126 
//  127 /*********************************************************************
//  128  * GLOBAL FUNCTIONS
//  129  */
//  130 
//  131 /*********************************************************************
//  132  * LOCAL VARIABLES
//  133  */
//  134 

        RSEG XDATA_Z:XDATA:NOROOT(0)
        DATA8
//  135 afAddrType_t zclSampleSw_DstAddr;
zclSampleSw_DstAddr:
        DS 12
        REQUIRE __INIT_XDATA_Z
//  136 // GroupId
//  137 #define GROUP_ID                21
//  138 // Endpoint to allow SYS_APP_MSGs

        RSEG XDATA_I:XDATA:NOROOT(0)
//  139 static endPointDesc_t sampleSw_TestEp =
sampleSw_TestEp:
        DATA8
        DS 7
        REQUIRE `?<Initializer for sampleSw_TestEp>`
        REQUIRE __INIT_XDATA_I
//  140 {
//  141   SAMPLESW_ENDPOINT,                  // endpoint
//  142   0,
//  143   &zclSampleSw_TaskID,
//  144   (SimpleDescriptionFormat_t *)NULL,  // No Simple description for this test endpoint
//  145   (afNetworkLatencyReq_t)0            // No Network Latency req
//  146 };
//  147 
//  148 
//  149 /*
//  150 * @param destNwkAddr 目标设备的网络地址
//  151 * @param cid Cluster ID，后续课程将会详细讲解
//  152 * @param len 数据长度
//  153 * @param data 数据内容
//  154 */
//  155 static void zclSampleSw_AF_P2P(
//  156 	uint16 destNwkAddr, 
//  157 	uint16 cid, 
//  158 	uint8 len, 
//  159 	uint8 *data)
//  160 {    
//  161 	afAddrType_t dstAddr; //寻址信息配置 

        RSEG XDATA_Z:XDATA:NOROOT(0)
        DATA8
        DS 1
        REQUIRE __INIT_XDATA_Z
//  162 	static uint8 transferId = 0;//传输ID，是数据包的标识符
//  163 
//  164 	/* Destination */    
//  165 	dstAddr.addrMode = afAddr16Bit;// 设置目标地址模式为16位网络地址，表示使用P2P的通信方式
//  166 	dstAddr.addr.shortAddr = destNwkAddr;//目标设备的网络地址  
//  167 	dstAddr.endPoint = SAMPLESW_ENDPOINT;//目标设备的端点号
//  168 
//  169 	 transferId++;    
//  170 	AF_DataRequest(&dstAddr, 
//  171 		&sampleSw_TestEp,//已经创建好的简单描述符
//  172 		cid,    
//  173 		len, 
//  174 		data,    
//  175 		&transferId,
//  176 		AF_DISCV_ROUTE,//进行路由扫描操作，用于建立发送数据报文的通信路径。关于这个参数，暂时保持例程默认的代码就可以了
//  177 		AF_DEFAULT_RADIUS);//指定最大的路由跳转级数
//  178 }
//  179 
//  180 /*
//  181 * @param cid Cluster ID
//  182 * @param len 待发送数据的长度
//  183 * @param *data 待发送数据的内容
//  184 */
//  185 static void zclSampleSw_AF_Broadcast(
//  186 	uint16 cid,
//  187 	uint8 len,
//  188 	uint8 *data)
//  189 {
//  190 	afAddrType_t dstAddr;  
//  191 	static uint8 transferId = 0;  
//  192 
//  193 	/* Destination */  
//  194 	dstAddr.addrMode = afAddrBroadcast;   // 使用广播模式
//  195 	dstAddr.addr.shortAddr = 0xFFFF; // 广播地址
//  196 	dstAddr.endPoint = SAMPLESW_ENDPOINT; // 目标设备的端点号
//  197 	
//  198 	 /* Transfer id */  
//  199 	transferId++;  
//  200 	
//  201 	/* Send */  
//  202 	AF_DataRequest(
//  203 		&dstAddr, 
//  204 		&sampleSw_TestEp,//已经创建好的简单描述符
//  205 		cid,  
//  206 		len, 
//  207 		data,  
//  208 		&transferId,
//  209 		AF_TX_OPTIONS_NONE,
//  210 		AF_DEFAULT_RADIUS );//指定了最大的路由跳转级数
//  211 }
//  212 
//  213 /*
//  214 * @param groupId 组ID
//  215 * @param cid ClusterID，后续章节将会详细讲解
//  216 * @param len 待发送数据的长度
//  217 * @param data 待发送数据的内容
//  218 */
//  219 static void zclSampleSw_AF_Groupcast(
//  220 	uint16 groupId,
//  221 	uint16 cid,
//  222 	uint8 len,
//  223 	uint8 *data)
//  224 {    
//  225 	afAddrType_t dstAddr;    
//  226 	static uint8 transferId = 0;    
//  227 
//  228 	/* Destination */    
//  229     dstAddr.addrMode = afAddrGroup;//使用组播通信模式
//  230 	dstAddr.addr.shortAddr = groupId;
//  231 	dstAddr.endPoint = SAMPLESW_ENDPOINT;//组中的设备的端点号
//  232 	
//  233 	/* Transfer id */    
//  234 	transferId++;   
//  235  
//  236 	/* Send */    
//  237 	AF_DataRequest(&dstAddr, 
//  238 		&sampleSw_TestEp,//已经创建好的简单描述符
//  239 		cid, 
//  240 		len, 
//  241 		data,    
//  242 		&transferId, 
//  243 		AF_TX_OPTIONS_NONE,
//  244 		AF_DEFAULT_RADIUS );//指定最大的路由跳转级数，暂时可忽略
//  245 }
//  246 
//  247 /*
//  248 * @param MSGpkt 接收到数据
//  249 */
//  250 static void zclSampleSw_AF_RxProc(afIncomingMSGPacket_t *MSGpkt)
//  251 {
//  252 	/*计数器，记录接收到的点对点通信数据包个数*/

        RSEG XDATA_Z:XDATA:NOROOT(0)
        DATA8
//  253 	static uint8 p2pCnt = 0;
??p2pCnt:
        DS 1
        REQUIRE __INIT_XDATA_Z
//  254 
//  255 	/*计数器，记录接收到的广播通信数据包个数*/

        RSEG XDATA_Z:XDATA:NOROOT(0)
        DATA8
//  256 	static uint8 bcCnt = 0;
??bcCnt:
        DS 1
        REQUIRE __INIT_XDATA_Z
//  257 
//  258 	/*计数器，记录接收到的组播通信数据包个数*/

        RSEG XDATA_Z:XDATA:NOROOT(0)
        DATA8
//  259 	static uint8 gcCnt = 0;  
??gcCnt:
        DS 1
        REQUIRE __INIT_XDATA_Z
//  260 	
//  261 	switch( MSGpkt->clusterId )  // 判断接收到的数据包的Cluster ID，后续章节将会详细讲解Cluster ID
//  262 	{  
//  263 		case CLUSTER_P2P:
//  264 			p2pCnt++;  // 接收到P2P数据包，进行计数
//  265 		
//  266 			// 把接收到的数据和计数器的值显示在屏幕上
//  267 			HalLcdWriteStringValue((char *)MSGpkt->cmd.Data,p2pCnt,10,3);
//  268 			break;  
//  269 		 
//  270 		case CLUSTER_BROADCAST:  
//  271 			bcCnt++;  // 接收到广播数据包，进行计数
//  272 			HalLcdWriteStringValue((char *)MSGpkt->cmd.Data,bcCnt,10,3);  
//  273 			break;  
//  274 		 
//  275 		case CLUSTER_GROUPCAST:  
//  276 			gcCnt++;  // 接收到组播数据包，进行计数
//  277 			HalLcdWriteStringValue((char *)MSGpkt->cmd.Data,gcCnt,10,4);  
//  278 			break;  
//  279 		
//  280 		default:  
//  281 			break;  
//  282 	}  
//  283 }
//  284 static void zclSampleSw_ReadTest(void)  
//  285 {  
//  286     afAddrType_t destAddr;  
//  287     zclReadCmd_t *readCmd;  
//  288     static uint8 txID = 0;  
//  289       
//  290     destAddr.endPoint = SAMPLESW_ENDPOINT;  
//  291     destAddr.addrMode = afAddr16Bit;  
//  292     destAddr.addr.shortAddr = zclSampleSw_TestAddr;  
//  293   
//  294      //申请一个动态内存
//  295    readCmd = (zclReadCmd_t *)osal_mem_alloc(sizeof(zclReadCmd_t) +                                                sizeof(uint16));
//  296 
//  297    if(readCmd == NULL)//判断是否成功申请到内存
//  298       return;  
//  299 
//  300     readCmd->numAttr = 1;//待读取的属性数量为1
//  301     readCmd->attrID[0] = ATTRID_ON_OFF_SWITCH_ACTIONS;//待读取的属性ID
//  302       
//  303     zcl_SendRead(SAMPLESW_ENDPOINT,  
//  304                  &destAddr,  
//  305                  ZCL_CLUSTER_ID_GEN_ON_OFF_SWITCH_CONFIG,//Cluster ID  
//  306                  readCmd,  
//  307                  ZCL_FRAME_CLIENT_SERVER_DIR,//通信方向是由客户端到服务器端
//  308                  TRUE,
//  309                  txID++);  
//  310      osal_mem_free(readCmd);//释放内存
//  311 }
//  312 
//  313 
//  314 static void zclSampleSw_WriteTest(void)  
//  315 {  
//  316     afAddrType_t destAddr;  
//  317     zclWriteCmd_t *writeCmd;  
//  318     static uint8 txID = 0;  
//  319       
//  320     destAddr.endPoint = SAMPLESW_ENDPOINT;  
//  321     destAddr.addrMode = afAddr16Bit;  
//  322     destAddr.addr.shortAddr = zclSampleSw_TestAddr;  
//  323       
//  324     writeCmd=(zclWriteCmd_t *)osal_mem_alloc(sizeof(zclWriteCmd_t) +                                             sizeof(zclWriteRec_t));//申请一个动态内存
//  325     if(writeCmd == NULL)//判断动态内存是否申请成功
//  326         return;  
//  327       
//  328     writeCmd->attrList[0].attrData=(uint8*)osal_mem_alloc(sizeof(uint8));//申请一个动态内存    
//  329     if(writeCmd->attrList[0].attrData == NULL)//判断动态内存是否申请成功  
//  330         return;  
//  331       
//  332     writeCmd->numAttr = 1;//待写入的属性数量
//  333     writeCmd->attrList[0].attrID =ATTRID_ON_OFF_SWITCH_ACTIONS;//待写入的属性的ID
//  334     writeCmd->attrList[0].dataType = ZCL_DATATYPE_ENUM8;//属性值的类型
//  335     *(writeCmd->attrList[0].attrData) = txID;//属性值
//  336 
//  337     HalLcdWriteStringValue("Write:", txID, 10, 4);  
//  338     
//  339     zcl_SendWrite(SAMPLESW_ENDPOINT,  
//  340         &destAddr,  
//  341         ZCL_CLUSTER_ID_GEN_ON_OFF_SWITCH_CONFIG,//Cluster ID 
//  342         writeCmd,  
//  343         ZCL_FRAME_CLIENT_SERVER_DIR,//通信方向是由客户端到服务器端
//  344         TRUE,
//  345         txID++);  
//  346 
//  347     osal_mem_free(writeCmd->attrList[0].attrData); // 释放内存
//  348     osal_mem_free(writeCmd);  // 释放内存 
//  349 }
//  350 
//  351 #ifdef ZDO_COORDINATOR
//  352 static void zclSampleSw_processZDOMgs(zdoIncomingMsg_t *pMsg)
//  353 {
//  354   switch (pMsg->clusterID)
//  355   {
//  356     case Device_annce:
//  357     {
//  358       zclSampleSw_TestAddr = pMsg->srcAddr.addr.shortAddr;
//  359       HalLcdWriteStringValue("Node:",pMsg->srcAddr.addr.shortAddr,10,0);
//  360       HalLcdWriteString("Test...",4);
//  361 
//  362       osal_start_timerEx(zclSampleSw_TaskID,
//  363                           SAMPLEAPP_READ_EVT,
//  364                           SAMPLEAPP_READ_PERIOD);
//  365     }
//  366     break;
//  367     default:
//  368     break;
//  369   }
//  370 }
//  371 #endif
//  372 
//  373 /*
//  374  * 数据上报事件的处理函数，用于上报数据
//  375  */

        RSEG BANKED_CODE:HUGECODE:NOROOT(0)
//  376 static void zclSampleSw_ReportTest(void)
zclSampleSw_ReportTest:
          CFI Block cfiBlock0 Using cfiCommon0
          CFI Function zclSampleSw_ReportTest
        CODE
//  377 {  
        FUNCALL zclSampleSw_ReportTest, osal_mem_alloc
        LOCFRAME ISTACK, 0, STACK
        LOCFRAME PSTACK, 0, STACK
        LOCFRAME XSTACK, 24, STACK
        LOCFRAME IOVERLAY, 0, STATIC
        LOCFRAME DOVERLAY, 0, STATIC
        ARGFRAME ISTACK, 0, STACK
        ARGFRAME PSTACK, 0, STACK
        ARGFRAME XSTACK, 24, STACK
        ARGFRAME IOVERLAY, 0, STATIC
        ARGFRAME DOVERLAY, 0, STATIC
        FUNCALL zclSampleSw_ReportTest, osal_mem_alloc
        LOCFRAME ISTACK, 0, STACK
        LOCFRAME PSTACK, 0, STACK
        LOCFRAME XSTACK, 24, STACK
        LOCFRAME IOVERLAY, 0, STATIC
        LOCFRAME DOVERLAY, 0, STATIC
        ARGFRAME ISTACK, 0, STACK
        ARGFRAME PSTACK, 0, STACK
        ARGFRAME XSTACK, 24, STACK
        ARGFRAME IOVERLAY, 0, STATIC
        ARGFRAME DOVERLAY, 0, STATIC
        FUNCALL zclSampleSw_ReportTest, zcl_SendReportCmd
        LOCFRAME ISTACK, 0, STACK
        LOCFRAME PSTACK, 0, STACK
        LOCFRAME XSTACK, 29, STACK
        LOCFRAME IOVERLAY, 0, STATIC
        LOCFRAME DOVERLAY, 0, STATIC
        ARGFRAME ISTACK, 0, STACK
        ARGFRAME PSTACK, 0, STACK
        ARGFRAME XSTACK, 29, STACK
        ARGFRAME IOVERLAY, 0, STATIC
        ARGFRAME DOVERLAY, 0, STATIC
        FUNCALL zclSampleSw_ReportTest, HalLcdWriteStringValue
        LOCFRAME ISTACK, 0, STACK
        LOCFRAME PSTACK, 0, STACK
        LOCFRAME XSTACK, 25, STACK
        LOCFRAME IOVERLAY, 0, STATIC
        LOCFRAME DOVERLAY, 0, STATIC
        ARGFRAME ISTACK, 0, STACK
        ARGFRAME PSTACK, 0, STACK
        ARGFRAME XSTACK, 25, STACK
        ARGFRAME IOVERLAY, 0, STATIC
        ARGFRAME DOVERLAY, 0, STATIC
        FUNCALL zclSampleSw_ReportTest, osal_mem_free
        LOCFRAME ISTACK, 0, STACK
        LOCFRAME PSTACK, 0, STACK
        LOCFRAME XSTACK, 24, STACK
        LOCFRAME IOVERLAY, 0, STATIC
        LOCFRAME DOVERLAY, 0, STATIC
        ARGFRAME ISTACK, 0, STACK
        ARGFRAME PSTACK, 0, STACK
        ARGFRAME XSTACK, 24, STACK
        ARGFRAME IOVERLAY, 0, STATIC
        ARGFRAME DOVERLAY, 0, STATIC
        FUNCALL zclSampleSw_ReportTest, osal_mem_free
        LOCFRAME ISTACK, 0, STACK
        LOCFRAME PSTACK, 0, STACK
        LOCFRAME XSTACK, 24, STACK
        LOCFRAME IOVERLAY, 0, STATIC
        LOCFRAME DOVERLAY, 0, STATIC
        ARGFRAME ISTACK, 0, STACK
        ARGFRAME PSTACK, 0, STACK
        ARGFRAME XSTACK, 24, STACK
        ARGFRAME IOVERLAY, 0, STATIC
        ARGFRAME DOVERLAY, 0, STATIC
        REQUIRE ?V0
        REQUIRE ?V1
        REQUIRE ?V2
        REQUIRE ?V3
        MOV       A,#-0xc
        LCALL     ?BANKED_ENTER_XDATA
          CFI DPH0 load(1, XDATA, add(CFA_XSP16, literal(-1)))
          CFI DPL0 load(1, XDATA, add(CFA_XSP16, literal(-2)))
          CFI ?BRET_EXT load(1, XDATA, add(CFA_XSP16, literal(-3)))
          CFI ?RET_HIGH load(1, XDATA, add(CFA_XSP16, literal(-4)))
          CFI ?RET_LOW load(1, XDATA, add(CFA_XSP16, literal(-5)))
          CFI R7 load(1, XDATA, add(CFA_XSP16, literal(-6)))
          CFI V3 load(1, XDATA, add(CFA_XSP16, literal(-7)))
          CFI V2 load(1, XDATA, add(CFA_XSP16, literal(-8)))
          CFI V1 load(1, XDATA, add(CFA_XSP16, literal(-9)))
          CFI V0 load(1, XDATA, add(CFA_XSP16, literal(-10)))
          CFI VB load(1, XDATA, add(CFA_XSP16, literal(-11)))
          CFI R6 load(1, XDATA, add(CFA_XSP16, literal(-12)))
          CFI CFA_SP SP+0
          CFI CFA_XSP16 add(XSP16, 12)
        ; Saved register size: 12
        ; Auto size: 12
        MOV       A,#-0xc
        LCALL     ?ALLOC_XSTACK8
          CFI CFA_XSP16 add(XSP16, 24)
//  378     static uint8 seqNum = 0;  
//  379     zclReportCmd_t *reportCmd;  
//  380 
//  381     //目标设备的地址信息
//  382     afAddrType_t destAddr;  
//  383     destAddr.addrMode = afAddr16Bit;
        MOV       A,#0x8
        LCALL     ?XSTACK_DISP0_8
        MOV       A,#0x2
        MOVX      @DPTR,A
//  384     destAddr.endPoint = SAMPLESW_ENDPOINT;
        MOV       A,#0x9
        LCALL     ?XSTACK_DISP0_8
        MOV       A,#0x8
        MOVX      @DPTR,A
//  385     destAddr.addr.shortAddr = 0x0000;//0x0000表示协调器的网络地址
        MOV       DPL,?XSP + 0
        MOV       DPH,?XSP + 1
        CLR       A
        MOVX      @DPTR,A
        INC       DPTR
        MOVX      @DPTR,A
//  386 
//  387 reportCmd = (zclReportCmd_t *)osal_mem_alloc(sizeof(zclReportCmd_t)+sizeof(zclReport_t));//申请内存空间
        ; Setup parameters for call to function osal_mem_alloc
        MOV       R2,#0x6
        MOV       R3,A
        LCALL     `??osal_mem_alloc::?relay`; Banked call to: osal_mem_alloc
        MOV       ?V0,R2
        MOV       ?V1,R3
//  388 
//  389     if(reportCmd == NULL)//判断内存空间是否申请成功
        MOV       A,R2
        ORL       A,?V1
        JNZ       $+5
        LJMP      ??zclSampleSw_ReportTest_0 & 0xFFFF
//  390          return;  
//  391 
//  392     reportCmd->attrList[0].attrData = (uint8 *)osal_mem_alloc(sizeof(uint8));//申请内存空间
        ; Setup parameters for call to function osal_mem_alloc
        MOV       R2,#0x1
        MOV       R3,#0x0
        LCALL     `??osal_mem_alloc::?relay`; Banked call to: osal_mem_alloc
        MOV       A,?V0
        ADD       A,#0x4
        MOV       R0,A
        CLR       A
        ADDC      A,?V1
        MOV       R1,A
        MOV       A,R0
        MOV       R6,A
        MOV       A,R1
        MOV       R7,A
        MOV       A,R2
        MOV       R0,A
        MOV       A,R3
        MOV       R1,A
        MOV       DPL,R6
        MOV       DPH,R7
        MOV       A,R0
        MOVX      @DPTR,A
        INC       DPTR
        MOV       A,R1
        MOVX      @DPTR,A
//  393 
//  394     if(reportCmd->attrList[0].attrData == NULL)//判断内存空间是否申请成功
        MOV       A,R2
        ORL       A,R3
        JNZ       $+5
        LJMP      ??zclSampleSw_ReportTest_0 & 0xFFFF
//  395         return;  
//  396 
//  397     reportCmd->numAttr = 1;//属性数量为1
        MOV       DPL,?V0
        MOV       DPH,?V1
        MOV       A,#0x1
        MOVX      @DPTR,A
//  398     reportCmd->attrList[0].attrID = ATTRID_ON_OFF_SWITCH_TYPE;//属性ID
        INC       DPTR
        CLR       A
        MOVX      @DPTR,A
        INC       DPTR
        MOVX      @DPTR,A
//  399     reportCmd->attrList[0].dataType = ZCL_DATATYPE_ENUM8;//数据类型
        MOV       DPL,?V0
        MOV       DPH,?V1
        INC       DPTR
        INC       DPTR
        INC       DPTR
        MOV       A,#0x30
        MOVX      @DPTR,A
//  400     *((uint8 *)(reportCmd->attrList[0].attrData)) = seqNum;//属性值
        MOV       DPTR,#??seqNum
        MOVX      A,@DPTR
        PUSH      A
          CFI CFA_SP SP+-1
        MOV       DPL,R6
        MOV       DPH,R7
        LCALL     ?Subroutine4 & 0xFFFF
??CrossCallReturnLabel_0:
        POP       A
          CFI CFA_SP SP+0
        MOVX      @DPTR,A
//  401 
//  402     //上报数据
//  403     zcl_SendReportCmd(SAMPLESW_ENDPOINT,//源端点号
//  404         &destAddr,//地址信息
//  405         ZCL_CLUSTER_ID_GEN_ON_OFF_SWITCH_CONFIG,//Cluster ID
//  406         reportCmd,
//  407         ZCL_FRAME_CLIENT_SERVER_DIR,//通信方向为从客户端到服务端
//  408         TRUE,//关闭默认响应（目标设备的响应）
//  409          seqNum++ );//数据包标号，每上报一次数据seqNum的值就会增加1
        MOV       DPTR,#??seqNum
        MOVX      A,@DPTR
        MOV       R0,A
        MOV       A,#0x1
        ADD       A,R0
        MOVX      @DPTR,A
        ; Setup parameters for call to function zcl_SendReportCmd
        MOV       A,R0
        MOV       ?V2,A
        MOV       R0,#?V2
        LCALL     ?PUSH_XSTACK_I_ONE
          CFI CFA_XSP16 add(XSP16, 25)
        MOV       ?V2,#0x1
        MOV       R0,#?V2
        LCALL     ?PUSH_XSTACK_I_ONE
          CFI CFA_XSP16 add(XSP16, 26)
        MOV       ?V2,#0x0
        MOV       R0,#?V2
        LCALL     ?PUSH_XSTACK_I_ONE
          CFI CFA_XSP16 add(XSP16, 27)
        MOV       R0,#?V0
        LCALL     ?PUSH_XSTACK_I_TWO
          CFI CFA_XSP16 add(XSP16, 29)
        MOV       R4,#0x7
        MOV       R5,#0x0
        MOV       A,#0x5
        LCALL     ?XSTACK_DISP101_8
        MOV       R1,#0x8
        LCALL     `??zcl_SendReportCmd::?relay`; Banked call to: zcl_SendReportCmd
        MOV       A,#0x5
        LCALL     ?DEALLOC_XSTACK8
          CFI CFA_XSP16 add(XSP16, 24)
//  410 
//  411     HalLcdWriteStringValue("Report: ", (seqNum-1), 10, 4);//显示
        ; Setup parameters for call to function HalLcdWriteStringValue
        MOV       ?V2,#0x4
        MOV       R0,#?V2
        LCALL     ?PUSH_XSTACK_I_ONE
          CFI CFA_XSP16 add(XSP16, 25)
        MOV       R1,#0xa
        MOV       DPTR,#??seqNum
        MOVX      A,@DPTR
        ADD       A,#-0x1
        MOV       R4,A
        CLR       A
        ADDC      A,#-0x1
        MOV       R5,A
        MOV       R2,#`?<Constant "Report: ">` & 0xff
        MOV       R3,#(`?<Constant "Report: ">` >> 8) & 0xff
        LCALL     `??HalLcdWriteStringValue::?relay`; Banked call to: HalLcdWriteStringValue
        MOV       A,#0x1
        LCALL     ?DEALLOC_XSTACK8
          CFI CFA_XSP16 add(XSP16, 24)
//  412 
//  413     // 释放内存空间！
//  414     osal_mem_free(reportCmd->attrList[0].attrData);  
        ; Setup parameters for call to function osal_mem_free
        MOV       DPL,R6
        MOV       DPH,R7
        MOVX      A,@DPTR
        MOV       R2,A
        INC       DPTR
        MOVX      A,@DPTR
        MOV       R3,A
        LCALL     `??osal_mem_free::?relay`; Banked call to: osal_mem_free
//  415     osal_mem_free(reportCmd);
        ; Setup parameters for call to function osal_mem_free
        MOV       R2,?V0
        MOV       R3,?V1
        LCALL     `??osal_mem_free::?relay`; Banked call to: osal_mem_free
//  416 }
??zclSampleSw_ReportTest_0:
        MOV       A,#0xc
        LCALL     ?DEALLOC_XSTACK8
          CFI EndBlock cfiBlock0
        REQUIRE ?Subroutine0
        ; // Fall through to label ?Subroutine0

        RSEG BANKED_CODE:HUGECODE:NOROOT(0)
?Subroutine0:
          CFI Block cfiBlock1 Using cfiCommon0
          CFI NoFunction
          CFI CFA_SP SP+0
          CFI CFA_XSP16 add(XSP16, 12)
          CFI VB load(1, XDATA, add(CFA_XSP16, literal(-11)))
          CFI DPL0 load(1, XDATA, add(CFA_XSP16, literal(-2)))
          CFI DPH0 load(1, XDATA, add(CFA_XSP16, literal(-1)))
          CFI R6 load(1, XDATA, add(CFA_XSP16, literal(-12)))
          CFI R7 load(1, XDATA, add(CFA_XSP16, literal(-6)))
          CFI V0 load(1, XDATA, add(CFA_XSP16, literal(-10)))
          CFI V1 load(1, XDATA, add(CFA_XSP16, literal(-9)))
          CFI V2 load(1, XDATA, add(CFA_XSP16, literal(-8)))
          CFI V3 load(1, XDATA, add(CFA_XSP16, literal(-7)))
          CFI ?BRET_EXT load(1, XDATA, add(CFA_XSP16, literal(-3)))
          CFI ?RET_HIGH load(1, XDATA, add(CFA_XSP16, literal(-4)))
          CFI ?RET_LOW load(1, XDATA, add(CFA_XSP16, literal(-5)))
        MOV       R7,#0x4
        LJMP      ?BANKED_LEAVE_XDATA
          CFI EndBlock cfiBlock1

        RSEG XDATA_Z:XDATA:NOROOT(0)
        DATA8
??seqNum:
        DS 1
        REQUIRE __INIT_XDATA_Z
//  417 
//  418 
//  419 //static uint8 aProcessCmd[] = { 1, 0, 0, 0 }; // used for reset command, { length + cmd0 + cmd1 + data }
//  420 

        RSEG XDATA_I:XDATA:NOROOT(0)
//  421 devStates_t zclSampleSw_NwkState = DEV_INIT;
zclSampleSw_NwkState:
        DATA8
        DS 1
        REQUIRE `?<Initializer for zclSampleSw_NwkState>`
        REQUIRE __INIT_XDATA_I
//  422 
//  423 #if defined (OTA_CLIENT) && (OTA_CLIENT == TRUE)
//  424 #define DEVICE_POLL_RATE                 8000   // Poll rate for end device
//  425 #endif
//  426 
//  427 #define SAMPLESW_TOGGLE_TEST_EVT   0x1000
//  428 /*********************************************************************
//  429  * LOCAL FUNCTIONS
//  430  */
//  431 static void zclSampleSw_HandleKeys( byte shift, byte keys );
//  432 static void zclSampleSw_BasicResetCB( void );
//  433 
//  434 static void zclSampleSw_ProcessCommissioningStatus(bdbCommissioningModeMsg_t *bdbCommissioningModeMsg);
//  435 
//  436 
//  437 // Functions to process ZCL Foundation incoming Command/Response messages
//  438 static void zclSampleSw_ProcessIncomingMsg( zclIncomingMsg_t *msg );
//  439 #ifdef ZCL_READ
//  440 static uint8 zclSampleSw_ProcessInReadRspCmd( zclIncomingMsg_t *pInMsg );
//  441 #endif
//  442 #ifdef ZCL_WRITE
//  443 static uint8 zclSampleSw_ProcessInWriteRspCmd( zclIncomingMsg_t *pInMsg );
//  444 #endif
//  445 static uint8 zclSampleSw_ProcessInDefaultRspCmd( zclIncomingMsg_t *pInMsg );
//  446 #ifdef ZCL_DISCOVER
//  447 static uint8 zclSampleSw_ProcessInDiscCmdsRspCmd( zclIncomingMsg_t *pInMsg );
//  448 static uint8 zclSampleSw_ProcessInDiscAttrsRspCmd( zclIncomingMsg_t *pInMsg );
//  449 static uint8 zclSampleSw_ProcessInDiscAttrsExtRspCmd( zclIncomingMsg_t *pInMsg );
//  450 #endif
//  451 
//  452 #if defined (OTA_CLIENT) && (OTA_CLIENT == TRUE)
//  453 static void zclSampleSw_ProcessOTAMsgs( zclOTA_CallbackMsg_t* pMsg );
//  454 #endif
//  455 
//  456 void zclSampleSw_UiActionToggleLight(uint16 keys);
//  457 void zclSampleSw_UiUpdateLcd(uint8 uiCurrentState, char * line[3]);
//  458 
//  459 static void zclSampleApp_BatteryWarningCB( uint8 voltLevel);
//  460 
//  461 
//  462 /*********************************************************************
//  463  * CONSTANTS
//  464  */

        RSEG XDATA_ROM_C:CONST:REORDER:NOROOT(0)
        DATA8
//  465   const uiState_t zclSampleSw_UiStatesMain[] = 
zclSampleSw_UiStatesMain:
        DB 254
        DB 1
        DATA16
        DW 4
        DW `??UI_ActionBackFromAppMenu::?relay`
        DATA8
        DB 0
        DB 254
        DATA16
        DW 1028
        DW `??zclSampleSw_UiActionToggleLight::?relay`
//  466   {
//  467     /*  UI_STATE_BACK_FROM_APP_MENU  */   {UI_STATE_DEFAULT_MOVE,       UI_STATE_TOGGLE_LIGHT,  UI_KEY_SW_5_PRESSED, &UI_ActionBackFromAppMenu}, //do not change this line, except for the second item, which should point to the last entry in this menu
//  468     /*  UI_STATE_TOGGLE_LIGHT        */   {UI_STATE_BACK_FROM_APP_MENU, UI_STATE_DEFAULT_MOVE,  UI_KEY_SW_5_PRESSED | UI_KEY_SW_5_RELEASED, &zclSampleSw_UiActionToggleLight},
//  469   };
//  470   
//  471 /*********************************************************************
//  472  * REFERENCED EXTERNALS
//  473  */
//  474 extern int16 zdpExternalStateTaskID;
//  475 
//  476 /*********************************************************************
//  477  * ZCL General Profile Callback table
//  478  */

        RSEG XDATA_I:XDATA:NOROOT(0)
//  479 static zclGeneral_AppCallbacks_t zclSampleSw_CmdCallbacks =
zclSampleSw_CmdCallbacks:
        DATA8
        DS 18
        REQUIRE `?<Initializer for zclSampleSw_CmdCallbacks>`
        REQUIRE __INIT_XDATA_I
//  480 {
//  481   zclSampleSw_BasicResetCB,               // Basic Cluster Reset command
//  482   NULL,                                   // Identify Trigger Effect command
//  483   NULL,                                   // On/Off cluster commands
//  484   NULL,                                   // On/Off cluster enhanced command Off with Effect
//  485   NULL,                                   // On/Off cluster enhanced command On with Recall Global Scene
//  486   NULL,                                   // On/Off cluster enhanced command On with Timed Off
//  487 #ifdef ZCL_LEVEL_CTRL
//  488   NULL,                                   // Level Control Move to Level command
//  489   NULL,                                   // Level Control Move command
//  490   NULL,                                   // Level Control Step command
//  491   NULL,                                   // Level Control Stop command
//  492 #endif
//  493 #ifdef ZCL_GROUPS
//  494   NULL,                                   // Group Response commands
//  495 #endif
//  496 #ifdef ZCL_SCENES
//  497   NULL,                                   // Scene Store Request command
//  498   NULL,                                   // Scene Recall Request command
//  499   NULL,                                   // Scene Response command
//  500 #endif
//  501 #ifdef ZCL_ALARMS
//  502   NULL,                                   // Alarm (Response) commands
//  503 #endif
//  504 #ifdef SE_UK_EXT
//  505   NULL,                                   // Get Event Log command
//  506   NULL,                                   // Publish Event Log command
//  507 #endif
//  508   NULL,                                   // RSSI Location command
//  509   NULL                                    // RSSI Location Response command
//  510 };
//  511 
//  512 
//  513 
//  514 /*********************************************************************
//  515  * @fn          zclSampleSw_Init
//  516  *
//  517  * @brief       Initialization function for the zclGeneral layer.
//  518  *
//  519  * @param       none
//  520  *
//  521  * @return      none
//  522  */

        RSEG BANKED_CODE:HUGECODE:NOROOT(0)
//  523 void zclSampleSw_Init( byte task_id )
zclSampleSw_Init:
          CFI Block cfiBlock2 Using cfiCommon0
          CFI Function zclSampleSw_Init
        CODE
//  524 {
        FUNCALL zclSampleSw_Init, bdb_StartCommissioning
        LOCFRAME ISTACK, 0, STACK
        LOCFRAME PSTACK, 0, STACK
        LOCFRAME XSTACK, 28, STACK
        LOCFRAME IOVERLAY, 0, STATIC
        LOCFRAME DOVERLAY, 0, STATIC
        ARGFRAME ISTACK, 0, STACK
        ARGFRAME PSTACK, 0, STACK
        ARGFRAME XSTACK, 28, STACK
        ARGFRAME IOVERLAY, 0, STATIC
        ARGFRAME DOVERLAY, 0, STATIC
        FUNCALL zclSampleSw_Init, bdb_RegisterSimpleDescriptor
        LOCFRAME ISTACK, 0, STACK
        LOCFRAME PSTACK, 0, STACK
        LOCFRAME XSTACK, 28, STACK
        LOCFRAME IOVERLAY, 0, STATIC
        LOCFRAME DOVERLAY, 0, STATIC
        ARGFRAME ISTACK, 0, STACK
        ARGFRAME PSTACK, 0, STACK
        ARGFRAME XSTACK, 28, STACK
        ARGFRAME IOVERLAY, 0, STATIC
        ARGFRAME DOVERLAY, 0, STATIC
        FUNCALL zclSampleSw_Init, zclGeneral_RegisterCmdCallbacks
        LOCFRAME ISTACK, 0, STACK
        LOCFRAME PSTACK, 0, STACK
        LOCFRAME XSTACK, 28, STACK
        LOCFRAME IOVERLAY, 0, STATIC
        LOCFRAME DOVERLAY, 0, STATIC
        ARGFRAME ISTACK, 0, STACK
        ARGFRAME PSTACK, 0, STACK
        ARGFRAME XSTACK, 28, STACK
        ARGFRAME IOVERLAY, 0, STATIC
        ARGFRAME DOVERLAY, 0, STATIC
        FUNCALL zclSampleSw_Init, zclSampleSw_ResetAttributesToDefaultValues
        LOCFRAME ISTACK, 0, STACK
        LOCFRAME PSTACK, 0, STACK
        LOCFRAME XSTACK, 28, STACK
        LOCFRAME IOVERLAY, 0, STATIC
        LOCFRAME DOVERLAY, 0, STATIC
        ARGFRAME ISTACK, 0, STACK
        ARGFRAME PSTACK, 0, STACK
        ARGFRAME XSTACK, 28, STACK
        ARGFRAME IOVERLAY, 0, STATIC
        ARGFRAME DOVERLAY, 0, STATIC
        FUNCALL zclSampleSw_Init, zcl_registerAttrList
        LOCFRAME ISTACK, 0, STACK
        LOCFRAME PSTACK, 0, STACK
        LOCFRAME XSTACK, 28, STACK
        LOCFRAME IOVERLAY, 0, STATIC
        LOCFRAME DOVERLAY, 0, STATIC
        ARGFRAME ISTACK, 0, STACK
        ARGFRAME PSTACK, 0, STACK
        ARGFRAME XSTACK, 28, STACK
        ARGFRAME IOVERLAY, 0, STATIC
        ARGFRAME DOVERLAY, 0, STATIC
        FUNCALL zclSampleSw_Init, zcl_registerForMsg
        LOCFRAME ISTACK, 0, STACK
        LOCFRAME PSTACK, 0, STACK
        LOCFRAME XSTACK, 28, STACK
        LOCFRAME IOVERLAY, 0, STATIC
        LOCFRAME DOVERLAY, 0, STATIC
        ARGFRAME ISTACK, 0, STACK
        ARGFRAME PSTACK, 0, STACK
        ARGFRAME XSTACK, 28, STACK
        ARGFRAME IOVERLAY, 0, STATIC
        ARGFRAME DOVERLAY, 0, STATIC
        FUNCALL zclSampleSw_Init, RegisterVoltageWarningCB
        LOCFRAME ISTACK, 0, STACK
        LOCFRAME PSTACK, 0, STACK
        LOCFRAME XSTACK, 28, STACK
        LOCFRAME IOVERLAY, 0, STATIC
        LOCFRAME DOVERLAY, 0, STATIC
        ARGFRAME ISTACK, 0, STACK
        ARGFRAME PSTACK, 0, STACK
        ARGFRAME XSTACK, 28, STACK
        ARGFRAME IOVERLAY, 0, STATIC
        ARGFRAME DOVERLAY, 0, STATIC
        FUNCALL zclSampleSw_Init, RegisterForKeys
        LOCFRAME ISTACK, 0, STACK
        LOCFRAME PSTACK, 0, STACK
        LOCFRAME XSTACK, 28, STACK
        LOCFRAME IOVERLAY, 0, STATIC
        LOCFRAME DOVERLAY, 0, STATIC
        ARGFRAME ISTACK, 0, STACK
        ARGFRAME PSTACK, 0, STACK
        ARGFRAME XSTACK, 28, STACK
        ARGFRAME IOVERLAY, 0, STATIC
        ARGFRAME DOVERLAY, 0, STATIC
        FUNCALL zclSampleSw_Init, bdb_RegisterCommissioningStatusCB
        LOCFRAME ISTACK, 0, STACK
        LOCFRAME PSTACK, 0, STACK
        LOCFRAME XSTACK, 28, STACK
        LOCFRAME IOVERLAY, 0, STATIC
        LOCFRAME DOVERLAY, 0, STATIC
        ARGFRAME ISTACK, 0, STACK
        ARGFRAME PSTACK, 0, STACK
        ARGFRAME XSTACK, 28, STACK
        ARGFRAME IOVERLAY, 0, STATIC
        ARGFRAME DOVERLAY, 0, STATIC
        FUNCALL zclSampleSw_Init, afRegister
        LOCFRAME ISTACK, 0, STACK
        LOCFRAME PSTACK, 0, STACK
        LOCFRAME XSTACK, 28, STACK
        LOCFRAME IOVERLAY, 0, STATIC
        LOCFRAME DOVERLAY, 0, STATIC
        ARGFRAME ISTACK, 0, STACK
        ARGFRAME PSTACK, 0, STACK
        ARGFRAME XSTACK, 28, STACK
        ARGFRAME IOVERLAY, 0, STATIC
        ARGFRAME DOVERLAY, 0, STATIC
        FUNCALL zclSampleSw_Init, osal_start_timerEx
        LOCFRAME ISTACK, 0, STACK
        LOCFRAME PSTACK, 0, STACK
        LOCFRAME XSTACK, 32, STACK
        LOCFRAME IOVERLAY, 0, STATIC
        LOCFRAME DOVERLAY, 0, STATIC
        ARGFRAME ISTACK, 0, STACK
        ARGFRAME PSTACK, 0, STACK
        ARGFRAME XSTACK, 32, STACK
        ARGFRAME IOVERLAY, 0, STATIC
        ARGFRAME DOVERLAY, 0, STATIC
        FUNCALL zclSampleSw_Init, UI_Init
        LOCFRAME ISTACK, 0, STACK
        LOCFRAME PSTACK, 0, STACK
        LOCFRAME XSTACK, 36, STACK
        LOCFRAME IOVERLAY, 0, STATIC
        LOCFRAME DOVERLAY, 0, STATIC
        ARGFRAME ISTACK, 0, STACK
        ARGFRAME PSTACK, 0, STACK
        ARGFRAME XSTACK, 36, STACK
        ARGFRAME IOVERLAY, 0, STATIC
        ARGFRAME DOVERLAY, 0, STATIC
        FUNCALL zclSampleSw_Init, UI_UpdateLcd
        LOCFRAME ISTACK, 0, STACK
        LOCFRAME PSTACK, 0, STACK
        LOCFRAME XSTACK, 28, STACK
        LOCFRAME IOVERLAY, 0, STATIC
        LOCFRAME DOVERLAY, 0, STATIC
        ARGFRAME ISTACK, 0, STACK
        ARGFRAME PSTACK, 0, STACK
        ARGFRAME XSTACK, 28, STACK
        ARGFRAME IOVERLAY, 0, STATIC
        ARGFRAME DOVERLAY, 0, STATIC
        FUNCALL zclSampleSw_Init, bdb_StartCommissioning
        LOCFRAME ISTACK, 0, STACK
        LOCFRAME PSTACK, 0, STACK
        LOCFRAME XSTACK, 28, STACK
        LOCFRAME IOVERLAY, 0, STATIC
        LOCFRAME DOVERLAY, 0, STATIC
        ARGFRAME ISTACK, 0, STACK
        ARGFRAME PSTACK, 0, STACK
        ARGFRAME XSTACK, 28, STACK
        ARGFRAME IOVERLAY, 0, STATIC
        ARGFRAME DOVERLAY, 0, STATIC
        FUNCALL zclSampleSw_Init, aps_AddGroup
        LOCFRAME ISTACK, 0, STACK
        LOCFRAME PSTACK, 0, STACK
        LOCFRAME XSTACK, 28, STACK
        LOCFRAME IOVERLAY, 0, STATIC
        LOCFRAME DOVERLAY, 0, STATIC
        ARGFRAME ISTACK, 0, STACK
        ARGFRAME PSTACK, 0, STACK
        ARGFRAME XSTACK, 28, STACK
        ARGFRAME IOVERLAY, 0, STATIC
        ARGFRAME DOVERLAY, 0, STATIC
        FUNCALL zclSampleSw_Init, osal_start_timerEx
        LOCFRAME ISTACK, 0, STACK
        LOCFRAME PSTACK, 0, STACK
        LOCFRAME XSTACK, 32, STACK
        LOCFRAME IOVERLAY, 0, STATIC
        LOCFRAME DOVERLAY, 0, STATIC
        ARGFRAME ISTACK, 0, STACK
        ARGFRAME PSTACK, 0, STACK
        ARGFRAME XSTACK, 32, STACK
        ARGFRAME IOVERLAY, 0, STATIC
        ARGFRAME DOVERLAY, 0, STATIC
        REQUIRE ?V0
        REQUIRE ?V1
        MOV       A,#-0xa
        LCALL     ?BANKED_ENTER_XDATA
          CFI DPH0 load(1, XDATA, add(CFA_XSP16, literal(-1)))
          CFI DPL0 load(1, XDATA, add(CFA_XSP16, literal(-2)))
          CFI ?BRET_EXT load(1, XDATA, add(CFA_XSP16, literal(-3)))
          CFI ?RET_HIGH load(1, XDATA, add(CFA_XSP16, literal(-4)))
          CFI ?RET_LOW load(1, XDATA, add(CFA_XSP16, literal(-5)))
          CFI R7 load(1, XDATA, add(CFA_XSP16, literal(-6)))
          CFI V1 load(1, XDATA, add(CFA_XSP16, literal(-7)))
          CFI V0 load(1, XDATA, add(CFA_XSP16, literal(-8)))
          CFI VB load(1, XDATA, add(CFA_XSP16, literal(-9)))
          CFI R6 load(1, XDATA, add(CFA_XSP16, literal(-10)))
          CFI CFA_SP SP+0
          CFI CFA_XSP16 add(XSP16, 10)
        ; Saved register size: 10
        ; Auto size: 18
        MOV       A,#-0x12
        LCALL     ?ALLOC_XSTACK8
          CFI CFA_XSP16 add(XSP16, 28)
        MOV       A,R1
        MOV       R6,A
//  525 #ifdef ZDO_COORDINATOR
//  526   bdb_StartCommissioning( BDB_COMMISSIONING_MODE_NWK_FORMATION |
//  527                           BDB_COMMISSIONING_MODE_FINDING_BINDING );
//  528 
//  529   NLME_PermitJoiningRequest(255);
//  530 #else
//  531   bdb_StartCommissioning( BDB_COMMISSIONING_MODE_NWK_STEERING |
//  532                           BDB_COMMISSIONING_MODE_FINDING_BINDING );
        ; Setup parameters for call to function bdb_StartCommissioning
        MOV       R1,#0xa
        LCALL     `??bdb_StartCommissioning::?relay`; Banked call to: bdb_StartCommissioning
//  533 #endif
//  534   zclSampleSw_TaskID = task_id;
        MOV       A,R6
        MOV       DPTR,#zclSampleSw_TaskID
        MOVX      @DPTR,A
//  535 
//  536   // Set destination address to indirect
//  537   zclSampleSw_DstAddr.addrMode = (afAddrMode_t)AddrNotPresent;
        MOV       DPTR,#zclSampleSw_DstAddr + 8
        CLR       A
        MOVX      @DPTR,A
//  538   zclSampleSw_DstAddr.endPoint = 0;
        INC       DPTR
        MOVX      @DPTR,A
//  539   zclSampleSw_DstAddr.addr.shortAddr = 0;
        MOV       DPTR,#zclSampleSw_DstAddr
        MOVX      @DPTR,A
        INC       DPTR
        MOVX      @DPTR,A
//  540 
//  541   // Register the Simple Descriptor for this application
//  542   bdb_RegisterSimpleDescriptor( &zclSampleSw_SimpleDesc );
        ; Setup parameters for call to function bdb_RegisterSimpleDescriptor
        MOV       R2,#zclSampleSw_SimpleDesc & 0xff
        MOV       R3,#(zclSampleSw_SimpleDesc >> 8) & 0xff
        LCALL     `??bdb_RegisterSimpleDescriptor::?relay`; Banked call to: bdb_RegisterSimpleDescriptor
//  543 
//  544   // Register the ZCL General Cluster Library callback functions
//  545   zclGeneral_RegisterCmdCallbacks( SAMPLESW_ENDPOINT, &zclSampleSw_CmdCallbacks );
        ; Setup parameters for call to function zclGeneral_RegisterCmdCallbacks
        MOV       R2,#zclSampleSw_CmdCallbacks & 0xff
        MOV       R3,#(zclSampleSw_CmdCallbacks >> 8) & 0xff
        MOV       R1,#0x8
        LCALL     `??zclGeneral_RegisterCmdCallbacks::?relay`; Banked call to: zclGeneral_RegisterCmdCallbacks
//  546 
//  547   zclSampleSw_ResetAttributesToDefaultValues();
        ; Setup parameters for call to function zclSampleSw_ResetAttributesToDefaultValues
        LCALL     `??zclSampleSw_ResetAttributesToDefaultValues::?`; Banked call to: zclSampleSw_ResetAttributesToDefaultValues
//  548   
//  549   // Register the application's attribute list
//  550   zcl_registerAttrList( SAMPLESW_ENDPOINT, zclSampleSw_NumAttributes, zclSampleSw_Attrs );
        ; Setup parameters for call to function zcl_registerAttrList
        MOV       R4,#zclSampleSw_Attrs & 0xff
        MOV       R5,#(zclSampleSw_Attrs >> 8) & 0xff
        MOV       DPTR,#zclSampleSw_NumAttributes
        CLR       A
        MOVC      A,@A+DPTR
        MOV       R2,A
        MOV       R1,#0x8
        LCALL     `??zcl_registerAttrList::?relay`; Banked call to: zcl_registerAttrList
//  551 
//  552   // Register the Application to receive the unprocessed Foundation command/response messages
//  553   zcl_registerForMsg( zclSampleSw_TaskID );
        ; Setup parameters for call to function zcl_registerForMsg
        MOV       DPTR,#zclSampleSw_TaskID
        MOVX      A,@DPTR
        MOV       R1,A
        LCALL     `??zcl_registerForMsg::?relay`; Banked call to: zcl_registerForMsg
//  554   
//  555   // Register low voltage NV memory protection application callback
//  556   RegisterVoltageWarningCB( zclSampleApp_BatteryWarningCB );
        ; Setup parameters for call to function RegisterVoltageWarningCB
        MOV       R2,#`??zclSampleApp_BatteryWarningCB::?relay` & 0xff
        MOV       R3,#(`??zclSampleApp_BatteryWarningCB::?relay` >> 8) & 0xff
        LCALL     `??RegisterVoltageWarningCB::?relay`; Banked call to: RegisterVoltageWarningCB
//  557 
//  558   // Register for all key events - This app will handle all key events
//  559   RegisterForKeys( zclSampleSw_TaskID );
        ; Setup parameters for call to function RegisterForKeys
        MOV       DPTR,#zclSampleSw_TaskID
        MOVX      A,@DPTR
        MOV       R1,A
        LCALL     `??RegisterForKeys::?relay`; Banked call to: RegisterForKeys
//  560   
//  561   bdb_RegisterCommissioningStatusCB( zclSampleSw_ProcessCommissioningStatus );
        ; Setup parameters for call to function bdb_RegisterCommissioningStatusCB
        MOV       R2,#`??zclSampleSw_ProcessCommissioningStatus::?rela` & 0xff
        MOV       R3,#(`??zclSampleSw_ProcessCommissioningStatus::?rela` >> 8) & 0xff
        LCALL     `??bdb_RegisterCommissioningStatusCB::?relay`; Banked call to: bdb_RegisterCommissioningStatusCB
//  562 
//  563   // Register for a test endpoint
//  564   afRegister( &sampleSw_TestEp );
        ; Setup parameters for call to function afRegister
        MOV       R2,#sampleSw_TestEp & 0xff
        MOV       R3,#(sampleSw_TestEp >> 8) & 0xff
        LCALL     `??afRegister::?relay`; Banked call to: afRegister
//  565   
//  566   osal_start_timerEx(zclSampleSw_TaskID, 
//  567     SAMPLEAPP_REPORT_EVT,//事件
//  568     SAMPLEAPP_REPORT_PERIOD);//延迟处理事件的时间长度
        ; Setup parameters for call to function osal_start_timerEx
        MOV       DPTR,#__Constant_bb8
        LCALL     ?PUSH_XSTACK8_X_FOUR
          CFI CFA_XSP16 add(XSP16, 32)
        MOV       R2,#0x40
        MOV       R3,#0x0
        MOV       DPTR,#zclSampleSw_TaskID
        MOVX      A,@DPTR
        MOV       R1,A
        LCALL     `??osal_start_timerEx::?relay`; Banked call to: osal_start_timerEx
        MOV       A,#0x4
        LCALL     ?DEALLOC_XSTACK8
          CFI CFA_XSP16 add(XSP16, 28)
//  569   
//  570 #ifdef ZCL_DIAGNOSTIC
//  571   // Register the application's callback function to read/write attribute data.
//  572   // This is only required when the attribute data format is unknown to ZCL.
//  573   zcl_registerReadWriteCB( SAMPLESW_ENDPOINT, zclDiagnostic_ReadWriteAttrCB, NULL );
//  574 
//  575   if ( zclDiagnostic_InitStats() == ZSuccess )
//  576   {
//  577     // Here the user could start the timer to save Diagnostics to NV
//  578   }
//  579 #endif
//  580 
//  581 #if defined (OTA_CLIENT) && (OTA_CLIENT == TRUE)
//  582   // Register for callback events from the ZCL OTA
//  583   zclOTA_Register(zclSampleSw_TaskID);
//  584 #endif
//  585 
//  586   zdpExternalStateTaskID = zclSampleSw_TaskID;
        MOV       DPTR,#zclSampleSw_TaskID
        MOVX      A,@DPTR
        MOV       DPTR,#zdpExternalStateTaskID
        MOVX      @DPTR,A
        INC       DPTR
        CLR       A
        MOVX      @DPTR,A
//  587 
//  588   UI_Init(zclSampleSw_TaskID, SAMPLEAPP_LCD_AUTO_UPDATE_EVT, SAMPLEAPP_KEY_AUTO_REPEAT_EVT, &zclSampleSw_IdentifyTime, APP_TITLE, &zclSampleSw_UiUpdateLcd, zclSampleSw_UiStatesMain);
        ; Setup parameters for call to function UI_Init
        MOV       ?V0,#zclSampleSw_UiStatesMain & 0xff
        MOV       ?V1,#(zclSampleSw_UiStatesMain >> 8) & 0xff
        MOV       R0,#?V0
        LCALL     ?PUSH_XSTACK_I_TWO
          CFI CFA_XSP16 add(XSP16, 30)
        MOV       ?V0,#`??zclSampleSw_UiUpdateLcd::?relay` & 0xff
        MOV       ?V1,#(`??zclSampleSw_UiUpdateLcd::?relay` >> 8) & 0xff
        MOV       R0,#?V0
        LCALL     ?PUSH_XSTACK_I_TWO
          CFI CFA_XSP16 add(XSP16, 32)
        MOV       ?V0,#`?<Constant "TI Sample Switch">` & 0xff
        MOV       ?V1,#(`?<Constant "TI Sample Switch">` >> 8) & 0xff
        MOV       R0,#?V0
        LCALL     ?PUSH_XSTACK_I_TWO
          CFI CFA_XSP16 add(XSP16, 34)
        MOV       ?V0,#zclSampleSw_IdentifyTime & 0xff
        MOV       ?V1,#(zclSampleSw_IdentifyTime >> 8) & 0xff
        MOV       R0,#?V0
        LCALL     ?PUSH_XSTACK_I_TWO
          CFI CFA_XSP16 add(XSP16, 36)
        MOV       R4,#0x20
        MOV       R5,#0x0
        MOV       R2,#0x10
        MOV       R3,#0x0
        MOV       DPTR,#zclSampleSw_TaskID
        MOVX      A,@DPTR
        MOV       R1,A
        LCALL     `??UI_Init::?relay`; Banked call to: UI_Init
        MOV       A,#0x8
        LCALL     ?DEALLOC_XSTACK8
          CFI CFA_XSP16 add(XSP16, 28)
//  589 
//  590   UI_UpdateLcd();
        ; Setup parameters for call to function UI_UpdateLcd
        LCALL     `??UI_UpdateLcd::?relay`; Banked call to: UI_UpdateLcd
//  591 
//  592 #ifdef ZDO_COORDINATOR
//  593   bdb_StartCommissioning( BDB_COMMISSIONING_MODE_NWK_FORMATION |
//  594                           BDB_COMMISSIONING_MODE_FINDING_BINDING );
//  595   
//  596   NLME_PermitJoiningRequest(255);
//  597   
//  598   // Broadcast
//  599   osal_start_timerEx(zclSampleSw_TaskID, 
//  600                      SAMPLEAPP_BROADCAST_EVT, 
//  601                      SAMPLEAPP_BROADCAST_PERIOD);
//  602   // groupcast
//  603   osal_start_timerEx(zclSampleSw_TaskID, 
//  604                      SAMPLEAPP_GROUPCAST_EVT, 
//  605                      SAMPLEAPP_GROUPCAST_PERIOD);
//  606 #else
//  607   bdb_StartCommissioning( BDB_COMMISSIONING_MODE_NWK_STEERING |
//  608                           BDB_COMMISSIONING_MODE_FINDING_BINDING );
        ; Setup parameters for call to function bdb_StartCommissioning
        MOV       R1,#0xa
        LCALL     `??bdb_StartCommissioning::?relay`; Banked call to: bdb_StartCommissioning
//  609   // Add group
//  610   aps_Group_t group = {
//  611     .ID = GROUP_ID,
//  612     .name = "",
//  613   };
        MOV       DPTR,#`?<Constant {21, ""}>`
        MOV       R4,?XSP + 0
        MOV       R5,?XSP + 1
        MOV       A,#0x12
        LCALL     ?MOVE_LONG8_XDATA_XDATA
//  614   aps_AddGroup(SAMPLESW_ENDPOINT, &group);
        ; Setup parameters for call to function aps_AddGroup
        MOV       R2,?XSP + 0
        MOV       R3,?XSP + 1
        MOV       R1,#0x8
        LCALL     `??aps_AddGroup::?relay`; Banked call to: aps_AddGroup
//  615   
//  616   // P2P
//  617   osal_start_timerEx(zclSampleSw_TaskID, 
//  618                      SAMPLEAPP_P2P_EVT, 
//  619                      SAMPLEAPP_P2P_PERIOD);
        ; Setup parameters for call to function osal_start_timerEx
        MOV       DPTR,#__Constant_3e8
        LCALL     ?PUSH_XSTACK8_X_FOUR
          CFI CFA_XSP16 add(XSP16, 32)
        MOV       R2,#0x0
        MOV       R3,#0x1
        MOV       DPTR,#zclSampleSw_TaskID
        MOVX      A,@DPTR
        MOV       R1,A
        LCALL     `??osal_start_timerEx::?relay`; Banked call to: osal_start_timerEx
        MOV       A,#0x4
        LCALL     ?DEALLOC_XSTACK8
          CFI CFA_XSP16 add(XSP16, 28)
//  620 #endif
//  621 }
        MOV       A,#0x12
        LCALL     ?DEALLOC_XSTACK8
          CFI EndBlock cfiBlock2
        REQUIRE ?Subroutine1
        ; // Fall through to label ?Subroutine1

        RSEG BANKED_CODE:HUGECODE:NOROOT(0)
?Subroutine1:
          CFI Block cfiBlock3 Using cfiCommon0
          CFI NoFunction
          CFI CFA_SP SP+0
          CFI CFA_XSP16 add(XSP16, 10)
          CFI VB load(1, XDATA, add(CFA_XSP16, literal(-9)))
          CFI DPL0 load(1, XDATA, add(CFA_XSP16, literal(-2)))
          CFI DPH0 load(1, XDATA, add(CFA_XSP16, literal(-1)))
          CFI R6 load(1, XDATA, add(CFA_XSP16, literal(-10)))
          CFI R7 load(1, XDATA, add(CFA_XSP16, literal(-6)))
          CFI V0 load(1, XDATA, add(CFA_XSP16, literal(-8)))
          CFI V1 load(1, XDATA, add(CFA_XSP16, literal(-7)))
          CFI ?BRET_EXT load(1, XDATA, add(CFA_XSP16, literal(-3)))
          CFI ?RET_HIGH load(1, XDATA, add(CFA_XSP16, literal(-4)))
          CFI ?RET_LOW load(1, XDATA, add(CFA_XSP16, literal(-5)))
        MOV       R7,#0x2
        LJMP      ?BANKED_LEAVE_XDATA
          CFI EndBlock cfiBlock3

        RSEG XDATA_ROM_C:CONST:REORDER:NOROOT(0)
        DATA8
`?<Constant {21, ""}>`:
        DATA16
        DW 21
        DB ""
        DB 0, 0, 0, 0, 0, 0, 0, 0
        DB 0, 0, 0, 0, 0, 0, 0
//  622 
//  623 /*********************************************************************
//  624  * @fn          zclSample_event_loop
//  625  *
//  626  * @brief       Event Loop Processor for zclGeneral.
//  627  *
//  628  * @param       none
//  629  *
//  630  * @return      none
//  631  */

        RSEG BANKED_CODE:HUGECODE:NOROOT(0)
//  632 uint16 zclSampleSw_event_loop( uint8 task_id, uint16 events )
zclSampleSw_event_loop:
          CFI Block cfiBlock4 Using cfiCommon0
          CFI Function zclSampleSw_event_loop
        CODE
//  633 {
        FUNCALL zclSampleSw_event_loop, osal_start_timerEx
        LOCFRAME ISTACK, 0, STACK
        LOCFRAME PSTACK, 0, STACK
        LOCFRAME XSTACK, 16, STACK
        LOCFRAME IOVERLAY, 0, STATIC
        LOCFRAME DOVERLAY, 0, STATIC
        ARGFRAME ISTACK, 0, STACK
        ARGFRAME PSTACK, 0, STACK
        ARGFRAME XSTACK, 16, STACK
        ARGFRAME IOVERLAY, 0, STATIC
        ARGFRAME DOVERLAY, 0, STATIC
        FUNCALL zclSampleSw_event_loop, zcl_SendCommand
        LOCFRAME ISTACK, 0, STACK
        LOCFRAME PSTACK, 0, STACK
        LOCFRAME XSTACK, 23, STACK
        LOCFRAME IOVERLAY, 0, STATIC
        LOCFRAME DOVERLAY, 0, STATIC
        ARGFRAME ISTACK, 0, STACK
        ARGFRAME PSTACK, 0, STACK
        ARGFRAME XSTACK, 23, STACK
        ARGFRAME IOVERLAY, 0, STATIC
        ARGFRAME DOVERLAY, 0, STATIC
        FUNCALL zclSampleSw_event_loop, UI_UpdateLcd
        LOCFRAME ISTACK, 0, STACK
        LOCFRAME PSTACK, 0, STACK
        LOCFRAME XSTACK, 12, STACK
        LOCFRAME IOVERLAY, 0, STATIC
        LOCFRAME DOVERLAY, 0, STATIC
        ARGFRAME ISTACK, 0, STACK
        ARGFRAME PSTACK, 0, STACK
        ARGFRAME XSTACK, 12, STACK
        ARGFRAME IOVERLAY, 0, STATIC
        ARGFRAME DOVERLAY, 0, STATIC
        FUNCALL zclSampleSw_event_loop, UI_DeviceStateUpdated
        LOCFRAME ISTACK, 0, STACK
        LOCFRAME PSTACK, 0, STACK
        LOCFRAME XSTACK, 12, STACK
        LOCFRAME IOVERLAY, 0, STATIC
        LOCFRAME DOVERLAY, 0, STATIC
        ARGFRAME ISTACK, 0, STACK
        ARGFRAME PSTACK, 0, STACK
        ARGFRAME XSTACK, 12, STACK
        ARGFRAME IOVERLAY, 0, STATIC
        ARGFRAME DOVERLAY, 0, STATIC
        FUNCALL zclSampleSw_event_loop, osal_msg_deallocate
        LOCFRAME ISTACK, 0, STACK
        LOCFRAME PSTACK, 0, STACK
        LOCFRAME XSTACK, 12, STACK
        LOCFRAME IOVERLAY, 0, STATIC
        LOCFRAME DOVERLAY, 0, STATIC
        ARGFRAME ISTACK, 0, STACK
        ARGFRAME PSTACK, 0, STACK
        ARGFRAME XSTACK, 12, STACK
        ARGFRAME IOVERLAY, 0, STATIC
        ARGFRAME DOVERLAY, 0, STATIC
        FUNCALL zclSampleSw_event_loop, osal_msg_receive
        LOCFRAME ISTACK, 0, STACK
        LOCFRAME PSTACK, 0, STACK
        LOCFRAME XSTACK, 12, STACK
        LOCFRAME IOVERLAY, 0, STATIC
        LOCFRAME DOVERLAY, 0, STATIC
        ARGFRAME ISTACK, 0, STACK
        ARGFRAME PSTACK, 0, STACK
        ARGFRAME XSTACK, 12, STACK
        ARGFRAME IOVERLAY, 0, STATIC
        ARGFRAME DOVERLAY, 0, STATIC
        FUNCALL zclSampleSw_event_loop, HalLcdWriteStringValue
        LOCFRAME ISTACK, 0, STACK
        LOCFRAME PSTACK, 0, STACK
        LOCFRAME XSTACK, 13, STACK
        LOCFRAME IOVERLAY, 0, STATIC
        LOCFRAME DOVERLAY, 0, STATIC
        ARGFRAME ISTACK, 0, STACK
        ARGFRAME PSTACK, 0, STACK
        ARGFRAME XSTACK, 13, STACK
        ARGFRAME IOVERLAY, 0, STATIC
        ARGFRAME DOVERLAY, 0, STATIC
        FUNCALL zclSampleSw_event_loop, HalLcdWriteStringValue
        LOCFRAME ISTACK, 0, STACK
        LOCFRAME PSTACK, 0, STACK
        LOCFRAME XSTACK, 13, STACK
        LOCFRAME IOVERLAY, 0, STATIC
        LOCFRAME DOVERLAY, 0, STATIC
        ARGFRAME ISTACK, 0, STACK
        ARGFRAME PSTACK, 0, STACK
        ARGFRAME XSTACK, 13, STACK
        ARGFRAME IOVERLAY, 0, STATIC
        ARGFRAME DOVERLAY, 0, STATIC
        FUNCALL zclSampleSw_event_loop, HalLcdWriteStringValue
        LOCFRAME ISTACK, 0, STACK
        LOCFRAME PSTACK, 0, STACK
        LOCFRAME XSTACK, 13, STACK
        LOCFRAME IOVERLAY, 0, STATIC
        LOCFRAME DOVERLAY, 0, STATIC
        ARGFRAME ISTACK, 0, STACK
        ARGFRAME PSTACK, 0, STACK
        ARGFRAME XSTACK, 13, STACK
        ARGFRAME IOVERLAY, 0, STATIC
        ARGFRAME DOVERLAY, 0, STATIC
        FUNCALL zclSampleSw_event_loop, zclSampleSw_ProcessIncomingMsg
        LOCFRAME ISTACK, 0, STACK
        LOCFRAME PSTACK, 0, STACK
        LOCFRAME XSTACK, 12, STACK
        LOCFRAME IOVERLAY, 0, STATIC
        LOCFRAME DOVERLAY, 0, STATIC
        ARGFRAME ISTACK, 0, STACK
        ARGFRAME PSTACK, 0, STACK
        ARGFRAME XSTACK, 12, STACK
        ARGFRAME IOVERLAY, 0, STATIC
        ARGFRAME DOVERLAY, 0, STATIC
        FUNCALL zclSampleSw_event_loop, UI_MainStateMachine
        LOCFRAME ISTACK, 0, STACK
        LOCFRAME PSTACK, 0, STACK
        LOCFRAME XSTACK, 12, STACK
        LOCFRAME IOVERLAY, 0, STATIC
        LOCFRAME DOVERLAY, 0, STATIC
        ARGFRAME ISTACK, 0, STACK
        ARGFRAME PSTACK, 0, STACK
        ARGFRAME XSTACK, 12, STACK
        ARGFRAME IOVERLAY, 0, STATIC
        ARGFRAME DOVERLAY, 0, STATIC
        FUNCALL zclSampleSw_event_loop, UI_MainStateMachine
        LOCFRAME ISTACK, 0, STACK
        LOCFRAME PSTACK, 0, STACK
        LOCFRAME XSTACK, 12, STACK
        LOCFRAME IOVERLAY, 0, STATIC
        LOCFRAME DOVERLAY, 0, STATIC
        ARGFRAME ISTACK, 0, STACK
        ARGFRAME PSTACK, 0, STACK
        ARGFRAME XSTACK, 12, STACK
        ARGFRAME IOVERLAY, 0, STATIC
        ARGFRAME DOVERLAY, 0, STATIC
        FUNCALL zclSampleSw_event_loop, bdb_StartCommissioning
        LOCFRAME ISTACK, 0, STACK
        LOCFRAME PSTACK, 0, STACK
        LOCFRAME XSTACK, 12, STACK
        LOCFRAME IOVERLAY, 0, STATIC
        LOCFRAME DOVERLAY, 0, STATIC
        ARGFRAME ISTACK, 0, STACK
        ARGFRAME PSTACK, 0, STACK
        ARGFRAME XSTACK, 12, STACK
        ARGFRAME IOVERLAY, 0, STATIC
        ARGFRAME DOVERLAY, 0, STATIC
        FUNCALL zclSampleSw_event_loop, zclSampleSw_ReportTest
        LOCFRAME ISTACK, 0, STACK
        LOCFRAME PSTACK, 0, STACK
        LOCFRAME XSTACK, 12, STACK
        LOCFRAME IOVERLAY, 0, STATIC
        LOCFRAME DOVERLAY, 0, STATIC
        ARGFRAME ISTACK, 0, STACK
        ARGFRAME PSTACK, 0, STACK
        ARGFRAME XSTACK, 12, STACK
        ARGFRAME IOVERLAY, 0, STATIC
        ARGFRAME DOVERLAY, 0, STATIC
        FUNCALL zclSampleSw_event_loop, osal_start_timerEx
        LOCFRAME ISTACK, 0, STACK
        LOCFRAME PSTACK, 0, STACK
        LOCFRAME XSTACK, 16, STACK
        LOCFRAME IOVERLAY, 0, STATIC
        LOCFRAME DOVERLAY, 0, STATIC
        ARGFRAME ISTACK, 0, STACK
        ARGFRAME PSTACK, 0, STACK
        ARGFRAME XSTACK, 16, STACK
        ARGFRAME IOVERLAY, 0, STATIC
        ARGFRAME DOVERLAY, 0, STATIC
        REQUIRE ?V0
        REQUIRE ?V1
        REQUIRE ?V2
        REQUIRE ?V3
        MOV       A,#-0xc
        LCALL     ?BANKED_ENTER_XDATA
          CFI DPH0 load(1, XDATA, add(CFA_XSP16, literal(-1)))
          CFI DPL0 load(1, XDATA, add(CFA_XSP16, literal(-2)))
          CFI ?BRET_EXT load(1, XDATA, add(CFA_XSP16, literal(-3)))
          CFI ?RET_HIGH load(1, XDATA, add(CFA_XSP16, literal(-4)))
          CFI ?RET_LOW load(1, XDATA, add(CFA_XSP16, literal(-5)))
          CFI R7 load(1, XDATA, add(CFA_XSP16, literal(-6)))
          CFI V3 load(1, XDATA, add(CFA_XSP16, literal(-7)))
          CFI V2 load(1, XDATA, add(CFA_XSP16, literal(-8)))
          CFI V1 load(1, XDATA, add(CFA_XSP16, literal(-9)))
          CFI V0 load(1, XDATA, add(CFA_XSP16, literal(-10)))
          CFI VB load(1, XDATA, add(CFA_XSP16, literal(-11)))
          CFI R6 load(1, XDATA, add(CFA_XSP16, literal(-12)))
          CFI CFA_SP SP+0
          CFI CFA_XSP16 add(XSP16, 12)
        ; Saved register size: 12
        ; Auto size: 0
        MOV       A,R2
        MOV       R6,A
        MOV       A,R3
        MOV       R7,A
//  634   afIncomingMSGPacket_t *MSGpkt;
//  635   (void)task_id;  // Intentionally unreferenced parameter
//  636 
//  637   //Send toggle every 500ms
//  638   if( events & SAMPLESW_TOGGLE_TEST_EVT )
        ANL       A,#0x10
        JZ        ??zclSampleSw_event_loop_0
//  639   {
//  640     osal_start_timerEx(zclSampleSw_TaskID,SAMPLESW_TOGGLE_TEST_EVT,500);
        ; Setup parameters for call to function osal_start_timerEx
        MOV       DPTR,#__Constant_1f4
        LCALL     ?PUSH_XSTACK8_X_FOUR
          CFI CFA_XSP16 add(XSP16, 16)
        MOV       R2,#0x0
        MOV       R3,#0x10
        MOV       DPTR,#zclSampleSw_TaskID
        MOVX      A,@DPTR
        MOV       R1,A
        LCALL     `??osal_start_timerEx::?relay`; Banked call to: osal_start_timerEx
        MOV       A,#0x4
        LCALL     ?DEALLOC_XSTACK8
          CFI CFA_XSP16 add(XSP16, 12)
//  641     zclGeneral_SendOnOff_CmdToggle( SAMPLESW_ENDPOINT, &zclSampleSw_DstAddr, FALSE, 0 );
        ; Setup parameters for call to function zcl_SendCommand
        CLR       A
        MOV       ?V0,A
        MOV       ?V1,A
        MOV       R0,#?V0
        LCALL     ?PUSH_XSTACK_I_TWO
          CFI CFA_XSP16 add(XSP16, 14)
        MOV       R0,#?V0
        LCALL     ?PUSH_XSTACK_I_TWO
          CFI CFA_XSP16 add(XSP16, 16)
        MOV       R0,#?V0
        LCALL     ?PUSH_XSTACK_I_ONE
          CFI CFA_XSP16 add(XSP16, 17)
        MOV       R0,#?V0
        LCALL     ?PUSH_XSTACK_I_TWO
          CFI CFA_XSP16 add(XSP16, 19)
        MOV       R0,#?V0
        LCALL     ?PUSH_XSTACK_I_ONE
          CFI CFA_XSP16 add(XSP16, 20)
        MOV       R0,#?V0
        LCALL     ?PUSH_XSTACK_I_ONE
          CFI CFA_XSP16 add(XSP16, 21)
        MOV       ?V0,#0x1
        MOV       R0,#?V0
        LCALL     ?PUSH_XSTACK_I_ONE
          CFI CFA_XSP16 add(XSP16, 22)
        MOV       ?V0,#0x2
        MOV       R0,#?V0
        LCALL     ?PUSH_XSTACK_I_ONE
          CFI CFA_XSP16 add(XSP16, 23)
        MOV       R4,#0x6
        MOV       R5,#0x0
        MOV       R2,#zclSampleSw_DstAddr & 0xff
        MOV       R3,#(zclSampleSw_DstAddr >> 8) & 0xff
        MOV       R1,#0x8
        LCALL     `??zcl_SendCommand::?relay`; Banked call to: zcl_SendCommand
        MOV       A,#0xb
        LCALL     ?DEALLOC_XSTACK8
          CFI CFA_XSP16 add(XSP16, 12)
//  642     
//  643     // return unprocessed events
//  644     return (events ^ SAMPLESW_TOGGLE_TEST_EVT);
        MOV       A,R6
        MOV       R2,A
        MOV       A,R7
        XRL       A,#0x10
        LJMP      ??zclSampleSw_event_loop_1 & 0xFFFF
//  645   }
//  646   
//  647   
//  648   if ( events & SYS_EVENT_MSG )
??zclSampleSw_event_loop_0:
        MOV       A,R7
        ANL       A,#0x80
        JNZ       ??zclSampleSw_event_loop_2
//  649   {
//  650     while ( (MSGpkt = (afIncomingMSGPacket_t *)osal_msg_receive( zclSampleSw_TaskID )) )
//  651     {
//  652       switch ( MSGpkt->hdr.event )
//  653       {
//  654         case AF_INCOMING_MSG_CMD:
//  655         zclSampleSw_AF_RxProc(MSGpkt);
//  656         break;
//  657 
//  658         case ZCL_INCOMING_MSG:
//  659           // Incoming ZCL Foundation command/response messages
//  660           zclSampleSw_ProcessIncomingMsg( (zclIncomingMsg_t *)MSGpkt );
//  661           break;
//  662 
//  663         case KEY_CHANGE:
//  664           zclSampleSw_HandleKeys( ((keyChange_t *)MSGpkt)->state, ((keyChange_t *)MSGpkt)->keys );
//  665           break;
//  666 
//  667         case ZDO_STATE_CHANGE:
//  668           UI_DeviceStateUpdated((devStates_t)(MSGpkt->hdr.status));
//  669           break;
//  670 
//  671 #if defined (OTA_CLIENT) && (OTA_CLIENT == TRUE)
//  672         case ZCL_OTA_CALLBACK_IND:
//  673           zclSampleSw_ProcessOTAMsgs( (zclOTA_CallbackMsg_t*)MSGpkt  );
//  674           break;
//  675 #endif
//  676 
//  677         default:
//  678           break;
//  679       }
//  680 
//  681       // Release the memory
//  682       osal_msg_deallocate( (uint8 *)MSGpkt );
//  683     }
//  684 
//  685     // return unprocessed events
//  686     return (events ^ SYS_EVENT_MSG);
//  687   }
//  688 
//  689 #if ZG_BUILD_ENDDEVICE_TYPE    
//  690   if ( events & SAMPLEAPP_END_DEVICE_REJOIN_EVT )
//  691   {
//  692     bdb_ZedAttemptRecoverNwk();
//  693     return ( events ^ SAMPLEAPP_END_DEVICE_REJOIN_EVT );
//  694   }
//  695 #endif
//  696   
//  697   if ( events & SAMPLEAPP_LCD_AUTO_UPDATE_EVT )
        MOV       A,R6
        ANL       A,#0x10
        JNZ       $+5
        LJMP      ??zclSampleSw_event_loop_3 & 0xFFFF
//  698   {
//  699     UI_UpdateLcd();
        ; Setup parameters for call to function UI_UpdateLcd
        LCALL     `??UI_UpdateLcd::?relay`; Banked call to: UI_UpdateLcd
//  700     return ( events ^ SAMPLEAPP_LCD_AUTO_UPDATE_EVT );
        MOV       A,R6
        XRL       A,#0x10
        LJMP      ??zclSampleSw_event_loop_4 & 0xFFFF
//  701   }
??zclSampleSw_event_loop_5:
        ; Setup parameters for call to function UI_DeviceStateUpdated
        INC       DPTR
        MOVX      A,@DPTR
        MOV       R1,A
        LCALL     `??UI_DeviceStateUpdated::?relay`; Banked call to: UI_DeviceStateUpdated
??zclSampleSw_event_loop_6:
        ; Setup parameters for call to function osal_msg_deallocate
        MOV       R2,?V0
        MOV       R3,?V1
        LCALL     `??osal_msg_deallocate::?relay`; Banked call to: osal_msg_deallocate
??zclSampleSw_event_loop_2:
        ; Setup parameters for call to function osal_msg_receive
        MOV       DPTR,#zclSampleSw_TaskID
        MOVX      A,@DPTR
        MOV       R1,A
        LCALL     `??osal_msg_receive::?relay`; Banked call to: osal_msg_receive
        MOV       ?V0,R2
        MOV       ?V1,R3
        MOV       A,R2
        ORL       A,?V1
        JNZ       $+5
        LJMP      ??zclSampleSw_event_loop_7 & 0xFFFF
        MOV       DPL,R2
        MOV       DPH,R3
        MOVX      A,@DPTR
        ADD       A,#-0x1a
        JZ        ??zclSampleSw_event_loop_8
        ADD       A,#-0x1a
        JZ        ??zclSampleSw_event_loop_9
        ADD       A,#0x74
        JZ        ??zclSampleSw_event_loop_10
        ADD       A,#-0x11
        JZ        ??zclSampleSw_event_loop_5
        SJMP      ??zclSampleSw_event_loop_6
??zclSampleSw_event_loop_8:
        INC       DPTR
        INC       DPTR
        INC       DPTR
        INC       DPTR
        MOVX      A,@DPTR
        MOV       ?V2,A
        INC       DPTR
        MOVX      A,@DPTR
        MOV       ?V3,A
        MOV       R0,#?V2
        LCALL     ?US_SWITCH_DENSE
`?<Jumptable for zclSampleSw_event_loop>_0`:
        DATA
        DATA16
        DATA
        DATA16
        DW        0
        DATA
        DATA8
        DATA
        DATA8
        DB        2
        DATA
        DATA16
        DATA
        DATA16
        DW        ??zclSampleSw_event_loop_6
        DATA
        DATA16
        DATA
        DATA16
        DW        ??zclSampleSw_event_loop_11
        DATA
        DATA16
        DATA
        DATA16
        DW        ??zclSampleSw_event_loop_12
        DATA
        DATA16
        DATA
        DATA16
        DW        ??zclSampleSw_event_loop_13
        CODE
??zclSampleSw_event_loop_13:
        MOV       DPTR,#??gcCnt
        MOVX      A,@DPTR
        INC       A
        MOVX      @DPTR,A
        ; Setup parameters for call to function HalLcdWriteStringValue
        MOV       ?V2,#0x4
        MOV       R0,#?V2
        LCALL     ?PUSH_XSTACK_I_ONE
          CFI CFA_XSP16 add(XSP16, 13)
        MOV       R1,#0xa
        MOV       DPTR,#??gcCnt
??zclSampleSw_event_loop_14:
        MOVX      A,@DPTR
        MOV       R4,A
        MOV       R5,#0x0
        MOV       A,R2
        ADD       A,#0x22
        MOV       DPL,A
        CLR       A
        ADDC      A,?V1
        MOV       DPH,A
        MOVX      A,@DPTR
        MOV       R2,A
        INC       DPTR
        MOVX      A,@DPTR
        MOV       R3,A
        LCALL     `??HalLcdWriteStringValue::?relay`; Banked call to: HalLcdWriteStringValue
        MOV       A,#0x1
        LCALL     ?DEALLOC_XSTACK8
          CFI CFA_XSP16 add(XSP16, 12)
        SJMP      ??zclSampleSw_event_loop_6
??zclSampleSw_event_loop_12:
        MOV       DPTR,#??bcCnt
        LCALL     ?Subroutine5 & 0xFFFF
??CrossCallReturnLabel_2:
        LCALL     ?PUSH_XSTACK_I_ONE
          CFI CFA_XSP16 add(XSP16, 13)
        MOV       R1,#0xa
        MOV       DPTR,#??bcCnt
        SJMP      ??zclSampleSw_event_loop_14
          CFI CFA_XSP16 add(XSP16, 12)
??zclSampleSw_event_loop_11:
        MOV       DPTR,#??p2pCnt
        LCALL     ?Subroutine5 & 0xFFFF
??CrossCallReturnLabel_3:
        LCALL     ?PUSH_XSTACK_I_ONE
          CFI CFA_XSP16 add(XSP16, 13)
        MOV       R1,#0xa
        MOV       DPTR,#??p2pCnt
        SJMP      ??zclSampleSw_event_loop_14
          CFI CFA_XSP16 add(XSP16, 12)
??zclSampleSw_event_loop_9:
        ; Setup parameters for call to function zclSampleSw_ProcessIncomingMsg
        LCALL     `??zclSampleSw_ProcessIncomingMsg::?relay`; Banked call to: zclSampleSw_ProcessIncomingMsg
        LJMP      ??zclSampleSw_event_loop_6 & 0xFFFF
??zclSampleSw_event_loop_10:
        ; Setup parameters for call to function UI_MainStateMachine
        INC       DPTR
        INC       DPTR
        INC       DPTR
        MOVX      A,@DPTR
        MOV       R2,A
        MOV       R3,#0x0
        LCALL     `??UI_MainStateMachine::?relay`; Banked call to: UI_MainStateMachine
        LJMP      ??zclSampleSw_event_loop_6 & 0xFFFF
??zclSampleSw_event_loop_7:
        MOV       A,R6
        MOV       R2,A
        MOV       A,R7
        XRL       A,#0x80
        SJMP      ??zclSampleSw_event_loop_1
//  702 
//  703   if ( events & SAMPLEAPP_KEY_AUTO_REPEAT_EVT )
??zclSampleSw_event_loop_3:
        MOV       A,R6
        ANL       A,#0x20
        JZ        ??zclSampleSw_event_loop_15
//  704   {
//  705     UI_MainStateMachine(UI_KEY_AUTO_PRESSED);
        ; Setup parameters for call to function UI_MainStateMachine
        MOV       R2,#-0x1
        MOV       R3,#-0x1
        LCALL     `??UI_MainStateMachine::?relay`; Banked call to: UI_MainStateMachine
//  706     return ( events ^ SAMPLEAPP_KEY_AUTO_REPEAT_EVT );
        MOV       A,R6
        XRL       A,#0x20
        SJMP      ??zclSampleSw_event_loop_4
//  707   }
//  708   // Discard unknown events
//  709   
//  710 #ifdef ZDO_COORDINATOR
//  711   if ( events & SAMPLEAPP_READ_EVT )//如是读命令事件
//  712   {
//  713     zclSampleSw_ReadTest();//读命令事件处理函数
//  714     
//  715     //启动一个写命令事件
//  716     osal_start_timerEx(zclSampleSw_TaskID, 
//  717                        SAMPLEAPP_WRITE_EVT, 
//  718                        SAMPLEAPP_WRITE_PERIOD);
//  719     
//  720     return ( events ^ SAMPLEAPP_READ_EVT );
//  721   }
//  722   if ( events & SAMPLEAPP_WRITE_EVT )//如果是写命令事件
//  723   {
//  724     zclSampleSw_WriteTest();//写命令处理函数
//  725     
//  726     osal_start_timerEx(zclSampleSw_TaskID,//启动一个读命令事件
//  727                        SAMPLEAPP_READ_EVT, 
//  728                        SAMPLEAPP_READ_PERIOD);
//  729     
//  730     return ( events ^ SAMPLEAPP_WRITE_EVT );
//  731   }
//  732   // Broadcast event
//  733   if ( events & SAMPLEAPP_BROADCAST_EVT )
//  734   {
//  735     zclSampleSw_AF_Broadcast(CLUSTER_BROADCAST,
//  736                              10, "Broadcast");
//  737     
//  738     osal_start_timerEx(zclSampleSw_TaskID, 
//  739                      SAMPLEAPP_BROADCAST_EVT, 
//  740                      SAMPLEAPP_BROADCAST_PERIOD);
//  741     
//  742     return ( events ^ SAMPLEAPP_BROADCAST_EVT );
//  743   }
//  744   
//  745   // Groupcast event
//  746   if ( events & SAMPLEAPP_GROUPCAST_EVT )
//  747   {
//  748     zclSampleSw_AF_Groupcast(GROUP_ID,
//  749                              CLUSTER_GROUPCAST,
//  750                              10, "Groupcast");
//  751     
//  752     osal_start_timerEx(zclSampleSw_TaskID, 
//  753                      SAMPLEAPP_GROUPCAST_EVT, 
//  754                      SAMPLEAPP_GROUPCAST_PERIOD);
//  755     
//  756     return ( events ^ SAMPLEAPP_GROUPCAST_EVT );
//  757   }
//  758 
//  759 #else
//  760   if ( events & SAMPLEAPP_REJOIN_EVT )//如果事件类型为重新加入网络事件
??zclSampleSw_event_loop_15:
        MOV       A,R7
        ANL       A,#0x1
        JZ        ??zclSampleSw_event_loop_16
//  761   {
//  762        /* 重新加入网络 */
//  763        bdb_StartCommissioning(BDB_COMMISSIONING_MODE_NWK_STEERING |
//  764                                    BDB_COMMISSIONING_MODE_FINDING_BINDING );
        ; Setup parameters for call to function bdb_StartCommissioning
        MOV       R1,#0xa
        LCALL     `??bdb_StartCommissioning::?relay`; Banked call to: bdb_StartCommissioning
//  765     
//  766     return ( events ^ SAMPLEAPP_REJOIN_EVT );
        MOV       A,R6
        MOV       R2,A
        MOV       A,R7
        XRL       A,#0x1
        SJMP      ??zclSampleSw_event_loop_1
//  767   }
//  768     // P2P Event
//  769   if ( events & SAMPLEAPP_P2P_EVT )
//  770   {
//  771     zclSampleSw_AF_P2P(0x0000,
//  772                        CLUSTER_P2P,
//  773                        4, "P2P");
//  774     
//  775     osal_start_timerEx(zclSampleSw_TaskID, 
//  776                      SAMPLEAPP_P2P_EVT, 
//  777                      SAMPLEAPP_P2P_PERIOD);
//  778     
//  779     return ( events ^ SAMPLEAPP_P2P_EVT );
//  780   }
//  781   if ( events & SAMPLEAPP_REPORT_EVT )
??zclSampleSw_event_loop_16:
        MOV       A,R6
        ANL       A,#0x40
        JZ        ??zclSampleSw_event_loop_17
//  782     {
//  783         zclSampleSw_ReportTest();//属性上报事件的处理函数
        ; Setup parameters for call to function zclSampleSw_ReportTest
        LCALL     `??zclSampleSw_ReportTest::?relay`; Banked call to: zclSampleSw_ReportTest
//  784     
//  785         //启动下一个属性上报事件
//  786         osal_start_timerEx(zclSampleSw_TaskID,
//  787                      SAMPLEAPP_REPORT_EVT, 
//  788                      SAMPLEAPP_REPORT_PERIOD);
        ; Setup parameters for call to function osal_start_timerEx
        MOV       DPTR,#__Constant_bb8
        LCALL     ?PUSH_XSTACK8_X_FOUR
          CFI CFA_XSP16 add(XSP16, 16)
        MOV       R2,#0x40
        MOV       R3,#0x0
        MOV       DPTR,#zclSampleSw_TaskID
        MOVX      A,@DPTR
        MOV       R1,A
        LCALL     `??osal_start_timerEx::?relay`; Banked call to: osal_start_timerEx
        MOV       A,#0x4
        LCALL     ?DEALLOC_XSTACK8
          CFI CFA_XSP16 add(XSP16, 12)
//  789       
//  790       return ( events ^ SAMPLEAPP_REPORT_EVT );
        MOV       A,R6
        XRL       A,#0x40
??zclSampleSw_event_loop_4:
        MOV       R2,A
        MOV       A,R7
??zclSampleSw_event_loop_1:
        MOV       R3,A
        SJMP      ??zclSampleSw_event_loop_18
//  791   }
//  792 #endif
//  793   return 0;
??zclSampleSw_event_loop_17:
        MOV       R2,#0x0
        MOV       R3,#0x0
??zclSampleSw_event_loop_18:
        LJMP      ?Subroutine0 & 0xFFFF
//  794 }
          CFI EndBlock cfiBlock4

        RSEG BANKED_CODE:HUGECODE:NOROOT(0)
?Subroutine5:
          CFI Block cfiCond5 Using cfiCommon0
          CFI Function zclSampleSw_event_loop
          CFI Conditional ??CrossCallReturnLabel_2
          CFI R6 load(1, XDATA, add(CFA_XSP16, literal(-12)))
          CFI VB load(1, XDATA, add(CFA_XSP16, literal(-11)))
          CFI V0 load(1, XDATA, add(CFA_XSP16, literal(-10)))
          CFI V1 load(1, XDATA, add(CFA_XSP16, literal(-9)))
          CFI V2 load(1, XDATA, add(CFA_XSP16, literal(-8)))
          CFI V3 load(1, XDATA, add(CFA_XSP16, literal(-7)))
          CFI R7 load(1, XDATA, add(CFA_XSP16, literal(-6)))
          CFI ?RET_LOW load(1, XDATA, add(CFA_XSP16, literal(-5)))
          CFI ?RET_HIGH load(1, XDATA, add(CFA_XSP16, literal(-4)))
          CFI ?BRET_EXT load(1, XDATA, add(CFA_XSP16, literal(-3)))
          CFI DPL0 load(1, XDATA, add(CFA_XSP16, literal(-2)))
          CFI DPH0 load(1, XDATA, add(CFA_XSP16, literal(-1)))
          CFI CFA_SP SP+-2
          CFI CFA_XSP16 add(XSP16, 12)
          CFI Block cfiCond6 Using cfiCommon0
          CFI (cfiCond6) Function zclSampleSw_event_loop
          CFI (cfiCond6) Conditional ??CrossCallReturnLabel_3
          CFI (cfiCond6) R6 load(1, XDATA, add(CFA_XSP16, literal(-12)))
          CFI (cfiCond6) VB load(1, XDATA, add(CFA_XSP16, literal(-11)))
          CFI (cfiCond6) V0 load(1, XDATA, add(CFA_XSP16, literal(-10)))
          CFI (cfiCond6) V1 load(1, XDATA, add(CFA_XSP16, literal(-9)))
          CFI (cfiCond6) V2 load(1, XDATA, add(CFA_XSP16, literal(-8)))
          CFI (cfiCond6) V3 load(1, XDATA, add(CFA_XSP16, literal(-7)))
          CFI (cfiCond6) R7 load(1, XDATA, add(CFA_XSP16, literal(-6)))
          CFI (cfiCond6) ?RET_LOW load(1, XDATA, add(CFA_XSP16, literal(-5)))
          CFI (cfiCond6) ?RET_HIGH load(1, XDATA, add(CFA_XSP16, literal(-4)))
          CFI (cfiCond6) ?BRET_EXT load(1, XDATA, add(CFA_XSP16, literal(-3)))
          CFI (cfiCond6) DPL0 load(1, XDATA, add(CFA_XSP16, literal(-2)))
          CFI (cfiCond6) DPH0 load(1, XDATA, add(CFA_XSP16, literal(-1)))
          CFI (cfiCond6) CFA_SP SP+-2
          CFI (cfiCond6) CFA_XSP16 add(XSP16, 12)
          CFI Block cfiPicker7 Using cfiCommon1
          CFI (cfiPicker7) NoFunction
          CFI (cfiPicker7) Picker
        MOVX      A,@DPTR
        INC       A
        MOVX      @DPTR,A
        ; Setup parameters for call to function HalLcdWriteStringValue
        ; Setup parameters for call to function HalLcdWriteStringValue
        MOV       ?V2,#0x3
        MOV       R0,#?V2
        RET
          CFI EndBlock cfiCond5
          CFI EndBlock cfiCond6
          CFI EndBlock cfiPicker7
//  795 
//  796 /*********************************************************************
//  797  * @fn      zclSampleSw_HandleKeys
//  798  *
//  799  * @brief   Handles all key events for this device.
//  800  *
//  801  * @param   shift - true if in shift/alt.
//  802  * @param   keys - bit field for key events. Valid entries:
//  803  *                 HAL_KEY_SW_5
//  804  *                 HAL_KEY_SW_4
//  805  *                 HAL_KEY_SW_2
//  806  *                 HAL_KEY_SW_1
//  807  *
//  808  * @return  none
//  809  */
//  810 static void zclSampleSw_HandleKeys( byte shift, byte keys )
//  811 {
//  812   UI_MainStateMachine(keys);
//  813 }
//  814 
//  815 
//  816 /*********************************************************************
//  817  * @fn      zclSampleSw_ProcessCommissioningStatus
//  818  *
//  819  * @brief   Callback in which the status of the commissioning process are reported
//  820  *
//  821  * @param   bdbCommissioningModeMsg - Context message of the status of a commissioning process
//  822  *
//  823  * @return  none
//  824  */
//  825 #include <stdio.h>

        RSEG BANKED_CODE:HUGECODE:NOROOT(0)
//  826 static void zclSampleSw_ProcessCommissioningStatus(bdbCommissioningModeMsg_t *bdbCommissioningModeMsg)
zclSampleSw_ProcessCommissioningStatus:
          CFI Block cfiBlock8 Using cfiCommon0
          CFI Function zclSampleSw_ProcessCommissioningStatus
        CODE
//  827 {
        FUNCALL zclSampleSw_ProcessCommissioningStatus, bdb_StartCommissioning
        LOCFRAME ISTACK, 0, STACK
        LOCFRAME PSTACK, 0, STACK
        LOCFRAME XSTACK, 10, STACK
        LOCFRAME IOVERLAY, 0, STATIC
        LOCFRAME DOVERLAY, 0, STATIC
        ARGFRAME ISTACK, 0, STACK
        ARGFRAME PSTACK, 0, STACK
        ARGFRAME XSTACK, 10, STACK
        ARGFRAME IOVERLAY, 0, STATIC
        ARGFRAME DOVERLAY, 0, STATIC
        FUNCALL zclSampleSw_ProcessCommissioningStatus, printf
        LOCFRAME ISTACK, 0, STACK
        LOCFRAME PSTACK, 0, STACK
        LOCFRAME XSTACK, 10, STACK
        LOCFRAME IOVERLAY, 0, STATIC
        LOCFRAME DOVERLAY, 0, STATIC
        ARGFRAME ISTACK, 0, STACK
        ARGFRAME PSTACK, 0, STACK
        ARGFRAME XSTACK, 10, STACK
        ARGFRAME IOVERLAY, 0, STATIC
        ARGFRAME DOVERLAY, 0, STATIC
        FUNCALL zclSampleSw_ProcessCommissioningStatus, printf
        LOCFRAME ISTACK, 0, STACK
        LOCFRAME PSTACK, 0, STACK
        LOCFRAME XSTACK, 10, STACK
        LOCFRAME IOVERLAY, 0, STATIC
        LOCFRAME DOVERLAY, 0, STATIC
        ARGFRAME ISTACK, 0, STACK
        ARGFRAME PSTACK, 0, STACK
        ARGFRAME XSTACK, 10, STACK
        ARGFRAME IOVERLAY, 0, STATIC
        ARGFRAME DOVERLAY, 0, STATIC
        FUNCALL zclSampleSw_ProcessCommissioningStatus, osal_start_timerEx
        LOCFRAME ISTACK, 0, STACK
        LOCFRAME PSTACK, 0, STACK
        LOCFRAME XSTACK, 14, STACK
        LOCFRAME IOVERLAY, 0, STATIC
        LOCFRAME DOVERLAY, 0, STATIC
        ARGFRAME ISTACK, 0, STACK
        ARGFRAME PSTACK, 0, STACK
        ARGFRAME XSTACK, 14, STACK
        ARGFRAME IOVERLAY, 0, STATIC
        ARGFRAME DOVERLAY, 0, STATIC
        FUNCALL zclSampleSw_ProcessCommissioningStatus, UI_UpdateComissioningStatus
        LOCFRAME ISTACK, 0, STACK
        LOCFRAME PSTACK, 0, STACK
        LOCFRAME XSTACK, 10, STACK
        LOCFRAME IOVERLAY, 0, STATIC
        LOCFRAME DOVERLAY, 0, STATIC
        ARGFRAME ISTACK, 0, STACK
        ARGFRAME PSTACK, 0, STACK
        ARGFRAME XSTACK, 10, STACK
        ARGFRAME IOVERLAY, 0, STATIC
        ARGFRAME DOVERLAY, 0, STATIC
        REQUIRE ?V0
        REQUIRE ?V1
        MOV       A,#-0xa
        LCALL     ?BANKED_ENTER_XDATA
          CFI DPH0 load(1, XDATA, add(CFA_XSP16, literal(-1)))
          CFI DPL0 load(1, XDATA, add(CFA_XSP16, literal(-2)))
          CFI ?BRET_EXT load(1, XDATA, add(CFA_XSP16, literal(-3)))
          CFI ?RET_HIGH load(1, XDATA, add(CFA_XSP16, literal(-4)))
          CFI ?RET_LOW load(1, XDATA, add(CFA_XSP16, literal(-5)))
          CFI R7 load(1, XDATA, add(CFA_XSP16, literal(-6)))
          CFI V1 load(1, XDATA, add(CFA_XSP16, literal(-7)))
          CFI V0 load(1, XDATA, add(CFA_XSP16, literal(-8)))
          CFI VB load(1, XDATA, add(CFA_XSP16, literal(-9)))
          CFI R6 load(1, XDATA, add(CFA_XSP16, literal(-10)))
          CFI CFA_SP SP+0
          CFI CFA_XSP16 add(XSP16, 10)
        ; Saved register size: 10
        ; Auto size: 0
        MOV       A,R2
        MOV       R6,A
        MOV       A,R3
        MOV       R7,A
//  828   switch(bdbCommissioningModeMsg->bdbCommissioningMode)
        MOV       ?V0,#`?<Constant "successful, 202211672...">` & 0xff
        MOV       ?V1,#(`?<Constant "successful, 202211672...">` >> 8) & 0xff
        MOV       DPL,R6
        MOV       DPH,R7
        INC       DPTR
        MOVX      A,@DPTR
        DEC       A
        JZ        ??zclSampleSw_ProcessCommissioningStatus_0
        DEC       A
        JZ        ??zclSampleSw_ProcessCommissioningStatus_1
        DEC       A
        JZ        ??zclSampleSw_ProcessCommissioningStatus_2
        SJMP      ??zclSampleSw_ProcessCommissioningStatus_3
//  829   {
//  830     case BDB_COMMISSIONING_FORMATION:
//  831       if(bdbCommissioningModeMsg->bdbCommissioningStatus == BDB_COMMISSIONING_SUCCESS)
??zclSampleSw_ProcessCommissioningStatus_1:
        MOV       DPL,R6
        MOV       DPH,R7
        MOVX      A,@DPTR
        JNZ       ??zclSampleSw_ProcessCommissioningStatus_4
//  832       {
//  833         //After formation, perform nwk steering again plus the remaining commissioning modes that has not been processed yet
//  834         bdb_StartCommissioning(BDB_COMMISSIONING_MODE_NWK_STEERING | bdbCommissioningModeMsg->bdbRemainingCommissioningModes);
        ; Setup parameters for call to function bdb_StartCommissioning
        INC       DPTR
        INC       DPTR
        MOVX      A,@DPTR
        ORL       A,#0x2
        MOV       R1,A
        LCALL     `??bdb_StartCommissioning::?relay`; Banked call to: bdb_StartCommissioning
//  835         printf("successful, 202211672332, 周世盛");
        ; Setup parameters for call to function printf
        SJMP      ??zclSampleSw_ProcessCommissioningStatus_5
//  836       }
//  837       else
//  838       {
//  839         //printf("faild");
//  840         /* 协调器 */
//  841         #ifdef ZDO_COORDINATOR
//  842         /* 路由器或者终端 */
//  843         #else
//  844             /* 启动重新加入事件 */
//  845         osal_start_timerEx(zclSampleSw_TaskID, 
//  846                                    SAMPLEAPP_REJOIN_EVT, 
//  847                                    SAMPLEAPP_REJOIN_PERIOD);
//  848         #endif
//  849 
//  850         //Want to try other channels?
//  851         //try with bdb_setChannelAttribute
//  852       }
//  853     break;
//  854     case BDB_COMMISSIONING_NWK_STEERING:
//  855       if(bdbCommissioningModeMsg->bdbCommissioningStatus == BDB_COMMISSIONING_SUCCESS)
??zclSampleSw_ProcessCommissioningStatus_0:
        MOV       DPL,R6
        MOV       DPH,R7
        MOVX      A,@DPTR
        JNZ       ??zclSampleSw_ProcessCommissioningStatus_4
//  856       {
//  857         printf("successful, 202211672332, 周世盛");
        ; Setup parameters for call to function printf
??zclSampleSw_ProcessCommissioningStatus_5:
        MOV       R2,?V0
        MOV       R3,?V1
        LCALL     `??printf::?relay`; Banked call to: printf
        SJMP      ??zclSampleSw_ProcessCommissioningStatus_3
//  858         //YOUR JOB:
//  859         //We are on the nwk, what now?
//  860       }
//  861       else
//  862       {
//  863         /* 协调器 */
//  864         #ifdef ZDO_COORDINATOR
//  865         /* 路由器或者终端 */
//  866         #else
//  867         /* 启动重新加入事件 */
//  868         osal_start_timerEx(zclSampleSw_TaskID, 
//  869                            SAMPLEAPP_REJOIN_EVT, 
//  870                            SAMPLEAPP_REJOIN_PERIOD);
//  871         #endif
//  872 
//  873         //See the possible errors for nwk steering procedure
//  874         //No suitable networks found
//  875         //Want to try other channels?
//  876         //try with bdb_setChannelAttribute
//  877       }
//  878     break;
//  879     case BDB_COMMISSIONING_FINDING_BINDING:
//  880       if(bdbCommissioningModeMsg->bdbCommissioningStatus == BDB_COMMISSIONING_SUCCESS)
??zclSampleSw_ProcessCommissioningStatus_2:
        MOV       DPL,R6
        MOV       DPH,R7
        MOVX      A,@DPTR
        JZ        ??zclSampleSw_ProcessCommissioningStatus_3
//  881       {
//  882         //YOUR JOB:
//  883       }
//  884       else
//  885       {
//  886         /* 协调器 */
//  887         #ifdef ZDO_COORDINATOR
//  888         /* 路由器或者终端 */
//  889         #else
//  890             /* 启动重新加入事件 */
//  891         osal_start_timerEx(zclSampleSw_TaskID, 
//  892                                    SAMPLEAPP_REJOIN_EVT, 
//  893                                    SAMPLEAPP_REJOIN_PERIOD);
??zclSampleSw_ProcessCommissioningStatus_4:
        ; Setup parameters for call to function osal_start_timerEx
        MOV       DPTR,#__Constant_3e8
        LCALL     ?PUSH_XSTACK8_X_FOUR
          CFI CFA_XSP16 add(XSP16, 14)
        MOV       R2,#0x0
        MOV       R3,#0x1
        MOV       DPTR,#zclSampleSw_TaskID
        MOVX      A,@DPTR
        MOV       R1,A
        LCALL     `??osal_start_timerEx::?relay`; Banked call to: osal_start_timerEx
        MOV       A,#0x4
        LCALL     ?DEALLOC_XSTACK8
          CFI CFA_XSP16 add(XSP16, 10)
//  894         #endif
//  895 
//  896         //YOUR JOB:
//  897         //retry?, wait for user interaction?
//  898       }
//  899     break;
//  900     case BDB_COMMISSIONING_INITIALIZATION:
//  901       //Initialization notification can only be successful. Failure on initialization 
//  902       //only happens for ZED and is notified as BDB_COMMISSIONING_PARENT_LOST notification
//  903       
//  904       //YOUR JOB:
//  905       //We are on a network, what now?
//  906       
//  907     break;
//  908 #if ZG_BUILD_ENDDEVICE_TYPE    
//  909     case BDB_COMMISSIONING_PARENT_LOST:
//  910       if(bdbCommissioningModeMsg->bdbCommissioningStatus == BDB_COMMISSIONING_NETWORK_RESTORED)
//  911       {
//  912         //We did recover from losing parent
//  913       }
//  914       else
//  915       {
//  916         //Parent not found, attempt to rejoin again after a fixed delay
//  917         osal_start_timerEx(zclSampleSw_TaskID, SAMPLEAPP_END_DEVICE_REJOIN_EVT, SAMPLEAPP_END_DEVICE_REJOIN_DELAY);
//  918       }
//  919     break;
//  920 #endif 
//  921   }
//  922   
//  923   UI_UpdateComissioningStatus(bdbCommissioningModeMsg);
??zclSampleSw_ProcessCommissioningStatus_3:
        ; Setup parameters for call to function UI_UpdateComissioningStatus
        MOV       A,R6
        MOV       R2,A
        MOV       A,R7
        MOV       R3,A
        LCALL     `??UI_UpdateComissioningStatus::?relay`; Banked call to: UI_UpdateComissioningStatus
//  924 }
        LJMP      ?Subroutine1 & 0xFFFF
          CFI EndBlock cfiBlock8
//  925 
//  926 /*********************************************************************
//  927  * @fn      zclSampleSw_BasicResetCB
//  928  *
//  929  * @brief   Callback from the ZCL General Cluster Library
//  930  *          to set all the Basic Cluster attributes to  default values.
//  931  *
//  932  * @param   none
//  933  *
//  934  * @return  none
//  935  */

        RSEG BANKED_CODE:HUGECODE:NOROOT(0)
//  936 static void zclSampleSw_BasicResetCB( void )
zclSampleSw_BasicResetCB:
          CFI Block cfiBlock9 Using cfiCommon0
          CFI Function zclSampleSw_BasicResetCB
        CODE
//  937 {
        FUNCALL zclSampleSw_BasicResetCB, zclSampleSw_ResetAttributesToDefaultValues
        LOCFRAME ISTACK, 2, STACK
        LOCFRAME PSTACK, 0, STACK
        LOCFRAME XSTACK, 0, STACK
        LOCFRAME IOVERLAY, 0, STATIC
        LOCFRAME DOVERLAY, 0, STATIC
        ARGFRAME ISTACK, 2, STACK
        ARGFRAME PSTACK, 0, STACK
        ARGFRAME XSTACK, 0, STACK
        ARGFRAME IOVERLAY, 0, STATIC
        ARGFRAME DOVERLAY, 0, STATIC
        FUNCALL zclSampleSw_BasicResetCB, UI_UpdateLcd
        LOCFRAME ISTACK, 2, STACK
        LOCFRAME PSTACK, 0, STACK
        LOCFRAME XSTACK, 0, STACK
        LOCFRAME IOVERLAY, 0, STATIC
        LOCFRAME DOVERLAY, 0, STATIC
        ARGFRAME ISTACK, 2, STACK
        ARGFRAME PSTACK, 0, STACK
        ARGFRAME XSTACK, 0, STACK
        ARGFRAME IOVERLAY, 0, STATIC
        ARGFRAME DOVERLAY, 0, STATIC
        PUSH      DPL
          CFI DPL0 Frame(CFA_SP, 4)
          CFI CFA_SP SP+-4
        PUSH      DPH
          CFI DPH0 Frame(CFA_SP, 5)
          CFI CFA_SP SP+-5
        ; Saved register size: 2
        ; Auto size: 0
//  938   zclSampleSw_ResetAttributesToDefaultValues();
        ; Setup parameters for call to function zclSampleSw_ResetAttributesToDefaultValues
        LCALL     `??zclSampleSw_ResetAttributesToDefaultValues::?`; Banked call to: zclSampleSw_ResetAttributesToDefaultValues
//  939 
//  940   // update the display
//  941   UI_UpdateLcd( ); 
        ; Setup parameters for call to function UI_UpdateLcd
        LCALL     `??UI_UpdateLcd::?relay`; Banked call to: UI_UpdateLcd
//  942 }
          CFI EndBlock cfiBlock9
        REQUIRE ?Subroutine2
        ; // Fall through to label ?Subroutine2

        RSEG BANKED_CODE:HUGECODE:NOROOT(0)
?Subroutine2:
          CFI Block cfiBlock10 Using cfiCommon0
          CFI NoFunction
          CFI CFA_SP SP+-5
          CFI DPL0 Frame(CFA_SP, 4)
          CFI DPH0 Frame(CFA_SP, 5)
        POP       DPH
          CFI CFA_SP SP+-4
          CFI DPH0 SameValue
        POP       DPL
          CFI CFA_SP SP+-3
          CFI DPL0 SameValue
        LJMP      ?BRET
          CFI EndBlock cfiBlock10
//  943 
//  944 /*********************************************************************
//  945  * @fn      zclSampleApp_BatteryWarningCB
//  946  *
//  947  * @brief   Called to handle battery-low situation.
//  948  *
//  949  * @param   voltLevel - level of severity
//  950  *
//  951  * @return  none
//  952  */

        RSEG BANKED_CODE:HUGECODE:NOROOT(0)
//  953 void zclSampleApp_BatteryWarningCB( uint8 voltLevel )
zclSampleApp_BatteryWarningCB:
          CFI Block cfiBlock11 Using cfiCommon0
          CFI Function zclSampleApp_BatteryWarningCB
        CODE
//  954 {
        ; Saved register size: 0
        ; Auto size: 0
//  955   if ( voltLevel == VOLT_LEVEL_CAUTIOUS )
//  956   {
//  957     // Send warning message to the gateway and blink LED
//  958   }
//  959   else if ( voltLevel == VOLT_LEVEL_BAD )
//  960   {
//  961     // Shut down the system
//  962   }
//  963 }
        LJMP      ?BRET
          CFI EndBlock cfiBlock11
//  964 
//  965 /******************************************************************************
//  966  *
//  967  *  Functions for processing ZCL Foundation incoming Command/Response messages
//  968  *
//  969  *****************************************************************************/
//  970 
//  971 /*********************************************************************
//  972  * @fn      zclSampleSw_ProcessIncomingMsg
//  973  *
//  974  * @brief   Process ZCL Foundation incoming message
//  975  *
//  976  * @param   pInMsg - pointer to the received message
//  977  *
//  978  * @return  none
//  979  */
//  980 #ifdef ZCL_REPORT  
//  981 static uint8 zclSampleSw_ProcessInReportCmd( zclIncomingMsg_t *pInMsg )  
//  982 {  
//  983     zclReportCmd_t *reportCmd;  
//  984     uint8 i;  
//  985 
//  986     reportCmd = (zclReportCmd_t *)pInMsg->attrCmd;  
//  987 
//  988     for ( i = 0; i < reportCmd->numAttr; i++ )//reportCmd->numAttr为属性数量
//  989     {  
//  990          if( pInMsg->clusterId == ZCL_CLUSTER_ID_GEN_ON_OFF_SWITCH_CONFIG//Cluster ID
//  991 && reportCmd->attrList[i].attrID == ATTRID_ON_OFF_SWITCH_TYPE)//属性ID
//  992         {  
//  993             int8 attrDat = *(reportCmd->attrList[i].attrData);//读取属性值
//  994             HalLcdWriteStringValue("Rx Value:", attrDat, 10, 4);//显示属性值
//  995         }  
//  996     }  
//  997     return ( TRUE );  
//  998 }  
//  999 #endif // ZCL_REPORT

        RSEG BANKED_CODE:HUGECODE:NOROOT(0)
// 1000 static void zclSampleSw_ProcessIncomingMsg( zclIncomingMsg_t *pInMsg )
zclSampleSw_ProcessIncomingMsg:
          CFI Block cfiBlock12 Using cfiCommon0
          CFI Function zclSampleSw_ProcessIncomingMsg
        CODE
// 1001 {
        FUNCALL zclSampleSw_ProcessIncomingMsg, HalLcdWriteStringValue
        LOCFRAME ISTACK, 0, STACK
        LOCFRAME PSTACK, 0, STACK
        LOCFRAME XSTACK, 15, STACK
        LOCFRAME IOVERLAY, 0, STATIC
        LOCFRAME DOVERLAY, 0, STATIC
        ARGFRAME ISTACK, 0, STACK
        ARGFRAME PSTACK, 0, STACK
        ARGFRAME XSTACK, 15, STACK
        ARGFRAME IOVERLAY, 0, STATIC
        ARGFRAME DOVERLAY, 0, STATIC
        FUNCALL zclSampleSw_ProcessIncomingMsg, zclSampleSw_ProcessInDiscCmdsRspCmd
        LOCFRAME ISTACK, 0, STACK
        LOCFRAME PSTACK, 0, STACK
        LOCFRAME XSTACK, 14, STACK
        LOCFRAME IOVERLAY, 0, STATIC
        LOCFRAME DOVERLAY, 0, STATIC
        ARGFRAME ISTACK, 0, STACK
        ARGFRAME PSTACK, 0, STACK
        ARGFRAME XSTACK, 14, STACK
        ARGFRAME IOVERLAY, 0, STATIC
        ARGFRAME DOVERLAY, 0, STATIC
        FUNCALL zclSampleSw_ProcessIncomingMsg, zclSampleSw_ProcessInDiscCmdsRspCmd
        LOCFRAME ISTACK, 0, STACK
        LOCFRAME PSTACK, 0, STACK
        LOCFRAME XSTACK, 14, STACK
        LOCFRAME IOVERLAY, 0, STATIC
        LOCFRAME DOVERLAY, 0, STATIC
        ARGFRAME ISTACK, 0, STACK
        ARGFRAME PSTACK, 0, STACK
        ARGFRAME XSTACK, 14, STACK
        ARGFRAME IOVERLAY, 0, STATIC
        ARGFRAME DOVERLAY, 0, STATIC
        FUNCALL zclSampleSw_ProcessIncomingMsg, osal_mem_free
        LOCFRAME ISTACK, 0, STACK
        LOCFRAME PSTACK, 0, STACK
        LOCFRAME XSTACK, 14, STACK
        LOCFRAME IOVERLAY, 0, STATIC
        LOCFRAME DOVERLAY, 0, STATIC
        ARGFRAME ISTACK, 0, STACK
        ARGFRAME PSTACK, 0, STACK
        ARGFRAME XSTACK, 14, STACK
        ARGFRAME IOVERLAY, 0, STATIC
        ARGFRAME DOVERLAY, 0, STATIC
        REQUIRE ?V0
        REQUIRE ?V1
        REQUIRE ?V2
        REQUIRE ?V3
        REQUIRE ?V4
        REQUIRE ?V5
        MOV       A,#-0xe
        LCALL     ?BANKED_ENTER_XDATA
          CFI DPH0 load(1, XDATA, add(CFA_XSP16, literal(-1)))
          CFI DPL0 load(1, XDATA, add(CFA_XSP16, literal(-2)))
          CFI ?BRET_EXT load(1, XDATA, add(CFA_XSP16, literal(-3)))
          CFI ?RET_HIGH load(1, XDATA, add(CFA_XSP16, literal(-4)))
          CFI ?RET_LOW load(1, XDATA, add(CFA_XSP16, literal(-5)))
          CFI R7 load(1, XDATA, add(CFA_XSP16, literal(-6)))
          CFI V5 load(1, XDATA, add(CFA_XSP16, literal(-7)))
          CFI V4 load(1, XDATA, add(CFA_XSP16, literal(-8)))
          CFI V3 load(1, XDATA, add(CFA_XSP16, literal(-9)))
          CFI V2 load(1, XDATA, add(CFA_XSP16, literal(-10)))
          CFI V1 load(1, XDATA, add(CFA_XSP16, literal(-11)))
          CFI V0 load(1, XDATA, add(CFA_XSP16, literal(-12)))
          CFI VB load(1, XDATA, add(CFA_XSP16, literal(-13)))
          CFI R6 load(1, XDATA, add(CFA_XSP16, literal(-14)))
          CFI CFA_SP SP+0
          CFI CFA_XSP16 add(XSP16, 14)
        ; Saved register size: 14
        ; Auto size: 0
        MOV       A,R2
        MOV       R6,A
        MOV       A,R3
        MOV       R7,A
// 1002   switch ( pInMsg->zclHdr.commandID )
        MOV       A,R6
        ADD       A,#0x17
        MOV       ?V0,A
        CLR       A
        ADDC      A,R7
        MOV       ?V1,A
        MOV       DPL,R6
        MOV       DPH,R7
        INC       DPTR
        INC       DPTR
        INC       DPTR
        INC       DPTR
        INC       DPTR
        INC       DPTR
        INC       DPTR
        MOVX      A,@DPTR
        DEC       A
        JZ        ??zclSampleSw_ProcessIncomingMsg_0
        ADD       A,#-0x3
        JNZ       $+5
        LJMP      ??zclSampleSw_ProcessIncomingMsg_1 & 0xFFFF
        ADD       A,#-0x9
        JNZ       $+5
        LJMP      ??zclSampleSw_ProcessIncomingMsg_2 & 0xFFFF
        ADD       A,#-0x5
        JNZ       $+5
        LJMP      ??zclSampleSw_ProcessIncomingMsg_3 & 0xFFFF
        ADD       A,#-0x2
        JNZ       $+5
        LJMP      ??zclSampleSw_ProcessIncomingMsg_3 & 0xFFFF
        ADD       A,#-0x2
        JNZ       $+5
        LJMP      ??zclSampleSw_ProcessIncomingMsg_4 & 0xFFFF
        LJMP      ??zclSampleSw_ProcessIncomingMsg_5 & 0xFFFF
// 1003   {
// 1004 #ifdef ZCL_READ
// 1005     case ZCL_CMD_READ_RSP:
// 1006       zclSampleSw_ProcessInReadRspCmd( pInMsg );
??zclSampleSw_ProcessIncomingMsg_0:
        MOV       DPL,?V0
        MOV       DPH,?V1
        MOVX      A,@DPTR
        MOV       ?V2,A
        INC       DPTR
        MOVX      A,@DPTR
        MOV       ?V3,A
        MOV       ?V4,#0x0
??zclSampleSw_ProcessIncomingMsg_6:
        MOV       DPL,?V2
        MOV       DPH,?V3
        MOVX      A,@DPTR
        MOV       R0,A
        MOV       A,?V4
        CLR       C
        SUBB      A,R0
        JC        $+5
        LJMP      ??zclSampleSw_ProcessIncomingMsg_5 & 0xFFFF
        MOV       DPL,R6
        MOV       DPH,R7
        INC       DPTR
        INC       DPTR
        INC       DPTR
        INC       DPTR
        INC       DPTR
        INC       DPTR
        INC       DPTR
        INC       DPTR
        MOVX      A,@DPTR
        XRL       A,#0x7
        JNZ       ??zclSampleSw_ProcessIncomingMsg_7
        INC       DPTR
        MOVX      A,@DPTR
??zclSampleSw_ProcessIncomingMsg_7:
        JNZ       ??zclSampleSw_ProcessIncomingMsg_8
        MOV       A,?V4
        MOV       B,#0x6
        MUL       AB
        MOV       R0,A
        MOV       R1,B
        MOV       A,?V2
        ADD       A,R0
        MOV       R0,A
        MOV       A,?V3
        ADDC      A,R1
        MOV       R1,A
        MOV       A,R0
        MOV       R2,A
        MOV       A,R1
        MOV       R3,A
        MOV       DPL,R2
        MOV       DPH,R3
        INC       DPTR
        MOVX      A,@DPTR
        XRL       A,#0x10
        JNZ       ??zclSampleSw_ProcessIncomingMsg_9
        INC       DPTR
        MOVX      A,@DPTR
??zclSampleSw_ProcessIncomingMsg_9:
        JNZ       ??zclSampleSw_ProcessIncomingMsg_8
        ; Setup parameters for call to function HalLcdWriteStringValue
        MOV       ?V5,#0x4
        MOV       R0,#?V5
        LCALL     ?PUSH_XSTACK_I_ONE
          CFI CFA_XSP16 add(XSP16, 15)
        MOV       R1,#0xa
        MOV       DPL,R2
        MOV       DPH,R3
        INC       DPTR
        INC       DPTR
        INC       DPTR
        INC       DPTR
        INC       DPTR
        LCALL     ?Subroutine4 & 0xFFFF
??CrossCallReturnLabel_1:
        MOVX      A,@DPTR
        MOV       R4,A
        MOV       R5,#0x0
        MOV       R2,#`?<Constant "Read:">` & 0xff
        MOV       R3,#(`?<Constant "Read:">` >> 8) & 0xff
        LCALL     `??HalLcdWriteStringValue::?relay`; Banked call to: HalLcdWriteStringValue
        MOV       A,#0x1
        LCALL     ?DEALLOC_XSTACK8
          CFI CFA_XSP16 add(XSP16, 14)
??zclSampleSw_ProcessIncomingMsg_8:
        INC       ?V4
        SJMP      ??zclSampleSw_ProcessIncomingMsg_6
// 1007       break;
// 1008 #endif
// 1009 #ifdef ZCL_WRITE
// 1010     case ZCL_CMD_WRITE_RSP:
// 1011       zclSampleSw_ProcessInWriteRspCmd( pInMsg );
??zclSampleSw_ProcessIncomingMsg_1:
        MOV       DPL,?V0
        MOV       DPH,?V1
        MOVX      A,@DPTR
        MOV       R0,A
        INC       DPTR
        MOVX      A,@DPTR
        MOV       R1,A
        MOV       DPL,R0
        MOV       DPH,R1
        MOV       R0,#0x0
??zclSampleSw_ProcessIncomingMsg_10:
        MOVX      A,@DPTR
        MOV       R1,A
        MOV       A,R0
        CLR       C
        SUBB      A,R1
        JNC       ??zclSampleSw_ProcessIncomingMsg_5
        INC       R0
        SJMP      ??zclSampleSw_ProcessIncomingMsg_10
// 1012       break;
// 1013 #endif
// 1014 #ifdef ZCL_REPORT
// 1015 
// 1016     // See ZCL Test Applicaiton (zcl_testapp.c) for sample code on Attribute Reporting
// 1017     case ZCL_CMD_CONFIG_REPORT:
// 1018       //zclSampleSw_ProcessInConfigReportCmd( pInMsg );
// 1019       break;
// 1020 
// 1021     case ZCL_CMD_CONFIG_REPORT_RSP:
// 1022       //zclSampleSw_ProcessInConfigReportRspCmd( pInMsg );
// 1023       break;
// 1024 
// 1025     case ZCL_CMD_READ_REPORT_CFG:
// 1026       //zclSampleSw_ProcessInReadReportCfgCmd( pInMsg );
// 1027       break;
// 1028 
// 1029     case ZCL_CMD_READ_REPORT_CFG_RSP:
// 1030       //zclSampleSw_ProcessInReadReportCfgRspCmd( pInMsg );
// 1031       break;
// 1032 
// 1033     case ZCL_CMD_REPORT:
// 1034       zclSampleSw_ProcessInReportCmd( pInMsg );
// 1035       break;
// 1036 #endif
// 1037     case ZCL_CMD_DEFAULT_RSP:
// 1038       zclSampleSw_ProcessInDefaultRspCmd( pInMsg );
// 1039       break;
// 1040 
// 1041 #ifdef ZCL_DISCOVER
// 1042     case ZCL_CMD_DISCOVER_CMDS_RECEIVED_RSP:
// 1043       zclSampleSw_ProcessInDiscCmdsRspCmd( pInMsg );
??zclSampleSw_ProcessIncomingMsg_3:
        ; Setup parameters for call to function zclSampleSw_ProcessInDiscCmdsRspCmd
// 1044       break;
// 1045 
// 1046     case ZCL_CMD_DISCOVER_CMDS_GEN_RSP:
// 1047       zclSampleSw_ProcessInDiscCmdsRspCmd( pInMsg );
        ; Setup parameters for call to function zclSampleSw_ProcessInDiscCmdsRspCmd
        LCALL     `??zclSampleSw_ProcessInDiscCmdsRspCmd::?relay`; Banked call to: zclSampleSw_ProcessInDiscCmdsRspCmd
// 1048       break;
        SJMP      ??zclSampleSw_ProcessIncomingMsg_5
// 1049 
// 1050     case ZCL_CMD_DISCOVER_ATTRS_RSP:
// 1051       zclSampleSw_ProcessInDiscAttrsRspCmd( pInMsg );
??zclSampleSw_ProcessIncomingMsg_2:
        LCALL     ?Subroutine3 & 0xFFFF
??CrossCallReturnLabel_5:
        MOV       DPL,R0
        MOV       DPH,R1
        INC       DPTR
        MOVX      A,@DPTR
        MOV       R3,A
        MOV       A,R2
        CLR       C
        SUBB      A,R3
        JNC       ??zclSampleSw_ProcessIncomingMsg_5
        INC       R2
        SJMP      ??CrossCallReturnLabel_5
// 1052       break;
// 1053 
// 1054     case ZCL_CMD_DISCOVER_ATTRS_EXT_RSP:
// 1055       zclSampleSw_ProcessInDiscAttrsExtRspCmd( pInMsg );
??zclSampleSw_ProcessIncomingMsg_4:
        LCALL     ?Subroutine3 & 0xFFFF
// 1056       break;
// 1057 #endif
// 1058     default:
// 1059       break;
// 1060   }
??CrossCallReturnLabel_6:
        SJMP      ??zclSampleSw_ProcessIncomingMsg_11
??zclSampleSw_ProcessIncomingMsg_12:
        INC       R2
??zclSampleSw_ProcessIncomingMsg_11:
        MOV       DPL,R0
        MOV       DPH,R1
        INC       DPTR
        MOVX      A,@DPTR
        MOV       R3,A
        MOV       A,R2
        CLR       C
        SUBB      A,R3
        JC        ??zclSampleSw_ProcessIncomingMsg_12
// 1061 
// 1062   if ( pInMsg->attrCmd )
??zclSampleSw_ProcessIncomingMsg_5:
        MOV       DPL,?V0
        MOV       DPH,?V1
        MOVX      A,@DPTR
        MOV       R2,A
        INC       DPTR
        MOVX      A,@DPTR
        MOV       R3,A
        MOV       A,R2
        ORL       A,R3
        JZ        ??zclSampleSw_ProcessIncomingMsg_13
// 1063     osal_mem_free( pInMsg->attrCmd );
        ; Setup parameters for call to function osal_mem_free
        LCALL     `??osal_mem_free::?relay`; Banked call to: osal_mem_free
// 1064 }
??zclSampleSw_ProcessIncomingMsg_13:
        MOV       R7,#0x6
        LJMP      ?BANKED_LEAVE_XDATA
          CFI EndBlock cfiBlock12

        RSEG BANKED_CODE:HUGECODE:NOROOT(0)
?Subroutine4:
          CFI Block cfiCond13 Using cfiCommon0
          CFI Function zclSampleSw_ReportTest
          CFI Conditional ??CrossCallReturnLabel_0
          CFI R6 load(1, XDATA, add(CFA_XSP16, literal(-12)))
          CFI VB load(1, XDATA, add(CFA_XSP16, literal(-11)))
          CFI V0 load(1, XDATA, add(CFA_XSP16, literal(-10)))
          CFI V1 load(1, XDATA, add(CFA_XSP16, literal(-9)))
          CFI V2 load(1, XDATA, add(CFA_XSP16, literal(-8)))
          CFI V3 load(1, XDATA, add(CFA_XSP16, literal(-7)))
          CFI R7 load(1, XDATA, add(CFA_XSP16, literal(-6)))
          CFI ?RET_LOW load(1, XDATA, add(CFA_XSP16, literal(-5)))
          CFI ?RET_HIGH load(1, XDATA, add(CFA_XSP16, literal(-4)))
          CFI ?BRET_EXT load(1, XDATA, add(CFA_XSP16, literal(-3)))
          CFI DPL0 load(1, XDATA, add(CFA_XSP16, literal(-2)))
          CFI DPH0 load(1, XDATA, add(CFA_XSP16, literal(-1)))
          CFI CFA_XSP16 add(XSP16, 24)
          CFI Block cfiCond14 Using cfiCommon0
          CFI (cfiCond14) Function zclSampleSw_ProcessIncomingMsg
          CFI (cfiCond14) Conditional ??CrossCallReturnLabel_1
          CFI (cfiCond14) R6 load(1, XDATA, add(CFA_XSP16, literal(-14)))
          CFI (cfiCond14) VB load(1, XDATA, add(CFA_XSP16, literal(-13)))
          CFI (cfiCond14) V0 load(1, XDATA, add(CFA_XSP16, literal(-12)))
          CFI (cfiCond14) V1 load(1, XDATA, add(CFA_XSP16, literal(-11)))
          CFI (cfiCond14) V2 load(1, XDATA, add(CFA_XSP16, literal(-10)))
          CFI (cfiCond14) V3 load(1, XDATA, add(CFA_XSP16, literal(-9)))
          CFI (cfiCond14) V4 load(1, XDATA, add(CFA_XSP16, literal(-8)))
          CFI (cfiCond14) V5 load(1, XDATA, add(CFA_XSP16, literal(-7)))
          CFI (cfiCond14) R7 load(1, XDATA, add(CFA_XSP16, literal(-6)))
          CFI (cfiCond14) ?RET_LOW load(1, XDATA, add(CFA_XSP16, literal(-5)))
          CFI (cfiCond14) ?RET_HIGH load(1, XDATA, add(CFA_XSP16, literal(-4)))
          CFI (cfiCond14) ?BRET_EXT load(1, XDATA, add(CFA_XSP16, literal(-3)))
          CFI (cfiCond14) DPL0 load(1, XDATA, add(CFA_XSP16, literal(-2)))
          CFI (cfiCond14) DPH0 load(1, XDATA, add(CFA_XSP16, literal(-1)))
          CFI (cfiCond14) CFA_SP SP+-2
          CFI (cfiCond14) CFA_XSP16 add(XSP16, 15)
          CFI Block cfiPicker15 Using cfiCommon1
          CFI (cfiPicker15) NoFunction
          CFI (cfiPicker15) Picker
        MOVX      A,@DPTR
        MOV       R0,A
        INC       DPTR
        MOVX      A,@DPTR
        MOV       DPH,A
        MOV       DPL,R0
        RET
          CFI EndBlock cfiCond13
          CFI EndBlock cfiCond14
          CFI EndBlock cfiPicker15

        RSEG BANKED_CODE:HUGECODE:NOROOT(0)
?Subroutine3:
          CFI Block cfiCond16 Using cfiCommon0
          CFI Function zclSampleSw_ProcessIncomingMsg
          CFI Conditional ??CrossCallReturnLabel_5
          CFI R6 load(1, XDATA, add(CFA_XSP16, literal(-14)))
          CFI VB load(1, XDATA, add(CFA_XSP16, literal(-13)))
          CFI V0 load(1, XDATA, add(CFA_XSP16, literal(-12)))
          CFI V1 load(1, XDATA, add(CFA_XSP16, literal(-11)))
          CFI V2 load(1, XDATA, add(CFA_XSP16, literal(-10)))
          CFI V3 load(1, XDATA, add(CFA_XSP16, literal(-9)))
          CFI V4 load(1, XDATA, add(CFA_XSP16, literal(-8)))
          CFI V5 load(1, XDATA, add(CFA_XSP16, literal(-7)))
          CFI R7 load(1, XDATA, add(CFA_XSP16, literal(-6)))
          CFI ?RET_LOW load(1, XDATA, add(CFA_XSP16, literal(-5)))
          CFI ?RET_HIGH load(1, XDATA, add(CFA_XSP16, literal(-4)))
          CFI ?BRET_EXT load(1, XDATA, add(CFA_XSP16, literal(-3)))
          CFI DPL0 load(1, XDATA, add(CFA_XSP16, literal(-2)))
          CFI DPH0 load(1, XDATA, add(CFA_XSP16, literal(-1)))
          CFI CFA_SP SP+-2
          CFI CFA_XSP16 add(XSP16, 14)
          CFI Block cfiCond17 Using cfiCommon0
          CFI (cfiCond17) Function zclSampleSw_ProcessIncomingMsg
          CFI (cfiCond17) Conditional ??CrossCallReturnLabel_6
          CFI (cfiCond17) R6 load(1, XDATA, add(CFA_XSP16, literal(-14)))
          CFI (cfiCond17) VB load(1, XDATA, add(CFA_XSP16, literal(-13)))
          CFI (cfiCond17) V0 load(1, XDATA, add(CFA_XSP16, literal(-12)))
          CFI (cfiCond17) V1 load(1, XDATA, add(CFA_XSP16, literal(-11)))
          CFI (cfiCond17) V2 load(1, XDATA, add(CFA_XSP16, literal(-10)))
          CFI (cfiCond17) V3 load(1, XDATA, add(CFA_XSP16, literal(-9)))
          CFI (cfiCond17) V4 load(1, XDATA, add(CFA_XSP16, literal(-8)))
          CFI (cfiCond17) V5 load(1, XDATA, add(CFA_XSP16, literal(-7)))
          CFI (cfiCond17) R7 load(1, XDATA, add(CFA_XSP16, literal(-6)))
          CFI (cfiCond17) ?RET_LOW load(1, XDATA, add(CFA_XSP16, literal(-5)))
          CFI (cfiCond17) ?RET_HIGH load(1, XDATA, add(CFA_XSP16, literal(-4)))
          CFI (cfiCond17) ?BRET_EXT load(1, XDATA, add(CFA_XSP16, literal(-3)))
          CFI (cfiCond17) DPL0 load(1, XDATA, add(CFA_XSP16, literal(-2)))
          CFI (cfiCond17) DPH0 load(1, XDATA, add(CFA_XSP16, literal(-1)))
          CFI (cfiCond17) CFA_SP SP+-2
          CFI (cfiCond17) CFA_XSP16 add(XSP16, 14)
          CFI Block cfiPicker18 Using cfiCommon1
          CFI (cfiPicker18) NoFunction
          CFI (cfiPicker18) Picker
        MOV       DPL,?V0
        MOV       DPH,?V1
          CFI EndBlock cfiCond16
          CFI EndBlock cfiCond17
          CFI EndBlock cfiPicker18
        REQUIRE ??Subroutine6_0
        ; // Fall through to label ??Subroutine6_0

        RSEG BANKED_CODE:HUGECODE:NOROOT(0)
??Subroutine6_0:
          CFI Block cfiCond19 Using cfiCommon0
          CFI Function zclSampleSw_ProcessInDiscCmdsRspCmd
          CFI Conditional ??CrossCallReturnLabel_4
          CFI DPL0 Frame(CFA_SP, 4)
          CFI DPH0 Frame(CFA_SP, 5)
          CFI CFA_SP SP+-7
          CFI Block cfiCond20 Using cfiCommon0
          CFI (cfiCond20) Function zclSampleSw_ProcessIncomingMsg
          CFI (cfiCond20) Conditional ??CrossCallReturnLabel_5
          CFI (cfiCond20) R6 load(1, XDATA, add(CFA_XSP16, literal(-14)))
          CFI (cfiCond20) VB load(1, XDATA, add(CFA_XSP16, literal(-13)))
          CFI (cfiCond20) V0 load(1, XDATA, add(CFA_XSP16, literal(-12)))
          CFI (cfiCond20) V1 load(1, XDATA, add(CFA_XSP16, literal(-11)))
          CFI (cfiCond20) V2 load(1, XDATA, add(CFA_XSP16, literal(-10)))
          CFI (cfiCond20) V3 load(1, XDATA, add(CFA_XSP16, literal(-9)))
          CFI (cfiCond20) V4 load(1, XDATA, add(CFA_XSP16, literal(-8)))
          CFI (cfiCond20) V5 load(1, XDATA, add(CFA_XSP16, literal(-7)))
          CFI (cfiCond20) R7 load(1, XDATA, add(CFA_XSP16, literal(-6)))
          CFI (cfiCond20) ?RET_LOW load(1, XDATA, add(CFA_XSP16, literal(-5)))
          CFI (cfiCond20) ?RET_HIGH load(1, XDATA, add(CFA_XSP16, literal(-4)))
          CFI (cfiCond20) ?BRET_EXT load(1, XDATA, add(CFA_XSP16, literal(-3)))
          CFI (cfiCond20) DPL0 load(1, XDATA, add(CFA_XSP16, literal(-2)))
          CFI (cfiCond20) DPH0 load(1, XDATA, add(CFA_XSP16, literal(-1)))
          CFI (cfiCond20) CFA_SP SP+-2
          CFI (cfiCond20) CFA_XSP16 add(XSP16, 14)
          CFI Block cfiCond21 Using cfiCommon0
          CFI (cfiCond21) Function zclSampleSw_ProcessIncomingMsg
          CFI (cfiCond21) Conditional ??CrossCallReturnLabel_6
          CFI (cfiCond21) R6 load(1, XDATA, add(CFA_XSP16, literal(-14)))
          CFI (cfiCond21) VB load(1, XDATA, add(CFA_XSP16, literal(-13)))
          CFI (cfiCond21) V0 load(1, XDATA, add(CFA_XSP16, literal(-12)))
          CFI (cfiCond21) V1 load(1, XDATA, add(CFA_XSP16, literal(-11)))
          CFI (cfiCond21) V2 load(1, XDATA, add(CFA_XSP16, literal(-10)))
          CFI (cfiCond21) V3 load(1, XDATA, add(CFA_XSP16, literal(-9)))
          CFI (cfiCond21) V4 load(1, XDATA, add(CFA_XSP16, literal(-8)))
          CFI (cfiCond21) V5 load(1, XDATA, add(CFA_XSP16, literal(-7)))
          CFI (cfiCond21) R7 load(1, XDATA, add(CFA_XSP16, literal(-6)))
          CFI (cfiCond21) ?RET_LOW load(1, XDATA, add(CFA_XSP16, literal(-5)))
          CFI (cfiCond21) ?RET_HIGH load(1, XDATA, add(CFA_XSP16, literal(-4)))
          CFI (cfiCond21) ?BRET_EXT load(1, XDATA, add(CFA_XSP16, literal(-3)))
          CFI (cfiCond21) DPL0 load(1, XDATA, add(CFA_XSP16, literal(-2)))
          CFI (cfiCond21) DPH0 load(1, XDATA, add(CFA_XSP16, literal(-1)))
          CFI (cfiCond21) CFA_SP SP+-2
          CFI (cfiCond21) CFA_XSP16 add(XSP16, 14)
          CFI Block cfiPicker22 Using cfiCommon1
          CFI (cfiPicker22) NoFunction
          CFI (cfiPicker22) Picker
        MOVX      A,@DPTR
        MOV       R0,A
        INC       DPTR
        MOVX      A,@DPTR
        MOV       R1,A
        MOV       R2,#0x0
        RET
          CFI EndBlock cfiCond19
          CFI EndBlock cfiCond20
          CFI EndBlock cfiCond21
          CFI EndBlock cfiPicker22
// 1065 
// 1066 #ifdef ZCL_READ
// 1067 /*********************************************************************
// 1068  * @fn      zclSampleSw_ProcessInReadRspCmd
// 1069  *
// 1070  * @brief   Process the "Profile" Read Response Command
// 1071  *
// 1072  * @param   pInMsg - incoming message to process
// 1073  *
// 1074  * @return  none
// 1075  */
// 1076 static uint8 zclSampleSw_ProcessInReadRspCmd( zclIncomingMsg_t *pInMsg )
// 1077 {
// 1078   zclReadRspCmd_t *readRspCmd;
// 1079   uint8 i;
// 1080 
// 1081   readRspCmd = (zclReadRspCmd_t *)pInMsg->attrCmd;
// 1082   for (i = 0; i < readRspCmd->numAttr; i++)
// 1083   {
// 1084     // Notify the originator of the results of the original read attributes
// 1085     // attempt and, for each successfull request, the value of the requested
// 1086     // attribute
// 1087     if( pInMsg->clusterId == ZCL_CLUSTER_ID_GEN_ON_OFF_SWITCH_CONFIG &&//如果该消息是关于指定的Cluster
// 1088         readRspCmd->attrList[i].attrID == ATTRID_ON_OFF_SWITCH_ACTIONS )//如果该属性的ID是指定的属性ID
// 1089     {
// 1090         uint8 val;
// 1091         val = *(readRspCmd->attrList[i].data);//读取属性值
// 1092         
// 1093         HalLcdWriteStringValue("Read:", val, 10, 4);//显示信息到屏幕中
// 1094     }
// 1095   }
// 1096 
// 1097   return TRUE;
// 1098 }
// 1099 #endif // ZCL_READ
// 1100 
// 1101 #ifdef ZCL_WRITE
// 1102 /*********************************************************************
// 1103  * @fn      zclSampleSw_ProcessInWriteRspCmd
// 1104  *
// 1105  * @brief   Process the "Profile" Write Response Command
// 1106  *
// 1107  * @param   pInMsg - incoming message to process
// 1108  *
// 1109  * @return  none
// 1110  */
// 1111 static uint8 zclSampleSw_ProcessInWriteRspCmd( zclIncomingMsg_t *pInMsg )
// 1112 {
// 1113   zclWriteRspCmd_t *writeRspCmd;
// 1114   uint8 i;
// 1115 
// 1116   writeRspCmd = (zclWriteRspCmd_t *)pInMsg->attrCmd;
// 1117   for (i = 0; i < writeRspCmd->numAttr; i++)
// 1118   {
// 1119     // Notify the device of the results of the its original write attributes
// 1120     // command.
// 1121   }
// 1122 
// 1123   return TRUE;
// 1124 }
// 1125 #endif // ZCL_WRITE
// 1126 
// 1127 /*********************************************************************
// 1128  * @fn      zclSampleSw_ProcessInDefaultRspCmd
// 1129  *
// 1130  * @brief   Process the "Profile" Default Response Command
// 1131  *
// 1132  * @param   pInMsg - incoming message to process
// 1133  *
// 1134  * @return  none
// 1135  */
// 1136 static uint8 zclSampleSw_ProcessInDefaultRspCmd( zclIncomingMsg_t *pInMsg )
// 1137 {
// 1138   // zclDefaultRspCmd_t *defaultRspCmd = (zclDefaultRspCmd_t *)pInMsg->attrCmd;
// 1139   // Device is notified of the Default Response command.
// 1140   (void)pInMsg;
// 1141   return TRUE;
// 1142 }
// 1143 
// 1144 #ifdef ZCL_DISCOVER
// 1145 /*********************************************************************
// 1146  * @fn      zclSampleSw_ProcessInDiscCmdsRspCmd
// 1147  *
// 1148  * @brief   Process the Discover Commands Response Command
// 1149  *
// 1150  * @param   pInMsg - incoming message to process
// 1151  *
// 1152  * @return  none
// 1153  */

        RSEG BANKED_CODE:HUGECODE:NOROOT(0)
// 1154 static uint8 zclSampleSw_ProcessInDiscCmdsRspCmd( zclIncomingMsg_t *pInMsg )
zclSampleSw_ProcessInDiscCmdsRspCmd:
          CFI Block cfiBlock23 Using cfiCommon0
          CFI Function zclSampleSw_ProcessInDiscCmdsRspCmd
        CODE
// 1155 {
        PUSH      DPL
          CFI DPL0 Frame(CFA_SP, 4)
          CFI CFA_SP SP+-4
        PUSH      DPH
          CFI DPH0 Frame(CFA_SP, 5)
          CFI CFA_SP SP+-5
        ; Saved register size: 2
        ; Auto size: 0
// 1156   zclDiscoverCmdsCmdRsp_t *discoverRspCmd;
// 1157   uint8 i;
// 1158 
// 1159   discoverRspCmd = (zclDiscoverCmdsCmdRsp_t *)pInMsg->attrCmd;
        MOV       A,R2
        ADD       A,#0x17
        MOV       DPL,A
        CLR       A
        ADDC      A,R3
        MOV       DPH,A
        LCALL     ??Subroutine6_0 & 0xFFFF
// 1160   for ( i = 0; i < discoverRspCmd->numCmd; i++ )
??CrossCallReturnLabel_4:
        SJMP      ??zclSampleSw_ProcessInDiscCmdsRspCmd_0
??zclSampleSw_ProcessInDiscCmdsRspCmd_1:
        INC       R2
??zclSampleSw_ProcessInDiscCmdsRspCmd_0:
        MOV       DPL,R0
        MOV       DPH,R1
        INC       DPTR
        INC       DPTR
        MOVX      A,@DPTR
        MOV       R3,A
        MOV       A,R2
        CLR       C
        SUBB      A,R3
        JC        ??zclSampleSw_ProcessInDiscCmdsRspCmd_1
// 1161   {
// 1162     // Device is notified of the result of its attribute discovery command.
// 1163   }
// 1164 
// 1165   return TRUE;
        MOV       R1,#0x1
        LJMP      ?Subroutine2 & 0xFFFF
// 1166 }
          CFI EndBlock cfiBlock23
// 1167 
// 1168 /*********************************************************************
// 1169  * @fn      zclSampleSw_ProcessInDiscAttrsRspCmd
// 1170  *
// 1171  * @brief   Process the "Profile" Discover Attributes Response Command
// 1172  *
// 1173  * @param   pInMsg - incoming message to process
// 1174  *
// 1175  * @return  none
// 1176  */
// 1177 static uint8 zclSampleSw_ProcessInDiscAttrsRspCmd( zclIncomingMsg_t *pInMsg )
// 1178 {
// 1179   zclDiscoverAttrsRspCmd_t *discoverRspCmd;
// 1180   uint8 i;
// 1181 
// 1182   discoverRspCmd = (zclDiscoverAttrsRspCmd_t *)pInMsg->attrCmd;
// 1183   for ( i = 0; i < discoverRspCmd->numAttr; i++ )
// 1184   {
// 1185     // Device is notified of the result of its attribute discovery command.
// 1186   }
// 1187 
// 1188   return TRUE;
// 1189 }
// 1190 
// 1191 /*********************************************************************
// 1192  * @fn      zclSampleSw_ProcessInDiscAttrsExtRspCmd
// 1193  *
// 1194  * @brief   Process the "Profile" Discover Attributes Extended Response Command
// 1195  *
// 1196  * @param   pInMsg - incoming message to process
// 1197  *
// 1198  * @return  none
// 1199  */
// 1200 static uint8 zclSampleSw_ProcessInDiscAttrsExtRspCmd( zclIncomingMsg_t *pInMsg )
// 1201 {
// 1202   zclDiscoverAttrsExtRsp_t *discoverRspCmd;
// 1203   uint8 i;
// 1204 
// 1205   discoverRspCmd = (zclDiscoverAttrsExtRsp_t *)pInMsg->attrCmd;
// 1206   for ( i = 0; i < discoverRspCmd->numAttr; i++ )
// 1207   {
// 1208     // Device is notified of the result of its attribute discovery command.
// 1209   }
// 1210 
// 1211   return TRUE;
// 1212 }
// 1213 #endif // ZCL_DISCOVER
// 1214 
// 1215 #if defined (OTA_CLIENT) && (OTA_CLIENT == TRUE)
// 1216 /*********************************************************************
// 1217  * @fn      zclSampleSw_ProcessOTAMsgs
// 1218  *
// 1219  * @brief   Called to process callbacks from the ZCL OTA.
// 1220  *
// 1221  * @param   none
// 1222  *
// 1223  * @return  none
// 1224  */
// 1225 static void zclSampleSw_ProcessOTAMsgs( zclOTA_CallbackMsg_t* pMsg )
// 1226 {
// 1227   uint8 RxOnIdle;
// 1228 
// 1229   switch(pMsg->ota_event)
// 1230   {
// 1231   case ZCL_OTA_START_CALLBACK:
// 1232     if (pMsg->hdr.status == ZSuccess)
// 1233     {
// 1234       // Speed up the poll rate
// 1235       RxOnIdle = TRUE;
// 1236       ZMacSetReq( ZMacRxOnIdle, &RxOnIdle );
// 1237       NLME_SetPollRate( 2000 );
// 1238     }
// 1239     break;
// 1240 
// 1241   case ZCL_OTA_DL_COMPLETE_CALLBACK:
// 1242     if (pMsg->hdr.status == ZSuccess)
// 1243     {
// 1244       // Reset the CRC Shadow and reboot.  The bootloader will see the
// 1245       // CRC shadow has been cleared and switch to the new image
// 1246       HalOTAInvRC();
// 1247       SystemReset();
// 1248     }
// 1249     else
// 1250     {
// 1251 #if (ZG_BUILD_ENDDEVICE_TYPE)    
// 1252       // slow the poll rate back down.
// 1253       RxOnIdle = FALSE;
// 1254       ZMacSetReq( ZMacRxOnIdle, &RxOnIdle );
// 1255       NLME_SetPollRate(DEVICE_POLL_RATE);
// 1256 #endif
// 1257     }
// 1258     break;
// 1259 
// 1260   default:
// 1261     break;
// 1262   }
// 1263 }
// 1264 #endif // defined (OTA_CLIENT) && (OTA_CLIENT == TRUE)
// 1265 
// 1266 /****************************************************************************
// 1267 ****************************************************************************/
// 1268 

        RSEG BANKED_CODE:HUGECODE:NOROOT(0)
// 1269 void zclSampleSw_UiActionToggleLight(uint16 keys)
zclSampleSw_UiActionToggleLight:
          CFI Block cfiBlock24 Using cfiCommon0
          CFI Function zclSampleSw_UiActionToggleLight
        CODE
// 1270 {
        FUNCALL zclSampleSw_UiActionToggleLight, bdb_getZCLFrameCounter
        LOCFRAME ISTACK, 0, STACK
        LOCFRAME PSTACK, 0, STACK
        LOCFRAME XSTACK, 10, STACK
        LOCFRAME IOVERLAY, 0, STATIC
        LOCFRAME DOVERLAY, 0, STATIC
        ARGFRAME ISTACK, 0, STACK
        ARGFRAME PSTACK, 0, STACK
        ARGFRAME XSTACK, 10, STACK
        ARGFRAME IOVERLAY, 0, STATIC
        ARGFRAME DOVERLAY, 0, STATIC
        FUNCALL zclSampleSw_UiActionToggleLight, zcl_SendCommand
        LOCFRAME ISTACK, 0, STACK
        LOCFRAME PSTACK, 0, STACK
        LOCFRAME XSTACK, 21, STACK
        LOCFRAME IOVERLAY, 0, STATIC
        LOCFRAME DOVERLAY, 0, STATIC
        ARGFRAME ISTACK, 0, STACK
        ARGFRAME PSTACK, 0, STACK
        ARGFRAME XSTACK, 21, STACK
        ARGFRAME IOVERLAY, 0, STATIC
        ARGFRAME DOVERLAY, 0, STATIC
        FUNCALL zclSampleSw_UiActionToggleLight, bdb_getZCLFrameCounter
        LOCFRAME ISTACK, 0, STACK
        LOCFRAME PSTACK, 0, STACK
        LOCFRAME XSTACK, 10, STACK
        LOCFRAME IOVERLAY, 0, STATIC
        LOCFRAME DOVERLAY, 0, STATIC
        ARGFRAME ISTACK, 0, STACK
        ARGFRAME PSTACK, 0, STACK
        ARGFRAME XSTACK, 10, STACK
        ARGFRAME IOVERLAY, 0, STATIC
        ARGFRAME DOVERLAY, 0, STATIC
        FUNCALL zclSampleSw_UiActionToggleLight, zcl_SendCommand
        LOCFRAME ISTACK, 0, STACK
        LOCFRAME PSTACK, 0, STACK
        LOCFRAME XSTACK, 21, STACK
        LOCFRAME IOVERLAY, 0, STATIC
        LOCFRAME DOVERLAY, 0, STATIC
        ARGFRAME ISTACK, 0, STACK
        ARGFRAME PSTACK, 0, STACK
        ARGFRAME XSTACK, 21, STACK
        ARGFRAME IOVERLAY, 0, STATIC
        ARGFRAME DOVERLAY, 0, STATIC
        FUNCALL zclSampleSw_UiActionToggleLight, bdb_getZCLFrameCounter
        LOCFRAME ISTACK, 0, STACK
        LOCFRAME PSTACK, 0, STACK
        LOCFRAME XSTACK, 10, STACK
        LOCFRAME IOVERLAY, 0, STATIC
        LOCFRAME DOVERLAY, 0, STATIC
        ARGFRAME ISTACK, 0, STACK
        ARGFRAME PSTACK, 0, STACK
        ARGFRAME XSTACK, 10, STACK
        ARGFRAME IOVERLAY, 0, STATIC
        ARGFRAME DOVERLAY, 0, STATIC
        FUNCALL zclSampleSw_UiActionToggleLight, zcl_SendCommand
        LOCFRAME ISTACK, 0, STACK
        LOCFRAME PSTACK, 0, STACK
        LOCFRAME XSTACK, 21, STACK
        LOCFRAME IOVERLAY, 0, STATIC
        LOCFRAME DOVERLAY, 0, STATIC
        ARGFRAME ISTACK, 0, STACK
        ARGFRAME PSTACK, 0, STACK
        ARGFRAME XSTACK, 21, STACK
        ARGFRAME IOVERLAY, 0, STATIC
        ARGFRAME DOVERLAY, 0, STATIC
        REQUIRE ?V0
        REQUIRE ?V1
        MOV       A,#-0xa
        LCALL     ?BANKED_ENTER_XDATA
          CFI DPH0 load(1, XDATA, add(CFA_XSP16, literal(-1)))
          CFI DPL0 load(1, XDATA, add(CFA_XSP16, literal(-2)))
          CFI ?BRET_EXT load(1, XDATA, add(CFA_XSP16, literal(-3)))
          CFI ?RET_HIGH load(1, XDATA, add(CFA_XSP16, literal(-4)))
          CFI ?RET_LOW load(1, XDATA, add(CFA_XSP16, literal(-5)))
          CFI R7 load(1, XDATA, add(CFA_XSP16, literal(-6)))
          CFI V1 load(1, XDATA, add(CFA_XSP16, literal(-7)))
          CFI V0 load(1, XDATA, add(CFA_XSP16, literal(-8)))
          CFI VB load(1, XDATA, add(CFA_XSP16, literal(-9)))
          CFI R6 load(1, XDATA, add(CFA_XSP16, literal(-10)))
          CFI CFA_SP SP+0
          CFI CFA_XSP16 add(XSP16, 10)
        ; Saved register size: 10
        ; Auto size: 0
// 1271   if (zclSampleSw_OnOffSwitchActions == ON_OFF_SWITCH_ACTIONS_TOGGLE)
        MOV       A,R2
        ANL       A,#0x4
        MOV       R0,A
        MOV       DPTR,#zclSampleSw_OnOffSwitchActions
        MOVX      A,@DPTR
        XRL       A,#0x2
        JNZ       ??zclSampleSw_UiActionToggleLight_0
// 1272   {
// 1273     if (keys & UI_KEY_SW_5_PRESSED)
        MOV       A,R0
        JNZ       $+5
        LJMP      ??zclSampleSw_UiActionToggleLight_1 & 0xFFFF
// 1274     {
// 1275       zclGeneral_SendOnOff_CmdToggle( SAMPLESW_ENDPOINT, &zclSampleSw_DstAddr, FALSE, bdb_getZCLFrameCounter() );
        ; Setup parameters for call to function bdb_getZCLFrameCounter
        LCALL     `??bdb_getZCLFrameCounter::?relay`; Banked call to: bdb_getZCLFrameCounter
        MOV       A,R1
        MOV       R1,A
        ; Setup parameters for call to function zcl_SendCommand
        CLR       A
        MOV       ?V0,A
        MOV       ?V1,A
        MOV       R0,#?V0
        LCALL     ?PUSH_XSTACK_I_TWO
          CFI CFA_XSP16 add(XSP16, 12)
        MOV       R0,#?V0
        LCALL     ?PUSH_XSTACK_I_TWO
          CFI CFA_XSP16 add(XSP16, 14)
        MOV       A,R1
        MOV       ?V0,A
        MOV       R0,#?V0
        LCALL     ?PUSH_XSTACK_I_ONE
          CFI CFA_XSP16 add(XSP16, 15)
        CLR       A
        MOV       ?V0,A
        MOV       R0,#?V0
        LCALL     ?PUSH_XSTACK_I_TWO
          CFI CFA_XSP16 add(XSP16, 17)
        MOV       R0,#?V0
        LCALL     ?PUSH_XSTACK_I_ONE
          CFI CFA_XSP16 add(XSP16, 18)
        MOV       R0,#?V0
        LCALL     ?PUSH_XSTACK_I_ONE
          CFI CFA_XSP16 add(XSP16, 19)
        MOV       ?V0,#0x1
        MOV       R0,#?V0
        LCALL     ?PUSH_XSTACK_I_ONE
          CFI CFA_XSP16 add(XSP16, 20)
        MOV       ?V0,#0x2
        LJMP      ??zclSampleSw_UiActionToggleLight_2 & 0xFFFF
          CFI CFA_XSP16 add(XSP16, 10)
// 1276     }
// 1277   }
// 1278   else if (((keys & UI_KEY_SW_5_PRESSED) && (zclSampleSw_OnOffSwitchActions == ON_OFF_SWITCH_ACTIONS_ON))
// 1279     || ((keys & UI_KEY_SW_5_RELEASED) && (zclSampleSw_OnOffSwitchActions == ON_OFF_SWITCH_ACTIONS_OFF)))
??zclSampleSw_UiActionToggleLight_0:
        MOV       A,R0
        JZ        ??zclSampleSw_UiActionToggleLight_3
        MOVX      A,@DPTR
        JZ        ??zclSampleSw_UiActionToggleLight_4
??zclSampleSw_UiActionToggleLight_3:
        MOV       A,R3
        ANL       A,#0x4
        JZ        ??zclSampleSw_UiActionToggleLight_5
        MOVX      A,@DPTR
        XRL       A,#0x1
        JNZ       ??zclSampleSw_UiActionToggleLight_5
// 1280   {
// 1281     zclGeneral_SendOnOff_CmdOn( SAMPLESW_ENDPOINT, &zclSampleSw_DstAddr, FALSE, bdb_getZCLFrameCounter() );
??zclSampleSw_UiActionToggleLight_4:
        ; Setup parameters for call to function bdb_getZCLFrameCounter
        LCALL     `??bdb_getZCLFrameCounter::?relay`; Banked call to: bdb_getZCLFrameCounter
        MOV       A,R1
        MOV       R1,A
        ; Setup parameters for call to function zcl_SendCommand
        CLR       A
        MOV       ?V0,A
        MOV       ?V1,A
        MOV       R0,#?V0
        LCALL     ?PUSH_XSTACK_I_TWO
          CFI CFA_XSP16 add(XSP16, 12)
        MOV       R0,#?V0
        LCALL     ?PUSH_XSTACK_I_TWO
          CFI CFA_XSP16 add(XSP16, 14)
        MOV       A,R1
        MOV       ?V0,A
        MOV       R0,#?V0
        LCALL     ?PUSH_XSTACK_I_ONE
          CFI CFA_XSP16 add(XSP16, 15)
        CLR       A
        MOV       ?V0,A
        MOV       R0,#?V0
        LCALL     ?PUSH_XSTACK_I_TWO
          CFI CFA_XSP16 add(XSP16, 17)
        MOV       R0,#?V0
        LCALL     ?PUSH_XSTACK_I_ONE
          CFI CFA_XSP16 add(XSP16, 18)
        MOV       R0,#?V0
        LCALL     ?PUSH_XSTACK_I_ONE
          CFI CFA_XSP16 add(XSP16, 19)
        MOV       ?V0,#0x1
        MOV       R0,#?V0
        LCALL     ?PUSH_XSTACK_I_ONE
          CFI CFA_XSP16 add(XSP16, 20)
        SJMP      ??zclSampleSw_UiActionToggleLight_2
          CFI CFA_XSP16 add(XSP16, 10)
// 1282   }
// 1283   else
// 1284   {
// 1285     zclGeneral_SendOnOff_CmdOff( SAMPLESW_ENDPOINT, &zclSampleSw_DstAddr, FALSE, bdb_getZCLFrameCounter() );
??zclSampleSw_UiActionToggleLight_5:
        ; Setup parameters for call to function bdb_getZCLFrameCounter
        LCALL     `??bdb_getZCLFrameCounter::?relay`; Banked call to: bdb_getZCLFrameCounter
        MOV       A,R1
        MOV       R1,A
        ; Setup parameters for call to function zcl_SendCommand
        CLR       A
        MOV       ?V0,A
        MOV       ?V1,A
        MOV       R0,#?V0
        LCALL     ?PUSH_XSTACK_I_TWO
          CFI CFA_XSP16 add(XSP16, 12)
        MOV       R0,#?V0
        LCALL     ?PUSH_XSTACK_I_TWO
          CFI CFA_XSP16 add(XSP16, 14)
        MOV       A,R1
        MOV       ?V0,A
        MOV       R0,#?V0
        LCALL     ?PUSH_XSTACK_I_ONE
          CFI CFA_XSP16 add(XSP16, 15)
        CLR       A
        MOV       ?V0,A
        MOV       R0,#?V0
        LCALL     ?PUSH_XSTACK_I_TWO
          CFI CFA_XSP16 add(XSP16, 17)
        MOV       R0,#?V0
        LCALL     ?PUSH_XSTACK_I_ONE
          CFI CFA_XSP16 add(XSP16, 18)
        MOV       R0,#?V0
        LCALL     ?PUSH_XSTACK_I_ONE
          CFI CFA_XSP16 add(XSP16, 19)
        MOV       ?V0,#0x1
        MOV       R0,#?V0
        LCALL     ?PUSH_XSTACK_I_ONE
          CFI CFA_XSP16 add(XSP16, 20)
        MOV       ?V0,#0x0
??zclSampleSw_UiActionToggleLight_2:
        MOV       R0,#?V0
        LCALL     ?PUSH_XSTACK_I_ONE
          CFI CFA_XSP16 add(XSP16, 21)
        MOV       R4,#0x6
        MOV       R5,#0x0
        MOV       R2,#zclSampleSw_DstAddr & 0xff
        MOV       R3,#(zclSampleSw_DstAddr >> 8) & 0xff
        MOV       R1,#0x8
        LCALL     `??zcl_SendCommand::?relay`; Banked call to: zcl_SendCommand
        MOV       A,#0xb
        LCALL     ?DEALLOC_XSTACK8
          CFI CFA_XSP16 add(XSP16, 10)
// 1286   }
// 1287 }
??zclSampleSw_UiActionToggleLight_1:
        LJMP      ?Subroutine1 & 0xFFFF
          CFI EndBlock cfiBlock24
// 1288 
// 1289 

        RSEG BANKED_CODE:HUGECODE:NOROOT(0)
// 1290 void zclSampleSw_UiUpdateLcd(uint8 gui_state, char * line[3])
zclSampleSw_UiUpdateLcd:
          CFI Block cfiBlock25 Using cfiCommon0
          CFI Function zclSampleSw_UiUpdateLcd
        CODE
// 1291 {
        PUSH      DPL
          CFI DPL0 Frame(CFA_SP, 4)
          CFI CFA_SP SP+-4
        PUSH      DPH
          CFI DPH0 Frame(CFA_SP, 5)
          CFI CFA_SP SP+-5
        ; Saved register size: 2
        ; Auto size: 0
// 1292   line[2] = "< TOGGLE LIGHT >";
        MOV       DPL,R2
        MOV       DPH,R3
        INC       DPTR
        INC       DPTR
        INC       DPTR
        INC       DPTR
        MOV       A,#`?<Constant "< TOGGLE LIGHT >">` & 0xff
        MOVX      @DPTR,A
        INC       DPTR
        MOV       A,#(`?<Constant "< TOGGLE LIGHT >">` >> 8) & 0xff
        MOVX      @DPTR,A
// 1293 }
        LJMP      ?Subroutine2 & 0xFFFF
          CFI EndBlock cfiBlock25

        RSEG XDATA_ID:CODE:NOROOT(0)
`?<Initializer for zclSampleSw_OnOffSwitchType>`:
        DATA8
        DB 1

        RSEG XDATA_ID:CODE:NOROOT(0)
`?<Initializer for sampleSw_TestEp>`:
        DATA8
        DB 8
        DB 0
        DATA16
        DW zclSampleSw_TaskID
        DW 0H
        DATA8
        DB 0

        RSEG XDATA_ID:CODE:NOROOT(0)
`?<Initializer for zclSampleSw_NwkState>`:
        DATA8
        DB 1

        RSEG XDATA_ID:CODE:NOROOT(0)
`?<Initializer for zclSampleSw_CmdCallbacks>`:
        DATA16
        DW `??zclSampleSw_BasicResetCB::?relay`
        DW 0H
        DW 0H
        DW 0H
        DW 0H
        DW 0H
        DW 0H
        DW 0H
        DW 0H

        RSEG BANK_RELAYS:CODE:REORDER:NOROOT(0)
`??zclSampleSw_ReportTest::?relay`:
        CODE
        LCALL   ?BDISPATCH
        DATA24
        DC24    zclSampleSw_ReportTest

        RSEG BANK_RELAYS:CODE:REORDER:NOROOT(0)
`??zclSampleSw_Init::?relay`:
        CODE
        LCALL   ?BDISPATCH
        DATA24
        DC24    zclSampleSw_Init

        RSEG BANK_RELAYS:CODE:REORDER:NOROOT(0)
`??zclSampleSw_event_loop::?relay`:
        CODE
        LCALL   ?BDISPATCH
        DATA24
        DC24    zclSampleSw_event_loop

        RSEG BANK_RELAYS:CODE:REORDER:NOROOT(0)
`??zclSampleSw_ProcessCommissioningStatus::?rela`:
        CODE
        LCALL   ?BDISPATCH
        DATA24
        DC24    zclSampleSw_ProcessCommissioningStatus

        RSEG BANK_RELAYS:CODE:REORDER:NOROOT(0)
`??zclSampleSw_BasicResetCB::?relay`:
        CODE
        LCALL   ?BDISPATCH
        DATA24
        DC24    zclSampleSw_BasicResetCB

        RSEG BANK_RELAYS:CODE:REORDER:NOROOT(0)
`??zclSampleApp_BatteryWarningCB::?relay`:
        CODE
        LCALL   ?BDISPATCH
        DATA24
        DC24    zclSampleApp_BatteryWarningCB

        RSEG BANK_RELAYS:CODE:REORDER:NOROOT(0)
`??zclSampleSw_ProcessIncomingMsg::?relay`:
        CODE
        LCALL   ?BDISPATCH
        DATA24
        DC24    zclSampleSw_ProcessIncomingMsg

        RSEG BANK_RELAYS:CODE:REORDER:NOROOT(0)
`??zclSampleSw_ProcessInDiscCmdsRspCmd::?relay`:
        CODE
        LCALL   ?BDISPATCH
        DATA24
        DC24    zclSampleSw_ProcessInDiscCmdsRspCmd

        RSEG BANK_RELAYS:CODE:REORDER:NOROOT(0)
`??zclSampleSw_UiActionToggleLight::?relay`:
        CODE
        LCALL   ?BDISPATCH
        DATA24
        DC24    zclSampleSw_UiActionToggleLight

        RSEG BANK_RELAYS:CODE:REORDER:NOROOT(0)
`??zclSampleSw_UiUpdateLcd::?relay`:
        CODE
        LCALL   ?BDISPATCH
        DATA24
        DC24    zclSampleSw_UiUpdateLcd

        RSEG XDATA_ROM_C:CONST:REORDER:NOROOT(0)
        DATA8
`?<Constant "Report: ">`:
        DB "Report: "

        RSEG XDATA_ROM_C:CONST:REORDER:NOROOT(0)
        DATA8
`?<Constant "TI Sample Switch">`:
        DB "TI Sample Switch"

        RSEG XDATA_ROM_C:CONST:REORDER:NOROOT(0)
        DATA32
        DB "P2P"

        RSEG XDATA_ROM_C:CONST:REORDER:NOROOT(0)
        DATA8
`?<Constant "successful, 202211672...">`:
        DB "successful, 202211672332, \326\334\312\300\312\242"

        RSEG XDATA_ROM_C:CONST:REORDER:NOROOT(0)
        DATA8
`?<Constant "Read:">`:
        DB "Read:"

        RSEG XDATA_ROM_C:CONST:REORDER:NOROOT(0)
        DATA8
`?<Constant "< TOGGLE LIGHT >">`:
        DB "< TOGGLE LIGHT >"

        RSEG XDATA_ROM_C:CONST:REORDER:NOROOT(0)
        DATA32
__Constant_bb8:
        DD 3000

        RSEG XDATA_ROM_C:CONST:REORDER:NOROOT(0)
        DATA32
__Constant_3e8:
        DD 1000

        RSEG XDATA_ROM_C:CONST:REORDER:NOROOT(0)
        DATA32
__Constant_1f4:
        DD 500

        END
// 1294 
// 
// 1 674 bytes in segment BANKED_CODE
//    60 bytes in segment BANK_RELAYS
//    27 bytes in segment XDATA_I
//    27 bytes in segment XDATA_ID
//   128 bytes in segment XDATA_ROM_C
//    22 bytes in segment XDATA_Z
// 
//    87 bytes of CODE     memory
//   116 bytes of CONST    memory (+ 12 bytes shared)
// 1 674 bytes of HUGECODE memory
//    49 bytes of XDATA    memory
//
//Errors: none
//Warnings: 4
