///////////////////////////////////////////////////////////////////////////////
//
// IAR C/C++ Compiler V10.10.1.4655 for 8051              12/Nov/2024  16:36:10
// Copyright 2004-2017 IAR Systems AB.
// Standalone license - IAR Embedded Workbench for 8051
//
//    Core               =  plain
//    Code model         =  banked
//    Data model         =  large
//    Calling convention =  xdata reentrant
//    Constant location  =  data_rom
//    Dptr setup         =  1,16
//                          
//    Source file        =  
//        D:\Z-Stack 3.0.2\Z-Stack
//        3.0.2\Projects\zstack\HomeAutomation\SampleSwitch\Source\zcl_samplesw.c
//    Command line       =  
//        -f C:\Users\ASUS\AppData\Local\Temp\EW352A.tmp ("D:\Z-Stack
//        3.0.2\Z-Stack
//        3.0.2\Projects\zstack\HomeAutomation\SampleSwitch\Source\zcl_samplesw.c"
//        -D SECURE=1 -D TC_LINKKEY_JOIN -D NV_INIT -D NV_RESTORE -D xZTOOL_P1
//        -D xMT_TASK -D xMT_APP_FUNC -D xMT_SYS_FUNC -D xMT_ZDO_FUNC -D
//        xMT_ZDO_MGMT -D xMT_APP_CNF_FUNC -D LCD_SUPPORTED=DEBUG -D
//        MULTICAST_ENABLED=FALSE -D ZCL_READ -D ZCL_DISCOVER -D ZCL_WRITE -D
//        ZCL_BASIC -D ZCL_IDENTIFY -D ZCL_ON_OFF -D ZCL_GROUPS -D
//        ZCL_REPORT_DESTINATION_DEVICE -D ZCL_REPORT -lC "D:\Z-Stack
//        3.0.2\Z-Stack
//        3.0.2\Projects\zstack\HomeAutomation\SampleSwitch\CC2530DB\CoordinatorEB\List"
//        -lA "D:\Z-Stack 3.0.2\Z-Stack
//        3.0.2\Projects\zstack\HomeAutomation\SampleSwitch\CC2530DB\CoordinatorEB\List"
//        --diag_suppress Pe001,Pa010 -o "D:\Z-Stack 3.0.2\Z-Stack
//        3.0.2\Projects\zstack\HomeAutomation\SampleSwitch\CC2530DB\CoordinatorEB\Obj"
//        -e --debug --core=plain --dptr=16,1 --data_model=large
//        --code_model=banked --calling_convention=xdata_reentrant
//        --place_constants=data_rom --nr_virtual_regs 16 -f "D:\Z-Stack
//        3.0.2\Z-Stack
//        3.0.2\Projects\zstack\HomeAutomation\SampleSwitch\CC2530DB\..\..\..\Tools\CC2530DB\f8wCoord.cfg"
//        (-DCPU32MHZ -DROOT=__near_func -DMAC_CFG_APP_PENDING_QUEUE=TRUE
//        -DMAC_CFG_TX_DATA_MAX=5 -DMAC_CFG_TX_MAX=8 -DMAC_CFG_RX_MAX=5
//        -DZDO_COORDINATOR -DRTR_NWK) -f "D:\Z-Stack 3.0.2\Z-Stack
//        3.0.2\Projects\zstack\HomeAutomation\SampleSwitch\CC2530DB\..\..\..\Tools\CC2530DB\f8wConfig.cfg"
//        (-DZIGBEEPRO -DSECURE=1 -DZG_SECURE_DYNAMIC=0 -DREFLECTOR
//        -DDEFAULT_CHANLIST=0x00000800 -DZDAPP_CONFIG_PAN_ID=0x1234
//        -DNWK_START_DELAY=100 -DEXTENDED_JOINING_RANDOM_MASK=0x007F
//        -DBEACON_REQUEST_DELAY=100 -DBEACON_REQ_DELAY_MASK=0x00FF
//        -DLINK_STATUS_JITTER_MASK=0x007F -DROUTE_EXPIRY_TIME=30
//        -DAPSC_ACK_WAIT_DURATION_POLLED=3000 -DNWK_INDIRECT_MSG_TIMEOUT=7
//        -DMAX_RREQ_ENTRIES=8 -DAPSC_MAX_FRAME_RETRIES=3
//        -DNWK_MAX_DATA_RETRIES=2 -DMAX_POLL_FAILURE_RETRIES=2 -DMAX_BCAST=9
//        -DAPS_MAX_GROUPS=16 -DMAX_RTG_ENTRIES=40 -DNWK_MAX_BINDING_ENTRIES=4
//        -DMAX_BINDING_CLUSTER_IDS=4 -DDEFAULT_KEY={0}
//        -DMAC_MAX_FRAME_SIZE=116 -DZDNWKMGR_MIN_TRANSMISSIONS=20
//        "-DCONST=const __code" -DGENERIC=__generic -DRFD_RCVC_ALWAYS_ON=FALSE
//        -DPOLL_RATE=1000 -DQUEUED_POLL_RATE=100 -DRESPONSE_POLL_RATE=100
//        -DREJOIN_POLL_RATE=440 -DREJOIN_BACKOFF=900000 -DREJOIN_SCAN=900000
//        -DENABLE_LED4_DISABLE_S1) -f "D:\Z-Stack 3.0.2\Z-Stack
//        3.0.2\Projects\zstack\HomeAutomation\SampleSwitch\CC2530DB\..\..\..\Tools\CC2530DB\f8wZCL.cfg"
//        -I "D:\Z-Stack 3.0.2\Z-Stack
//        3.0.2\Projects\zstack\HomeAutomation\SampleSwitch\CC2530DB\" -I
//        "D:\Z-Stack 3.0.2\Z-Stack
//        3.0.2\Projects\zstack\HomeAutomation\SampleSwitch\CC2530DB\..\Source\"
//        -I "D:\Z-Stack 3.0.2\Z-Stack
//        3.0.2\Projects\zstack\HomeAutomation\SampleSwitch\CC2530DB\..\..\Source\"
//        -I "D:\Z-Stack 3.0.2\Z-Stack
//        3.0.2\Projects\zstack\HomeAutomation\SampleSwitch\CC2530DB\..\..\..\ZMain\TI2530DB\"
//        -I "D:\Z-Stack 3.0.2\Z-Stack
//        3.0.2\Projects\zstack\HomeAutomation\SampleSwitch\CC2530DB\..\..\..\..\..\Components\hal\include\"
//        -I "D:\Z-Stack 3.0.2\Z-Stack
//        3.0.2\Projects\zstack\HomeAutomation\SampleSwitch\CC2530DB\..\..\..\..\..\Components\hal\target\CC2530EB\"
//        -I "D:\Z-Stack 3.0.2\Z-Stack
//        3.0.2\Projects\zstack\HomeAutomation\SampleSwitch\CC2530DB\..\..\..\..\..\Components\mac\include\"
//        -I "D:\Z-Stack 3.0.2\Z-Stack
//        3.0.2\Projects\zstack\HomeAutomation\SampleSwitch\CC2530DB\..\..\..\..\..\Components\mac\high_level\"
//        -I "D:\Z-Stack 3.0.2\Z-Stack
//        3.0.2\Projects\zstack\HomeAutomation\SampleSwitch\CC2530DB\..\..\..\..\..\Components\mac\low_level\srf04\"
//        -I "D:\Z-Stack 3.0.2\Z-Stack
//        3.0.2\Projects\zstack\HomeAutomation\SampleSwitch\CC2530DB\..\..\..\..\..\Components\mac\low_level\srf04\single_chip\"
//        -I "D:\Z-Stack 3.0.2\Z-Stack
//        3.0.2\Projects\zstack\HomeAutomation\SampleSwitch\CC2530DB\..\..\..\..\..\Components\mt\"
//        -I "D:\Z-Stack 3.0.2\Z-Stack
//        3.0.2\Projects\zstack\HomeAutomation\SampleSwitch\CC2530DB\..\..\..\..\..\Components\osal\include\"
//        -I "D:\Z-Stack 3.0.2\Z-Stack
//        3.0.2\Projects\zstack\HomeAutomation\SampleSwitch\CC2530DB\..\..\..\..\..\Components\services\saddr\"
//        -I "D:\Z-Stack 3.0.2\Z-Stack
//        3.0.2\Projects\zstack\HomeAutomation\SampleSwitch\CC2530DB\..\..\..\..\..\Components\services\sdata\"
//        -I "D:\Z-Stack 3.0.2\Z-Stack
//        3.0.2\Projects\zstack\HomeAutomation\SampleSwitch\CC2530DB\..\..\..\..\..\Components\stack\af\"
//        -I "D:\Z-Stack 3.0.2\Z-Stack
//        3.0.2\Projects\zstack\HomeAutomation\SampleSwitch\CC2530DB\..\..\..\..\..\Components\stack\bdb\"
//        -I "D:\Z-Stack 3.0.2\Z-Stack
//        3.0.2\Projects\zstack\HomeAutomation\SampleSwitch\CC2530DB\..\..\..\..\..\Components\stack\gp\"
//        -I "D:\Z-Stack 3.0.2\Z-Stack
//        3.0.2\Projects\zstack\HomeAutomation\SampleSwitch\CC2530DB\..\..\..\..\..\Components\stack\nwk\"
//        -I "D:\Z-Stack 3.0.2\Z-Stack
//        3.0.2\Projects\zstack\HomeAutomation\SampleSwitch\CC2530DB\..\..\..\..\..\Components\stack\sapi\"
//        -I "D:\Z-Stack 3.0.2\Z-Stack
//        3.0.2\Projects\zstack\HomeAutomation\SampleSwitch\CC2530DB\..\..\..\..\..\Components\stack\sec\"
//        -I "D:\Z-Stack 3.0.2\Z-Stack
//        3.0.2\Projects\zstack\HomeAutomation\SampleSwitch\CC2530DB\..\..\..\..\..\Components\stack\sys\"
//        -I "D:\Z-Stack 3.0.2\Z-Stack
//        3.0.2\Projects\zstack\HomeAutomation\SampleSwitch\CC2530DB\..\..\..\..\..\Components\stack\zcl\"
//        -I "D:\Z-Stack 3.0.2\Z-Stack
//        3.0.2\Projects\zstack\HomeAutomation\SampleSwitch\CC2530DB\..\..\..\..\..\Components\stack\zdo\"
//        -I "D:\Z-Stack 3.0.2\Z-Stack
//        3.0.2\Projects\zstack\HomeAutomation\SampleSwitch\CC2530DB\..\..\..\..\..\Components\zmac\"
//        -I "D:\Z-Stack 3.0.2\Z-Stack
//        3.0.2\Projects\zstack\HomeAutomation\SampleSwitch\CC2530DB\..\..\..\..\..\Components\zmac\f8w\"
//        -Ohz --require_prototypes)
//    Locale             =  Chinese (Simplified)_China.936
//    List file          =  
//        D:\Z-Stack 3.0.2\Z-Stack
//        3.0.2\Projects\zstack\HomeAutomation\SampleSwitch\CC2530DB\CoordinatorEB\List\zcl_samplesw.s51
//
///////////////////////////////////////////////////////////////////////////////

        NAME zcl_samplesw

        RTMODEL "__SystemLibrary", "CLib"
        RTMODEL "__calling_convention", "xdata_reentrant"
        RTMODEL "__code_model", "banked"
        RTMODEL "__core", "plain"
        RTMODEL "__data_model", "large"
        RTMODEL "__dptr_size", "16"
        RTMODEL "__extended_stack", "disabled"
        RTMODEL "__iar_require _formatted_write", ""
        RTMODEL "__location_for_constants", "data"
        RTMODEL "__number_of_dptrs", "1"
        RTMODEL "__register_banks", "*"
        RTMODEL "__rt_version", "1"

        RSEG DOVERLAY:DATA:NOROOT(0)
        RSEG IOVERLAY:IDATA:NOROOT(0)
        RSEG ISTACK:IDATA:NOROOT(0)
        RSEG PSTACK:XDATA:NOROOT(0)
        RSEG XSTACK:XDATA:NOROOT(0)

        EXTERN ?V0
        EXTERN ?V1
        EXTERN ?V2
        EXTERN ?V3
        EXTERN ?V4
        EXTERN ?V5
        EXTERN ?ALLOC_XSTACK8
        EXTERN ?BANKED_ENTER_XDATA
        EXTERN ?BANKED_LEAVE_XDATA
        EXTERN ?BDISPATCH
        EXTERN ?BRET
        EXTERN ?DEALLOC_XSTACK8
        EXTERN ?PUSH_XSTACK8_X_FOUR
        EXTERN ?PUSH_XSTACK_I_ONE
        EXTERN ?PUSH_XSTACK_I_TWO
        EXTERN ?US_SWITCH_DENSE
        EXTERN ?XSP
        EXTERN ?XSTACK_DISP0_8
        EXTERN ?XSTACK_DISP101_8
        EXTERN __INIT_XDATA_I
        EXTERN __INIT_XDATA_Z

        FUNCTION `??zclSampleApp_BatteryWarningCB::?relay`,0203H
        FUNCTION `??zclSampleSw_BasicResetCB::?relay`,0203H
        PUBLIC `??zclSampleSw_Init::?relay`
        FUNCTION `??zclSampleSw_Init::?relay`,0203H
        FUNCTION `??zclSampleSw_ProcessCommissioningStatus::?rela`,0203H
        FUNCTION `??zclSampleSw_ProcessInDiscCmdsRspCmd::?relay`,0203H
        FUNCTION `??zclSampleSw_ProcessIncomingMsg::?relay`,0203H
        PUBLIC `??zclSampleSw_UiActionToggleLight::?relay`
        FUNCTION `??zclSampleSw_UiActionToggleLight::?relay`,0203H
        PUBLIC `??zclSampleSw_UiUpdateLcd::?relay`
        FUNCTION `??zclSampleSw_UiUpdateLcd::?relay`,0203H
        FUNCTION `??zclSampleSw_WriteTest::?relay`,0203H
        PUBLIC `??zclSampleSw_event_loop::?relay`
        FUNCTION `??zclSampleSw_event_loop::?relay`,0203H
        PUBWEAK __Constant_1f4
        PUBWEAK __Constant_3e8
        PUBWEAK __Constant_bb8
        FUNCTION zclSampleApp_BatteryWarningCB,0603H
        ARGFRAME XSTACK, 0, STACK
        PUBLIC zclSampleSwSeqNum
        FUNCTION zclSampleSw_BasicResetCB,021603H
        ARGFRAME XSTACK, 0, STACK
        LOCFRAME ISTACK, 2, STACK
        PUBLIC zclSampleSw_DstAddr
        PUBLIC zclSampleSw_Init
        FUNCTION zclSampleSw_Init,0a1203H
        ARGFRAME XSTACK, 0, STACK
        LOCFRAME XSTACK, 18, STACK
        PUBLIC zclSampleSw_NwkState
        PUBLIC zclSampleSw_OnOffSwitchActions
        PUBLIC zclSampleSw_OnOffSwitchType
        FUNCTION zclSampleSw_ProcessCommissioningStatus,021603H
        ARGFRAME XSTACK, 0, STACK
        LOCFRAME XSTACK, 9, STACK
        FUNCTION zclSampleSw_ProcessInDiscCmdsRspCmd,0203H
        ARGFRAME XSTACK, 14, STACK
        ARGFRAME IOVERLAY, 0, STATIC
        ARGFRAME DOVERLAY, 0, STATIC
        LOCFRAME ISTACK, 2, STACK
        FUNCTION zclSampleSw_ProcessIncomingMsg,0a1203H
        ARGFRAME XSTACK, 24, STACK
        ARGFRAME IOVERLAY, 0, STATIC
        ARGFRAME DOVERLAY, 0, STATIC
        LOCFRAME XSTACK, 15, STACK
        PUBLIC zclSampleSw_TaskID
        PUBLIC zclSampleSw_TestAddr
        PUBLIC zclSampleSw_UiActionToggleLight
        FUNCTION zclSampleSw_UiActionToggleLight,0a1603H
        ARGFRAME XSTACK, 0, STACK
        LOCFRAME XSTACK, 21, STACK
        PUBLIC zclSampleSw_UiStatesMain
        PUBLIC zclSampleSw_UiUpdateLcd
        FUNCTION zclSampleSw_UiUpdateLcd,0603H
        ARGFRAME XSTACK, 0, STACK
        LOCFRAME ISTACK, 2, STACK
        FUNCTION zclSampleSw_WriteTest,0a1203H
        ARGFRAME XSTACK, 24, STACK
        ARGFRAME IOVERLAY, 0, STATIC
        ARGFRAME DOVERLAY, 0, STATIC
        LOCFRAME ISTACK, 1, STACK
        LOCFRAME XSTACK, 30, STACK
        PUBLIC zclSampleSw_event_loop
        FUNCTION zclSampleSw_event_loop,0a1203H
        ARGFRAME XSTACK, 0, STACK
        LOCFRAME XSTACK, 35, STACK
        
          CFI Names cfiNames0
          CFI StackFrame CFA_SP SP IDATA
          CFI StackFrame CFA_PSP16 PSP16 XDATA
          CFI StackFrame CFA_XSP16 XSP16 XDATA
          CFI StaticOverlayFrame CFA_IOVERLAY IOVERLAY
          CFI StaticOverlayFrame CFA_DOVERLAY DOVERLAY
          CFI Resource `PSW.CY`:1, `B.BR0`:1, `B.BR1`:1, `B.BR2`:1, `B.BR3`:1
          CFI Resource `B.BR4`:1, `B.BR5`:1, `B.BR6`:1, `B.BR7`:1, `VB.BR8`:1
          CFI Resource `VB.BR9`:1, `VB.BR10`:1, `VB.BR11`:1, `VB.BR12`:1
          CFI Resource `VB.BR13`:1, `VB.BR14`:1, `VB.BR15`:1, VB:8, B:8, A:8
          CFI Resource PSW:8, DPL0:8, DPH0:8, R0:8, R1:8, R2:8, R3:8, R4:8, R5:8
          CFI Resource R6:8, R7:8, V0:8, V1:8, V2:8, V3:8, V4:8, V5:8, V6:8, V7:8
          CFI Resource V8:8, V9:8, V10:8, V11:8, V12:8, V13:8, V14:8, V15:8, SP:8
          CFI Resource PSPH:8, PSPL:8, PSP16:16, XSPH:8, XSPL:8, XSP16:16
          CFI VirtualResource ?RET:24
          CFI Resource ?BRET_EXT:8
          CFI VirtualResource ?RET_HIGH:8, ?RET_LOW:8
          CFI ResourceParts PSP16 PSPH, PSPL
          CFI ResourceParts XSP16 XSPH, XSPL
          CFI ResourceParts ?RET ?BRET_EXT, ?RET_HIGH, ?RET_LOW
          CFI EndNames cfiNames0
        
          CFI Common cfiCommon0 Using cfiNames0
          CFI CodeAlign 1
          CFI DataAlign -1
          CFI ReturnAddress ?RET CODE
          CFI CFA_DOVERLAY Used
          CFI CFA_IOVERLAY Used
          CFI CFA_SP SP+-3
          CFI CFA_PSP16 PSP16+0
          CFI CFA_XSP16 XSP16+0
          CFI `PSW.CY` SameValue
          CFI `B.BR0` SameValue
          CFI `B.BR1` SameValue
          CFI `B.BR2` SameValue
          CFI `B.BR3` SameValue
          CFI `B.BR4` SameValue
          CFI `B.BR5` SameValue
          CFI `B.BR6` SameValue
          CFI `B.BR7` SameValue
          CFI `VB.BR8` SameValue
          CFI `VB.BR9` SameValue
          CFI `VB.BR10` SameValue
          CFI `VB.BR11` SameValue
          CFI `VB.BR12` SameValue
          CFI `VB.BR13` SameValue
          CFI `VB.BR14` SameValue
          CFI `VB.BR15` SameValue
          CFI VB SameValue
          CFI B Undefined
          CFI A Undefined
          CFI PSW SameValue
          CFI DPL0 SameValue
          CFI DPH0 SameValue
          CFI R0 Undefined
          CFI R1 Undefined
          CFI R2 Undefined
          CFI R3 Undefined
          CFI R4 Undefined
          CFI R5 Undefined
          CFI R6 SameValue
          CFI R7 SameValue
          CFI V0 SameValue
          CFI V1 SameValue
          CFI V2 SameValue
          CFI V3 SameValue
          CFI V4 SameValue
          CFI V5 SameValue
          CFI V6 SameValue
          CFI V7 SameValue
          CFI V8 SameValue
          CFI V9 SameValue
          CFI V10 SameValue
          CFI V11 SameValue
          CFI V12 SameValue
          CFI V13 SameValue
          CFI V14 SameValue
          CFI V15 SameValue
          CFI PSPH Undefined
          CFI PSPL Undefined
          CFI XSPH Undefined
          CFI XSPL Undefined
          CFI ?RET Concat
          CFI ?BRET_EXT Frame(CFA_SP, 3)
          CFI ?RET_HIGH Frame(CFA_SP, 2)
          CFI ?RET_LOW Frame(CFA_SP, 1)
          CFI EndCommon cfiCommon0
        
        
          CFI Common cfiCommon1 Using cfiNames0
          CFI CodeAlign 1
          CFI DataAlign -1
          CFI ReturnAddress ?RET CODE
          CFI CFA_DOVERLAY Used
          CFI CFA_IOVERLAY Used
          CFI CFA_SP SP+-2
          CFI CFA_PSP16 PSP16+0
          CFI CFA_XSP16 XSP16+0
          CFI `PSW.CY` SameValue
          CFI `B.BR0` SameValue
          CFI `B.BR1` SameValue
          CFI `B.BR2` SameValue
          CFI `B.BR3` SameValue
          CFI `B.BR4` SameValue
          CFI `B.BR5` SameValue
          CFI `B.BR6` SameValue
          CFI `B.BR7` SameValue
          CFI `VB.BR8` SameValue
          CFI `VB.BR9` SameValue
          CFI `VB.BR10` SameValue
          CFI `VB.BR11` SameValue
          CFI `VB.BR12` SameValue
          CFI `VB.BR13` SameValue
          CFI `VB.BR14` SameValue
          CFI `VB.BR15` SameValue
          CFI VB SameValue
          CFI B SameValue
          CFI A SameValue
          CFI PSW SameValue
          CFI DPL0 SameValue
          CFI DPH0 SameValue
          CFI R0 SameValue
          CFI R1 SameValue
          CFI R2 SameValue
          CFI R3 SameValue
          CFI R4 SameValue
          CFI R5 SameValue
          CFI R6 SameValue
          CFI R7 SameValue
          CFI V0 SameValue
          CFI V1 SameValue
          CFI V2 SameValue
          CFI V3 SameValue
          CFI V4 SameValue
          CFI V5 SameValue
          CFI V6 SameValue
          CFI V7 SameValue
          CFI V8 SameValue
          CFI V9 SameValue
          CFI V10 SameValue
          CFI V11 SameValue
          CFI V12 SameValue
          CFI V13 SameValue
          CFI V14 SameValue
          CFI V15 SameValue
          CFI PSPH Undefined
          CFI PSPL Undefined
          CFI XSPH Undefined
          CFI XSPL Undefined
          CFI ?RET Concat
          CFI ?BRET_EXT SameValue
          CFI ?RET_HIGH Frame(CFA_SP, 2)
          CFI ?RET_LOW Frame(CFA_SP, 1)
          CFI EndCommon cfiCommon1
        
AF_DataRequest      SYMBOL "AF_DataRequest"
`??AF_DataRequest::?relay` SYMBOL "?relay", AF_DataRequest
HalLcdWriteStringValue SYMBOL "HalLcdWriteStringValue"
`??HalLcdWriteStringValue::?relay` SYMBOL "?relay", HalLcdWriteStringValue
NLME_PermitJoiningRequest SYMBOL "NLME_PermitJoiningRequest"
`??NLME_PermitJoiningRequest::?relay` SYMBOL "?relay", NLME_PermitJoiningRequest
RegisterForKeys     SYMBOL "RegisterForKeys"
`??RegisterForKeys::?relay` SYMBOL "?relay", RegisterForKeys
RegisterVoltageWarningCB SYMBOL "RegisterVoltageWarningCB"
`??RegisterVoltageWarningCB::?relay` SYMBOL "?relay", RegisterVoltageWarningCB
`?<Name UI_ActionBackFromApp 10>` SYMBOL "UI_ActionBackFromAppMenu"
`??UI_ActionBackFromAppMenu::?relay` SYMBOL "?relay", `?<Name UI_ActionBackFromApp 10>`
UI_DeviceStateUpdated SYMBOL "UI_DeviceStateUpdated"
`??UI_DeviceStateUpdated::?relay` SYMBOL "?relay", UI_DeviceStateUpdated
UI_Init             SYMBOL "UI_Init"
`??UI_Init::?relay` SYMBOL "?relay", UI_Init
UI_MainStateMachine SYMBOL "UI_MainStateMachine"
`??UI_MainStateMachine::?relay` SYMBOL "?relay", UI_MainStateMachine
UI_UpdateComissioningStatus SYMBOL "UI_UpdateComissioningStatus"
`??UI_UpdateComissioningStatus::?relay` SYMBOL "?relay", UI_UpdateComissioningStatus
UI_UpdateLcd        SYMBOL "UI_UpdateLcd"
`??UI_UpdateLcd::?relay` SYMBOL "?relay", UI_UpdateLcd
afRegister          SYMBOL "afRegister"
`??afRegister::?relay` SYMBOL "?relay", afRegister
bdb_RegisterCommissioningStatusCB SYMBOL "bdb_RegisterCommissioningStatusCB"
`??bdb_RegisterCommissioningStatusCB::?relay` SYMBOL "?relay", bdb_RegisterCommissioningStatusCB
bdb_RegisterSimpleDescriptor SYMBOL "bdb_RegisterSimpleDescriptor"
`??bdb_RegisterSimpleDescriptor::?relay` SYMBOL "?relay", bdb_RegisterSimpleDescriptor
bdb_StartCommissioning SYMBOL "bdb_StartCommissioning"
`??bdb_StartCommissioning::?relay` SYMBOL "?relay", bdb_StartCommissioning
bdb_getZCLFrameCounter SYMBOL "bdb_getZCLFrameCounter"
`??bdb_getZCLFrameCounter::?relay` SYMBOL "?relay", bdb_getZCLFrameCounter
osal_mem_alloc      SYMBOL "osal_mem_alloc"
`??osal_mem_alloc::?relay` SYMBOL "?relay", osal_mem_alloc
osal_mem_free       SYMBOL "osal_mem_free"
`??osal_mem_free::?relay` SYMBOL "?relay", osal_mem_free
osal_msg_deallocate SYMBOL "osal_msg_deallocate"
`??osal_msg_deallocate::?relay` SYMBOL "?relay", osal_msg_deallocate
osal_msg_receive    SYMBOL "osal_msg_receive"
`??osal_msg_receive::?relay` SYMBOL "?relay", osal_msg_receive
osal_start_timerEx  SYMBOL "osal_start_timerEx"
`??osal_start_timerEx::?relay` SYMBOL "?relay", osal_start_timerEx
printf              SYMBOL "printf"
`??printf::?relay`  SYMBOL "?relay", printf
zclGeneral_RegisterCmdCallbacks SYMBOL "zclGeneral_RegisterCmdCallbacks"
`??zclGeneral_RegisterCmdCallbacks::?relay` SYMBOL "?relay", zclGeneral_RegisterCmdCallbacks
zclSampleSw_ResetAttributesToDefaultValues SYMBOL "zclSampleSw_ResetAttributesToDefaultValues"
`??zclSampleSw_ResetAttributesToDefaultValues::?` SYMBOL "?relay", zclSampleSw_ResetAttributesToDefaultValues
zcl_SendCommand     SYMBOL "zcl_SendCommand"
`??zcl_SendCommand::?relay` SYMBOL "?relay", zcl_SendCommand
zcl_SendRead        SYMBOL "zcl_SendRead"
`??zcl_SendRead::?relay` SYMBOL "?relay", zcl_SendRead
zcl_SendWriteRequest SYMBOL "zcl_SendWriteRequest"
`??zcl_SendWriteRequest::?relay` SYMBOL "?relay", zcl_SendWriteRequest
zcl_registerAttrList SYMBOL "zcl_registerAttrList"
`??zcl_registerAttrList::?relay` SYMBOL "?relay", zcl_registerAttrList
zcl_registerForMsg  SYMBOL "zcl_registerForMsg"
`??zcl_registerForMsg::?relay` SYMBOL "?relay", zcl_registerForMsg
zclSampleSw_Init    SYMBOL "zclSampleSw_Init"
`??zclSampleSw_Init::?relay` SYMBOL "?relay", zclSampleSw_Init
zclSampleSw_UiActionToggleLight SYMBOL "zclSampleSw_UiActionToggleLight"
`??zclSampleSw_UiActionToggleLight::?relay` SYMBOL "?relay", zclSampleSw_UiActionToggleLight
zclSampleSw_UiUpdateLcd SYMBOL "zclSampleSw_UiUpdateLcd"
`??zclSampleSw_UiUpdateLcd::?relay` SYMBOL "?relay", zclSampleSw_UiUpdateLcd
zclSampleSw_event_loop SYMBOL "zclSampleSw_event_loop"
`??zclSampleSw_event_loop::?relay` SYMBOL "?relay", zclSampleSw_event_loop

        EXTERN `??AF_DataRequest::?relay`
        FUNCTION `??AF_DataRequest::?relay`,00H
        EXTERN `??HalLcdWriteStringValue::?relay`
        FUNCTION `??HalLcdWriteStringValue::?relay`,00H
        EXTERN `??NLME_PermitJoiningRequest::?relay`
        FUNCTION `??NLME_PermitJoiningRequest::?relay`,00H
        EXTERN `??RegisterForKeys::?relay`
        FUNCTION `??RegisterForKeys::?relay`,00H
        EXTERN `??RegisterVoltageWarningCB::?relay`
        FUNCTION `??RegisterVoltageWarningCB::?relay`,00H
        EXTERN `??UI_ActionBackFromAppMenu::?relay`
        FUNCTION `??UI_ActionBackFromAppMenu::?relay`,00H
        EXTERN `??UI_DeviceStateUpdated::?relay`
        FUNCTION `??UI_DeviceStateUpdated::?relay`,00H
        EXTERN `??UI_Init::?relay`
        FUNCTION `??UI_Init::?relay`,00H
        EXTERN `??UI_MainStateMachine::?relay`
        FUNCTION `??UI_MainStateMachine::?relay`,00H
        EXTERN `??UI_UpdateComissioningStatus::?relay`
        FUNCTION `??UI_UpdateComissioningStatus::?relay`,00H
        EXTERN `??UI_UpdateLcd::?relay`
        FUNCTION `??UI_UpdateLcd::?relay`,00H
        EXTERN `??afRegister::?relay`
        FUNCTION `??afRegister::?relay`,00H
        EXTERN `??bdb_RegisterCommissioningStatusCB::?relay`
        FUNCTION `??bdb_RegisterCommissioningStatusCB::?relay`,00H
        EXTERN `??bdb_RegisterSimpleDescriptor::?relay`
        FUNCTION `??bdb_RegisterSimpleDescriptor::?relay`,00H
        EXTERN `??bdb_StartCommissioning::?relay`
        FUNCTION `??bdb_StartCommissioning::?relay`,00H
        EXTERN `??bdb_getZCLFrameCounter::?relay`
        FUNCTION `??bdb_getZCLFrameCounter::?relay`,00H
        EXTERN `??osal_mem_alloc::?relay`
        FUNCTION `??osal_mem_alloc::?relay`,00H
        EXTERN `??osal_mem_free::?relay`
        FUNCTION `??osal_mem_free::?relay`,00H
        EXTERN `??osal_msg_deallocate::?relay`
        FUNCTION `??osal_msg_deallocate::?relay`,00H
        EXTERN `??osal_msg_receive::?relay`
        FUNCTION `??osal_msg_receive::?relay`,00H
        EXTERN `??osal_start_timerEx::?relay`
        FUNCTION `??osal_start_timerEx::?relay`,00H
        EXTERN `??printf::?relay`
        FUNCTION `??printf::?relay`,00H
        EXTERN `??zclGeneral_RegisterCmdCallbacks::?relay`
        FUNCTION `??zclGeneral_RegisterCmdCallbacks::?relay`,00H
        EXTERN `??zclSampleSw_ResetAttributesToDefaultValues::?`
        FUNCTION `??zclSampleSw_ResetAttributesToDefaultValues::?`,00H
        EXTERN `??zcl_SendCommand::?relay`
        FUNCTION `??zcl_SendCommand::?relay`,00H
        EXTERN `??zcl_SendRead::?relay`
        FUNCTION `??zcl_SendRead::?relay`,00H
        EXTERN `??zcl_SendWriteRequest::?relay`
        FUNCTION `??zcl_SendWriteRequest::?relay`,00H
        EXTERN `??zcl_registerAttrList::?relay`
        FUNCTION `??zcl_registerAttrList::?relay`,00H
        EXTERN `??zcl_registerForMsg::?relay`
        FUNCTION `??zcl_registerForMsg::?relay`,00H
        EXTERN AF_DataRequest
        FUNCTION AF_DataRequest,0202H
        ARGFRAME ISTACK, 0, STACK
        ARGFRAME PSTACK, 0, STACK
        ARGFRAME XSTACK, 33, STACK
        ARGFRAME IOVERLAY, 0, STATIC
        ARGFRAME DOVERLAY, 0, STATIC
        EXTERN HalLcdWriteStringValue
        FUNCTION HalLcdWriteStringValue,0202H
        ARGFRAME ISTACK, 0, STACK
        ARGFRAME PSTACK, 0, STACK
        ARGFRAME XSTACK, 25, STACK
        ARGFRAME IOVERLAY, 0, STATIC
        ARGFRAME DOVERLAY, 0, STATIC
        EXTERN NLME_PermitJoiningRequest
        FUNCTION NLME_PermitJoiningRequest,0202H
        ARGFRAME ISTACK, 0, STACK
        ARGFRAME PSTACK, 0, STACK
        ARGFRAME XSTACK, 10, STACK
        ARGFRAME IOVERLAY, 0, STATIC
        ARGFRAME DOVERLAY, 0, STATIC
        EXTERN RegisterForKeys
        FUNCTION RegisterForKeys,0202H
        ARGFRAME ISTACK, 0, STACK
        ARGFRAME PSTACK, 0, STACK
        ARGFRAME XSTACK, 10, STACK
        ARGFRAME IOVERLAY, 0, STATIC
        ARGFRAME DOVERLAY, 0, STATIC
        EXTERN RegisterVoltageWarningCB
        FUNCTION RegisterVoltageWarningCB,0202H
        ARGFRAME ISTACK, 0, STACK
        ARGFRAME PSTACK, 0, STACK
        ARGFRAME XSTACK, 10, STACK
        ARGFRAME IOVERLAY, 0, STATIC
        ARGFRAME DOVERLAY, 0, STATIC
        EXTERN UI_DeviceStateUpdated
        FUNCTION UI_DeviceStateUpdated,0202H
        ARGFRAME ISTACK, 0, STACK
        ARGFRAME PSTACK, 0, STACK
        ARGFRAME XSTACK, 24, STACK
        ARGFRAME IOVERLAY, 0, STATIC
        ARGFRAME DOVERLAY, 0, STATIC
        EXTERN UI_Init
        FUNCTION UI_Init,0202H
        ARGFRAME ISTACK, 0, STACK
        ARGFRAME PSTACK, 0, STACK
        ARGFRAME XSTACK, 18, STACK
        ARGFRAME IOVERLAY, 0, STATIC
        ARGFRAME DOVERLAY, 0, STATIC
        EXTERN UI_MainStateMachine
        FUNCTION UI_MainStateMachine,0202H
        ARGFRAME ISTACK, 0, STACK
        ARGFRAME PSTACK, 0, STACK
        ARGFRAME XSTACK, 24, STACK
        ARGFRAME IOVERLAY, 0, STATIC
        ARGFRAME DOVERLAY, 0, STATIC
        EXTERN UI_UpdateComissioningStatus
        FUNCTION UI_UpdateComissioningStatus,0202H
        ARGFRAME ISTACK, 0, STACK
        ARGFRAME PSTACK, 0, STACK
        ARGFRAME XSTACK, 9, STACK
        ARGFRAME IOVERLAY, 0, STATIC
        ARGFRAME DOVERLAY, 0, STATIC
        EXTERN UI_UpdateLcd
        FUNCTION UI_UpdateLcd,0202H
        ARGFRAME ISTACK, 2, STACK
        ARGFRAME PSTACK, 0, STACK
        ARGFRAME XSTACK, 24, STACK
        ARGFRAME IOVERLAY, 0, STATIC
        ARGFRAME DOVERLAY, 0, STATIC
        EXTERN afRegister
        FUNCTION afRegister,0202H
        ARGFRAME ISTACK, 0, STACK
        ARGFRAME PSTACK, 0, STACK
        ARGFRAME XSTACK, 10, STACK
        ARGFRAME IOVERLAY, 0, STATIC
        ARGFRAME DOVERLAY, 0, STATIC
        EXTERN bdb_RegisterCommissioningStatusCB
        FUNCTION bdb_RegisterCommissioningStatusCB,0202H
        ARGFRAME ISTACK, 0, STACK
        ARGFRAME PSTACK, 0, STACK
        ARGFRAME XSTACK, 10, STACK
        ARGFRAME IOVERLAY, 0, STATIC
        ARGFRAME DOVERLAY, 0, STATIC
        EXTERN bdb_RegisterSimpleDescriptor
        FUNCTION bdb_RegisterSimpleDescriptor,0202H
        ARGFRAME ISTACK, 0, STACK
        ARGFRAME PSTACK, 0, STACK
        ARGFRAME XSTACK, 10, STACK
        ARGFRAME IOVERLAY, 0, STATIC
        ARGFRAME DOVERLAY, 0, STATIC
        EXTERN bdb_StartCommissioning
        FUNCTION bdb_StartCommissioning,0202H
        ARGFRAME ISTACK, 0, STACK
        ARGFRAME PSTACK, 0, STACK
        ARGFRAME XSTACK, 10, STACK
        ARGFRAME IOVERLAY, 0, STATIC
        ARGFRAME DOVERLAY, 0, STATIC
        EXTERN bdb_getZCLFrameCounter
        FUNCTION bdb_getZCLFrameCounter,0202H
        ARGFRAME ISTACK, 0, STACK
        ARGFRAME PSTACK, 0, STACK
        ARGFRAME XSTACK, 10, STACK
        ARGFRAME IOVERLAY, 0, STATIC
        ARGFRAME DOVERLAY, 0, STATIC
        EXTERN osal_mem_alloc
        FUNCTION osal_mem_alloc,0202H
        ARGFRAME ISTACK, 0, STACK
        ARGFRAME PSTACK, 0, STACK
        ARGFRAME XSTACK, 24, STACK
        ARGFRAME IOVERLAY, 0, STATIC
        ARGFRAME DOVERLAY, 0, STATIC
        EXTERN osal_mem_free
        FUNCTION osal_mem_free,0202H
        ARGFRAME ISTACK, 0, STACK
        ARGFRAME PSTACK, 0, STACK
        ARGFRAME XSTACK, 24, STACK
        ARGFRAME IOVERLAY, 0, STATIC
        ARGFRAME DOVERLAY, 0, STATIC
        EXTERN osal_msg_deallocate
        FUNCTION osal_msg_deallocate,0202H
        ARGFRAME ISTACK, 0, STACK
        ARGFRAME PSTACK, 0, STACK
        ARGFRAME XSTACK, 24, STACK
        ARGFRAME IOVERLAY, 0, STATIC
        ARGFRAME DOVERLAY, 0, STATIC
        EXTERN osal_msg_receive
        FUNCTION osal_msg_receive,0202H
        ARGFRAME ISTACK, 0, STACK
        ARGFRAME PSTACK, 0, STACK
        ARGFRAME XSTACK, 24, STACK
        ARGFRAME IOVERLAY, 0, STATIC
        ARGFRAME DOVERLAY, 0, STATIC
        EXTERN osal_start_timerEx
        FUNCTION osal_start_timerEx,0202H
        ARGFRAME ISTACK, 0, STACK
        ARGFRAME PSTACK, 0, STACK
        ARGFRAME XSTACK, 28, STACK
        ARGFRAME IOVERLAY, 0, STATIC
        ARGFRAME DOVERLAY, 0, STATIC
        EXTERN printf
        FUNCTION printf,0202H
        ARGFRAME ISTACK, 0, STACK
        ARGFRAME PSTACK, 0, STACK
        ARGFRAME XSTACK, 9, STACK
        ARGFRAME IOVERLAY, 0, STATIC
        ARGFRAME DOVERLAY, 0, STATIC
        EXTERN zclGeneral_RegisterCmdCallbacks
        FUNCTION zclGeneral_RegisterCmdCallbacks,0202H
        ARGFRAME ISTACK, 0, STACK
        ARGFRAME PSTACK, 0, STACK
        ARGFRAME XSTACK, 10, STACK
        ARGFRAME IOVERLAY, 0, STATIC
        ARGFRAME DOVERLAY, 0, STATIC
        EXTERN zclSampleSw_Attrs
        EXTERN zclSampleSw_IdentifyTime
        EXTERN zclSampleSw_NumAttributes
        EXTERN zclSampleSw_ResetAttributesToDefaultValues
        FUNCTION zclSampleSw_ResetAttributesToDefaultValues,0202H
        ARGFRAME ISTACK, 2, STACK
        ARGFRAME PSTACK, 0, STACK
        ARGFRAME XSTACK, 10, STACK
        ARGFRAME IOVERLAY, 0, STATIC
        ARGFRAME DOVERLAY, 0, STATIC
        EXTERN zclSampleSw_SimpleDesc
        EXTERN zcl_SendCommand
        FUNCTION zcl_SendCommand,0202H
        ARGFRAME ISTACK, 0, STACK
        ARGFRAME PSTACK, 0, STACK
        ARGFRAME XSTACK, 35, STACK
        ARGFRAME IOVERLAY, 0, STATIC
        ARGFRAME DOVERLAY, 0, STATIC
        EXTERN zcl_SendRead
        FUNCTION zcl_SendRead,0202H
        ARGFRAME ISTACK, 0, STACK
        ARGFRAME PSTACK, 0, STACK
        ARGFRAME XSTACK, 29, STACK
        ARGFRAME IOVERLAY, 0, STATIC
        ARGFRAME DOVERLAY, 0, STATIC
        EXTERN zcl_SendWriteRequest
        FUNCTION zcl_SendWriteRequest,0202H
        ARGFRAME ISTACK, 0, STACK
        ARGFRAME PSTACK, 0, STACK
        ARGFRAME XSTACK, 30, STACK
        ARGFRAME IOVERLAY, 0, STATIC
        ARGFRAME DOVERLAY, 0, STATIC
        EXTERN zcl_registerAttrList
        FUNCTION zcl_registerAttrList,0202H
        ARGFRAME ISTACK, 0, STACK
        ARGFRAME PSTACK, 0, STACK
        ARGFRAME XSTACK, 10, STACK
        ARGFRAME IOVERLAY, 0, STATIC
        ARGFRAME DOVERLAY, 0, STATIC
        EXTERN zcl_registerForMsg
        FUNCTION zcl_registerForMsg,0202H
        ARGFRAME ISTACK, 0, STACK
        ARGFRAME PSTACK, 0, STACK
        ARGFRAME XSTACK, 10, STACK
        ARGFRAME IOVERLAY, 0, STATIC
        ARGFRAME DOVERLAY, 0, STATIC
        EXTERN zdpExternalStateTaskID

// D:\Z-Stack 3.0.2\Z-Stack 3.0.2\Projects\zstack\HomeAutomation\SampleSwitch\Source\zcl_samplesw.c
//    1 /**************************************************************************************************
//    2   Filename:       zcl_samplesw.c
//    3   Revised:        $Date: 2015-08-19 17:11:00 -0700 (Wed, 19 Aug 2015) $
//    4   Revision:       $Revision: 44460 $
//    5 
//    6   Description:    Zigbee Cluster Library - sample switch application.
//    7 
//    8 
//    9   Copyright 2006-2013 Texas Instruments Incorporated. All rights reserved.
//   10 
//   11   IMPORTANT: Your use of this Software is limited to those specific rights
//   12   granted under the terms of a software license agreement between the user
//   13   who downloaded the software, his/her employer (which must be your employer)
//   14   and Texas Instruments Incorporated (the "License").  You may not use this
//   15   Software unless you agree to abide by the terms of the License. The License
//   16   limits your use, and you acknowledge, that the Software may not be modified,
//   17   copied or distributed unless embedded on a Texas Instruments microcontroller
//   18   or used solely and exclusively in conjunction with a Texas Instruments radio
//   19   frequency transceiver, which is integrated into your product.  Other than for
//   20   the foregoing purpose, you may not use, reproduce, copy, prepare derivative
//   21   works of, modify, distribute, perform, display or sell this Software and/or
//   22   its documentation for any purpose.
//   23 
//   24   YOU FURTHER ACKNOWLEDGE AND AGREE THAT THE SOFTWARE AND DOCUMENTATION ARE
//   25   PROVIDED AS IS? WITHOUT WARRANTY OF ANY KIND, EITHER EXPRESS OR IMPLIED,
//   26   INCLUDING WITHOUT LIMITATION, ANY WARRANTY OF MERCHANTABILITY, TITLE,
//   27   NON-INFRINGEMENT AND FITNESS FOR A PARTICULAR PURPOSE. IN NO EVENT SHALL
//   28   TEXAS INSTRUMENTS OR ITS LICENSORS BE LIABLE OR OBLIGATED UNDER CONTRACT,
//   29   NEGLIGENCE, STRICT LIABILITY, CONTRIBUTION, BREACH OF WARRANTY, OR OTHER
//   30   LEGAL EQUITABLE THEORY ANY DIRECT OR INDIRECT DAMAGES OR EXPENSES
//   31   INCLUDING BUT NOT LIMITED TO ANY INCIDENTAL, SPECIAL, INDIRECT, PUNITIVE
//   32   OR CONSEQUENTIAL DAMAGES, LOST PROFITS OR LOST DATA, COST OF PROCUREMENT
//   33   OF SUBSTITUTE GOODS, TECHNOLOGY, SERVICES, OR ANY CLAIMS BY THIRD PARTIES
//   34   (INCLUDING BUT NOT LIMITED TO ANY DEFENSE THEREOF), OR OTHER SIMILAR COSTS.
//   35 
//   36   Should you have any questions regarding your right to use this Software,
//   37   contact Texas Instruments Incorporated at www.TI.com.
//   38 **************************************************************************************************/
//   39 
//   40 /*********************************************************************
//   41   This application implements a ZigBee On/Off Switch, based on Z-Stack 3.0.
//   42 
//   43   This application is based on the common sample-application user interface. Please see the main
//   44   comment in zcl_sampleapp_ui.c. The rest of this comment describes only the content specific for
//   45   this sample applicetion.
//   46   
//   47   Application-specific UI peripherals being used:
//   48 
//   49   - none (LED1 is currently unused by this application).
//   50 
//   51   Application-specific menu system:
//   52 
//   53     <TOGGLE LIGHT> Send an On, Off or Toggle command targeting appropriate devices from the binding table.
//   54       Pressing / releasing [OK] will have the following functionality, depending on the value of the 
//   55       zclSampleSw_OnOffSwitchActions attribute:
//   56       - OnOffSwitchActions == 0: pressing [OK] will send ON command, releasing it will send OFF command;
//   57       - OnOffSwitchActions == 1: pressing [OK] will send OFF command, releasing it will send ON command;
//   58       - OnOffSwitchActions == 2: pressing [OK] will send TOGGLE command, releasing it will not send any command.
//   59 
//   60 *********************************************************************/
//   61 
//   62 #if ! defined ZCL_ON_OFF
//   63 #error ZCL_ON_OFF must be defined for this project.
//   64 #endif
//   65 
//   66 /*********************************************************************
//   67  * INCLUDES
//   68  */
//   69 #include <stdio.h>
//   70 #include "ZComDef.h"
//   71 #include "OSAL.h"
//   72 #include "AF.h"
//   73 #include "ZDApp.h"
//   74 #include "ZDObject.h"
//   75 #include "ZDProfile.h"
//   76 #include "MT_SYS.h"
//   77 
//   78 #include "zcl.h"
//   79 #include "zcl_general.h"
//   80 #include "zcl_ha.h"
//   81 #include "zcl_samplesw.h"
//   82 #include "zcl_diagnostic.h"
//   83 
//   84 #include "onboard.h"
//   85 
//   86 /* HAL */
//   87 #include "hal_lcd.h"
//   88 #include "hal_led.h"
//   89 #include "hal_key.h"
//   90 
//   91 #if defined (OTA_CLIENT) && (OTA_CLIENT == TRUE)
//   92 #include "zcl_ota.h"
//   93 #include "hal_ota.h"
//   94 #endif
//   95 
//   96 #include "bdb.h"
//   97 #include "bdb_interface.h"
//   98 
//   99 #include "zcl_sampleapps_ui.h"
//  100 
//  101 /*********************************************************************
//  102  * MACROS
//  103  */
//  104 #define UI_STATE_TOGGLE_LIGHT 1 //UI_STATE_BACK_FROM_APP_MENU is item #0, so app item numbers should start from 1
//  105 
//  106 #define APP_TITLE "TI Sample Switch"
//  107 
//  108 /*********************************************************************
//  109  * TYPEDEFS
//  110  */
//  111 #define CLUSTER_P2P             0
//  112 #define CLUSTER_BROADCAST       1
//  113 #define CLUSTER_GROUPCAST       2
//  114 /*********************************************************************
//  115  * GLOBAL VARIABLES
//  116  */

        RSEG XDATA_Z:XDATA:NOROOT(0)
        DATA8
//  117 byte zclSampleSw_TaskID;
zclSampleSw_TaskID:
        DS 1
        REQUIRE __INIT_XDATA_Z
//  118 
//  119 // 在适当的头文件或源文件中添加

        RSEG XDATA_Z:XDATA:NOROOT(0)
        DATA16
//  120 uint16 zclSampleSw_TestAddr;  // 确保定义类型与实际使用一致
zclSampleSw_TestAddr:
        DS 2
        REQUIRE __INIT_XDATA_Z
//  121 

        RSEG XDATA_Z:XDATA:NOROOT(0)
        DATA8
//  122 uint8 zclSampleSwSeqNum;
zclSampleSwSeqNum:
        DS 1
        REQUIRE __INIT_XDATA_Z
//  123 

        RSEG XDATA_I:XDATA:NOROOT(0)
//  124 uint8 zclSampleSw_OnOffSwitchType = ON_OFF_SWITCH_TYPE_MOMENTARY;
zclSampleSw_OnOffSwitchType:
        DATA8
        DS 1
        REQUIRE `?<Initializer for zclSampleSw_OnOffSwitchType>`
        REQUIRE __INIT_XDATA_I
//  125 

        RSEG XDATA_Z:XDATA:NOROOT(0)
        DATA8
//  126 uint8 zclSampleSw_OnOffSwitchActions;
zclSampleSw_OnOffSwitchActions:
        DS 1
        REQUIRE __INIT_XDATA_Z
//  127 
//  128 /*********************************************************************
//  129  * GLOBAL FUNCTIONS
//  130  */
//  131 
//  132 /*********************************************************************
//  133  * LOCAL VARIABLES
//  134  */
//  135 

        RSEG XDATA_Z:XDATA:NOROOT(0)
        DATA8
//  136 afAddrType_t zclSampleSw_DstAddr;
zclSampleSw_DstAddr:
        DS 12
        REQUIRE __INIT_XDATA_Z
//  137 // GroupId
//  138 #define GROUP_ID                21
//  139 // Endpoint to allow SYS_APP_MSGs

        RSEG XDATA_I:XDATA:NOROOT(0)
//  140 static endPointDesc_t sampleSw_TestEp =
sampleSw_TestEp:
        DATA8
        DS 7
        REQUIRE `?<Initializer for sampleSw_TestEp>`
        REQUIRE __INIT_XDATA_I
//  141 {
//  142   SAMPLESW_ENDPOINT,                  // endpoint
//  143   0,
//  144   &zclSampleSw_TaskID,
//  145   (SimpleDescriptionFormat_t *)NULL,  // No Simple description for this test endpoint
//  146   (afNetworkLatencyReq_t)0            // No Network Latency req
//  147 };
//  148 
//  149 
//  150 /*
//  151 * @param destNwkAddr 目标设备的网络地址
//  152 * @param cid Cluster ID，后续课程将会详细讲解
//  153 * @param len 数据长度
//  154 * @param data 数据内容
//  155 */
//  156 static void zclSampleSw_AF_P2P(
//  157 	uint16 destNwkAddr, 
//  158 	uint16 cid, 
//  159 	uint8 len, 
//  160 	uint8 *data)
//  161 {    
//  162 	afAddrType_t dstAddr; //寻址信息配置 
//  163 	static uint8 transferId = 0;//传输ID，是数据包的标识符
//  164 
//  165 	/* Destination */    
//  166 	dstAddr.addrMode = afAddr16Bit;// 设置目标地址模式为16位网络地址，表示使用P2P的通信方式
//  167 	dstAddr.addr.shortAddr = destNwkAddr;//目标设备的网络地址  
//  168 	dstAddr.endPoint = SAMPLESW_ENDPOINT;//目标设备的端点号
//  169 
//  170 	 transferId++;    
//  171 	AF_DataRequest(&dstAddr, 
//  172 		&sampleSw_TestEp,//已经创建好的简单描述符
//  173 		cid,    
//  174 		len, 
//  175 		data,    
//  176 		&transferId,
//  177 		AF_DISCV_ROUTE,//进行路由扫描操作，用于建立发送数据报文的通信路径。关于这个参数，暂时保持例程默认的代码就可以了
//  178 		AF_DEFAULT_RADIUS);//指定最大的路由跳转级数
//  179 }
//  180 
//  181 /*
//  182 * @param cid Cluster ID
//  183 * @param len 待发送数据的长度
//  184 * @param *data 待发送数据的内容
//  185 */
//  186 static void zclSampleSw_AF_Broadcast(
//  187 	uint16 cid,
//  188 	uint8 len,
//  189 	uint8 *data)
//  190 {
//  191 	afAddrType_t dstAddr;  

        RSEG XDATA_Z:XDATA:NOROOT(0)
        DATA8
//  192 	static uint8 transferId = 0;  
??transferId:
        DS 1
        REQUIRE __INIT_XDATA_Z
//  193 
//  194 	/* Destination */  
//  195 	dstAddr.addrMode = afAddrBroadcast;   // 使用广播模式
//  196 	dstAddr.addr.shortAddr = 0xFFFF; // 广播地址
//  197 	dstAddr.endPoint = SAMPLESW_ENDPOINT; // 目标设备的端点号
//  198 	
//  199 	 /* Transfer id */  
//  200 	transferId++;  
//  201 	
//  202 	/* Send */  
//  203 	AF_DataRequest(
//  204 		&dstAddr, 
//  205 		&sampleSw_TestEp,//已经创建好的简单描述符
//  206 		cid,  
//  207 		len, 
//  208 		data,  
//  209 		&transferId,
//  210 		AF_TX_OPTIONS_NONE,
//  211 		AF_DEFAULT_RADIUS );//指定了最大的路由跳转级数
//  212 }
//  213 
//  214 /*
//  215 * @param groupId 组ID
//  216 * @param cid ClusterID，后续章节将会详细讲解
//  217 * @param len 待发送数据的长度
//  218 * @param data 待发送数据的内容
//  219 */
//  220 static void zclSampleSw_AF_Groupcast(
//  221 	uint16 groupId,
//  222 	uint16 cid,
//  223 	uint8 len,
//  224 	uint8 *data)
//  225 {    
//  226 	afAddrType_t dstAddr;    

        RSEG XDATA_Z:XDATA:NOROOT(0)
        DATA8
//  227 	static uint8 transferId = 0;    
??transferId_1:
        DS 1
        REQUIRE __INIT_XDATA_Z
//  228 
//  229 	/* Destination */    
//  230     dstAddr.addrMode = afAddrGroup;//使用组播通信模式
//  231 	dstAddr.addr.shortAddr = groupId;
//  232 	dstAddr.endPoint = SAMPLESW_ENDPOINT;//组中的设备的端点号
//  233 	
//  234 	/* Transfer id */    
//  235 	transferId++;   
//  236  
//  237 	/* Send */    
//  238 	AF_DataRequest(&dstAddr, 
//  239 		&sampleSw_TestEp,//已经创建好的简单描述符
//  240 		cid, 
//  241 		len, 
//  242 		data,    
//  243 		&transferId, 
//  244 		AF_TX_OPTIONS_NONE,
//  245 		AF_DEFAULT_RADIUS );//指定最大的路由跳转级数，暂时可忽略
//  246 }
//  247 
//  248 /*
//  249 * @param MSGpkt 接收到数据
//  250 */
//  251 static void zclSampleSw_AF_RxProc(afIncomingMSGPacket_t *MSGpkt)
//  252 {
//  253 	/*计数器，记录接收到的点对点通信数据包个数*/

        RSEG XDATA_Z:XDATA:NOROOT(0)
        DATA8
//  254 	static uint8 p2pCnt = 0;
??p2pCnt:
        DS 1
        REQUIRE __INIT_XDATA_Z
//  255 
//  256 	/*计数器，记录接收到的广播通信数据包个数*/

        RSEG XDATA_Z:XDATA:NOROOT(0)
        DATA8
//  257 	static uint8 bcCnt = 0;
??bcCnt:
        DS 1
        REQUIRE __INIT_XDATA_Z
//  258 
//  259 	/*计数器，记录接收到的组播通信数据包个数*/

        RSEG XDATA_Z:XDATA:NOROOT(0)
        DATA8
//  260 	static uint8 gcCnt = 0;  
??gcCnt:
        DS 1
        REQUIRE __INIT_XDATA_Z
//  261 	
//  262 	switch( MSGpkt->clusterId )  // 判断接收到的数据包的Cluster ID，后续章节将会详细讲解Cluster ID
//  263 	{  
//  264 		case CLUSTER_P2P:
//  265 			p2pCnt++;  // 接收到P2P数据包，进行计数
//  266 		
//  267 			// 把接收到的数据和计数器的值显示在屏幕上
//  268 			HalLcdWriteStringValue((char *)MSGpkt->cmd.Data,p2pCnt,10,3);
//  269 			break;  
//  270 		 
//  271 		case CLUSTER_BROADCAST:  
//  272 			bcCnt++;  // 接收到广播数据包，进行计数
//  273 			HalLcdWriteStringValue((char *)MSGpkt->cmd.Data,bcCnt,10,3);  
//  274 			break;  
//  275 		 
//  276 		case CLUSTER_GROUPCAST:  
//  277 			gcCnt++;  // 接收到组播数据包，进行计数
//  278 			HalLcdWriteStringValue((char *)MSGpkt->cmd.Data,gcCnt,10,4);  
//  279 			break;  
//  280 		
//  281 		default:  
//  282 			break;  
//  283 	}  
//  284 }
//  285 static void zclSampleSw_ReadTest(void)  
//  286 {  
//  287     afAddrType_t destAddr;  
//  288     zclReadCmd_t *readCmd;  

        RSEG XDATA_Z:XDATA:NOROOT(0)
        DATA8
//  289     static uint8 txID = 0;  
??txID:
        DS 1
        REQUIRE __INIT_XDATA_Z
//  290       
//  291     destAddr.endPoint = SAMPLESW_ENDPOINT;  
//  292     destAddr.addrMode = afAddr16Bit;  
//  293     destAddr.addr.shortAddr = zclSampleSw_TestAddr;  
//  294   
//  295      //申请一个动态内存
//  296    readCmd = (zclReadCmd_t *)osal_mem_alloc(sizeof(zclReadCmd_t) +                                                sizeof(uint16));
//  297 
//  298    if(readCmd == NULL)//判断是否成功申请到内存
//  299       return;  
//  300 
//  301     readCmd->numAttr = 1;//待读取的属性数量为1
//  302     readCmd->attrID[0] = ATTRID_ON_OFF_SWITCH_ACTIONS;//待读取的属性ID
//  303       
//  304     zcl_SendRead(SAMPLESW_ENDPOINT,  
//  305                  &destAddr,  
//  306                  ZCL_CLUSTER_ID_GEN_ON_OFF_SWITCH_CONFIG,//Cluster ID  
//  307                  readCmd,  
//  308                  ZCL_FRAME_CLIENT_SERVER_DIR,//通信方向是由客户端到服务器端
//  309                  TRUE,
//  310                  txID++);  
//  311      osal_mem_free(readCmd);//释放内存
//  312 }
//  313 
//  314 

        RSEG BANKED_CODE:HUGECODE:NOROOT(0)
//  315 static void zclSampleSw_WriteTest(void)  
zclSampleSw_WriteTest:
          CFI Block cfiBlock0 Using cfiCommon0
          CFI Function zclSampleSw_WriteTest
        CODE
//  316 {  
        FUNCALL zclSampleSw_WriteTest, osal_mem_alloc
        LOCFRAME ISTACK, 0, STACK
        LOCFRAME PSTACK, 0, STACK
        LOCFRAME XSTACK, 24, STACK
        LOCFRAME IOVERLAY, 0, STATIC
        LOCFRAME DOVERLAY, 0, STATIC
        ARGFRAME ISTACK, 0, STACK
        ARGFRAME PSTACK, 0, STACK
        ARGFRAME XSTACK, 24, STACK
        ARGFRAME IOVERLAY, 0, STATIC
        ARGFRAME DOVERLAY, 0, STATIC
        FUNCALL zclSampleSw_WriteTest, osal_mem_alloc
        LOCFRAME ISTACK, 0, STACK
        LOCFRAME PSTACK, 0, STACK
        LOCFRAME XSTACK, 24, STACK
        LOCFRAME IOVERLAY, 0, STATIC
        LOCFRAME DOVERLAY, 0, STATIC
        ARGFRAME ISTACK, 0, STACK
        ARGFRAME PSTACK, 0, STACK
        ARGFRAME XSTACK, 24, STACK
        ARGFRAME IOVERLAY, 0, STATIC
        ARGFRAME DOVERLAY, 0, STATIC
        FUNCALL zclSampleSw_WriteTest, HalLcdWriteStringValue
        LOCFRAME ISTACK, 0, STACK
        LOCFRAME PSTACK, 0, STACK
        LOCFRAME XSTACK, 25, STACK
        LOCFRAME IOVERLAY, 0, STATIC
        LOCFRAME DOVERLAY, 0, STATIC
        ARGFRAME ISTACK, 0, STACK
        ARGFRAME PSTACK, 0, STACK
        ARGFRAME XSTACK, 25, STACK
        ARGFRAME IOVERLAY, 0, STATIC
        ARGFRAME DOVERLAY, 0, STATIC
        FUNCALL zclSampleSw_WriteTest, zcl_SendWriteRequest
        LOCFRAME ISTACK, 0, STACK
        LOCFRAME PSTACK, 0, STACK
        LOCFRAME XSTACK, 30, STACK
        LOCFRAME IOVERLAY, 0, STATIC
        LOCFRAME DOVERLAY, 0, STATIC
        ARGFRAME ISTACK, 0, STACK
        ARGFRAME PSTACK, 0, STACK
        ARGFRAME XSTACK, 30, STACK
        ARGFRAME IOVERLAY, 0, STATIC
        ARGFRAME DOVERLAY, 0, STATIC
        FUNCALL zclSampleSw_WriteTest, osal_mem_free
        LOCFRAME ISTACK, 0, STACK
        LOCFRAME PSTACK, 0, STACK
        LOCFRAME XSTACK, 24, STACK
        LOCFRAME IOVERLAY, 0, STATIC
        LOCFRAME DOVERLAY, 0, STATIC
        ARGFRAME ISTACK, 0, STACK
        ARGFRAME PSTACK, 0, STACK
        ARGFRAME XSTACK, 24, STACK
        ARGFRAME IOVERLAY, 0, STATIC
        ARGFRAME DOVERLAY, 0, STATIC
        FUNCALL zclSampleSw_WriteTest, osal_mem_free
        LOCFRAME ISTACK, 0, STACK
        LOCFRAME PSTACK, 0, STACK
        LOCFRAME XSTACK, 24, STACK
        LOCFRAME IOVERLAY, 0, STATIC
        LOCFRAME DOVERLAY, 0, STATIC
        ARGFRAME ISTACK, 0, STACK
        ARGFRAME PSTACK, 0, STACK
        ARGFRAME XSTACK, 24, STACK
        ARGFRAME IOVERLAY, 0, STATIC
        ARGFRAME DOVERLAY, 0, STATIC
        REQUIRE ?V0
        REQUIRE ?V1
        REQUIRE ?V2
        REQUIRE ?V3
        MOV       A,#-0xc
        LCALL     ?BANKED_ENTER_XDATA
          CFI DPH0 load(1, XDATA, add(CFA_XSP16, literal(-1)))
          CFI DPL0 load(1, XDATA, add(CFA_XSP16, literal(-2)))
          CFI ?BRET_EXT load(1, XDATA, add(CFA_XSP16, literal(-3)))
          CFI ?RET_HIGH load(1, XDATA, add(CFA_XSP16, literal(-4)))
          CFI ?RET_LOW load(1, XDATA, add(CFA_XSP16, literal(-5)))
          CFI R7 load(1, XDATA, add(CFA_XSP16, literal(-6)))
          CFI V3 load(1, XDATA, add(CFA_XSP16, literal(-7)))
          CFI V2 load(1, XDATA, add(CFA_XSP16, literal(-8)))
          CFI V1 load(1, XDATA, add(CFA_XSP16, literal(-9)))
          CFI V0 load(1, XDATA, add(CFA_XSP16, literal(-10)))
          CFI VB load(1, XDATA, add(CFA_XSP16, literal(-11)))
          CFI R6 load(1, XDATA, add(CFA_XSP16, literal(-12)))
          CFI CFA_SP SP+0
          CFI CFA_XSP16 add(XSP16, 12)
        ; Saved register size: 12
        ; Auto size: 12
        MOV       A,#-0xc
        LCALL     ?ALLOC_XSTACK8
          CFI CFA_XSP16 add(XSP16, 24)
//  317     afAddrType_t destAddr;  
//  318     zclWriteCmd_t *writeCmd;  
//  319     static uint8 txID = 0;  
//  320       
//  321     destAddr.endPoint = SAMPLESW_ENDPOINT;  
        MOV       A,#0x9
        LCALL     ?XSTACK_DISP0_8
        MOV       A,#0x8
        MOVX      @DPTR,A
//  322     destAddr.addrMode = afAddr16Bit;  
        LCALL     ?XSTACK_DISP0_8
        LCALL     ?Subroutine3 & 0xFFFF
//  323     destAddr.addr.shortAddr = zclSampleSw_TestAddr;  
//  324       
//  325     writeCmd=(zclWriteCmd_t *)osal_mem_alloc(sizeof(zclWriteCmd_t) +                                             sizeof(zclWriteRec_t));//申请一个动态内存
??CrossCallReturnLabel_0:
        ; Setup parameters for call to function osal_mem_alloc
        MOV       R2,#0x6
        MOV       R3,#0x0
        LCALL     `??osal_mem_alloc::?relay`; Banked call to: osal_mem_alloc
        MOV       ?V0,R2
        MOV       ?V1,R3
//  326     if(writeCmd == NULL)//判断动态内存是否申请成功
        MOV       A,R2
        ORL       A,?V1
        JNZ       $+5
        LJMP      ??zclSampleSw_WriteTest_0 & 0xFFFF
//  327         return;  
//  328       
//  329     writeCmd->attrList[0].attrData=(uint8*)osal_mem_alloc(sizeof(uint8));//申请一个动态内存    
        ; Setup parameters for call to function osal_mem_alloc
        MOV       R2,#0x1
        MOV       R3,#0x0
        LCALL     `??osal_mem_alloc::?relay`; Banked call to: osal_mem_alloc
        MOV       A,?V0
        ADD       A,#0x4
        MOV       R0,A
        CLR       A
        ADDC      A,?V1
        MOV       R1,A
        MOV       A,R0
        MOV       R6,A
        MOV       A,R1
        MOV       R7,A
        MOV       A,R2
        MOV       R0,A
        MOV       A,R3
        MOV       R1,A
        MOV       DPL,R6
        MOV       DPH,R7
        MOV       A,R0
        MOVX      @DPTR,A
        INC       DPTR
        MOV       A,R1
        MOVX      @DPTR,A
//  330     if(writeCmd->attrList[0].attrData == NULL)//判断动态内存是否申请成功  
        MOV       A,R2
        ORL       A,R3
        JNZ       $+5
        LJMP      ??zclSampleSw_WriteTest_0 & 0xFFFF
//  331         return;  
//  332       
//  333     writeCmd->numAttr = 1;//待写入的属性数量
        MOV       DPL,?V0
        MOV       DPH,?V1
        LCALL     ?Subroutine4 & 0xFFFF
//  334     writeCmd->attrList[0].attrID =ATTRID_ON_OFF_SWITCH_ACTIONS;//待写入的属性的ID
//  335     writeCmd->attrList[0].dataType = ZCL_DATATYPE_ENUM8;//属性值的类型
??CrossCallReturnLabel_2:
        MOV       DPL,?V0
        MOV       DPH,?V1
        INC       DPTR
        INC       DPTR
        INC       DPTR
        MOV       A,#0x30
        MOVX      @DPTR,A
//  336     *(writeCmd->attrList[0].attrData) = txID;//属性值
        MOV       DPTR,#??txID_1
        MOVX      A,@DPTR
        PUSH      A
          CFI CFA_SP SP+-1
        MOV       DPL,R6
        MOV       DPH,R7
        LCALL     ?Subroutine12 & 0xFFFF
??CrossCallReturnLabel_16:
        POP       A
          CFI CFA_SP SP+0
        MOVX      @DPTR,A
//  337 
//  338     HalLcdWriteStringValue("Write:", txID, 10, 4);  
        ; Setup parameters for call to function HalLcdWriteStringValue
        MOV       ?V2,#0x4
        MOV       R0,#?V2
        LCALL     ?PUSH_XSTACK_I_ONE
          CFI CFA_XSP16 add(XSP16, 25)
        MOV       R1,#0xa
        MOV       DPTR,#??txID_1
        MOVX      A,@DPTR
        MOV       R4,A
        MOV       R5,#0x0
        MOV       R2,#`?<Constant "Write:">` & 0xff
        MOV       R3,#(`?<Constant "Write:">` >> 8) & 0xff
        LCALL     `??HalLcdWriteStringValue::?relay`; Banked call to: HalLcdWriteStringValue
        MOV       A,#0x1
        LCALL     ?DEALLOC_XSTACK8
          CFI CFA_XSP16 add(XSP16, 24)
//  339     
//  340     zcl_SendWrite(SAMPLESW_ENDPOINT,  
//  341         &destAddr,  
//  342         ZCL_CLUSTER_ID_GEN_ON_OFF_SWITCH_CONFIG,//Cluster ID 
//  343         writeCmd,  
//  344         ZCL_FRAME_CLIENT_SERVER_DIR,//通信方向是由客户端到服务器端
//  345         TRUE,
//  346         txID++);  
        MOV       DPTR,#??txID_1
        LCALL     ?Subroutine7 & 0xFFFF
??CrossCallReturnLabel_6:
        LCALL     ?PUSH_XSTACK_I_ONE
          CFI CFA_XSP16 add(XSP16, 25)
        MOV       ?V2,#0x1
        MOV       R0,#?V2
        LCALL     ?PUSH_XSTACK_I_ONE
          CFI CFA_XSP16 add(XSP16, 26)
        MOV       ?V2,#0x0
        MOV       R0,#?V2
        LCALL     ?PUSH_XSTACK_I_ONE
          CFI CFA_XSP16 add(XSP16, 27)
        MOV       ?V2,#0x2
        MOV       R0,#?V2
        LCALL     ?PUSH_XSTACK_I_ONE
          CFI CFA_XSP16 add(XSP16, 28)
        MOV       R0,#?V0
        LCALL     ?PUSH_XSTACK_I_TWO
          CFI CFA_XSP16 add(XSP16, 30)
        MOV       R4,#0x7
        MOV       R5,#0x0
        MOV       A,#0x6
        LCALL     ?XSTACK_DISP101_8
        MOV       R1,#0x8
        LCALL     `??zcl_SendWriteRequest::?relay`; Banked call to: zcl_SendWriteRequest
        MOV       A,#0x6
        LCALL     ?DEALLOC_XSTACK8
          CFI CFA_XSP16 add(XSP16, 24)
//  347 
//  348     osal_mem_free(writeCmd->attrList[0].attrData); // 释放内存
        ; Setup parameters for call to function osal_mem_free
        MOV       DPL,R6
        MOV       DPH,R7
        MOVX      A,@DPTR
        MOV       R2,A
        INC       DPTR
        MOVX      A,@DPTR
        MOV       R3,A
        LCALL     `??osal_mem_free::?relay`; Banked call to: osal_mem_free
//  349     osal_mem_free(writeCmd);  // 释放内存 
        ; Setup parameters for call to function osal_mem_free
        MOV       R2,?V0
        MOV       R3,?V1
        LCALL     `??osal_mem_free::?relay`; Banked call to: osal_mem_free
//  350 }
??zclSampleSw_WriteTest_0:
          CFI EndBlock cfiBlock0
        REQUIRE ?Subroutine0
        ; // Fall through to label ?Subroutine0

        RSEG BANKED_CODE:HUGECODE:NOROOT(0)
?Subroutine0:
          CFI Block cfiBlock1 Using cfiCommon0
          CFI NoFunction
          CFI CFA_SP SP+0
          CFI CFA_XSP16 add(XSP16, 24)
          CFI VB load(1, XDATA, add(CFA_XSP16, literal(-11)))
          CFI DPL0 load(1, XDATA, add(CFA_XSP16, literal(-2)))
          CFI DPH0 load(1, XDATA, add(CFA_XSP16, literal(-1)))
          CFI R6 load(1, XDATA, add(CFA_XSP16, literal(-12)))
          CFI R7 load(1, XDATA, add(CFA_XSP16, literal(-6)))
          CFI V0 load(1, XDATA, add(CFA_XSP16, literal(-10)))
          CFI V1 load(1, XDATA, add(CFA_XSP16, literal(-9)))
          CFI V2 load(1, XDATA, add(CFA_XSP16, literal(-8)))
          CFI V3 load(1, XDATA, add(CFA_XSP16, literal(-7)))
          CFI ?BRET_EXT load(1, XDATA, add(CFA_XSP16, literal(-3)))
          CFI ?RET_HIGH load(1, XDATA, add(CFA_XSP16, literal(-4)))
          CFI ?RET_LOW load(1, XDATA, add(CFA_XSP16, literal(-5)))
        MOV       A,#0xc
        LCALL     ?DEALLOC_XSTACK8
          CFI CFA_XSP16 add(XSP16, 12)
        MOV       R7,#0x4
        LJMP      ?BANKED_LEAVE_XDATA
          CFI EndBlock cfiBlock1

        RSEG XDATA_Z:XDATA:NOROOT(0)
        DATA8
??txID_1:
        DS 1
        REQUIRE __INIT_XDATA_Z
//  351 
//  352 #ifdef ZDO_COORDINATOR
//  353 static void zclSampleSw_processZDOMgs(zdoIncomingMsg_t *pMsg)
//  354 {
//  355   switch (pMsg->clusterID)
//  356   {
//  357     case Device_annce:
//  358     {
//  359       zclSampleSw_TestAddr = pMsg->srcAddr.addr.shortAddr;
//  360       HalLcdWriteStringValue("Node:",pMsg->srcAddr.addr.shortAddr,10,0);
//  361       HalLcdWriteString("Test...",4);
//  362 
//  363       osal_start_timerEx(zclSampleSw_TaskID,
//  364                           SAMPLEAPP_READ_EVT,
//  365                           SAMPLEAPP_READ_PERIOD);
//  366     }
//  367     break;
//  368     default:
//  369     break;
//  370   }
//  371 }
//  372 #endif
//  373 
//  374 /*
//  375  * 数据上报事件的处理函数，用于上报数据
//  376  */
//  377 static void zclSampleSw_ReportTest(void)
//  378 {  
//  379     static uint8 seqNum = 0;  
//  380     zclReportCmd_t *reportCmd;  
//  381 
//  382     //目标设备的地址信息
//  383     afAddrType_t destAddr;  
//  384     destAddr.addrMode = afAddr16Bit;
//  385     destAddr.endPoint = SAMPLESW_ENDPOINT;
//  386     destAddr.addr.shortAddr = 0x0000;//0x0000表示协调器的网络地址
//  387 
//  388 reportCmd = (zclReportCmd_t *)osal_mem_alloc(sizeof(zclReportCmd_t)+sizeof(zclReport_t));//申请内存空间
//  389 
//  390     if(reportCmd == NULL)//判断内存空间是否申请成功
//  391          return;  
//  392 
//  393     reportCmd->attrList[0].attrData = (uint8 *)osal_mem_alloc(sizeof(uint8));//申请内存空间
//  394 
//  395     if(reportCmd->attrList[0].attrData == NULL)//判断内存空间是否申请成功
//  396         return;  
//  397 
//  398     reportCmd->numAttr = 1;//属性数量为1
//  399     reportCmd->attrList[0].attrID = ATTRID_ON_OFF_SWITCH_TYPE;//属性ID
//  400     reportCmd->attrList[0].dataType = ZCL_DATATYPE_ENUM8;//数据类型
//  401     *((uint8 *)(reportCmd->attrList[0].attrData)) = seqNum;//属性值
//  402 
//  403     //上报数据
//  404     zcl_SendReportCmd(SAMPLESW_ENDPOINT,//源端点号
//  405         &destAddr,//地址信息
//  406         ZCL_CLUSTER_ID_GEN_ON_OFF_SWITCH_CONFIG,//Cluster ID
//  407         reportCmd,
//  408         ZCL_FRAME_CLIENT_SERVER_DIR,//通信方向为从客户端到服务端
//  409         TRUE,//关闭默认响应（目标设备的响应）
//  410          seqNum++ );//数据包标号，每上报一次数据seqNum的值就会增加1
//  411 
//  412     HalLcdWriteStringValue("Report: ", (seqNum-1), 10, 4);//显示
//  413 
//  414     // 释放内存空间！
//  415     osal_mem_free(reportCmd->attrList[0].attrData);  
//  416     osal_mem_free(reportCmd);
//  417 }
//  418 
//  419 
//  420 //static uint8 aProcessCmd[] = { 1, 0, 0, 0 }; // used for reset command, { length + cmd0 + cmd1 + data }
//  421 

        RSEG XDATA_I:XDATA:NOROOT(0)
//  422 devStates_t zclSampleSw_NwkState = DEV_INIT;
zclSampleSw_NwkState:
        DATA8
        DS 1
        REQUIRE `?<Initializer for zclSampleSw_NwkState>`
        REQUIRE __INIT_XDATA_I
//  423 
//  424 #if defined (OTA_CLIENT) && (OTA_CLIENT == TRUE)
//  425 #define DEVICE_POLL_RATE                 8000   // Poll rate for end device
//  426 #endif
//  427 
//  428 #define SAMPLESW_TOGGLE_TEST_EVT   0x1000
//  429 /*********************************************************************
//  430  * LOCAL FUNCTIONS
//  431  */
//  432 static void zclSampleSw_HandleKeys( byte shift, byte keys );
//  433 static void zclSampleSw_BasicResetCB( void );
//  434 
//  435 static void zclSampleSw_ProcessCommissioningStatus(bdbCommissioningModeMsg_t *bdbCommissioningModeMsg);
//  436 
//  437 
//  438 // Functions to process ZCL Foundation incoming Command/Response messages
//  439 static void zclSampleSw_ProcessIncomingMsg( zclIncomingMsg_t *msg );
//  440 #ifdef ZCL_READ
//  441 static uint8 zclSampleSw_ProcessInReadRspCmd( zclIncomingMsg_t *pInMsg );
//  442 #endif
//  443 #ifdef ZCL_WRITE
//  444 static uint8 zclSampleSw_ProcessInWriteRspCmd( zclIncomingMsg_t *pInMsg );
//  445 #endif
//  446 static uint8 zclSampleSw_ProcessInDefaultRspCmd( zclIncomingMsg_t *pInMsg );
//  447 #ifdef ZCL_DISCOVER
//  448 static uint8 zclSampleSw_ProcessInDiscCmdsRspCmd( zclIncomingMsg_t *pInMsg );
//  449 static uint8 zclSampleSw_ProcessInDiscAttrsRspCmd( zclIncomingMsg_t *pInMsg );
//  450 static uint8 zclSampleSw_ProcessInDiscAttrsExtRspCmd( zclIncomingMsg_t *pInMsg );
//  451 #endif
//  452 
//  453 #if defined (OTA_CLIENT) && (OTA_CLIENT == TRUE)
//  454 static void zclSampleSw_ProcessOTAMsgs( zclOTA_CallbackMsg_t* pMsg );
//  455 #endif
//  456 
//  457 void zclSampleSw_UiActionToggleLight(uint16 keys);
//  458 void zclSampleSw_UiUpdateLcd(uint8 uiCurrentState, char * line[3]);
//  459 
//  460 static void zclSampleApp_BatteryWarningCB( uint8 voltLevel);
//  461 
//  462 
//  463 /*********************************************************************
//  464  * CONSTANTS
//  465  */

        RSEG XDATA_ROM_C:CONST:REORDER:NOROOT(0)
        DATA8
//  466   const uiState_t zclSampleSw_UiStatesMain[] = 
zclSampleSw_UiStatesMain:
        DB 254
        DB 1
        DATA16
        DW 4
        DW `??UI_ActionBackFromAppMenu::?relay`
        DATA8
        DB 0
        DB 254
        DATA16
        DW 1028
        DW `??zclSampleSw_UiActionToggleLight::?relay`
//  467   {
//  468     /*  UI_STATE_BACK_FROM_APP_MENU  */   {UI_STATE_DEFAULT_MOVE,       UI_STATE_TOGGLE_LIGHT,  UI_KEY_SW_5_PRESSED, &UI_ActionBackFromAppMenu}, //do not change this line, except for the second item, which should point to the last entry in this menu
//  469     /*  UI_STATE_TOGGLE_LIGHT        */   {UI_STATE_BACK_FROM_APP_MENU, UI_STATE_DEFAULT_MOVE,  UI_KEY_SW_5_PRESSED | UI_KEY_SW_5_RELEASED, &zclSampleSw_UiActionToggleLight},
//  470   };
//  471   
//  472 /*********************************************************************
//  473  * REFERENCED EXTERNALS
//  474  */
//  475 extern int16 zdpExternalStateTaskID;
//  476 
//  477 /*********************************************************************
//  478  * ZCL General Profile Callback table
//  479  */

        RSEG XDATA_I:XDATA:NOROOT(0)
//  480 static zclGeneral_AppCallbacks_t zclSampleSw_CmdCallbacks =
zclSampleSw_CmdCallbacks:
        DATA8
        DS 18
        REQUIRE `?<Initializer for zclSampleSw_CmdCallbacks>`
        REQUIRE __INIT_XDATA_I
//  481 {
//  482   zclSampleSw_BasicResetCB,               // Basic Cluster Reset command
//  483   NULL,                                   // Identify Trigger Effect command
//  484   NULL,                                   // On/Off cluster commands
//  485   NULL,                                   // On/Off cluster enhanced command Off with Effect
//  486   NULL,                                   // On/Off cluster enhanced command On with Recall Global Scene
//  487   NULL,                                   // On/Off cluster enhanced command On with Timed Off
//  488 #ifdef ZCL_LEVEL_CTRL
//  489   NULL,                                   // Level Control Move to Level command
//  490   NULL,                                   // Level Control Move command
//  491   NULL,                                   // Level Control Step command
//  492   NULL,                                   // Level Control Stop command
//  493 #endif
//  494 #ifdef ZCL_GROUPS
//  495   NULL,                                   // Group Response commands
//  496 #endif
//  497 #ifdef ZCL_SCENES
//  498   NULL,                                   // Scene Store Request command
//  499   NULL,                                   // Scene Recall Request command
//  500   NULL,                                   // Scene Response command
//  501 #endif
//  502 #ifdef ZCL_ALARMS
//  503   NULL,                                   // Alarm (Response) commands
//  504 #endif
//  505 #ifdef SE_UK_EXT
//  506   NULL,                                   // Get Event Log command
//  507   NULL,                                   // Publish Event Log command
//  508 #endif
//  509   NULL,                                   // RSSI Location command
//  510   NULL                                    // RSSI Location Response command
//  511 };
//  512 
//  513 
//  514 
//  515 /*********************************************************************
//  516  * @fn          zclSampleSw_Init
//  517  *
//  518  * @brief       Initialization function for the zclGeneral layer.
//  519  *
//  520  * @param       none
//  521  *
//  522  * @return      none
//  523  */

        RSEG BANKED_CODE:HUGECODE:NOROOT(0)
//  524 void zclSampleSw_Init( byte task_id )
zclSampleSw_Init:
          CFI Block cfiBlock2 Using cfiCommon0
          CFI Function zclSampleSw_Init
        CODE
//  525 {
        FUNCALL zclSampleSw_Init, bdb_StartCommissioning
        LOCFRAME ISTACK, 0, STACK
        LOCFRAME PSTACK, 0, STACK
        LOCFRAME XSTACK, 10, STACK
        LOCFRAME IOVERLAY, 0, STATIC
        LOCFRAME DOVERLAY, 0, STATIC
        ARGFRAME ISTACK, 0, STACK
        ARGFRAME PSTACK, 0, STACK
        ARGFRAME XSTACK, 10, STACK
        ARGFRAME IOVERLAY, 0, STATIC
        ARGFRAME DOVERLAY, 0, STATIC
        FUNCALL zclSampleSw_Init, NLME_PermitJoiningRequest
        LOCFRAME ISTACK, 0, STACK
        LOCFRAME PSTACK, 0, STACK
        LOCFRAME XSTACK, 10, STACK
        LOCFRAME IOVERLAY, 0, STATIC
        LOCFRAME DOVERLAY, 0, STATIC
        ARGFRAME ISTACK, 0, STACK
        ARGFRAME PSTACK, 0, STACK
        ARGFRAME XSTACK, 10, STACK
        ARGFRAME IOVERLAY, 0, STATIC
        ARGFRAME DOVERLAY, 0, STATIC
        FUNCALL zclSampleSw_Init, bdb_RegisterSimpleDescriptor
        LOCFRAME ISTACK, 0, STACK
        LOCFRAME PSTACK, 0, STACK
        LOCFRAME XSTACK, 10, STACK
        LOCFRAME IOVERLAY, 0, STATIC
        LOCFRAME DOVERLAY, 0, STATIC
        ARGFRAME ISTACK, 0, STACK
        ARGFRAME PSTACK, 0, STACK
        ARGFRAME XSTACK, 10, STACK
        ARGFRAME IOVERLAY, 0, STATIC
        ARGFRAME DOVERLAY, 0, STATIC
        FUNCALL zclSampleSw_Init, zclGeneral_RegisterCmdCallbacks
        LOCFRAME ISTACK, 0, STACK
        LOCFRAME PSTACK, 0, STACK
        LOCFRAME XSTACK, 10, STACK
        LOCFRAME IOVERLAY, 0, STATIC
        LOCFRAME DOVERLAY, 0, STATIC
        ARGFRAME ISTACK, 0, STACK
        ARGFRAME PSTACK, 0, STACK
        ARGFRAME XSTACK, 10, STACK
        ARGFRAME IOVERLAY, 0, STATIC
        ARGFRAME DOVERLAY, 0, STATIC
        FUNCALL zclSampleSw_Init, zclSampleSw_ResetAttributesToDefaultValues
        LOCFRAME ISTACK, 0, STACK
        LOCFRAME PSTACK, 0, STACK
        LOCFRAME XSTACK, 10, STACK
        LOCFRAME IOVERLAY, 0, STATIC
        LOCFRAME DOVERLAY, 0, STATIC
        ARGFRAME ISTACK, 0, STACK
        ARGFRAME PSTACK, 0, STACK
        ARGFRAME XSTACK, 10, STACK
        ARGFRAME IOVERLAY, 0, STATIC
        ARGFRAME DOVERLAY, 0, STATIC
        FUNCALL zclSampleSw_Init, zcl_registerAttrList
        LOCFRAME ISTACK, 0, STACK
        LOCFRAME PSTACK, 0, STACK
        LOCFRAME XSTACK, 10, STACK
        LOCFRAME IOVERLAY, 0, STATIC
        LOCFRAME DOVERLAY, 0, STATIC
        ARGFRAME ISTACK, 0, STACK
        ARGFRAME PSTACK, 0, STACK
        ARGFRAME XSTACK, 10, STACK
        ARGFRAME IOVERLAY, 0, STATIC
        ARGFRAME DOVERLAY, 0, STATIC
        FUNCALL zclSampleSw_Init, zcl_registerForMsg
        LOCFRAME ISTACK, 0, STACK
        LOCFRAME PSTACK, 0, STACK
        LOCFRAME XSTACK, 10, STACK
        LOCFRAME IOVERLAY, 0, STATIC
        LOCFRAME DOVERLAY, 0, STATIC
        ARGFRAME ISTACK, 0, STACK
        ARGFRAME PSTACK, 0, STACK
        ARGFRAME XSTACK, 10, STACK
        ARGFRAME IOVERLAY, 0, STATIC
        ARGFRAME DOVERLAY, 0, STATIC
        FUNCALL zclSampleSw_Init, RegisterVoltageWarningCB
        LOCFRAME ISTACK, 0, STACK
        LOCFRAME PSTACK, 0, STACK
        LOCFRAME XSTACK, 10, STACK
        LOCFRAME IOVERLAY, 0, STATIC
        LOCFRAME DOVERLAY, 0, STATIC
        ARGFRAME ISTACK, 0, STACK
        ARGFRAME PSTACK, 0, STACK
        ARGFRAME XSTACK, 10, STACK
        ARGFRAME IOVERLAY, 0, STATIC
        ARGFRAME DOVERLAY, 0, STATIC
        FUNCALL zclSampleSw_Init, RegisterForKeys
        LOCFRAME ISTACK, 0, STACK
        LOCFRAME PSTACK, 0, STACK
        LOCFRAME XSTACK, 10, STACK
        LOCFRAME IOVERLAY, 0, STATIC
        LOCFRAME DOVERLAY, 0, STATIC
        ARGFRAME ISTACK, 0, STACK
        ARGFRAME PSTACK, 0, STACK
        ARGFRAME XSTACK, 10, STACK
        ARGFRAME IOVERLAY, 0, STATIC
        ARGFRAME DOVERLAY, 0, STATIC
        FUNCALL zclSampleSw_Init, bdb_RegisterCommissioningStatusCB
        LOCFRAME ISTACK, 0, STACK
        LOCFRAME PSTACK, 0, STACK
        LOCFRAME XSTACK, 10, STACK
        LOCFRAME IOVERLAY, 0, STATIC
        LOCFRAME DOVERLAY, 0, STATIC
        ARGFRAME ISTACK, 0, STACK
        ARGFRAME PSTACK, 0, STACK
        ARGFRAME XSTACK, 10, STACK
        ARGFRAME IOVERLAY, 0, STATIC
        ARGFRAME DOVERLAY, 0, STATIC
        FUNCALL zclSampleSw_Init, afRegister
        LOCFRAME ISTACK, 0, STACK
        LOCFRAME PSTACK, 0, STACK
        LOCFRAME XSTACK, 10, STACK
        LOCFRAME IOVERLAY, 0, STATIC
        LOCFRAME DOVERLAY, 0, STATIC
        ARGFRAME ISTACK, 0, STACK
        ARGFRAME PSTACK, 0, STACK
        ARGFRAME XSTACK, 10, STACK
        ARGFRAME IOVERLAY, 0, STATIC
        ARGFRAME DOVERLAY, 0, STATIC
        FUNCALL zclSampleSw_Init, osal_start_timerEx
        LOCFRAME ISTACK, 0, STACK
        LOCFRAME PSTACK, 0, STACK
        LOCFRAME XSTACK, 14, STACK
        LOCFRAME IOVERLAY, 0, STATIC
        LOCFRAME DOVERLAY, 0, STATIC
        ARGFRAME ISTACK, 0, STACK
        ARGFRAME PSTACK, 0, STACK
        ARGFRAME XSTACK, 14, STACK
        ARGFRAME IOVERLAY, 0, STATIC
        ARGFRAME DOVERLAY, 0, STATIC
        FUNCALL zclSampleSw_Init, UI_Init
        LOCFRAME ISTACK, 0, STACK
        LOCFRAME PSTACK, 0, STACK
        LOCFRAME XSTACK, 18, STACK
        LOCFRAME IOVERLAY, 0, STATIC
        LOCFRAME DOVERLAY, 0, STATIC
        ARGFRAME ISTACK, 0, STACK
        ARGFRAME PSTACK, 0, STACK
        ARGFRAME XSTACK, 18, STACK
        ARGFRAME IOVERLAY, 0, STATIC
        ARGFRAME DOVERLAY, 0, STATIC
        FUNCALL zclSampleSw_Init, UI_UpdateLcd
        LOCFRAME ISTACK, 0, STACK
        LOCFRAME PSTACK, 0, STACK
        LOCFRAME XSTACK, 10, STACK
        LOCFRAME IOVERLAY, 0, STATIC
        LOCFRAME DOVERLAY, 0, STATIC
        ARGFRAME ISTACK, 0, STACK
        ARGFRAME PSTACK, 0, STACK
        ARGFRAME XSTACK, 10, STACK
        ARGFRAME IOVERLAY, 0, STATIC
        ARGFRAME DOVERLAY, 0, STATIC
        FUNCALL zclSampleSw_Init, bdb_StartCommissioning
        LOCFRAME ISTACK, 0, STACK
        LOCFRAME PSTACK, 0, STACK
        LOCFRAME XSTACK, 10, STACK
        LOCFRAME IOVERLAY, 0, STATIC
        LOCFRAME DOVERLAY, 0, STATIC
        ARGFRAME ISTACK, 0, STACK
        ARGFRAME PSTACK, 0, STACK
        ARGFRAME XSTACK, 10, STACK
        ARGFRAME IOVERLAY, 0, STATIC
        ARGFRAME DOVERLAY, 0, STATIC
        FUNCALL zclSampleSw_Init, NLME_PermitJoiningRequest
        LOCFRAME ISTACK, 0, STACK
        LOCFRAME PSTACK, 0, STACK
        LOCFRAME XSTACK, 10, STACK
        LOCFRAME IOVERLAY, 0, STATIC
        LOCFRAME DOVERLAY, 0, STATIC
        ARGFRAME ISTACK, 0, STACK
        ARGFRAME PSTACK, 0, STACK
        ARGFRAME XSTACK, 10, STACK
        ARGFRAME IOVERLAY, 0, STATIC
        ARGFRAME DOVERLAY, 0, STATIC
        FUNCALL zclSampleSw_Init, osal_start_timerEx
        LOCFRAME ISTACK, 0, STACK
        LOCFRAME PSTACK, 0, STACK
        LOCFRAME XSTACK, 14, STACK
        LOCFRAME IOVERLAY, 0, STATIC
        LOCFRAME DOVERLAY, 0, STATIC
        ARGFRAME ISTACK, 0, STACK
        ARGFRAME PSTACK, 0, STACK
        ARGFRAME XSTACK, 14, STACK
        ARGFRAME IOVERLAY, 0, STATIC
        ARGFRAME DOVERLAY, 0, STATIC
        FUNCALL zclSampleSw_Init, osal_start_timerEx
        LOCFRAME ISTACK, 0, STACK
        LOCFRAME PSTACK, 0, STACK
        LOCFRAME XSTACK, 14, STACK
        LOCFRAME IOVERLAY, 0, STATIC
        LOCFRAME DOVERLAY, 0, STATIC
        ARGFRAME ISTACK, 0, STACK
        ARGFRAME PSTACK, 0, STACK
        ARGFRAME XSTACK, 14, STACK
        ARGFRAME IOVERLAY, 0, STATIC
        ARGFRAME DOVERLAY, 0, STATIC
        REQUIRE ?V0
        REQUIRE ?V1
        MOV       A,#-0xa
        LCALL     ?BANKED_ENTER_XDATA
          CFI DPH0 load(1, XDATA, add(CFA_XSP16, literal(-1)))
          CFI DPL0 load(1, XDATA, add(CFA_XSP16, literal(-2)))
          CFI ?BRET_EXT load(1, XDATA, add(CFA_XSP16, literal(-3)))
          CFI ?RET_HIGH load(1, XDATA, add(CFA_XSP16, literal(-4)))
          CFI ?RET_LOW load(1, XDATA, add(CFA_XSP16, literal(-5)))
          CFI R7 load(1, XDATA, add(CFA_XSP16, literal(-6)))
          CFI V1 load(1, XDATA, add(CFA_XSP16, literal(-7)))
          CFI V0 load(1, XDATA, add(CFA_XSP16, literal(-8)))
          CFI VB load(1, XDATA, add(CFA_XSP16, literal(-9)))
          CFI R6 load(1, XDATA, add(CFA_XSP16, literal(-10)))
          CFI CFA_SP SP+0
          CFI CFA_XSP16 add(XSP16, 10)
        ; Saved register size: 10
        ; Auto size: 0
        MOV       A,R1
        MOV       R6,A
//  526 #ifdef ZDO_COORDINATOR
//  527   bdb_StartCommissioning( BDB_COMMISSIONING_MODE_NWK_FORMATION |
//  528                           BDB_COMMISSIONING_MODE_FINDING_BINDING );
        ; Setup parameters for call to function bdb_StartCommissioning
        MOV       R1,#0xc
        LCALL     `??bdb_StartCommissioning::?relay`; Banked call to: bdb_StartCommissioning
//  529 
//  530   NLME_PermitJoiningRequest(255);
        ; Setup parameters for call to function NLME_PermitJoiningRequest
        MOV       R1,#-0x1
        LCALL     `??NLME_PermitJoiningRequest::?relay`; Banked call to: NLME_PermitJoiningRequest
//  531 #else
//  532   bdb_StartCommissioning( BDB_COMMISSIONING_MODE_NWK_STEERING |
//  533                           BDB_COMMISSIONING_MODE_FINDING_BINDING );
//  534 #endif
//  535   zclSampleSw_TaskID = task_id;
        MOV       A,R6
        MOV       DPTR,#zclSampleSw_TaskID
        MOVX      @DPTR,A
//  536 
//  537   // Set destination address to indirect
//  538   zclSampleSw_DstAddr.addrMode = (afAddrMode_t)AddrNotPresent;
        MOV       DPTR,#zclSampleSw_DstAddr + 8
        CLR       A
        MOVX      @DPTR,A
//  539   zclSampleSw_DstAddr.endPoint = 0;
        INC       DPTR
        MOVX      @DPTR,A
//  540   zclSampleSw_DstAddr.addr.shortAddr = 0;
        MOV       DPTR,#zclSampleSw_DstAddr
        MOVX      @DPTR,A
        INC       DPTR
        MOVX      @DPTR,A
//  541 
//  542   // Register the Simple Descriptor for this application
//  543   bdb_RegisterSimpleDescriptor( &zclSampleSw_SimpleDesc );
        ; Setup parameters for call to function bdb_RegisterSimpleDescriptor
        MOV       R2,#zclSampleSw_SimpleDesc & 0xff
        MOV       R3,#(zclSampleSw_SimpleDesc >> 8) & 0xff
        LCALL     `??bdb_RegisterSimpleDescriptor::?relay`; Banked call to: bdb_RegisterSimpleDescriptor
//  544 
//  545   // Register the ZCL General Cluster Library callback functions
//  546   zclGeneral_RegisterCmdCallbacks( SAMPLESW_ENDPOINT, &zclSampleSw_CmdCallbacks );
        ; Setup parameters for call to function zclGeneral_RegisterCmdCallbacks
        MOV       R2,#zclSampleSw_CmdCallbacks & 0xff
        MOV       R3,#(zclSampleSw_CmdCallbacks >> 8) & 0xff
        MOV       R1,#0x8
        LCALL     `??zclGeneral_RegisterCmdCallbacks::?relay`; Banked call to: zclGeneral_RegisterCmdCallbacks
//  547 
//  548   zclSampleSw_ResetAttributesToDefaultValues();
        ; Setup parameters for call to function zclSampleSw_ResetAttributesToDefaultValues
        LCALL     `??zclSampleSw_ResetAttributesToDefaultValues::?`; Banked call to: zclSampleSw_ResetAttributesToDefaultValues
//  549   
//  550   // Register the application's attribute list
//  551   zcl_registerAttrList( SAMPLESW_ENDPOINT, zclSampleSw_NumAttributes, zclSampleSw_Attrs );
        ; Setup parameters for call to function zcl_registerAttrList
        MOV       R4,#zclSampleSw_Attrs & 0xff
        MOV       R5,#(zclSampleSw_Attrs >> 8) & 0xff
        MOV       DPTR,#zclSampleSw_NumAttributes
        CLR       A
        MOVC      A,@A+DPTR
        MOV       R2,A
        MOV       R1,#0x8
        LCALL     `??zcl_registerAttrList::?relay`; Banked call to: zcl_registerAttrList
//  552 
//  553   // Register the Application to receive the unprocessed Foundation command/response messages
//  554   zcl_registerForMsg( zclSampleSw_TaskID );
        ; Setup parameters for call to function zcl_registerForMsg
        MOV       DPTR,#zclSampleSw_TaskID
        MOVX      A,@DPTR
        MOV       R1,A
        LCALL     `??zcl_registerForMsg::?relay`; Banked call to: zcl_registerForMsg
//  555   
//  556   // Register low voltage NV memory protection application callback
//  557   RegisterVoltageWarningCB( zclSampleApp_BatteryWarningCB );
        ; Setup parameters for call to function RegisterVoltageWarningCB
        MOV       R2,#`??zclSampleApp_BatteryWarningCB::?relay` & 0xff
        MOV       R3,#(`??zclSampleApp_BatteryWarningCB::?relay` >> 8) & 0xff
        LCALL     `??RegisterVoltageWarningCB::?relay`; Banked call to: RegisterVoltageWarningCB
//  558 
//  559   // Register for all key events - This app will handle all key events
//  560   RegisterForKeys( zclSampleSw_TaskID );
        ; Setup parameters for call to function RegisterForKeys
        MOV       DPTR,#zclSampleSw_TaskID
        MOVX      A,@DPTR
        MOV       R1,A
        LCALL     `??RegisterForKeys::?relay`; Banked call to: RegisterForKeys
//  561   
//  562   bdb_RegisterCommissioningStatusCB( zclSampleSw_ProcessCommissioningStatus );
        ; Setup parameters for call to function bdb_RegisterCommissioningStatusCB
        MOV       R2,#`??zclSampleSw_ProcessCommissioningStatus::?rela` & 0xff
        MOV       R3,#(`??zclSampleSw_ProcessCommissioningStatus::?rela` >> 8) & 0xff
        LCALL     `??bdb_RegisterCommissioningStatusCB::?relay`; Banked call to: bdb_RegisterCommissioningStatusCB
//  563 
//  564   // Register for a test endpoint
//  565   afRegister( &sampleSw_TestEp );
        ; Setup parameters for call to function afRegister
        MOV       R2,#sampleSw_TestEp & 0xff
        MOV       R3,#(sampleSw_TestEp >> 8) & 0xff
        LCALL     `??afRegister::?relay`; Banked call to: afRegister
//  566   
//  567   osal_start_timerEx(zclSampleSw_TaskID, 
//  568     SAMPLEAPP_REPORT_EVT,//事件
//  569     SAMPLEAPP_REPORT_PERIOD);//延迟处理事件的时间长度
        ; Setup parameters for call to function osal_start_timerEx
        MOV       DPTR,#__Constant_bb8
        LCALL     ?PUSH_XSTACK8_X_FOUR
          CFI CFA_XSP16 add(XSP16, 14)
        MOV       R2,#0x40
        MOV       R3,#0x0
        MOV       DPTR,#zclSampleSw_TaskID
        MOVX      A,@DPTR
        MOV       R1,A
        LCALL     `??osal_start_timerEx::?relay`; Banked call to: osal_start_timerEx
        MOV       A,#0x4
        LCALL     ?DEALLOC_XSTACK8
          CFI CFA_XSP16 add(XSP16, 10)
//  570   
//  571 #ifdef ZCL_DIAGNOSTIC
//  572   // Register the application's callback function to read/write attribute data.
//  573   // This is only required when the attribute data format is unknown to ZCL.
//  574   zcl_registerReadWriteCB( SAMPLESW_ENDPOINT, zclDiagnostic_ReadWriteAttrCB, NULL );
//  575 
//  576   if ( zclDiagnostic_InitStats() == ZSuccess )
//  577   {
//  578     // Here the user could start the timer to save Diagnostics to NV
//  579   }
//  580 #endif
//  581 
//  582 #if defined (OTA_CLIENT) && (OTA_CLIENT == TRUE)
//  583   // Register for callback events from the ZCL OTA
//  584   zclOTA_Register(zclSampleSw_TaskID);
//  585 #endif
//  586 
//  587   zdpExternalStateTaskID = zclSampleSw_TaskID;
        MOV       DPTR,#zclSampleSw_TaskID
        MOVX      A,@DPTR
        MOV       DPTR,#zdpExternalStateTaskID
        MOVX      @DPTR,A
        INC       DPTR
        CLR       A
        MOVX      @DPTR,A
//  588 
//  589   UI_Init(zclSampleSw_TaskID, SAMPLEAPP_LCD_AUTO_UPDATE_EVT, SAMPLEAPP_KEY_AUTO_REPEAT_EVT, &zclSampleSw_IdentifyTime, APP_TITLE, &zclSampleSw_UiUpdateLcd, zclSampleSw_UiStatesMain);
        ; Setup parameters for call to function UI_Init
        MOV       ?V0,#zclSampleSw_UiStatesMain & 0xff
        MOV       ?V1,#(zclSampleSw_UiStatesMain >> 8) & 0xff
        MOV       R0,#?V0
        LCALL     ?PUSH_XSTACK_I_TWO
          CFI CFA_XSP16 add(XSP16, 12)
        MOV       ?V0,#`??zclSampleSw_UiUpdateLcd::?relay` & 0xff
        MOV       ?V1,#(`??zclSampleSw_UiUpdateLcd::?relay` >> 8) & 0xff
        MOV       R0,#?V0
        LCALL     ?PUSH_XSTACK_I_TWO
          CFI CFA_XSP16 add(XSP16, 14)
        MOV       ?V0,#`?<Constant "TI Sample Switch">` & 0xff
        MOV       ?V1,#(`?<Constant "TI Sample Switch">` >> 8) & 0xff
        MOV       R0,#?V0
        LCALL     ?PUSH_XSTACK_I_TWO
          CFI CFA_XSP16 add(XSP16, 16)
        MOV       ?V0,#zclSampleSw_IdentifyTime & 0xff
        MOV       ?V1,#(zclSampleSw_IdentifyTime >> 8) & 0xff
        MOV       R0,#?V0
        LCALL     ?PUSH_XSTACK_I_TWO
          CFI CFA_XSP16 add(XSP16, 18)
        MOV       R4,#0x20
        MOV       R5,#0x0
        MOV       R2,#0x10
        MOV       R3,#0x0
        MOV       DPTR,#zclSampleSw_TaskID
        MOVX      A,@DPTR
        MOV       R1,A
        LCALL     `??UI_Init::?relay`; Banked call to: UI_Init
        MOV       A,#0x8
        LCALL     ?DEALLOC_XSTACK8
          CFI CFA_XSP16 add(XSP16, 10)
//  590 
//  591   UI_UpdateLcd();
        ; Setup parameters for call to function UI_UpdateLcd
        LCALL     `??UI_UpdateLcd::?relay`; Banked call to: UI_UpdateLcd
//  592 
//  593 #ifdef ZDO_COORDINATOR
//  594   bdb_StartCommissioning( BDB_COMMISSIONING_MODE_NWK_FORMATION |
//  595                           BDB_COMMISSIONING_MODE_FINDING_BINDING );
        ; Setup parameters for call to function bdb_StartCommissioning
        MOV       R1,#0xc
        LCALL     `??bdb_StartCommissioning::?relay`; Banked call to: bdb_StartCommissioning
//  596   
//  597   NLME_PermitJoiningRequest(255);
        ; Setup parameters for call to function NLME_PermitJoiningRequest
        MOV       R1,#-0x1
        LCALL     `??NLME_PermitJoiningRequest::?relay`; Banked call to: NLME_PermitJoiningRequest
//  598   
//  599   // Broadcast
//  600   osal_start_timerEx(zclSampleSw_TaskID, 
//  601                      SAMPLEAPP_BROADCAST_EVT, 
//  602                      SAMPLEAPP_BROADCAST_PERIOD);
        ; Setup parameters for call to function osal_start_timerEx
        MOV       DPTR,#__Constant_3e8
        LCALL     ?PUSH_XSTACK8_X_FOUR
          CFI CFA_XSP16 add(XSP16, 14)
        MOV       R2,#-0x80
        MOV       R3,#0x0
        MOV       DPTR,#zclSampleSw_TaskID
        MOVX      A,@DPTR
        MOV       R1,A
        LCALL     `??osal_start_timerEx::?relay`; Banked call to: osal_start_timerEx
        MOV       A,#0x4
        LCALL     ?DEALLOC_XSTACK8
          CFI CFA_XSP16 add(XSP16, 10)
//  603   // groupcast
//  604   osal_start_timerEx(zclSampleSw_TaskID, 
//  605                      SAMPLEAPP_GROUPCAST_EVT, 
//  606                      SAMPLEAPP_GROUPCAST_PERIOD);
        ; Setup parameters for call to function osal_start_timerEx
        MOV       DPTR,#__Constant_3e8
        LCALL     ?PUSH_XSTACK8_X_FOUR
          CFI CFA_XSP16 add(XSP16, 14)
        MOV       R2,#0x0
        MOV       R3,#0x1
        MOV       DPTR,#zclSampleSw_TaskID
        MOVX      A,@DPTR
        MOV       R1,A
        LCALL     `??osal_start_timerEx::?relay`; Banked call to: osal_start_timerEx
        MOV       A,#0x4
        LCALL     ?DEALLOC_XSTACK8
//  607 #else
//  608   bdb_StartCommissioning( BDB_COMMISSIONING_MODE_NWK_STEERING |
//  609                           BDB_COMMISSIONING_MODE_FINDING_BINDING );
//  610   // Add group
//  611   aps_Group_t group = {
//  612     .ID = GROUP_ID,
//  613     .name = "",
//  614   };
//  615   aps_AddGroup(SAMPLESW_ENDPOINT, &group);
//  616   
//  617   // P2P
//  618   osal_start_timerEx(zclSampleSw_TaskID, 
//  619                      SAMPLEAPP_P2P_EVT, 
//  620                      SAMPLEAPP_P2P_PERIOD);
//  621 #endif
//  622 }
          CFI EndBlock cfiBlock2
        REQUIRE ?Subroutine1
        ; // Fall through to label ?Subroutine1

        RSEG BANKED_CODE:HUGECODE:NOROOT(0)
?Subroutine1:
          CFI Block cfiBlock3 Using cfiCommon0
          CFI NoFunction
          CFI CFA_SP SP+0
          CFI CFA_XSP16 add(XSP16, 10)
          CFI VB load(1, XDATA, add(CFA_XSP16, literal(-9)))
          CFI DPL0 load(1, XDATA, add(CFA_XSP16, literal(-2)))
          CFI DPH0 load(1, XDATA, add(CFA_XSP16, literal(-1)))
          CFI R6 load(1, XDATA, add(CFA_XSP16, literal(-10)))
          CFI R7 load(1, XDATA, add(CFA_XSP16, literal(-6)))
          CFI V0 load(1, XDATA, add(CFA_XSP16, literal(-8)))
          CFI V1 load(1, XDATA, add(CFA_XSP16, literal(-7)))
          CFI ?BRET_EXT load(1, XDATA, add(CFA_XSP16, literal(-3)))
          CFI ?RET_HIGH load(1, XDATA, add(CFA_XSP16, literal(-4)))
          CFI ?RET_LOW load(1, XDATA, add(CFA_XSP16, literal(-5)))
        MOV       R7,#0x2
        LJMP      ?BANKED_LEAVE_XDATA
          CFI EndBlock cfiBlock3
//  623 
//  624 /*********************************************************************
//  625  * @fn          zclSample_event_loop
//  626  *
//  627  * @brief       Event Loop Processor for zclGeneral.
//  628  *
//  629  * @param       none
//  630  *
//  631  * @return      none
//  632  */

        RSEG BANKED_CODE:HUGECODE:NOROOT(0)
//  633 uint16 zclSampleSw_event_loop( uint8 task_id, uint16 events )
zclSampleSw_event_loop:
          CFI Block cfiBlock4 Using cfiCommon0
          CFI Function zclSampleSw_event_loop
        CODE
//  634 {
        FUNCALL zclSampleSw_event_loop, osal_start_timerEx
        LOCFRAME ISTACK, 0, STACK
        LOCFRAME PSTACK, 0, STACK
        LOCFRAME XSTACK, 28, STACK
        LOCFRAME IOVERLAY, 0, STATIC
        LOCFRAME DOVERLAY, 0, STATIC
        ARGFRAME ISTACK, 0, STACK
        ARGFRAME PSTACK, 0, STACK
        ARGFRAME XSTACK, 28, STACK
        ARGFRAME IOVERLAY, 0, STATIC
        ARGFRAME DOVERLAY, 0, STATIC
        FUNCALL zclSampleSw_event_loop, zcl_SendCommand
        LOCFRAME ISTACK, 0, STACK
        LOCFRAME PSTACK, 0, STACK
        LOCFRAME XSTACK, 35, STACK
        LOCFRAME IOVERLAY, 0, STATIC
        LOCFRAME DOVERLAY, 0, STATIC
        ARGFRAME ISTACK, 0, STACK
        ARGFRAME PSTACK, 0, STACK
        ARGFRAME XSTACK, 35, STACK
        ARGFRAME IOVERLAY, 0, STATIC
        ARGFRAME DOVERLAY, 0, STATIC
        FUNCALL zclSampleSw_event_loop, UI_UpdateLcd
        LOCFRAME ISTACK, 0, STACK
        LOCFRAME PSTACK, 0, STACK
        LOCFRAME XSTACK, 24, STACK
        LOCFRAME IOVERLAY, 0, STATIC
        LOCFRAME DOVERLAY, 0, STATIC
        ARGFRAME ISTACK, 0, STACK
        ARGFRAME PSTACK, 0, STACK
        ARGFRAME XSTACK, 24, STACK
        ARGFRAME IOVERLAY, 0, STATIC
        ARGFRAME DOVERLAY, 0, STATIC
        FUNCALL zclSampleSw_event_loop, UI_DeviceStateUpdated
        LOCFRAME ISTACK, 0, STACK
        LOCFRAME PSTACK, 0, STACK
        LOCFRAME XSTACK, 24, STACK
        LOCFRAME IOVERLAY, 0, STATIC
        LOCFRAME DOVERLAY, 0, STATIC
        ARGFRAME ISTACK, 0, STACK
        ARGFRAME PSTACK, 0, STACK
        ARGFRAME XSTACK, 24, STACK
        ARGFRAME IOVERLAY, 0, STATIC
        ARGFRAME DOVERLAY, 0, STATIC
        FUNCALL zclSampleSw_event_loop, osal_msg_deallocate
        LOCFRAME ISTACK, 0, STACK
        LOCFRAME PSTACK, 0, STACK
        LOCFRAME XSTACK, 24, STACK
        LOCFRAME IOVERLAY, 0, STATIC
        LOCFRAME DOVERLAY, 0, STATIC
        ARGFRAME ISTACK, 0, STACK
        ARGFRAME PSTACK, 0, STACK
        ARGFRAME XSTACK, 24, STACK
        ARGFRAME IOVERLAY, 0, STATIC
        ARGFRAME DOVERLAY, 0, STATIC
        FUNCALL zclSampleSw_event_loop, osal_msg_receive
        LOCFRAME ISTACK, 0, STACK
        LOCFRAME PSTACK, 0, STACK
        LOCFRAME XSTACK, 24, STACK
        LOCFRAME IOVERLAY, 0, STATIC
        LOCFRAME DOVERLAY, 0, STATIC
        ARGFRAME ISTACK, 0, STACK
        ARGFRAME PSTACK, 0, STACK
        ARGFRAME XSTACK, 24, STACK
        ARGFRAME IOVERLAY, 0, STATIC
        ARGFRAME DOVERLAY, 0, STATIC
        FUNCALL zclSampleSw_event_loop, HalLcdWriteStringValue
        LOCFRAME ISTACK, 0, STACK
        LOCFRAME PSTACK, 0, STACK
        LOCFRAME XSTACK, 25, STACK
        LOCFRAME IOVERLAY, 0, STATIC
        LOCFRAME DOVERLAY, 0, STATIC
        ARGFRAME ISTACK, 0, STACK
        ARGFRAME PSTACK, 0, STACK
        ARGFRAME XSTACK, 25, STACK
        ARGFRAME IOVERLAY, 0, STATIC
        ARGFRAME DOVERLAY, 0, STATIC
        FUNCALL zclSampleSw_event_loop, HalLcdWriteStringValue
        LOCFRAME ISTACK, 0, STACK
        LOCFRAME PSTACK, 0, STACK
        LOCFRAME XSTACK, 25, STACK
        LOCFRAME IOVERLAY, 0, STATIC
        LOCFRAME DOVERLAY, 0, STATIC
        ARGFRAME ISTACK, 0, STACK
        ARGFRAME PSTACK, 0, STACK
        ARGFRAME XSTACK, 25, STACK
        ARGFRAME IOVERLAY, 0, STATIC
        ARGFRAME DOVERLAY, 0, STATIC
        FUNCALL zclSampleSw_event_loop, HalLcdWriteStringValue
        LOCFRAME ISTACK, 0, STACK
        LOCFRAME PSTACK, 0, STACK
        LOCFRAME XSTACK, 25, STACK
        LOCFRAME IOVERLAY, 0, STATIC
        LOCFRAME DOVERLAY, 0, STATIC
        ARGFRAME ISTACK, 0, STACK
        ARGFRAME PSTACK, 0, STACK
        ARGFRAME XSTACK, 25, STACK
        ARGFRAME IOVERLAY, 0, STATIC
        ARGFRAME DOVERLAY, 0, STATIC
        FUNCALL zclSampleSw_event_loop, zclSampleSw_ProcessIncomingMsg
        LOCFRAME ISTACK, 0, STACK
        LOCFRAME PSTACK, 0, STACK
        LOCFRAME XSTACK, 24, STACK
        LOCFRAME IOVERLAY, 0, STATIC
        LOCFRAME DOVERLAY, 0, STATIC
        ARGFRAME ISTACK, 0, STACK
        ARGFRAME PSTACK, 0, STACK
        ARGFRAME XSTACK, 24, STACK
        ARGFRAME IOVERLAY, 0, STATIC
        ARGFRAME DOVERLAY, 0, STATIC
        FUNCALL zclSampleSw_event_loop, UI_MainStateMachine
        LOCFRAME ISTACK, 0, STACK
        LOCFRAME PSTACK, 0, STACK
        LOCFRAME XSTACK, 24, STACK
        LOCFRAME IOVERLAY, 0, STATIC
        LOCFRAME DOVERLAY, 0, STATIC
        ARGFRAME ISTACK, 0, STACK
        ARGFRAME PSTACK, 0, STACK
        ARGFRAME XSTACK, 24, STACK
        ARGFRAME IOVERLAY, 0, STATIC
        ARGFRAME DOVERLAY, 0, STATIC
        FUNCALL zclSampleSw_event_loop, UI_MainStateMachine
        LOCFRAME ISTACK, 0, STACK
        LOCFRAME PSTACK, 0, STACK
        LOCFRAME XSTACK, 24, STACK
        LOCFRAME IOVERLAY, 0, STATIC
        LOCFRAME DOVERLAY, 0, STATIC
        ARGFRAME ISTACK, 0, STACK
        ARGFRAME PSTACK, 0, STACK
        ARGFRAME XSTACK, 24, STACK
        ARGFRAME IOVERLAY, 0, STATIC
        ARGFRAME DOVERLAY, 0, STATIC
        FUNCALL zclSampleSw_event_loop, osal_mem_alloc
        LOCFRAME ISTACK, 0, STACK
        LOCFRAME PSTACK, 0, STACK
        LOCFRAME XSTACK, 24, STACK
        LOCFRAME IOVERLAY, 0, STATIC
        LOCFRAME DOVERLAY, 0, STATIC
        ARGFRAME ISTACK, 0, STACK
        ARGFRAME PSTACK, 0, STACK
        ARGFRAME XSTACK, 24, STACK
        ARGFRAME IOVERLAY, 0, STATIC
        ARGFRAME DOVERLAY, 0, STATIC
        FUNCALL zclSampleSw_event_loop, zcl_SendRead
        LOCFRAME ISTACK, 0, STACK
        LOCFRAME PSTACK, 0, STACK
        LOCFRAME XSTACK, 29, STACK
        LOCFRAME IOVERLAY, 0, STATIC
        LOCFRAME DOVERLAY, 0, STATIC
        ARGFRAME ISTACK, 0, STACK
        ARGFRAME PSTACK, 0, STACK
        ARGFRAME XSTACK, 29, STACK
        ARGFRAME IOVERLAY, 0, STATIC
        ARGFRAME DOVERLAY, 0, STATIC
        FUNCALL zclSampleSw_event_loop, osal_mem_free
        LOCFRAME ISTACK, 0, STACK
        LOCFRAME PSTACK, 0, STACK
        LOCFRAME XSTACK, 24, STACK
        LOCFRAME IOVERLAY, 0, STATIC
        LOCFRAME DOVERLAY, 0, STATIC
        ARGFRAME ISTACK, 0, STACK
        ARGFRAME PSTACK, 0, STACK
        ARGFRAME XSTACK, 24, STACK
        ARGFRAME IOVERLAY, 0, STATIC
        ARGFRAME DOVERLAY, 0, STATIC
        FUNCALL zclSampleSw_event_loop, osal_start_timerEx
        LOCFRAME ISTACK, 0, STACK
        LOCFRAME PSTACK, 0, STACK
        LOCFRAME XSTACK, 28, STACK
        LOCFRAME IOVERLAY, 0, STATIC
        LOCFRAME DOVERLAY, 0, STATIC
        ARGFRAME ISTACK, 0, STACK
        ARGFRAME PSTACK, 0, STACK
        ARGFRAME XSTACK, 28, STACK
        ARGFRAME IOVERLAY, 0, STATIC
        ARGFRAME DOVERLAY, 0, STATIC
        FUNCALL zclSampleSw_event_loop, zclSampleSw_WriteTest
        LOCFRAME ISTACK, 0, STACK
        LOCFRAME PSTACK, 0, STACK
        LOCFRAME XSTACK, 24, STACK
        LOCFRAME IOVERLAY, 0, STATIC
        LOCFRAME DOVERLAY, 0, STATIC
        ARGFRAME ISTACK, 0, STACK
        ARGFRAME PSTACK, 0, STACK
        ARGFRAME XSTACK, 24, STACK
        ARGFRAME IOVERLAY, 0, STATIC
        ARGFRAME DOVERLAY, 0, STATIC
        FUNCALL zclSampleSw_event_loop, osal_start_timerEx
        LOCFRAME ISTACK, 0, STACK
        LOCFRAME PSTACK, 0, STACK
        LOCFRAME XSTACK, 28, STACK
        LOCFRAME IOVERLAY, 0, STATIC
        LOCFRAME DOVERLAY, 0, STATIC
        ARGFRAME ISTACK, 0, STACK
        ARGFRAME PSTACK, 0, STACK
        ARGFRAME XSTACK, 28, STACK
        ARGFRAME IOVERLAY, 0, STATIC
        ARGFRAME DOVERLAY, 0, STATIC
        FUNCALL zclSampleSw_event_loop, AF_DataRequest
        LOCFRAME ISTACK, 0, STACK
        LOCFRAME PSTACK, 0, STACK
        LOCFRAME XSTACK, 33, STACK
        LOCFRAME IOVERLAY, 0, STATIC
        LOCFRAME DOVERLAY, 0, STATIC
        ARGFRAME ISTACK, 0, STACK
        ARGFRAME PSTACK, 0, STACK
        ARGFRAME XSTACK, 33, STACK
        ARGFRAME IOVERLAY, 0, STATIC
        ARGFRAME DOVERLAY, 0, STATIC
        FUNCALL zclSampleSw_event_loop, osal_start_timerEx
        LOCFRAME ISTACK, 0, STACK
        LOCFRAME PSTACK, 0, STACK
        LOCFRAME XSTACK, 28, STACK
        LOCFRAME IOVERLAY, 0, STATIC
        LOCFRAME DOVERLAY, 0, STATIC
        ARGFRAME ISTACK, 0, STACK
        ARGFRAME PSTACK, 0, STACK
        ARGFRAME XSTACK, 28, STACK
        ARGFRAME IOVERLAY, 0, STATIC
        ARGFRAME DOVERLAY, 0, STATIC
        FUNCALL zclSampleSw_event_loop, AF_DataRequest
        LOCFRAME ISTACK, 0, STACK
        LOCFRAME PSTACK, 0, STACK
        LOCFRAME XSTACK, 33, STACK
        LOCFRAME IOVERLAY, 0, STATIC
        LOCFRAME DOVERLAY, 0, STATIC
        ARGFRAME ISTACK, 0, STACK
        ARGFRAME PSTACK, 0, STACK
        ARGFRAME XSTACK, 33, STACK
        ARGFRAME IOVERLAY, 0, STATIC
        ARGFRAME DOVERLAY, 0, STATIC
        FUNCALL zclSampleSw_event_loop, osal_start_timerEx
        LOCFRAME ISTACK, 0, STACK
        LOCFRAME PSTACK, 0, STACK
        LOCFRAME XSTACK, 28, STACK
        LOCFRAME IOVERLAY, 0, STATIC
        LOCFRAME DOVERLAY, 0, STATIC
        ARGFRAME ISTACK, 0, STACK
        ARGFRAME PSTACK, 0, STACK
        ARGFRAME XSTACK, 28, STACK
        ARGFRAME IOVERLAY, 0, STATIC
        ARGFRAME DOVERLAY, 0, STATIC
        REQUIRE ?V0
        REQUIRE ?V1
        REQUIRE ?V2
        REQUIRE ?V3
        MOV       A,#-0xc
        LCALL     ?BANKED_ENTER_XDATA
          CFI DPH0 load(1, XDATA, add(CFA_XSP16, literal(-1)))
          CFI DPL0 load(1, XDATA, add(CFA_XSP16, literal(-2)))
          CFI ?BRET_EXT load(1, XDATA, add(CFA_XSP16, literal(-3)))
          CFI ?RET_HIGH load(1, XDATA, add(CFA_XSP16, literal(-4)))
          CFI ?RET_LOW load(1, XDATA, add(CFA_XSP16, literal(-5)))
          CFI R7 load(1, XDATA, add(CFA_XSP16, literal(-6)))
          CFI V3 load(1, XDATA, add(CFA_XSP16, literal(-7)))
          CFI V2 load(1, XDATA, add(CFA_XSP16, literal(-8)))
          CFI V1 load(1, XDATA, add(CFA_XSP16, literal(-9)))
          CFI V0 load(1, XDATA, add(CFA_XSP16, literal(-10)))
          CFI VB load(1, XDATA, add(CFA_XSP16, literal(-11)))
          CFI R6 load(1, XDATA, add(CFA_XSP16, literal(-12)))
          CFI CFA_SP SP+0
          CFI CFA_XSP16 add(XSP16, 12)
        ; Saved register size: 12
        ; Auto size: 12
        MOV       A,#-0xc
        LCALL     ?ALLOC_XSTACK8
          CFI CFA_XSP16 add(XSP16, 24)
        MOV       A,R2
        MOV       R6,A
        MOV       A,R3
        MOV       R7,A
//  635   afIncomingMSGPacket_t *MSGpkt;
//  636   (void)task_id;  // Intentionally unreferenced parameter
//  637 
//  638   //Send toggle every 500ms
//  639   if( events & SAMPLESW_TOGGLE_TEST_EVT )
        ANL       A,#0x10
        JZ        ??zclSampleSw_event_loop_0
//  640   {
//  641     osal_start_timerEx(zclSampleSw_TaskID,SAMPLESW_TOGGLE_TEST_EVT,500);
        ; Setup parameters for call to function osal_start_timerEx
        MOV       DPTR,#__Constant_1f4
        LCALL     ?PUSH_XSTACK8_X_FOUR
          CFI CFA_XSP16 add(XSP16, 28)
        MOV       R2,#0x0
        MOV       R3,#0x10
        MOV       DPTR,#zclSampleSw_TaskID
        MOVX      A,@DPTR
        MOV       R1,A
        LCALL     `??osal_start_timerEx::?relay`; Banked call to: osal_start_timerEx
        MOV       A,#0x4
        LCALL     ?DEALLOC_XSTACK8
          CFI CFA_XSP16 add(XSP16, 24)
//  642     zclGeneral_SendOnOff_CmdToggle( SAMPLESW_ENDPOINT, &zclSampleSw_DstAddr, FALSE, 0 );
        ; Setup parameters for call to function zcl_SendCommand
        CLR       A
        MOV       ?V0,A
        MOV       ?V1,A
        MOV       R0,#?V0
        LCALL     ?PUSH_XSTACK_I_TWO
          CFI CFA_XSP16 add(XSP16, 26)
        MOV       R0,#?V0
        LCALL     ?PUSH_XSTACK_I_TWO
          CFI CFA_XSP16 add(XSP16, 28)
        MOV       R0,#?V0
        LCALL     ?PUSH_XSTACK_I_ONE
          CFI CFA_XSP16 add(XSP16, 29)
        MOV       R0,#?V0
        LCALL     ?PUSH_XSTACK_I_TWO
          CFI CFA_XSP16 add(XSP16, 31)
        MOV       R0,#?V0
        LCALL     ?PUSH_XSTACK_I_ONE
          CFI CFA_XSP16 add(XSP16, 32)
        MOV       R0,#?V0
        LCALL     ?PUSH_XSTACK_I_ONE
          CFI CFA_XSP16 add(XSP16, 33)
        MOV       ?V0,#0x1
        MOV       R0,#?V0
        LCALL     ?PUSH_XSTACK_I_ONE
          CFI CFA_XSP16 add(XSP16, 34)
        MOV       ?V0,#0x2
        MOV       R0,#?V0
        LCALL     ?PUSH_XSTACK_I_ONE
          CFI CFA_XSP16 add(XSP16, 35)
        MOV       R4,#0x6
        MOV       R5,#0x0
        MOV       R2,#zclSampleSw_DstAddr & 0xff
        MOV       R3,#(zclSampleSw_DstAddr >> 8) & 0xff
        MOV       R1,#0x8
        LCALL     `??zcl_SendCommand::?relay`; Banked call to: zcl_SendCommand
        MOV       A,#0xb
        LCALL     ?DEALLOC_XSTACK8
          CFI CFA_XSP16 add(XSP16, 24)
//  643     
//  644     // return unprocessed events
//  645     return (events ^ SAMPLESW_TOGGLE_TEST_EVT);
        MOV       A,R6
        MOV       R2,A
        MOV       A,R7
        XRL       A,#0x10
        LJMP      ??zclSampleSw_event_loop_1 & 0xFFFF
//  646   }
//  647   
//  648   
//  649   if ( events & SYS_EVENT_MSG )
??zclSampleSw_event_loop_0:
        MOV       A,R7
        ANL       A,#0x80
        JNZ       ??zclSampleSw_event_loop_2
//  650   {
//  651     while ( (MSGpkt = (afIncomingMSGPacket_t *)osal_msg_receive( zclSampleSw_TaskID )) )
//  652     {
//  653       switch ( MSGpkt->hdr.event )
//  654       {
//  655         case AF_INCOMING_MSG_CMD:
//  656         zclSampleSw_AF_RxProc(MSGpkt);
//  657         break;
//  658 
//  659         case ZCL_INCOMING_MSG:
//  660           // Incoming ZCL Foundation command/response messages
//  661           zclSampleSw_ProcessIncomingMsg( (zclIncomingMsg_t *)MSGpkt );
//  662           break;
//  663 
//  664         case KEY_CHANGE:
//  665           zclSampleSw_HandleKeys( ((keyChange_t *)MSGpkt)->state, ((keyChange_t *)MSGpkt)->keys );
//  666           break;
//  667 
//  668         case ZDO_STATE_CHANGE:
//  669           UI_DeviceStateUpdated((devStates_t)(MSGpkt->hdr.status));
//  670           break;
//  671 
//  672 #if defined (OTA_CLIENT) && (OTA_CLIENT == TRUE)
//  673         case ZCL_OTA_CALLBACK_IND:
//  674           zclSampleSw_ProcessOTAMsgs( (zclOTA_CallbackMsg_t*)MSGpkt  );
//  675           break;
//  676 #endif
//  677 
//  678         default:
//  679           break;
//  680       }
//  681 
//  682       // Release the memory
//  683       osal_msg_deallocate( (uint8 *)MSGpkt );
//  684     }
//  685 
//  686     // return unprocessed events
//  687     return (events ^ SYS_EVENT_MSG);
//  688   }
//  689 
//  690 #if ZG_BUILD_ENDDEVICE_TYPE    
//  691   if ( events & SAMPLEAPP_END_DEVICE_REJOIN_EVT )
//  692   {
//  693     bdb_ZedAttemptRecoverNwk();
//  694     return ( events ^ SAMPLEAPP_END_DEVICE_REJOIN_EVT );
//  695   }
//  696 #endif
//  697   
//  698   if ( events & SAMPLEAPP_LCD_AUTO_UPDATE_EVT )
        MOV       A,R6
        ANL       A,#0x10
        JNZ       $+5
        LJMP      ??zclSampleSw_event_loop_3 & 0xFFFF
//  699   {
//  700     UI_UpdateLcd();
        ; Setup parameters for call to function UI_UpdateLcd
        LCALL     `??UI_UpdateLcd::?relay`; Banked call to: UI_UpdateLcd
//  701     return ( events ^ SAMPLEAPP_LCD_AUTO_UPDATE_EVT );
        MOV       A,R6
        XRL       A,#0x10
        LJMP      ??zclSampleSw_event_loop_4 & 0xFFFF
//  702   }
??zclSampleSw_event_loop_5:
        ; Setup parameters for call to function UI_DeviceStateUpdated
        INC       DPTR
        MOVX      A,@DPTR
        MOV       R1,A
        LCALL     `??UI_DeviceStateUpdated::?relay`; Banked call to: UI_DeviceStateUpdated
??zclSampleSw_event_loop_6:
        ; Setup parameters for call to function osal_msg_deallocate
        MOV       R2,?V0
        MOV       R3,?V1
        LCALL     `??osal_msg_deallocate::?relay`; Banked call to: osal_msg_deallocate
??zclSampleSw_event_loop_2:
        ; Setup parameters for call to function osal_msg_receive
        MOV       DPTR,#zclSampleSw_TaskID
        MOVX      A,@DPTR
        MOV       R1,A
        LCALL     `??osal_msg_receive::?relay`; Banked call to: osal_msg_receive
        MOV       ?V0,R2
        MOV       ?V1,R3
        MOV       A,R2
        ORL       A,?V1
        JNZ       $+5
        LJMP      ??zclSampleSw_event_loop_7 & 0xFFFF
        MOV       DPL,R2
        MOV       DPH,R3
        MOVX      A,@DPTR
        ADD       A,#-0x1a
        JZ        ??zclSampleSw_event_loop_8
        ADD       A,#-0x1a
        JZ        ??zclSampleSw_event_loop_9
        ADD       A,#0x74
        JZ        ??zclSampleSw_event_loop_10
        ADD       A,#-0x11
        JZ        ??zclSampleSw_event_loop_5
        SJMP      ??zclSampleSw_event_loop_6
??zclSampleSw_event_loop_8:
        INC       DPTR
        INC       DPTR
        INC       DPTR
        INC       DPTR
        MOVX      A,@DPTR
        MOV       ?V2,A
        INC       DPTR
        MOVX      A,@DPTR
        MOV       ?V3,A
        MOV       R0,#?V2
        LCALL     ?US_SWITCH_DENSE
`?<Jumptable for zclSampleSw_event_loop>_0`:
        DATA
        DATA16
        DATA
        DATA16
        DW        0
        DATA
        DATA8
        DATA
        DATA8
        DB        2
        DATA
        DATA16
        DATA
        DATA16
        DW        ??zclSampleSw_event_loop_6
        DATA
        DATA16
        DATA
        DATA16
        DW        ??zclSampleSw_event_loop_11
        DATA
        DATA16
        DATA
        DATA16
        DW        ??zclSampleSw_event_loop_12
        DATA
        DATA16
        DATA
        DATA16
        DW        ??zclSampleSw_event_loop_13
        CODE
??zclSampleSw_event_loop_13:
        MOV       DPTR,#??gcCnt
        MOVX      A,@DPTR
        INC       A
        MOVX      @DPTR,A
        ; Setup parameters for call to function HalLcdWriteStringValue
        MOV       ?V2,#0x4
        MOV       R0,#?V2
        LCALL     ?PUSH_XSTACK_I_ONE
          CFI CFA_XSP16 add(XSP16, 25)
        MOV       R1,#0xa
        MOV       DPTR,#??gcCnt
??zclSampleSw_event_loop_14:
        MOVX      A,@DPTR
        MOV       R4,A
        MOV       R5,#0x0
        MOV       A,R2
        ADD       A,#0x22
        MOV       DPL,A
        CLR       A
        ADDC      A,?V1
        MOV       DPH,A
        MOVX      A,@DPTR
        MOV       R2,A
        INC       DPTR
        MOVX      A,@DPTR
        MOV       R3,A
        LCALL     `??HalLcdWriteStringValue::?relay`; Banked call to: HalLcdWriteStringValue
        MOV       A,#0x1
        LCALL     ?DEALLOC_XSTACK8
          CFI CFA_XSP16 add(XSP16, 24)
        SJMP      ??zclSampleSw_event_loop_6
??zclSampleSw_event_loop_12:
        MOV       DPTR,#??bcCnt
        LCALL     ?Subroutine10 & 0xFFFF
??CrossCallReturnLabel_12:
        LCALL     ?PUSH_XSTACK_I_ONE
          CFI CFA_XSP16 add(XSP16, 25)
        MOV       R1,#0xa
        MOV       DPTR,#??bcCnt
        SJMP      ??zclSampleSw_event_loop_14
          CFI CFA_XSP16 add(XSP16, 24)
??zclSampleSw_event_loop_11:
        MOV       DPTR,#??p2pCnt
        LCALL     ?Subroutine10 & 0xFFFF
??CrossCallReturnLabel_13:
        LCALL     ?PUSH_XSTACK_I_ONE
          CFI CFA_XSP16 add(XSP16, 25)
        MOV       R1,#0xa
        MOV       DPTR,#??p2pCnt
        SJMP      ??zclSampleSw_event_loop_14
          CFI CFA_XSP16 add(XSP16, 24)
??zclSampleSw_event_loop_9:
        ; Setup parameters for call to function zclSampleSw_ProcessIncomingMsg
        LCALL     `??zclSampleSw_ProcessIncomingMsg::?relay`; Banked call to: zclSampleSw_ProcessIncomingMsg
        LJMP      ??zclSampleSw_event_loop_6 & 0xFFFF
??zclSampleSw_event_loop_10:
        ; Setup parameters for call to function UI_MainStateMachine
        INC       DPTR
        INC       DPTR
        INC       DPTR
        MOVX      A,@DPTR
        MOV       R2,A
        MOV       R3,#0x0
        LCALL     `??UI_MainStateMachine::?relay`; Banked call to: UI_MainStateMachine
        LJMP      ??zclSampleSw_event_loop_6 & 0xFFFF
??zclSampleSw_event_loop_7:
        MOV       A,R6
        MOV       R2,A
        MOV       A,R7
        XRL       A,#0x80
        LJMP      ??zclSampleSw_event_loop_1 & 0xFFFF
//  703 
//  704   if ( events & SAMPLEAPP_KEY_AUTO_REPEAT_EVT )
??zclSampleSw_event_loop_3:
        MOV       A,R6
        ANL       A,#0x20
        JZ        ??zclSampleSw_event_loop_15
//  705   {
//  706     UI_MainStateMachine(UI_KEY_AUTO_PRESSED);
        ; Setup parameters for call to function UI_MainStateMachine
        MOV       R2,#-0x1
        MOV       R3,#-0x1
        LCALL     `??UI_MainStateMachine::?relay`; Banked call to: UI_MainStateMachine
//  707     return ( events ^ SAMPLEAPP_KEY_AUTO_REPEAT_EVT );
        MOV       A,R6
        XRL       A,#0x20
        LJMP      ??zclSampleSw_event_loop_4 & 0xFFFF
//  708   }
//  709   // Discard unknown events
//  710   
//  711 #ifdef ZDO_COORDINATOR
//  712   if ( events & SAMPLEAPP_READ_EVT )//如是读命令事件
??zclSampleSw_event_loop_15:
        MOV       A,R6
        MOV       C,0xE0 /* A   */.0
        JNC       ??zclSampleSw_event_loop_16
//  713   {
//  714     zclSampleSw_ReadTest();//读命令事件处理函数
        MOV       A,#0x9
        LCALL     ?XSTACK_DISP0_8
        MOV       A,#0x8
        MOVX      @DPTR,A
        LCALL     ?XSTACK_DISP0_8
        LCALL     ?Subroutine3 & 0xFFFF
??CrossCallReturnLabel_1:
        ; Setup parameters for call to function osal_mem_alloc
        MOV       R2,#0x3
        MOV       R3,#0x0
        LCALL     `??osal_mem_alloc::?relay`; Banked call to: osal_mem_alloc
        MOV       ?V0,R2
        MOV       ?V1,R3
        MOV       A,R2
        ORL       A,?V1
        JZ        ??zclSampleSw_event_loop_17
        MOV       DPL,R2
        MOV       DPH,R3
        LCALL     ?Subroutine4 & 0xFFFF
??CrossCallReturnLabel_3:
        MOV       DPTR,#??txID
        LCALL     ?Subroutine7 & 0xFFFF
??CrossCallReturnLabel_7:
        LCALL     ?PUSH_XSTACK_I_ONE
          CFI CFA_XSP16 add(XSP16, 25)
        MOV       ?V2,#0x1
        MOV       R0,#?V2
        LCALL     ?PUSH_XSTACK_I_ONE
          CFI CFA_XSP16 add(XSP16, 26)
        MOV       ?V2,#0x0
        MOV       R0,#?V2
        LCALL     ?PUSH_XSTACK_I_ONE
          CFI CFA_XSP16 add(XSP16, 27)
        MOV       R0,#?V0
        LCALL     ?PUSH_XSTACK_I_TWO
          CFI CFA_XSP16 add(XSP16, 29)
        MOV       R4,#0x7
        MOV       R5,#0x0
        MOV       A,#0x5
        LCALL     ?XSTACK_DISP101_8
        MOV       R1,#0x8
        LCALL     `??zcl_SendRead::?relay`; Banked call to: zcl_SendRead
        MOV       A,#0x5
        LCALL     ?DEALLOC_XSTACK8
          CFI CFA_XSP16 add(XSP16, 24)
        ; Setup parameters for call to function osal_mem_free
        MOV       R2,?V0
        MOV       R3,?V1
        LCALL     `??osal_mem_free::?relay`; Banked call to: osal_mem_free
//  715     
//  716     //启动一个写命令事件
//  717     osal_start_timerEx(zclSampleSw_TaskID, 
//  718                        SAMPLEAPP_WRITE_EVT, 
//  719                        SAMPLEAPP_WRITE_PERIOD);
??zclSampleSw_event_loop_17:
        ; Setup parameters for call to function osal_start_timerEx
        MOV       DPTR,#__Constant_3e8
        LCALL     ?PUSH_XSTACK8_X_FOUR
          CFI CFA_XSP16 add(XSP16, 28)
        MOV       R2,#0x2
        MOV       R3,#0x0
        MOV       DPTR,#zclSampleSw_TaskID
        MOVX      A,@DPTR
        MOV       R1,A
        LCALL     `??osal_start_timerEx::?relay`; Banked call to: osal_start_timerEx
        MOV       A,#0x4
        LCALL     ?DEALLOC_XSTACK8
          CFI CFA_XSP16 add(XSP16, 24)
//  720     
//  721     return ( events ^ SAMPLEAPP_READ_EVT );
        MOV       A,R6
        XRL       A,#0x1
        LJMP      ??zclSampleSw_event_loop_4 & 0xFFFF
//  722   }
//  723   if ( events & SAMPLEAPP_WRITE_EVT )//如果是写命令事件
??zclSampleSw_event_loop_16:
        ANL       A,#0x2
        JZ        ??zclSampleSw_event_loop_18
//  724   {
//  725     zclSampleSw_WriteTest();//写命令处理函数
        ; Setup parameters for call to function zclSampleSw_WriteTest
        LCALL     `??zclSampleSw_WriteTest::?relay`; Banked call to: zclSampleSw_WriteTest
//  726     
//  727     osal_start_timerEx(zclSampleSw_TaskID,//启动一个读命令事件
//  728                        SAMPLEAPP_READ_EVT, 
//  729                        SAMPLEAPP_READ_PERIOD);
        ; Setup parameters for call to function osal_start_timerEx
        MOV       DPTR,#__Constant_3e8
        LCALL     ?PUSH_XSTACK8_X_FOUR
          CFI CFA_XSP16 add(XSP16, 28)
        MOV       R2,#0x1
        MOV       R3,#0x0
        MOV       DPTR,#zclSampleSw_TaskID
        MOVX      A,@DPTR
        MOV       R1,A
        LCALL     `??osal_start_timerEx::?relay`; Banked call to: osal_start_timerEx
        MOV       A,#0x4
        LCALL     ?DEALLOC_XSTACK8
          CFI CFA_XSP16 add(XSP16, 24)
//  730     
//  731     return ( events ^ SAMPLEAPP_WRITE_EVT );
        MOV       A,R6
        XRL       A,#0x2
        SJMP      ??zclSampleSw_event_loop_4
//  732   }
//  733   // Broadcast event
//  734   if ( events & SAMPLEAPP_BROADCAST_EVT )
??zclSampleSw_event_loop_18:
        MOV       A,R6
        ANL       A,#0x80
        JZ        ??zclSampleSw_event_loop_19
//  735   {
//  736     zclSampleSw_AF_Broadcast(CLUSTER_BROADCAST,
//  737                              10, "Broadcast");
        MOV       A,#0x8
        LCALL     ?XSTACK_DISP0_8
        MOV       A,#0xf
        MOVX      @DPTR,A
        MOV       DPL,?XSP + 0
        MOV       DPH,?XSP + 1
        MOV       A,#-0x1
        MOVX      @DPTR,A
        INC       DPTR
        MOVX      @DPTR,A
        MOV       A,#0x9
        LCALL     ?XSTACK_DISP0_8
        MOV       A,#0x8
        MOVX      @DPTR,A
        MOV       DPTR,#??transferId
        LCALL     ?Subroutine11 & 0xFFFF
??CrossCallReturnLabel_14:
        LCALL     ?PUSH_XSTACK_I_ONE
          CFI CFA_XSP16 add(XSP16, 25)
        MOV       ?V0,#??transferId & 0xff
        MOV       ?V1,#(??transferId >> 8) & 0xff
        MOV       R0,#?V0
        LCALL     ?PUSH_XSTACK_I_TWO
          CFI CFA_XSP16 add(XSP16, 27)
        MOV       ?V0,#`?<Constant "Broadcast">` & 0xff
        MOV       ?V1,#(`?<Constant "Broadcast">` >> 8) & 0xff
        MOV       R0,#?V0
        LCALL     ?PUSH_XSTACK_I_TWO
          CFI CFA_XSP16 add(XSP16, 29)
        MOV       ?V0,#0xa
        MOV       ?V1,#0x0
        MOV       R0,#?V0
        LCALL     ?PUSH_XSTACK_I_TWO
          CFI CFA_XSP16 add(XSP16, 31)
        MOV       ?V0,#0x1
        MOV       R0,#?V0
        LCALL     ?PUSH_XSTACK_I_TWO
          CFI CFA_XSP16 add(XSP16, 33)
        MOV       R1,#0x0
        MOV       R4,#sampleSw_TestEp & 0xff
        MOV       R5,#(sampleSw_TestEp >> 8) & 0xff
        MOV       A,#0x9
        LCALL     ?XSTACK_DISP101_8
        LCALL     `??AF_DataRequest::?relay`; Banked call to: AF_DataRequest
        MOV       A,#0x9
        LCALL     ?DEALLOC_XSTACK8
          CFI CFA_XSP16 add(XSP16, 24)
//  738     
//  739     osal_start_timerEx(zclSampleSw_TaskID, 
//  740                      SAMPLEAPP_BROADCAST_EVT, 
//  741                      SAMPLEAPP_BROADCAST_PERIOD);
        ; Setup parameters for call to function osal_start_timerEx
        MOV       DPTR,#__Constant_3e8
        LCALL     ?PUSH_XSTACK8_X_FOUR
          CFI CFA_XSP16 add(XSP16, 28)
        MOV       R2,#-0x80
        MOV       R3,#0x0
        MOV       DPTR,#zclSampleSw_TaskID
        MOVX      A,@DPTR
        MOV       R1,A
        LCALL     `??osal_start_timerEx::?relay`; Banked call to: osal_start_timerEx
        MOV       A,#0x4
        LCALL     ?DEALLOC_XSTACK8
          CFI CFA_XSP16 add(XSP16, 24)
//  742     
//  743     return ( events ^ SAMPLEAPP_BROADCAST_EVT );
        MOV       A,R6
        XRL       A,#0x80
??zclSampleSw_event_loop_4:
        MOV       R2,A
        MOV       A,R7
        LJMP      ??zclSampleSw_event_loop_1 & 0xFFFF
//  744   }
//  745   
//  746   // Groupcast event
//  747   if ( events & SAMPLEAPP_GROUPCAST_EVT )
??zclSampleSw_event_loop_19:
        MOV       A,R7
        ANL       A,#0x1
        JNZ       $+5
        LJMP      ??zclSampleSw_event_loop_20 & 0xFFFF
//  748   {
//  749     zclSampleSw_AF_Groupcast(GROUP_ID,
//  750                              CLUSTER_GROUPCAST,
//  751                              10, "Groupcast");
        MOV       A,#0x8
        LCALL     ?XSTACK_DISP0_8
        MOV       A,#0x1
        MOVX      @DPTR,A
        MOV       DPL,?XSP + 0
        MOV       DPH,?XSP + 1
        MOV       A,#0x15
        MOVX      @DPTR,A
        INC       DPTR
        CLR       A
        MOVX      @DPTR,A
        MOV       A,#0x9
        LCALL     ?XSTACK_DISP0_8
        MOV       A,#0x8
        MOVX      @DPTR,A
        MOV       DPTR,#??transferId_1
        LCALL     ?Subroutine11 & 0xFFFF
??CrossCallReturnLabel_15:
        LCALL     ?PUSH_XSTACK_I_ONE
          CFI CFA_XSP16 add(XSP16, 25)
        MOV       ?V0,#??transferId_1 & 0xff
        MOV       ?V1,#(??transferId_1 >> 8) & 0xff
        MOV       R0,#?V0
        LCALL     ?PUSH_XSTACK_I_TWO
          CFI CFA_XSP16 add(XSP16, 27)
        MOV       ?V0,#`?<Constant "Groupcast">` & 0xff
        MOV       ?V1,#(`?<Constant "Groupcast">` >> 8) & 0xff
        MOV       R0,#?V0
        LCALL     ?PUSH_XSTACK_I_TWO
          CFI CFA_XSP16 add(XSP16, 29)
        MOV       ?V0,#0xa
        MOV       ?V1,#0x0
        MOV       R0,#?V0
        LCALL     ?PUSH_XSTACK_I_TWO
          CFI CFA_XSP16 add(XSP16, 31)
        MOV       ?V0,#0x2
        MOV       R0,#?V0
        LCALL     ?PUSH_XSTACK_I_TWO
          CFI CFA_XSP16 add(XSP16, 33)
        MOV       R1,#0x0
        MOV       R4,#sampleSw_TestEp & 0xff
        MOV       R5,#(sampleSw_TestEp >> 8) & 0xff
        MOV       A,#0x9
        LCALL     ?XSTACK_DISP101_8
        LCALL     `??AF_DataRequest::?relay`; Banked call to: AF_DataRequest
        MOV       A,#0x9
        LCALL     ?DEALLOC_XSTACK8
          CFI CFA_XSP16 add(XSP16, 24)
//  752     
//  753     osal_start_timerEx(zclSampleSw_TaskID, 
//  754                      SAMPLEAPP_GROUPCAST_EVT, 
//  755                      SAMPLEAPP_GROUPCAST_PERIOD);
        ; Setup parameters for call to function osal_start_timerEx
        MOV       DPTR,#__Constant_3e8
        LCALL     ?PUSH_XSTACK8_X_FOUR
          CFI CFA_XSP16 add(XSP16, 28)
        MOV       R2,#0x0
        MOV       R3,#0x1
        MOV       DPTR,#zclSampleSw_TaskID
        MOVX      A,@DPTR
        MOV       R1,A
        LCALL     `??osal_start_timerEx::?relay`; Banked call to: osal_start_timerEx
        MOV       A,#0x4
        LCALL     ?DEALLOC_XSTACK8
          CFI CFA_XSP16 add(XSP16, 24)
//  756     
//  757     return ( events ^ SAMPLEAPP_GROUPCAST_EVT );
        MOV       A,R6
        MOV       R2,A
        MOV       A,R7
        XRL       A,#0x1
??zclSampleSw_event_loop_1:
        MOV       R3,A
        SJMP      ??zclSampleSw_event_loop_21
//  758   }
//  759 
//  760 #else
//  761   if ( events & SAMPLEAPP_REJOIN_EVT )//如果事件类型为重新加入网络事件
//  762   {
//  763        /* 重新加入网络 */
//  764        bdb_StartCommissioning(BDB_COMMISSIONING_MODE_NWK_STEERING |
//  765                                    BDB_COMMISSIONING_MODE_FINDING_BINDING );
//  766     
//  767     return ( events ^ SAMPLEAPP_REJOIN_EVT );
//  768   }
//  769     // P2P Event
//  770   if ( events & SAMPLEAPP_P2P_EVT )
//  771   {
//  772     zclSampleSw_AF_P2P(0x0000,
//  773                        CLUSTER_P2P,
//  774                        4, "P2P");
//  775     
//  776     osal_start_timerEx(zclSampleSw_TaskID, 
//  777                      SAMPLEAPP_P2P_EVT, 
//  778                      SAMPLEAPP_P2P_PERIOD);
//  779     
//  780     return ( events ^ SAMPLEAPP_P2P_EVT );
//  781   }
//  782   if ( events & SAMPLEAPP_REPORT_EVT )
//  783     {
//  784         zclSampleSw_ReportTest();//属性上报事件的处理函数
//  785     
//  786         //启动下一个属性上报事件
//  787         osal_start_timerEx(zclSampleSw_TaskID,
//  788                      SAMPLEAPP_REPORT_EVT, 
//  789                      SAMPLEAPP_REPORT_PERIOD);
//  790       
//  791       return ( events ^ SAMPLEAPP_REPORT_EVT );
//  792   }
//  793 #endif
//  794   return 0;
??zclSampleSw_event_loop_20:
        MOV       R2,#0x0
        MOV       R3,#0x0
??zclSampleSw_event_loop_21:
        LJMP      ?Subroutine0 & 0xFFFF
//  795 }
          CFI EndBlock cfiBlock4

        RSEG BANKED_CODE:HUGECODE:NOROOT(0)
?Subroutine11:
          CFI Block cfiCond5 Using cfiCommon0
          CFI Function zclSampleSw_event_loop
          CFI Conditional ??CrossCallReturnLabel_14
          CFI R6 load(1, XDATA, add(CFA_XSP16, literal(-12)))
          CFI VB load(1, XDATA, add(CFA_XSP16, literal(-11)))
          CFI V0 load(1, XDATA, add(CFA_XSP16, literal(-10)))
          CFI V1 load(1, XDATA, add(CFA_XSP16, literal(-9)))
          CFI V2 load(1, XDATA, add(CFA_XSP16, literal(-8)))
          CFI V3 load(1, XDATA, add(CFA_XSP16, literal(-7)))
          CFI R7 load(1, XDATA, add(CFA_XSP16, literal(-6)))
          CFI ?RET_LOW load(1, XDATA, add(CFA_XSP16, literal(-5)))
          CFI ?RET_HIGH load(1, XDATA, add(CFA_XSP16, literal(-4)))
          CFI ?BRET_EXT load(1, XDATA, add(CFA_XSP16, literal(-3)))
          CFI DPL0 load(1, XDATA, add(CFA_XSP16, literal(-2)))
          CFI DPH0 load(1, XDATA, add(CFA_XSP16, literal(-1)))
          CFI CFA_SP SP+-2
          CFI CFA_XSP16 add(XSP16, 24)
          CFI Block cfiCond6 Using cfiCommon0
          CFI (cfiCond6) Function zclSampleSw_event_loop
          CFI (cfiCond6) Conditional ??CrossCallReturnLabel_15
          CFI (cfiCond6) R6 load(1, XDATA, add(CFA_XSP16, literal(-12)))
          CFI (cfiCond6) VB load(1, XDATA, add(CFA_XSP16, literal(-11)))
          CFI (cfiCond6) V0 load(1, XDATA, add(CFA_XSP16, literal(-10)))
          CFI (cfiCond6) V1 load(1, XDATA, add(CFA_XSP16, literal(-9)))
          CFI (cfiCond6) V2 load(1, XDATA, add(CFA_XSP16, literal(-8)))
          CFI (cfiCond6) V3 load(1, XDATA, add(CFA_XSP16, literal(-7)))
          CFI (cfiCond6) R7 load(1, XDATA, add(CFA_XSP16, literal(-6)))
          CFI (cfiCond6) ?RET_LOW load(1, XDATA, add(CFA_XSP16, literal(-5)))
          CFI (cfiCond6) ?RET_HIGH load(1, XDATA, add(CFA_XSP16, literal(-4)))
          CFI (cfiCond6) ?BRET_EXT load(1, XDATA, add(CFA_XSP16, literal(-3)))
          CFI (cfiCond6) DPL0 load(1, XDATA, add(CFA_XSP16, literal(-2)))
          CFI (cfiCond6) DPH0 load(1, XDATA, add(CFA_XSP16, literal(-1)))
          CFI (cfiCond6) CFA_SP SP+-2
          CFI (cfiCond6) CFA_XSP16 add(XSP16, 24)
          CFI Block cfiPicker7 Using cfiCommon1
          CFI (cfiPicker7) NoFunction
          CFI (cfiPicker7) Picker
        MOVX      A,@DPTR
        INC       A
        MOVX      @DPTR,A
        ; Setup parameters for call to function AF_DataRequest
        ; Setup parameters for call to function AF_DataRequest
        MOV       ?V0,#0x1e
        MOV       R0,#?V0
        RET
          CFI EndBlock cfiCond5
          CFI EndBlock cfiCond6
          CFI EndBlock cfiPicker7

        RSEG BANKED_CODE:HUGECODE:NOROOT(0)
?Subroutine10:
          CFI Block cfiCond8 Using cfiCommon0
          CFI Function zclSampleSw_event_loop
          CFI Conditional ??CrossCallReturnLabel_12
          CFI R6 load(1, XDATA, add(CFA_XSP16, literal(-12)))
          CFI VB load(1, XDATA, add(CFA_XSP16, literal(-11)))
          CFI V0 load(1, XDATA, add(CFA_XSP16, literal(-10)))
          CFI V1 load(1, XDATA, add(CFA_XSP16, literal(-9)))
          CFI V2 load(1, XDATA, add(CFA_XSP16, literal(-8)))
          CFI V3 load(1, XDATA, add(CFA_XSP16, literal(-7)))
          CFI R7 load(1, XDATA, add(CFA_XSP16, literal(-6)))
          CFI ?RET_LOW load(1, XDATA, add(CFA_XSP16, literal(-5)))
          CFI ?RET_HIGH load(1, XDATA, add(CFA_XSP16, literal(-4)))
          CFI ?BRET_EXT load(1, XDATA, add(CFA_XSP16, literal(-3)))
          CFI DPL0 load(1, XDATA, add(CFA_XSP16, literal(-2)))
          CFI DPH0 load(1, XDATA, add(CFA_XSP16, literal(-1)))
          CFI CFA_SP SP+-2
          CFI CFA_XSP16 add(XSP16, 24)
          CFI Block cfiCond9 Using cfiCommon0
          CFI (cfiCond9) Function zclSampleSw_event_loop
          CFI (cfiCond9) Conditional ??CrossCallReturnLabel_13
          CFI (cfiCond9) R6 load(1, XDATA, add(CFA_XSP16, literal(-12)))
          CFI (cfiCond9) VB load(1, XDATA, add(CFA_XSP16, literal(-11)))
          CFI (cfiCond9) V0 load(1, XDATA, add(CFA_XSP16, literal(-10)))
          CFI (cfiCond9) V1 load(1, XDATA, add(CFA_XSP16, literal(-9)))
          CFI (cfiCond9) V2 load(1, XDATA, add(CFA_XSP16, literal(-8)))
          CFI (cfiCond9) V3 load(1, XDATA, add(CFA_XSP16, literal(-7)))
          CFI (cfiCond9) R7 load(1, XDATA, add(CFA_XSP16, literal(-6)))
          CFI (cfiCond9) ?RET_LOW load(1, XDATA, add(CFA_XSP16, literal(-5)))
          CFI (cfiCond9) ?RET_HIGH load(1, XDATA, add(CFA_XSP16, literal(-4)))
          CFI (cfiCond9) ?BRET_EXT load(1, XDATA, add(CFA_XSP16, literal(-3)))
          CFI (cfiCond9) DPL0 load(1, XDATA, add(CFA_XSP16, literal(-2)))
          CFI (cfiCond9) DPH0 load(1, XDATA, add(CFA_XSP16, literal(-1)))
          CFI (cfiCond9) CFA_SP SP+-2
          CFI (cfiCond9) CFA_XSP16 add(XSP16, 24)
          CFI Block cfiPicker10 Using cfiCommon1
          CFI (cfiPicker10) NoFunction
          CFI (cfiPicker10) Picker
        MOVX      A,@DPTR
        INC       A
        MOVX      @DPTR,A
        ; Setup parameters for call to function HalLcdWriteStringValue
        ; Setup parameters for call to function HalLcdWriteStringValue
        MOV       ?V2,#0x3
        MOV       R0,#?V2
        RET
          CFI EndBlock cfiCond8
          CFI EndBlock cfiCond9
          CFI EndBlock cfiPicker10

        RSEG BANKED_CODE:HUGECODE:NOROOT(0)
?Subroutine7:
          CFI Block cfiCond11 Using cfiCommon0
          CFI Function zclSampleSw_WriteTest
          CFI Conditional ??CrossCallReturnLabel_6
          CFI R6 load(1, XDATA, add(CFA_XSP16, literal(-12)))
          CFI VB load(1, XDATA, add(CFA_XSP16, literal(-11)))
          CFI V0 load(1, XDATA, add(CFA_XSP16, literal(-10)))
          CFI V1 load(1, XDATA, add(CFA_XSP16, literal(-9)))
          CFI V2 load(1, XDATA, add(CFA_XSP16, literal(-8)))
          CFI V3 load(1, XDATA, add(CFA_XSP16, literal(-7)))
          CFI R7 load(1, XDATA, add(CFA_XSP16, literal(-6)))
          CFI ?RET_LOW load(1, XDATA, add(CFA_XSP16, literal(-5)))
          CFI ?RET_HIGH load(1, XDATA, add(CFA_XSP16, literal(-4)))
          CFI ?BRET_EXT load(1, XDATA, add(CFA_XSP16, literal(-3)))
          CFI DPL0 load(1, XDATA, add(CFA_XSP16, literal(-2)))
          CFI DPH0 load(1, XDATA, add(CFA_XSP16, literal(-1)))
          CFI CFA_SP SP+-2
          CFI CFA_XSP16 add(XSP16, 24)
          CFI Block cfiCond12 Using cfiCommon0
          CFI (cfiCond12) Function zclSampleSw_event_loop
          CFI (cfiCond12) Conditional ??CrossCallReturnLabel_7
          CFI (cfiCond12) R6 load(1, XDATA, add(CFA_XSP16, literal(-12)))
          CFI (cfiCond12) VB load(1, XDATA, add(CFA_XSP16, literal(-11)))
          CFI (cfiCond12) V0 load(1, XDATA, add(CFA_XSP16, literal(-10)))
          CFI (cfiCond12) V1 load(1, XDATA, add(CFA_XSP16, literal(-9)))
          CFI (cfiCond12) V2 load(1, XDATA, add(CFA_XSP16, literal(-8)))
          CFI (cfiCond12) V3 load(1, XDATA, add(CFA_XSP16, literal(-7)))
          CFI (cfiCond12) R7 load(1, XDATA, add(CFA_XSP16, literal(-6)))
          CFI (cfiCond12) ?RET_LOW load(1, XDATA, add(CFA_XSP16, literal(-5)))
          CFI (cfiCond12) ?RET_HIGH load(1, XDATA, add(CFA_XSP16, literal(-4)))
          CFI (cfiCond12) ?BRET_EXT load(1, XDATA, add(CFA_XSP16, literal(-3)))
          CFI (cfiCond12) DPL0 load(1, XDATA, add(CFA_XSP16, literal(-2)))
          CFI (cfiCond12) DPH0 load(1, XDATA, add(CFA_XSP16, literal(-1)))
          CFI (cfiCond12) CFA_SP SP+-2
          CFI (cfiCond12) CFA_XSP16 add(XSP16, 24)
          CFI Block cfiPicker13 Using cfiCommon1
          CFI (cfiPicker13) NoFunction
          CFI (cfiPicker13) Picker
        MOVX      A,@DPTR
        MOV       R0,A
        MOV       A,#0x1
        ADD       A,R0
        MOVX      @DPTR,A
        ; Setup parameters for call to function zcl_SendWriteRequest
        ; Setup parameters for call to function zcl_SendRead
        MOV       A,R0
        MOV       ?V2,A
        MOV       R0,#?V2
        RET
          CFI EndBlock cfiCond11
          CFI EndBlock cfiCond12
          CFI EndBlock cfiPicker13

        RSEG BANKED_CODE:HUGECODE:NOROOT(0)
?Subroutine4:
          CFI Block cfiCond14 Using cfiCommon0
          CFI Function zclSampleSw_WriteTest
          CFI Conditional ??CrossCallReturnLabel_2
          CFI R6 load(1, XDATA, add(CFA_XSP16, literal(-12)))
          CFI VB load(1, XDATA, add(CFA_XSP16, literal(-11)))
          CFI V0 load(1, XDATA, add(CFA_XSP16, literal(-10)))
          CFI V1 load(1, XDATA, add(CFA_XSP16, literal(-9)))
          CFI V2 load(1, XDATA, add(CFA_XSP16, literal(-8)))
          CFI V3 load(1, XDATA, add(CFA_XSP16, literal(-7)))
          CFI R7 load(1, XDATA, add(CFA_XSP16, literal(-6)))
          CFI ?RET_LOW load(1, XDATA, add(CFA_XSP16, literal(-5)))
          CFI ?RET_HIGH load(1, XDATA, add(CFA_XSP16, literal(-4)))
          CFI ?BRET_EXT load(1, XDATA, add(CFA_XSP16, literal(-3)))
          CFI DPL0 load(1, XDATA, add(CFA_XSP16, literal(-2)))
          CFI DPH0 load(1, XDATA, add(CFA_XSP16, literal(-1)))
          CFI CFA_SP SP+-2
          CFI CFA_XSP16 add(XSP16, 24)
          CFI Block cfiCond15 Using cfiCommon0
          CFI (cfiCond15) Function zclSampleSw_event_loop
          CFI (cfiCond15) Conditional ??CrossCallReturnLabel_3
          CFI (cfiCond15) R6 load(1, XDATA, add(CFA_XSP16, literal(-12)))
          CFI (cfiCond15) VB load(1, XDATA, add(CFA_XSP16, literal(-11)))
          CFI (cfiCond15) V0 load(1, XDATA, add(CFA_XSP16, literal(-10)))
          CFI (cfiCond15) V1 load(1, XDATA, add(CFA_XSP16, literal(-9)))
          CFI (cfiCond15) V2 load(1, XDATA, add(CFA_XSP16, literal(-8)))
          CFI (cfiCond15) V3 load(1, XDATA, add(CFA_XSP16, literal(-7)))
          CFI (cfiCond15) R7 load(1, XDATA, add(CFA_XSP16, literal(-6)))
          CFI (cfiCond15) ?RET_LOW load(1, XDATA, add(CFA_XSP16, literal(-5)))
          CFI (cfiCond15) ?RET_HIGH load(1, XDATA, add(CFA_XSP16, literal(-4)))
          CFI (cfiCond15) ?BRET_EXT load(1, XDATA, add(CFA_XSP16, literal(-3)))
          CFI (cfiCond15) DPL0 load(1, XDATA, add(CFA_XSP16, literal(-2)))
          CFI (cfiCond15) DPH0 load(1, XDATA, add(CFA_XSP16, literal(-1)))
          CFI (cfiCond15) CFA_SP SP+-2
          CFI (cfiCond15) CFA_XSP16 add(XSP16, 24)
          CFI Block cfiPicker16 Using cfiCommon1
          CFI (cfiPicker16) NoFunction
          CFI (cfiPicker16) Picker
        MOV       A,#0x1
        MOVX      @DPTR,A
        INC       DPTR
        MOV       A,#0x10
        MOVX      @DPTR,A
        INC       DPTR
        CLR       A
        MOVX      @DPTR,A
        RET
          CFI EndBlock cfiCond14
          CFI EndBlock cfiCond15
          CFI EndBlock cfiPicker16

        RSEG BANKED_CODE:HUGECODE:NOROOT(0)
?Subroutine3:
          CFI Block cfiCond17 Using cfiCommon0
          CFI Function zclSampleSw_WriteTest
          CFI Conditional ??CrossCallReturnLabel_0
          CFI R6 load(1, XDATA, add(CFA_XSP16, literal(-12)))
          CFI VB load(1, XDATA, add(CFA_XSP16, literal(-11)))
          CFI V0 load(1, XDATA, add(CFA_XSP16, literal(-10)))
          CFI V1 load(1, XDATA, add(CFA_XSP16, literal(-9)))
          CFI V2 load(1, XDATA, add(CFA_XSP16, literal(-8)))
          CFI V3 load(1, XDATA, add(CFA_XSP16, literal(-7)))
          CFI R7 load(1, XDATA, add(CFA_XSP16, literal(-6)))
          CFI ?RET_LOW load(1, XDATA, add(CFA_XSP16, literal(-5)))
          CFI ?RET_HIGH load(1, XDATA, add(CFA_XSP16, literal(-4)))
          CFI ?BRET_EXT load(1, XDATA, add(CFA_XSP16, literal(-3)))
          CFI DPL0 load(1, XDATA, add(CFA_XSP16, literal(-2)))
          CFI DPH0 load(1, XDATA, add(CFA_XSP16, literal(-1)))
          CFI CFA_SP SP+-2
          CFI CFA_XSP16 add(XSP16, 24)
          CFI Block cfiCond18 Using cfiCommon0
          CFI (cfiCond18) Function zclSampleSw_event_loop
          CFI (cfiCond18) Conditional ??CrossCallReturnLabel_1
          CFI (cfiCond18) R6 load(1, XDATA, add(CFA_XSP16, literal(-12)))
          CFI (cfiCond18) VB load(1, XDATA, add(CFA_XSP16, literal(-11)))
          CFI (cfiCond18) V0 load(1, XDATA, add(CFA_XSP16, literal(-10)))
          CFI (cfiCond18) V1 load(1, XDATA, add(CFA_XSP16, literal(-9)))
          CFI (cfiCond18) V2 load(1, XDATA, add(CFA_XSP16, literal(-8)))
          CFI (cfiCond18) V3 load(1, XDATA, add(CFA_XSP16, literal(-7)))
          CFI (cfiCond18) R7 load(1, XDATA, add(CFA_XSP16, literal(-6)))
          CFI (cfiCond18) ?RET_LOW load(1, XDATA, add(CFA_XSP16, literal(-5)))
          CFI (cfiCond18) ?RET_HIGH load(1, XDATA, add(CFA_XSP16, literal(-4)))
          CFI (cfiCond18) ?BRET_EXT load(1, XDATA, add(CFA_XSP16, literal(-3)))
          CFI (cfiCond18) DPL0 load(1, XDATA, add(CFA_XSP16, literal(-2)))
          CFI (cfiCond18) DPH0 load(1, XDATA, add(CFA_XSP16, literal(-1)))
          CFI (cfiCond18) CFA_SP SP+-2
          CFI (cfiCond18) CFA_XSP16 add(XSP16, 24)
          CFI Block cfiPicker19 Using cfiCommon1
          CFI (cfiPicker19) NoFunction
          CFI (cfiPicker19) Picker
        MOV       A,#0x2
        MOVX      @DPTR,A
        MOV       DPTR,#zclSampleSw_TestAddr
        MOVX      A,@DPTR
        MOV       R0,A
        INC       DPTR
        MOVX      A,@DPTR
        MOV       R1,A
        MOV       DPL,?XSP + 0
        MOV       DPH,?XSP + 1
        MOV       A,R0
        MOVX      @DPTR,A
        INC       DPTR
        MOV       A,R1
        MOVX      @DPTR,A
        RET
          CFI EndBlock cfiCond17
          CFI EndBlock cfiCond18
          CFI EndBlock cfiPicker19
//  796 
//  797 /*********************************************************************
//  798  * @fn      zclSampleSw_HandleKeys
//  799  *
//  800  * @brief   Handles all key events for this device.
//  801  *
//  802  * @param   shift - true if in shift/alt.
//  803  * @param   keys - bit field for key events. Valid entries:
//  804  *                 HAL_KEY_SW_5
//  805  *                 HAL_KEY_SW_4
//  806  *                 HAL_KEY_SW_2
//  807  *                 HAL_KEY_SW_1
//  808  *
//  809  * @return  none
//  810  */
//  811 static void zclSampleSw_HandleKeys( byte shift, byte keys )
//  812 {
//  813   UI_MainStateMachine(keys);
//  814 }
//  815 
//  816 
//  817 /*********************************************************************
//  818  * @fn      zclSampleSw_ProcessCommissioningStatus
//  819  *
//  820  * @brief   Callback in which the status of the commissioning process are reported
//  821  *
//  822  * @param   bdbCommissioningModeMsg - Context message of the status of a commissioning process
//  823  *
//  824  * @return  none
//  825  */
//  826 

        RSEG BANKED_CODE:HUGECODE:NOROOT(0)
//  827 static void zclSampleSw_ProcessCommissioningStatus(bdbCommissioningModeMsg_t *bdbCommissioningModeMsg)
zclSampleSw_ProcessCommissioningStatus:
          CFI Block cfiBlock20 Using cfiCommon0
          CFI Function zclSampleSw_ProcessCommissioningStatus
        CODE
//  828 {
        FUNCALL zclSampleSw_ProcessCommissioningStatus, bdb_StartCommissioning
        LOCFRAME ISTACK, 0, STACK
        LOCFRAME PSTACK, 0, STACK
        LOCFRAME XSTACK, 9, STACK
        LOCFRAME IOVERLAY, 0, STATIC
        LOCFRAME DOVERLAY, 0, STATIC
        ARGFRAME ISTACK, 0, STACK
        ARGFRAME PSTACK, 0, STACK
        ARGFRAME XSTACK, 9, STACK
        ARGFRAME IOVERLAY, 0, STATIC
        ARGFRAME DOVERLAY, 0, STATIC
        FUNCALL zclSampleSw_ProcessCommissioningStatus, printf
        LOCFRAME ISTACK, 0, STACK
        LOCFRAME PSTACK, 0, STACK
        LOCFRAME XSTACK, 9, STACK
        LOCFRAME IOVERLAY, 0, STATIC
        LOCFRAME DOVERLAY, 0, STATIC
        ARGFRAME ISTACK, 0, STACK
        ARGFRAME PSTACK, 0, STACK
        ARGFRAME XSTACK, 9, STACK
        ARGFRAME IOVERLAY, 0, STATIC
        ARGFRAME DOVERLAY, 0, STATIC
        FUNCALL zclSampleSw_ProcessCommissioningStatus, printf
        LOCFRAME ISTACK, 0, STACK
        LOCFRAME PSTACK, 0, STACK
        LOCFRAME XSTACK, 9, STACK
        LOCFRAME IOVERLAY, 0, STATIC
        LOCFRAME DOVERLAY, 0, STATIC
        ARGFRAME ISTACK, 0, STACK
        ARGFRAME PSTACK, 0, STACK
        ARGFRAME XSTACK, 9, STACK
        ARGFRAME IOVERLAY, 0, STATIC
        ARGFRAME DOVERLAY, 0, STATIC
        FUNCALL zclSampleSw_ProcessCommissioningStatus, printf
        LOCFRAME ISTACK, 0, STACK
        LOCFRAME PSTACK, 0, STACK
        LOCFRAME XSTACK, 9, STACK
        LOCFRAME IOVERLAY, 0, STATIC
        LOCFRAME DOVERLAY, 0, STATIC
        ARGFRAME ISTACK, 0, STACK
        ARGFRAME PSTACK, 0, STACK
        ARGFRAME XSTACK, 9, STACK
        ARGFRAME IOVERLAY, 0, STATIC
        ARGFRAME DOVERLAY, 0, STATIC
        FUNCALL zclSampleSw_ProcessCommissioningStatus, UI_UpdateComissioningStatus
        LOCFRAME ISTACK, 0, STACK
        LOCFRAME PSTACK, 0, STACK
        LOCFRAME XSTACK, 9, STACK
        LOCFRAME IOVERLAY, 0, STATIC
        LOCFRAME DOVERLAY, 0, STATIC
        ARGFRAME ISTACK, 0, STACK
        ARGFRAME PSTACK, 0, STACK
        ARGFRAME XSTACK, 9, STACK
        ARGFRAME IOVERLAY, 0, STATIC
        ARGFRAME DOVERLAY, 0, STATIC
        MOV       A,#-0x9
        LCALL     ?BANKED_ENTER_XDATA
          CFI DPH0 load(1, XDATA, add(CFA_XSP16, literal(-1)))
          CFI DPL0 load(1, XDATA, add(CFA_XSP16, literal(-2)))
          CFI ?BRET_EXT load(1, XDATA, add(CFA_XSP16, literal(-3)))
          CFI ?RET_HIGH load(1, XDATA, add(CFA_XSP16, literal(-4)))
          CFI ?RET_LOW load(1, XDATA, add(CFA_XSP16, literal(-5)))
          CFI R7 load(1, XDATA, add(CFA_XSP16, literal(-6)))
          CFI V0 load(1, XDATA, add(CFA_XSP16, literal(-7)))
          CFI VB load(1, XDATA, add(CFA_XSP16, literal(-8)))
          CFI R6 load(1, XDATA, add(CFA_XSP16, literal(-9)))
          CFI CFA_SP SP+0
          CFI CFA_XSP16 add(XSP16, 9)
        ; Saved register size: 9
        ; Auto size: 0
        MOV       A,R2
        MOV       R6,A
        MOV       A,R3
        MOV       R7,A
//  829   switch(bdbCommissioningModeMsg->bdbCommissioningMode)
        MOV       DPL,R6
        MOV       DPH,R7
        INC       DPTR
        MOVX      A,@DPTR
        DEC       A
        JZ        ??zclSampleSw_ProcessCommissioningStatus_0
        DEC       A
        JNZ       ??zclSampleSw_ProcessCommissioningStatus_1
//  830   {
//  831     case BDB_COMMISSIONING_FORMATION:
//  832       if(bdbCommissioningModeMsg->bdbCommissioningStatus == BDB_COMMISSIONING_SUCCESS)
        MOV       DPL,R6
        MOV       DPH,R7
        MOVX      A,@DPTR
        JNZ       ??zclSampleSw_ProcessCommissioningStatus_2
//  833       {
//  834         //After formation, perform nwk steering again plus the remaining commissioning modes that has not been processed yet
//  835         bdb_StartCommissioning(BDB_COMMISSIONING_MODE_NWK_STEERING | bdbCommissioningModeMsg->bdbRemainingCommissioningModes);
        ; Setup parameters for call to function bdb_StartCommissioning
        INC       DPTR
        INC       DPTR
        MOVX      A,@DPTR
        ORL       A,#0x2
        MOV       R1,A
        LCALL     `??bdb_StartCommissioning::?relay`; Banked call to: bdb_StartCommissioning
//  836         printf("I have beem form 2332\n");
        ; Setup parameters for call to function printf
        MOV       R2,#`?<Constant "I have beem form 2332\\n">` & 0xff
        MOV       R3,#(`?<Constant "I have beem form 2332\\n">` >> 8) & 0xff
        SJMP      ??zclSampleSw_ProcessCommissioningStatus_3
//  837       }
//  838       else
//  839       {
//  840         //printf("faild");
//  841         /* 协调器 */
//  842         #ifdef ZDO_COORDINATOR
//  843         printf("faild\n");
??zclSampleSw_ProcessCommissioningStatus_2:
        ; Setup parameters for call to function printf
        MOV       R2,#`?<Constant "faild\\n">` & 0xff
        MOV       R3,#(`?<Constant "faild\\n">` >> 8) & 0xff
        SJMP      ??zclSampleSw_ProcessCommissioningStatus_3
//  844         /* 路由器或者终端 */
//  845         #else
//  846             /* 启动重新加入事件 */
//  847         osal_start_timerEx(zclSampleSw_TaskID, 
//  848                                    SAMPLEAPP_REJOIN_EVT, 
//  849                                    SAMPLEAPP_REJOIN_PERIOD);
//  850         #endif
//  851 
//  852         //Want to try other channels?
//  853         //try with bdb_setChannelAttribute
//  854       }
//  855     break;
//  856     case BDB_COMMISSIONING_NWK_STEERING:
//  857       if(bdbCommissioningModeMsg->bdbCommissioningStatus == BDB_COMMISSIONING_SUCCESS)
??zclSampleSw_ProcessCommissioningStatus_0:
        MOV       DPL,R6
        MOV       DPH,R7
        MOVX      A,@DPTR
        JNZ       ??zclSampleSw_ProcessCommissioningStatus_1
//  858       {
//  859         printf("i have been join 2332");
        ; Setup parameters for call to function printf
        MOV       R2,#`?<Constant "i have been join 2332">` & 0xff
        MOV       R3,#(`?<Constant "i have been join 2332">` >> 8) & 0xff
??zclSampleSw_ProcessCommissioningStatus_3:
        LCALL     `??printf::?relay`; Banked call to: printf
//  860         //YOUR JOB:
//  861         //We are on the nwk, what now?
//  862       }
//  863       else
//  864       {
//  865         /* 协调器 */
//  866         #ifdef ZDO_COORDINATOR
//  867         /* 路由器或者终端 */
//  868         #else
//  869         /* 启动重新加入事件 */
//  870         osal_start_timerEx(zclSampleSw_TaskID, 
//  871                            SAMPLEAPP_REJOIN_EVT, 
//  872                            SAMPLEAPP_REJOIN_PERIOD);
//  873         #endif
//  874 
//  875         //See the possible errors for nwk steering procedure
//  876         //No suitable networks found
//  877         //Want to try other channels?
//  878         //try with bdb_setChannelAttribute
//  879       }
//  880     break;
//  881     case BDB_COMMISSIONING_FINDING_BINDING:
//  882       if(bdbCommissioningModeMsg->bdbCommissioningStatus == BDB_COMMISSIONING_SUCCESS)
//  883       {
//  884         //YOUR JOB:
//  885       }
//  886       else
//  887       {
//  888         /* 协调器 */
//  889         #ifdef ZDO_COORDINATOR
//  890         /* 路由器或者终端 */
//  891         #else
//  892             /* 启动重新加入事件 */
//  893         osal_start_timerEx(zclSampleSw_TaskID, 
//  894                                    SAMPLEAPP_REJOIN_EVT, 
//  895                                    SAMPLEAPP_REJOIN_PERIOD);
//  896         #endif
//  897 
//  898         //YOUR JOB:
//  899         //retry?, wait for user interaction?
//  900       }
//  901     break;
//  902     case BDB_COMMISSIONING_INITIALIZATION:
//  903       //Initialization notification can only be successful. Failure on initialization 
//  904       //only happens for ZED and is notified as BDB_COMMISSIONING_PARENT_LOST notification
//  905       
//  906       //YOUR JOB:
//  907       //We are on a network, what now?
//  908       
//  909     break;
//  910 #if ZG_BUILD_ENDDEVICE_TYPE    
//  911     case BDB_COMMISSIONING_PARENT_LOST:
//  912       if(bdbCommissioningModeMsg->bdbCommissioningStatus == BDB_COMMISSIONING_NETWORK_RESTORED)
//  913       {
//  914         //We did recover from losing parent
//  915       }
//  916       else
//  917       {
//  918         //Parent not found, attempt to rejoin again after a fixed delay
//  919         osal_start_timerEx(zclSampleSw_TaskID, SAMPLEAPP_END_DEVICE_REJOIN_EVT, SAMPLEAPP_END_DEVICE_REJOIN_DELAY);
//  920       }
//  921     break;
//  922 #endif 
//  923   }
//  924   
//  925   UI_UpdateComissioningStatus(bdbCommissioningModeMsg);
??zclSampleSw_ProcessCommissioningStatus_1:
        ; Setup parameters for call to function UI_UpdateComissioningStatus
        MOV       A,R6
        MOV       R2,A
        MOV       A,R7
        MOV       R3,A
        LCALL     `??UI_UpdateComissioningStatus::?relay`; Banked call to: UI_UpdateComissioningStatus
//  926 }
        MOV       R7,#0x1
        LJMP      ?BANKED_LEAVE_XDATA
          CFI EndBlock cfiBlock20
//  927 
//  928 /*********************************************************************
//  929  * @fn      zclSampleSw_BasicResetCB
//  930  *
//  931  * @brief   Callback from the ZCL General Cluster Library
//  932  *          to set all the Basic Cluster attributes to  default values.
//  933  *
//  934  * @param   none
//  935  *
//  936  * @return  none
//  937  */

        RSEG BANKED_CODE:HUGECODE:NOROOT(0)
//  938 static void zclSampleSw_BasicResetCB( void )
zclSampleSw_BasicResetCB:
          CFI Block cfiBlock21 Using cfiCommon0
          CFI Function zclSampleSw_BasicResetCB
        CODE
//  939 {
        FUNCALL zclSampleSw_BasicResetCB, zclSampleSw_ResetAttributesToDefaultValues
        LOCFRAME ISTACK, 2, STACK
        LOCFRAME PSTACK, 0, STACK
        LOCFRAME XSTACK, 0, STACK
        LOCFRAME IOVERLAY, 0, STATIC
        LOCFRAME DOVERLAY, 0, STATIC
        ARGFRAME ISTACK, 2, STACK
        ARGFRAME PSTACK, 0, STACK
        ARGFRAME XSTACK, 0, STACK
        ARGFRAME IOVERLAY, 0, STATIC
        ARGFRAME DOVERLAY, 0, STATIC
        FUNCALL zclSampleSw_BasicResetCB, UI_UpdateLcd
        LOCFRAME ISTACK, 2, STACK
        LOCFRAME PSTACK, 0, STACK
        LOCFRAME XSTACK, 0, STACK
        LOCFRAME IOVERLAY, 0, STATIC
        LOCFRAME DOVERLAY, 0, STATIC
        ARGFRAME ISTACK, 2, STACK
        ARGFRAME PSTACK, 0, STACK
        ARGFRAME XSTACK, 0, STACK
        ARGFRAME IOVERLAY, 0, STATIC
        ARGFRAME DOVERLAY, 0, STATIC
        PUSH      DPL
          CFI DPL0 Frame(CFA_SP, 4)
          CFI CFA_SP SP+-4
        PUSH      DPH
          CFI DPH0 Frame(CFA_SP, 5)
          CFI CFA_SP SP+-5
        ; Saved register size: 2
        ; Auto size: 0
//  940   zclSampleSw_ResetAttributesToDefaultValues();
        ; Setup parameters for call to function zclSampleSw_ResetAttributesToDefaultValues
        LCALL     `??zclSampleSw_ResetAttributesToDefaultValues::?`; Banked call to: zclSampleSw_ResetAttributesToDefaultValues
//  941 
//  942   // update the display
//  943   UI_UpdateLcd( ); 
        ; Setup parameters for call to function UI_UpdateLcd
        LCALL     `??UI_UpdateLcd::?relay`; Banked call to: UI_UpdateLcd
//  944 }
          CFI EndBlock cfiBlock21
        REQUIRE ?Subroutine2
        ; // Fall through to label ?Subroutine2

        RSEG BANKED_CODE:HUGECODE:NOROOT(0)
?Subroutine2:
          CFI Block cfiBlock22 Using cfiCommon0
          CFI NoFunction
          CFI CFA_SP SP+-5
          CFI DPL0 Frame(CFA_SP, 4)
          CFI DPH0 Frame(CFA_SP, 5)
        POP       DPH
          CFI CFA_SP SP+-4
          CFI DPH0 SameValue
        POP       DPL
          CFI CFA_SP SP+-3
          CFI DPL0 SameValue
        LJMP      ?BRET
          CFI EndBlock cfiBlock22
//  945 
//  946 /*********************************************************************
//  947  * @fn      zclSampleApp_BatteryWarningCB
//  948  *
//  949  * @brief   Called to handle battery-low situation.
//  950  *
//  951  * @param   voltLevel - level of severity
//  952  *
//  953  * @return  none
//  954  */

        RSEG BANKED_CODE:HUGECODE:NOROOT(0)
//  955 void zclSampleApp_BatteryWarningCB( uint8 voltLevel )
zclSampleApp_BatteryWarningCB:
          CFI Block cfiBlock23 Using cfiCommon0
          CFI Function zclSampleApp_BatteryWarningCB
        CODE
//  956 {
        ; Saved register size: 0
        ; Auto size: 0
//  957   if ( voltLevel == VOLT_LEVEL_CAUTIOUS )
//  958   {
//  959     // Send warning message to the gateway and blink LED
//  960   }
//  961   else if ( voltLevel == VOLT_LEVEL_BAD )
//  962   {
//  963     // Shut down the system
//  964   }
//  965 }
        LJMP      ?BRET
          CFI EndBlock cfiBlock23
//  966 
//  967 /******************************************************************************
//  968  *
//  969  *  Functions for processing ZCL Foundation incoming Command/Response messages
//  970  *
//  971  *****************************************************************************/
//  972 
//  973 /*********************************************************************
//  974  * @fn      zclSampleSw_ProcessIncomingMsg
//  975  *
//  976  * @brief   Process ZCL Foundation incoming message
//  977  *
//  978  * @param   pInMsg - pointer to the received message
//  979  *
//  980  * @return  none
//  981  */
//  982 #ifdef ZCL_REPORT  
//  983 static uint8 zclSampleSw_ProcessInReportCmd( zclIncomingMsg_t *pInMsg )  
//  984 {  
//  985     zclReportCmd_t *reportCmd;  
//  986     uint8 i;  
//  987 
//  988     reportCmd = (zclReportCmd_t *)pInMsg->attrCmd;  
//  989 
//  990     for ( i = 0; i < reportCmd->numAttr; i++ )//reportCmd->numAttr为属性数量
//  991     {  
//  992          if( pInMsg->clusterId == ZCL_CLUSTER_ID_GEN_ON_OFF_SWITCH_CONFIG//Cluster ID
//  993 && reportCmd->attrList[i].attrID == ATTRID_ON_OFF_SWITCH_TYPE)//属性ID
//  994         {  
//  995             int8 attrDat = *(reportCmd->attrList[i].attrData);//读取属性值
//  996             HalLcdWriteStringValue("Rx Value:", attrDat, 10, 4);//显示属性值
//  997         }  
//  998     }  
//  999     return ( TRUE );  
// 1000 }  
// 1001 #endif // ZCL_REPORT

        RSEG BANKED_CODE:HUGECODE:NOROOT(0)
// 1002 static void zclSampleSw_ProcessIncomingMsg( zclIncomingMsg_t *pInMsg )
zclSampleSw_ProcessIncomingMsg:
          CFI Block cfiBlock24 Using cfiCommon0
          CFI Function zclSampleSw_ProcessIncomingMsg
        CODE
// 1003 {
        FUNCALL zclSampleSw_ProcessIncomingMsg, HalLcdWriteStringValue
        LOCFRAME ISTACK, 0, STACK
        LOCFRAME PSTACK, 0, STACK
        LOCFRAME XSTACK, 15, STACK
        LOCFRAME IOVERLAY, 0, STATIC
        LOCFRAME DOVERLAY, 0, STATIC
        ARGFRAME ISTACK, 0, STACK
        ARGFRAME PSTACK, 0, STACK
        ARGFRAME XSTACK, 15, STACK
        ARGFRAME IOVERLAY, 0, STATIC
        ARGFRAME DOVERLAY, 0, STATIC
        FUNCALL zclSampleSw_ProcessIncomingMsg, HalLcdWriteStringValue
        LOCFRAME ISTACK, 0, STACK
        LOCFRAME PSTACK, 0, STACK
        LOCFRAME XSTACK, 15, STACK
        LOCFRAME IOVERLAY, 0, STATIC
        LOCFRAME DOVERLAY, 0, STATIC
        ARGFRAME ISTACK, 0, STACK
        ARGFRAME PSTACK, 0, STACK
        ARGFRAME XSTACK, 15, STACK
        ARGFRAME IOVERLAY, 0, STATIC
        ARGFRAME DOVERLAY, 0, STATIC
        FUNCALL zclSampleSw_ProcessIncomingMsg, zclSampleSw_ProcessInDiscCmdsRspCmd
        LOCFRAME ISTACK, 0, STACK
        LOCFRAME PSTACK, 0, STACK
        LOCFRAME XSTACK, 14, STACK
        LOCFRAME IOVERLAY, 0, STATIC
        LOCFRAME DOVERLAY, 0, STATIC
        ARGFRAME ISTACK, 0, STACK
        ARGFRAME PSTACK, 0, STACK
        ARGFRAME XSTACK, 14, STACK
        ARGFRAME IOVERLAY, 0, STATIC
        ARGFRAME DOVERLAY, 0, STATIC
        FUNCALL zclSampleSw_ProcessIncomingMsg, zclSampleSw_ProcessInDiscCmdsRspCmd
        LOCFRAME ISTACK, 0, STACK
        LOCFRAME PSTACK, 0, STACK
        LOCFRAME XSTACK, 14, STACK
        LOCFRAME IOVERLAY, 0, STATIC
        LOCFRAME DOVERLAY, 0, STATIC
        ARGFRAME ISTACK, 0, STACK
        ARGFRAME PSTACK, 0, STACK
        ARGFRAME XSTACK, 14, STACK
        ARGFRAME IOVERLAY, 0, STATIC
        ARGFRAME DOVERLAY, 0, STATIC
        FUNCALL zclSampleSw_ProcessIncomingMsg, osal_mem_free
        LOCFRAME ISTACK, 0, STACK
        LOCFRAME PSTACK, 0, STACK
        LOCFRAME XSTACK, 14, STACK
        LOCFRAME IOVERLAY, 0, STATIC
        LOCFRAME DOVERLAY, 0, STATIC
        ARGFRAME ISTACK, 0, STACK
        ARGFRAME PSTACK, 0, STACK
        ARGFRAME XSTACK, 14, STACK
        ARGFRAME IOVERLAY, 0, STATIC
        ARGFRAME DOVERLAY, 0, STATIC
        REQUIRE ?V0
        REQUIRE ?V1
        REQUIRE ?V2
        REQUIRE ?V3
        REQUIRE ?V4
        REQUIRE ?V5
        MOV       A,#-0xe
        LCALL     ?BANKED_ENTER_XDATA
          CFI DPH0 load(1, XDATA, add(CFA_XSP16, literal(-1)))
          CFI DPL0 load(1, XDATA, add(CFA_XSP16, literal(-2)))
          CFI ?BRET_EXT load(1, XDATA, add(CFA_XSP16, literal(-3)))
          CFI ?RET_HIGH load(1, XDATA, add(CFA_XSP16, literal(-4)))
          CFI ?RET_LOW load(1, XDATA, add(CFA_XSP16, literal(-5)))
          CFI R7 load(1, XDATA, add(CFA_XSP16, literal(-6)))
          CFI V5 load(1, XDATA, add(CFA_XSP16, literal(-7)))
          CFI V4 load(1, XDATA, add(CFA_XSP16, literal(-8)))
          CFI V3 load(1, XDATA, add(CFA_XSP16, literal(-9)))
          CFI V2 load(1, XDATA, add(CFA_XSP16, literal(-10)))
          CFI V1 load(1, XDATA, add(CFA_XSP16, literal(-11)))
          CFI V0 load(1, XDATA, add(CFA_XSP16, literal(-12)))
          CFI VB load(1, XDATA, add(CFA_XSP16, literal(-13)))
          CFI R6 load(1, XDATA, add(CFA_XSP16, literal(-14)))
          CFI CFA_SP SP+0
          CFI CFA_XSP16 add(XSP16, 14)
        ; Saved register size: 14
        ; Auto size: 0
// 1004   switch ( pInMsg->zclHdr.commandID )
        MOV       A,R2
        ADD       A,#0x8
        MOV       ?V2,A
        CLR       A
        ADDC      A,R3
        MOV       ?V3,A
        MOV       A,R2
        ADD       A,#0x17
        MOV       R6,A
        CLR       A
        ADDC      A,R3
        MOV       R7,A
        MOV       DPL,R2
        MOV       DPH,R3
        INC       DPTR
        INC       DPTR
        INC       DPTR
        INC       DPTR
        INC       DPTR
        INC       DPTR
        INC       DPTR
        MOVX      A,@DPTR
        DEC       A
        JZ        ??zclSampleSw_ProcessIncomingMsg_0
        ADD       A,#-0x3
        JZ        ??zclSampleSw_ProcessIncomingMsg_1
        ADD       A,#-0x6
        JNZ       $+5
        LJMP      ??zclSampleSw_ProcessIncomingMsg_2 & 0xFFFF
        ADD       A,#-0x3
        JNZ       $+5
        LJMP      ??zclSampleSw_ProcessIncomingMsg_3 & 0xFFFF
        ADD       A,#-0x5
        JNZ       $+5
        LJMP      ??zclSampleSw_ProcessIncomingMsg_4 & 0xFFFF
        ADD       A,#-0x2
        JNZ       $+5
        LJMP      ??zclSampleSw_ProcessIncomingMsg_4 & 0xFFFF
        ADD       A,#-0x2
        JNZ       $+5
        LJMP      ??zclSampleSw_ProcessIncomingMsg_5 & 0xFFFF
        LJMP      ??zclSampleSw_ProcessIncomingMsg_6 & 0xFFFF
// 1005   {
// 1006 #ifdef ZCL_READ
// 1007     case ZCL_CMD_READ_RSP:
// 1008       zclSampleSw_ProcessInReadRspCmd( pInMsg );
??zclSampleSw_ProcessIncomingMsg_0:
        LCALL     ?Subroutine9 & 0xFFFF
??CrossCallReturnLabel_10:
        MOV       DPL,?V0
        MOV       DPH,?V1
        MOVX      A,@DPTR
        MOV       R0,A
        MOV       A,?V4
        CLR       C
        SUBB      A,R0
        JC        $+5
        LJMP      ??zclSampleSw_ProcessIncomingMsg_6 & 0xFFFF
        MOV       DPL,?V2
        MOV       DPH,?V3
        MOVX      A,@DPTR
        XRL       A,#0x7
        JNZ       ??zclSampleSw_ProcessIncomingMsg_7
        INC       DPTR
        MOVX      A,@DPTR
??zclSampleSw_ProcessIncomingMsg_7:
        JNZ       ??zclSampleSw_ProcessIncomingMsg_8
        MOV       A,?V4
        MOV       B,#0x6
        LCALL     ?Subroutine5 & 0xFFFF
??CrossCallReturnLabel_4:
        XRL       A,#0x10
        JNZ       ??zclSampleSw_ProcessIncomingMsg_9
        INC       DPTR
        MOVX      A,@DPTR
??zclSampleSw_ProcessIncomingMsg_9:
        JNZ       ??zclSampleSw_ProcessIncomingMsg_8
        ; Setup parameters for call to function HalLcdWriteStringValue
        MOV       ?V5,#0x4
        MOV       R0,#?V5
        LCALL     ?PUSH_XSTACK_I_ONE
          CFI CFA_XSP16 add(XSP16, 15)
        MOV       R1,#0xa
        MOV       DPL,R2
        MOV       DPH,R3
        INC       DPTR
        LCALL     ?Subroutine8 & 0xFFFF
??CrossCallReturnLabel_8:
        MOV       R5,#0x0
        MOV       R2,#`?<Constant "Read:">` & 0xff
        MOV       R3,#(`?<Constant "Read:">` >> 8) & 0xff
        LCALL     `??HalLcdWriteStringValue::?relay`; Banked call to: HalLcdWriteStringValue
        MOV       A,#0x1
        LCALL     ?DEALLOC_XSTACK8
          CFI CFA_XSP16 add(XSP16, 14)
??zclSampleSw_ProcessIncomingMsg_8:
        INC       ?V4
        SJMP      ??CrossCallReturnLabel_10
// 1009       break;
// 1010 #endif
// 1011 #ifdef ZCL_WRITE
// 1012     case ZCL_CMD_WRITE_RSP:
// 1013       zclSampleSw_ProcessInWriteRspCmd( pInMsg );
??zclSampleSw_ProcessIncomingMsg_1:
        MOV       DPL,R6
        MOV       DPH,R7
        MOVX      A,@DPTR
        MOV       R0,A
        INC       DPTR
        MOVX      A,@DPTR
        MOV       R1,A
        MOV       DPL,R0
        MOV       DPH,R1
        MOV       R0,#0x0
??zclSampleSw_ProcessIncomingMsg_10:
        MOVX      A,@DPTR
        MOV       R1,A
        MOV       A,R0
        CLR       C
        SUBB      A,R1
        JC        $+5
        LJMP      ??zclSampleSw_ProcessIncomingMsg_6 & 0xFFFF
        INC       R0
        SJMP      ??zclSampleSw_ProcessIncomingMsg_10
// 1014       break;
// 1015 #endif
// 1016 #ifdef ZCL_REPORT
// 1017 
// 1018     // See ZCL Test Applicaiton (zcl_testapp.c) for sample code on Attribute Reporting
// 1019     case ZCL_CMD_CONFIG_REPORT:
// 1020       //zclSampleSw_ProcessInConfigReportCmd( pInMsg );
// 1021       break;
// 1022 
// 1023     case ZCL_CMD_CONFIG_REPORT_RSP:
// 1024       //zclSampleSw_ProcessInConfigReportRspCmd( pInMsg );
// 1025       break;
// 1026 
// 1027     case ZCL_CMD_READ_REPORT_CFG:
// 1028       //zclSampleSw_ProcessInReadReportCfgCmd( pInMsg );
// 1029       break;
// 1030 
// 1031     case ZCL_CMD_READ_REPORT_CFG_RSP:
// 1032       //zclSampleSw_ProcessInReadReportCfgRspCmd( pInMsg );
// 1033       break;
// 1034 
// 1035     case ZCL_CMD_REPORT:
// 1036       zclSampleSw_ProcessInReportCmd( pInMsg );
??zclSampleSw_ProcessIncomingMsg_2:
        LCALL     ?Subroutine9 & 0xFFFF
??CrossCallReturnLabel_11:
        MOV       DPL,?V0
        MOV       DPH,?V1
        MOVX      A,@DPTR
        MOV       R0,A
        MOV       A,?V4
        CLR       C
        SUBB      A,R0
        JNC       ??zclSampleSw_ProcessIncomingMsg_6
        MOV       DPL,?V2
        MOV       DPH,?V3
        MOVX      A,@DPTR
        XRL       A,#0x7
        JNZ       ??zclSampleSw_ProcessIncomingMsg_11
        INC       DPTR
        MOVX      A,@DPTR
??zclSampleSw_ProcessIncomingMsg_11:
        JNZ       ??zclSampleSw_ProcessIncomingMsg_12
        MOV       A,?V4
        MOV       B,#0x5
        LCALL     ?Subroutine5 & 0xFFFF
??CrossCallReturnLabel_5:
        MOV       R0,A
        INC       DPTR
        MOVX      A,@DPTR
        MOV       R1,A
        MOV       A,R0
        ORL       A,R1
        JNZ       ??zclSampleSw_ProcessIncomingMsg_12
        ; Setup parameters for call to function HalLcdWriteStringValue
        MOV       ?V5,#0x4
        MOV       R0,#?V5
        LCALL     ?PUSH_XSTACK_I_ONE
          CFI CFA_XSP16 add(XSP16, 15)
        MOV       R1,#0xa
        MOV       DPL,R2
        MOV       DPH,R3
        LCALL     ?Subroutine8 & 0xFFFF
??CrossCallReturnLabel_9:
        RLC       A
        SUBB      A,0xE0 /* A   */
        MOV       R5,A
        MOV       R2,#`?<Constant "Rx Value:">` & 0xff
        MOV       R3,#(`?<Constant "Rx Value:">` >> 8) & 0xff
        LCALL     `??HalLcdWriteStringValue::?relay`; Banked call to: HalLcdWriteStringValue
        MOV       A,#0x1
        LCALL     ?DEALLOC_XSTACK8
          CFI CFA_XSP16 add(XSP16, 14)
??zclSampleSw_ProcessIncomingMsg_12:
        INC       ?V4
        SJMP      ??CrossCallReturnLabel_11
// 1037       break;
// 1038 #endif
// 1039     case ZCL_CMD_DEFAULT_RSP:
// 1040       zclSampleSw_ProcessInDefaultRspCmd( pInMsg );
// 1041       break;
// 1042 
// 1043 #ifdef ZCL_DISCOVER
// 1044     case ZCL_CMD_DISCOVER_CMDS_RECEIVED_RSP:
// 1045       zclSampleSw_ProcessInDiscCmdsRspCmd( pInMsg );
??zclSampleSw_ProcessIncomingMsg_4:
        ; Setup parameters for call to function zclSampleSw_ProcessInDiscCmdsRspCmd
// 1046       break;
// 1047 
// 1048     case ZCL_CMD_DISCOVER_CMDS_GEN_RSP:
// 1049       zclSampleSw_ProcessInDiscCmdsRspCmd( pInMsg );
        ; Setup parameters for call to function zclSampleSw_ProcessInDiscCmdsRspCmd
        LCALL     `??zclSampleSw_ProcessInDiscCmdsRspCmd::?relay`; Banked call to: zclSampleSw_ProcessInDiscCmdsRspCmd
// 1050       break;
        SJMP      ??zclSampleSw_ProcessIncomingMsg_6
// 1051 
// 1052     case ZCL_CMD_DISCOVER_ATTRS_RSP:
// 1053       zclSampleSw_ProcessInDiscAttrsRspCmd( pInMsg );
??zclSampleSw_ProcessIncomingMsg_3:
        LCALL     ?Subroutine6 & 0xFFFF
??CrossCallReturnLabel_19:
        MOV       DPL,R0
        MOV       DPH,R1
        INC       DPTR
        MOVX      A,@DPTR
        MOV       R3,A
        MOV       A,R2
        CLR       C
        SUBB      A,R3
        JNC       ??zclSampleSw_ProcessIncomingMsg_6
        INC       R2
        SJMP      ??CrossCallReturnLabel_19
// 1054       break;
// 1055 
// 1056     case ZCL_CMD_DISCOVER_ATTRS_EXT_RSP:
// 1057       zclSampleSw_ProcessInDiscAttrsExtRspCmd( pInMsg );
??zclSampleSw_ProcessIncomingMsg_5:
        LCALL     ?Subroutine6 & 0xFFFF
// 1058       break;
// 1059 #endif
// 1060     default:
// 1061       break;
// 1062   }
??CrossCallReturnLabel_20:
        SJMP      ??zclSampleSw_ProcessIncomingMsg_13
??zclSampleSw_ProcessIncomingMsg_14:
        INC       R2
??zclSampleSw_ProcessIncomingMsg_13:
        MOV       DPL,R0
        MOV       DPH,R1
        INC       DPTR
        MOVX      A,@DPTR
        MOV       R3,A
        MOV       A,R2
        CLR       C
        SUBB      A,R3
        JC        ??zclSampleSw_ProcessIncomingMsg_14
// 1063 
// 1064   if ( pInMsg->attrCmd )
??zclSampleSw_ProcessIncomingMsg_6:
        MOV       DPL,R6
        MOV       DPH,R7
        MOVX      A,@DPTR
        MOV       R2,A
        INC       DPTR
        MOVX      A,@DPTR
        MOV       R3,A
        MOV       A,R2
        ORL       A,R3
        JZ        ??zclSampleSw_ProcessIncomingMsg_15
// 1065     osal_mem_free( pInMsg->attrCmd );
        ; Setup parameters for call to function osal_mem_free
        LCALL     `??osal_mem_free::?relay`; Banked call to: osal_mem_free
// 1066 }
??zclSampleSw_ProcessIncomingMsg_15:
        MOV       R7,#0x6
        LJMP      ?BANKED_LEAVE_XDATA
          CFI EndBlock cfiBlock24

        RSEG BANKED_CODE:HUGECODE:NOROOT(0)
?Subroutine9:
          CFI Block cfiCond25 Using cfiCommon0
          CFI Function zclSampleSw_ProcessIncomingMsg
          CFI Conditional ??CrossCallReturnLabel_10
          CFI R6 load(1, XDATA, add(CFA_XSP16, literal(-14)))
          CFI VB load(1, XDATA, add(CFA_XSP16, literal(-13)))
          CFI V0 load(1, XDATA, add(CFA_XSP16, literal(-12)))
          CFI V1 load(1, XDATA, add(CFA_XSP16, literal(-11)))
          CFI V2 load(1, XDATA, add(CFA_XSP16, literal(-10)))
          CFI V3 load(1, XDATA, add(CFA_XSP16, literal(-9)))
          CFI V4 load(1, XDATA, add(CFA_XSP16, literal(-8)))
          CFI V5 load(1, XDATA, add(CFA_XSP16, literal(-7)))
          CFI R7 load(1, XDATA, add(CFA_XSP16, literal(-6)))
          CFI ?RET_LOW load(1, XDATA, add(CFA_XSP16, literal(-5)))
          CFI ?RET_HIGH load(1, XDATA, add(CFA_XSP16, literal(-4)))
          CFI ?BRET_EXT load(1, XDATA, add(CFA_XSP16, literal(-3)))
          CFI DPL0 load(1, XDATA, add(CFA_XSP16, literal(-2)))
          CFI DPH0 load(1, XDATA, add(CFA_XSP16, literal(-1)))
          CFI CFA_SP SP+-2
          CFI CFA_XSP16 add(XSP16, 14)
          CFI Block cfiCond26 Using cfiCommon0
          CFI (cfiCond26) Function zclSampleSw_ProcessIncomingMsg
          CFI (cfiCond26) Conditional ??CrossCallReturnLabel_11
          CFI (cfiCond26) R6 load(1, XDATA, add(CFA_XSP16, literal(-14)))
          CFI (cfiCond26) VB load(1, XDATA, add(CFA_XSP16, literal(-13)))
          CFI (cfiCond26) V0 load(1, XDATA, add(CFA_XSP16, literal(-12)))
          CFI (cfiCond26) V1 load(1, XDATA, add(CFA_XSP16, literal(-11)))
          CFI (cfiCond26) V2 load(1, XDATA, add(CFA_XSP16, literal(-10)))
          CFI (cfiCond26) V3 load(1, XDATA, add(CFA_XSP16, literal(-9)))
          CFI (cfiCond26) V4 load(1, XDATA, add(CFA_XSP16, literal(-8)))
          CFI (cfiCond26) V5 load(1, XDATA, add(CFA_XSP16, literal(-7)))
          CFI (cfiCond26) R7 load(1, XDATA, add(CFA_XSP16, literal(-6)))
          CFI (cfiCond26) ?RET_LOW load(1, XDATA, add(CFA_XSP16, literal(-5)))
          CFI (cfiCond26) ?RET_HIGH load(1, XDATA, add(CFA_XSP16, literal(-4)))
          CFI (cfiCond26) ?BRET_EXT load(1, XDATA, add(CFA_XSP16, literal(-3)))
          CFI (cfiCond26) DPL0 load(1, XDATA, add(CFA_XSP16, literal(-2)))
          CFI (cfiCond26) DPH0 load(1, XDATA, add(CFA_XSP16, literal(-1)))
          CFI (cfiCond26) CFA_SP SP+-2
          CFI (cfiCond26) CFA_XSP16 add(XSP16, 14)
          CFI Block cfiPicker27 Using cfiCommon1
          CFI (cfiPicker27) NoFunction
          CFI (cfiPicker27) Picker
        MOV       DPL,R6
        MOV       DPH,R7
        MOVX      A,@DPTR
        MOV       ?V0,A
        INC       DPTR
        MOVX      A,@DPTR
        MOV       ?V1,A
        MOV       ?V4,#0x0
        RET
          CFI EndBlock cfiCond25
          CFI EndBlock cfiCond26
          CFI EndBlock cfiPicker27

        RSEG BANKED_CODE:HUGECODE:NOROOT(0)
?Subroutine8:
          CFI Block cfiCond28 Using cfiCommon0
          CFI Function zclSampleSw_ProcessIncomingMsg
          CFI Conditional ??CrossCallReturnLabel_8
          CFI R6 load(1, XDATA, add(CFA_XSP16, literal(-14)))
          CFI VB load(1, XDATA, add(CFA_XSP16, literal(-13)))
          CFI V0 load(1, XDATA, add(CFA_XSP16, literal(-12)))
          CFI V1 load(1, XDATA, add(CFA_XSP16, literal(-11)))
          CFI V2 load(1, XDATA, add(CFA_XSP16, literal(-10)))
          CFI V3 load(1, XDATA, add(CFA_XSP16, literal(-9)))
          CFI V4 load(1, XDATA, add(CFA_XSP16, literal(-8)))
          CFI V5 load(1, XDATA, add(CFA_XSP16, literal(-7)))
          CFI R7 load(1, XDATA, add(CFA_XSP16, literal(-6)))
          CFI ?RET_LOW load(1, XDATA, add(CFA_XSP16, literal(-5)))
          CFI ?RET_HIGH load(1, XDATA, add(CFA_XSP16, literal(-4)))
          CFI ?BRET_EXT load(1, XDATA, add(CFA_XSP16, literal(-3)))
          CFI DPL0 load(1, XDATA, add(CFA_XSP16, literal(-2)))
          CFI DPH0 load(1, XDATA, add(CFA_XSP16, literal(-1)))
          CFI CFA_SP SP+-2
          CFI CFA_XSP16 add(XSP16, 15)
          CFI Block cfiCond29 Using cfiCommon0
          CFI (cfiCond29) Function zclSampleSw_ProcessIncomingMsg
          CFI (cfiCond29) Conditional ??CrossCallReturnLabel_9
          CFI (cfiCond29) R6 load(1, XDATA, add(CFA_XSP16, literal(-14)))
          CFI (cfiCond29) VB load(1, XDATA, add(CFA_XSP16, literal(-13)))
          CFI (cfiCond29) V0 load(1, XDATA, add(CFA_XSP16, literal(-12)))
          CFI (cfiCond29) V1 load(1, XDATA, add(CFA_XSP16, literal(-11)))
          CFI (cfiCond29) V2 load(1, XDATA, add(CFA_XSP16, literal(-10)))
          CFI (cfiCond29) V3 load(1, XDATA, add(CFA_XSP16, literal(-9)))
          CFI (cfiCond29) V4 load(1, XDATA, add(CFA_XSP16, literal(-8)))
          CFI (cfiCond29) V5 load(1, XDATA, add(CFA_XSP16, literal(-7)))
          CFI (cfiCond29) R7 load(1, XDATA, add(CFA_XSP16, literal(-6)))
          CFI (cfiCond29) ?RET_LOW load(1, XDATA, add(CFA_XSP16, literal(-5)))
          CFI (cfiCond29) ?RET_HIGH load(1, XDATA, add(CFA_XSP16, literal(-4)))
          CFI (cfiCond29) ?BRET_EXT load(1, XDATA, add(CFA_XSP16, literal(-3)))
          CFI (cfiCond29) DPL0 load(1, XDATA, add(CFA_XSP16, literal(-2)))
          CFI (cfiCond29) DPH0 load(1, XDATA, add(CFA_XSP16, literal(-1)))
          CFI (cfiCond29) CFA_SP SP+-2
          CFI (cfiCond29) CFA_XSP16 add(XSP16, 15)
          CFI Block cfiPicker30 Using cfiCommon1
          CFI (cfiPicker30) NoFunction
          CFI (cfiPicker30) Picker
        INC       DPTR
        INC       DPTR
        INC       DPTR
        INC       DPTR
        LCALL     ?Subroutine12 & 0xFFFF
??CrossCallReturnLabel_17:
        MOVX      A,@DPTR
        MOV       R4,A
        RET
          CFI EndBlock cfiCond28
          CFI EndBlock cfiCond29
          CFI EndBlock cfiPicker30

        RSEG BANKED_CODE:HUGECODE:NOROOT(0)
?Subroutine12:
          CFI Block cfiCond31 Using cfiCommon0
          CFI Function zclSampleSw_WriteTest
          CFI Conditional ??CrossCallReturnLabel_16
          CFI R6 load(1, XDATA, add(CFA_XSP16, literal(-12)))
          CFI VB load(1, XDATA, add(CFA_XSP16, literal(-11)))
          CFI V0 load(1, XDATA, add(CFA_XSP16, literal(-10)))
          CFI V1 load(1, XDATA, add(CFA_XSP16, literal(-9)))
          CFI V2 load(1, XDATA, add(CFA_XSP16, literal(-8)))
          CFI V3 load(1, XDATA, add(CFA_XSP16, literal(-7)))
          CFI R7 load(1, XDATA, add(CFA_XSP16, literal(-6)))
          CFI ?RET_LOW load(1, XDATA, add(CFA_XSP16, literal(-5)))
          CFI ?RET_HIGH load(1, XDATA, add(CFA_XSP16, literal(-4)))
          CFI ?BRET_EXT load(1, XDATA, add(CFA_XSP16, literal(-3)))
          CFI DPL0 load(1, XDATA, add(CFA_XSP16, literal(-2)))
          CFI DPH0 load(1, XDATA, add(CFA_XSP16, literal(-1)))
          CFI CFA_XSP16 add(XSP16, 24)
          CFI Block cfiCond32 Using cfiCommon0
          CFI (cfiCond32) Function zclSampleSw_ProcessIncomingMsg
          CFI (cfiCond32) Conditional ??CrossCallReturnLabel_17, ??CrossCallReturnLabel_8
          CFI (cfiCond32) R6 load(1, XDATA, add(CFA_XSP16, literal(-14)))
          CFI (cfiCond32) VB load(1, XDATA, add(CFA_XSP16, literal(-13)))
          CFI (cfiCond32) V0 load(1, XDATA, add(CFA_XSP16, literal(-12)))
          CFI (cfiCond32) V1 load(1, XDATA, add(CFA_XSP16, literal(-11)))
          CFI (cfiCond32) V2 load(1, XDATA, add(CFA_XSP16, literal(-10)))
          CFI (cfiCond32) V3 load(1, XDATA, add(CFA_XSP16, literal(-9)))
          CFI (cfiCond32) V4 load(1, XDATA, add(CFA_XSP16, literal(-8)))
          CFI (cfiCond32) V5 load(1, XDATA, add(CFA_XSP16, literal(-7)))
          CFI (cfiCond32) R7 load(1, XDATA, add(CFA_XSP16, literal(-6)))
          CFI (cfiCond32) ?RET_LOW load(1, XDATA, add(CFA_XSP16, literal(-5)))
          CFI (cfiCond32) ?RET_HIGH load(1, XDATA, add(CFA_XSP16, literal(-4)))
          CFI (cfiCond32) ?BRET_EXT load(1, XDATA, add(CFA_XSP16, literal(-3)))
          CFI (cfiCond32) DPL0 load(1, XDATA, add(CFA_XSP16, literal(-2)))
          CFI (cfiCond32) DPH0 load(1, XDATA, add(CFA_XSP16, literal(-1)))
          CFI (cfiCond32) CFA_SP SP+-4
          CFI (cfiCond32) CFA_XSP16 add(XSP16, 15)
          CFI Block cfiCond33 Using cfiCommon0
          CFI (cfiCond33) Function zclSampleSw_ProcessIncomingMsg
          CFI (cfiCond33) Conditional ??CrossCallReturnLabel_17, ??CrossCallReturnLabel_9
          CFI (cfiCond33) R6 load(1, XDATA, add(CFA_XSP16, literal(-14)))
          CFI (cfiCond33) VB load(1, XDATA, add(CFA_XSP16, literal(-13)))
          CFI (cfiCond33) V0 load(1, XDATA, add(CFA_XSP16, literal(-12)))
          CFI (cfiCond33) V1 load(1, XDATA, add(CFA_XSP16, literal(-11)))
          CFI (cfiCond33) V2 load(1, XDATA, add(CFA_XSP16, literal(-10)))
          CFI (cfiCond33) V3 load(1, XDATA, add(CFA_XSP16, literal(-9)))
          CFI (cfiCond33) V4 load(1, XDATA, add(CFA_XSP16, literal(-8)))
          CFI (cfiCond33) V5 load(1, XDATA, add(CFA_XSP16, literal(-7)))
          CFI (cfiCond33) R7 load(1, XDATA, add(CFA_XSP16, literal(-6)))
          CFI (cfiCond33) ?RET_LOW load(1, XDATA, add(CFA_XSP16, literal(-5)))
          CFI (cfiCond33) ?RET_HIGH load(1, XDATA, add(CFA_XSP16, literal(-4)))
          CFI (cfiCond33) ?BRET_EXT load(1, XDATA, add(CFA_XSP16, literal(-3)))
          CFI (cfiCond33) DPL0 load(1, XDATA, add(CFA_XSP16, literal(-2)))
          CFI (cfiCond33) DPH0 load(1, XDATA, add(CFA_XSP16, literal(-1)))
          CFI (cfiCond33) CFA_SP SP+-4
          CFI (cfiCond33) CFA_XSP16 add(XSP16, 15)
          CFI Block cfiPicker34 Using cfiCommon1
          CFI (cfiPicker34) NoFunction
          CFI (cfiPicker34) Picker
        MOVX      A,@DPTR
        MOV       R0,A
        INC       DPTR
        MOVX      A,@DPTR
        MOV       DPH,A
        MOV       DPL,R0
        RET
          CFI EndBlock cfiCond31
          CFI EndBlock cfiCond32
          CFI EndBlock cfiCond33
          CFI EndBlock cfiPicker34

        RSEG BANKED_CODE:HUGECODE:NOROOT(0)
?Subroutine6:
          CFI Block cfiCond35 Using cfiCommon0
          CFI Function zclSampleSw_ProcessIncomingMsg
          CFI Conditional ??CrossCallReturnLabel_19
          CFI R6 load(1, XDATA, add(CFA_XSP16, literal(-14)))
          CFI VB load(1, XDATA, add(CFA_XSP16, literal(-13)))
          CFI V0 load(1, XDATA, add(CFA_XSP16, literal(-12)))
          CFI V1 load(1, XDATA, add(CFA_XSP16, literal(-11)))
          CFI V2 load(1, XDATA, add(CFA_XSP16, literal(-10)))
          CFI V3 load(1, XDATA, add(CFA_XSP16, literal(-9)))
          CFI V4 load(1, XDATA, add(CFA_XSP16, literal(-8)))
          CFI V5 load(1, XDATA, add(CFA_XSP16, literal(-7)))
          CFI R7 load(1, XDATA, add(CFA_XSP16, literal(-6)))
          CFI ?RET_LOW load(1, XDATA, add(CFA_XSP16, literal(-5)))
          CFI ?RET_HIGH load(1, XDATA, add(CFA_XSP16, literal(-4)))
          CFI ?BRET_EXT load(1, XDATA, add(CFA_XSP16, literal(-3)))
          CFI DPL0 load(1, XDATA, add(CFA_XSP16, literal(-2)))
          CFI DPH0 load(1, XDATA, add(CFA_XSP16, literal(-1)))
          CFI CFA_SP SP+-2
          CFI CFA_XSP16 add(XSP16, 14)
          CFI Block cfiCond36 Using cfiCommon0
          CFI (cfiCond36) Function zclSampleSw_ProcessIncomingMsg
          CFI (cfiCond36) Conditional ??CrossCallReturnLabel_20
          CFI (cfiCond36) R6 load(1, XDATA, add(CFA_XSP16, literal(-14)))
          CFI (cfiCond36) VB load(1, XDATA, add(CFA_XSP16, literal(-13)))
          CFI (cfiCond36) V0 load(1, XDATA, add(CFA_XSP16, literal(-12)))
          CFI (cfiCond36) V1 load(1, XDATA, add(CFA_XSP16, literal(-11)))
          CFI (cfiCond36) V2 load(1, XDATA, add(CFA_XSP16, literal(-10)))
          CFI (cfiCond36) V3 load(1, XDATA, add(CFA_XSP16, literal(-9)))
          CFI (cfiCond36) V4 load(1, XDATA, add(CFA_XSP16, literal(-8)))
          CFI (cfiCond36) V5 load(1, XDATA, add(CFA_XSP16, literal(-7)))
          CFI (cfiCond36) R7 load(1, XDATA, add(CFA_XSP16, literal(-6)))
          CFI (cfiCond36) ?RET_LOW load(1, XDATA, add(CFA_XSP16, literal(-5)))
          CFI (cfiCond36) ?RET_HIGH load(1, XDATA, add(CFA_XSP16, literal(-4)))
          CFI (cfiCond36) ?BRET_EXT load(1, XDATA, add(CFA_XSP16, literal(-3)))
          CFI (cfiCond36) DPL0 load(1, XDATA, add(CFA_XSP16, literal(-2)))
          CFI (cfiCond36) DPH0 load(1, XDATA, add(CFA_XSP16, literal(-1)))
          CFI (cfiCond36) CFA_SP SP+-2
          CFI (cfiCond36) CFA_XSP16 add(XSP16, 14)
          CFI Block cfiPicker37 Using cfiCommon1
          CFI (cfiPicker37) NoFunction
          CFI (cfiPicker37) Picker
        MOV       DPL,R6
        MOV       DPH,R7
          CFI EndBlock cfiCond35
          CFI EndBlock cfiCond36
          CFI EndBlock cfiPicker37
        REQUIRE ??Subroutine13_0
        ; // Fall through to label ??Subroutine13_0

        RSEG BANKED_CODE:HUGECODE:NOROOT(0)
??Subroutine13_0:
          CFI Block cfiCond38 Using cfiCommon0
          CFI Function zclSampleSw_ProcessInDiscCmdsRspCmd
          CFI Conditional ??CrossCallReturnLabel_18
          CFI DPL0 Frame(CFA_SP, 4)
          CFI DPH0 Frame(CFA_SP, 5)
          CFI CFA_SP SP+-7
          CFI Block cfiCond39 Using cfiCommon0
          CFI (cfiCond39) Function zclSampleSw_ProcessIncomingMsg
          CFI (cfiCond39) Conditional ??CrossCallReturnLabel_19
          CFI (cfiCond39) R6 load(1, XDATA, add(CFA_XSP16, literal(-14)))
          CFI (cfiCond39) VB load(1, XDATA, add(CFA_XSP16, literal(-13)))
          CFI (cfiCond39) V0 load(1, XDATA, add(CFA_XSP16, literal(-12)))
          CFI (cfiCond39) V1 load(1, XDATA, add(CFA_XSP16, literal(-11)))
          CFI (cfiCond39) V2 load(1, XDATA, add(CFA_XSP16, literal(-10)))
          CFI (cfiCond39) V3 load(1, XDATA, add(CFA_XSP16, literal(-9)))
          CFI (cfiCond39) V4 load(1, XDATA, add(CFA_XSP16, literal(-8)))
          CFI (cfiCond39) V5 load(1, XDATA, add(CFA_XSP16, literal(-7)))
          CFI (cfiCond39) R7 load(1, XDATA, add(CFA_XSP16, literal(-6)))
          CFI (cfiCond39) ?RET_LOW load(1, XDATA, add(CFA_XSP16, literal(-5)))
          CFI (cfiCond39) ?RET_HIGH load(1, XDATA, add(CFA_XSP16, literal(-4)))
          CFI (cfiCond39) ?BRET_EXT load(1, XDATA, add(CFA_XSP16, literal(-3)))
          CFI (cfiCond39) DPL0 load(1, XDATA, add(CFA_XSP16, literal(-2)))
          CFI (cfiCond39) DPH0 load(1, XDATA, add(CFA_XSP16, literal(-1)))
          CFI (cfiCond39) CFA_SP SP+-2
          CFI (cfiCond39) CFA_XSP16 add(XSP16, 14)
          CFI Block cfiCond40 Using cfiCommon0
          CFI (cfiCond40) Function zclSampleSw_ProcessIncomingMsg
          CFI (cfiCond40) Conditional ??CrossCallReturnLabel_20
          CFI (cfiCond40) R6 load(1, XDATA, add(CFA_XSP16, literal(-14)))
          CFI (cfiCond40) VB load(1, XDATA, add(CFA_XSP16, literal(-13)))
          CFI (cfiCond40) V0 load(1, XDATA, add(CFA_XSP16, literal(-12)))
          CFI (cfiCond40) V1 load(1, XDATA, add(CFA_XSP16, literal(-11)))
          CFI (cfiCond40) V2 load(1, XDATA, add(CFA_XSP16, literal(-10)))
          CFI (cfiCond40) V3 load(1, XDATA, add(CFA_XSP16, literal(-9)))
          CFI (cfiCond40) V4 load(1, XDATA, add(CFA_XSP16, literal(-8)))
          CFI (cfiCond40) V5 load(1, XDATA, add(CFA_XSP16, literal(-7)))
          CFI (cfiCond40) R7 load(1, XDATA, add(CFA_XSP16, literal(-6)))
          CFI (cfiCond40) ?RET_LOW load(1, XDATA, add(CFA_XSP16, literal(-5)))
          CFI (cfiCond40) ?RET_HIGH load(1, XDATA, add(CFA_XSP16, literal(-4)))
          CFI (cfiCond40) ?BRET_EXT load(1, XDATA, add(CFA_XSP16, literal(-3)))
          CFI (cfiCond40) DPL0 load(1, XDATA, add(CFA_XSP16, literal(-2)))
          CFI (cfiCond40) DPH0 load(1, XDATA, add(CFA_XSP16, literal(-1)))
          CFI (cfiCond40) CFA_SP SP+-2
          CFI (cfiCond40) CFA_XSP16 add(XSP16, 14)
          CFI Block cfiPicker41 Using cfiCommon1
          CFI (cfiPicker41) NoFunction
          CFI (cfiPicker41) Picker
        MOVX      A,@DPTR
        MOV       R0,A
        INC       DPTR
        MOVX      A,@DPTR
        MOV       R1,A
        MOV       R2,#0x0
        RET
          CFI EndBlock cfiCond38
          CFI EndBlock cfiCond39
          CFI EndBlock cfiCond40
          CFI EndBlock cfiPicker41

        RSEG BANKED_CODE:HUGECODE:NOROOT(0)
?Subroutine5:
          CFI Block cfiCond42 Using cfiCommon0
          CFI Function zclSampleSw_ProcessIncomingMsg
          CFI Conditional ??CrossCallReturnLabel_4
          CFI R6 load(1, XDATA, add(CFA_XSP16, literal(-14)))
          CFI VB load(1, XDATA, add(CFA_XSP16, literal(-13)))
          CFI V0 load(1, XDATA, add(CFA_XSP16, literal(-12)))
          CFI V1 load(1, XDATA, add(CFA_XSP16, literal(-11)))
          CFI V2 load(1, XDATA, add(CFA_XSP16, literal(-10)))
          CFI V3 load(1, XDATA, add(CFA_XSP16, literal(-9)))
          CFI V4 load(1, XDATA, add(CFA_XSP16, literal(-8)))
          CFI V5 load(1, XDATA, add(CFA_XSP16, literal(-7)))
          CFI R7 load(1, XDATA, add(CFA_XSP16, literal(-6)))
          CFI ?RET_LOW load(1, XDATA, add(CFA_XSP16, literal(-5)))
          CFI ?RET_HIGH load(1, XDATA, add(CFA_XSP16, literal(-4)))
          CFI ?BRET_EXT load(1, XDATA, add(CFA_XSP16, literal(-3)))
          CFI DPL0 load(1, XDATA, add(CFA_XSP16, literal(-2)))
          CFI DPH0 load(1, XDATA, add(CFA_XSP16, literal(-1)))
          CFI CFA_SP SP+-2
          CFI CFA_XSP16 add(XSP16, 14)
          CFI Block cfiCond43 Using cfiCommon0
          CFI (cfiCond43) Function zclSampleSw_ProcessIncomingMsg
          CFI (cfiCond43) Conditional ??CrossCallReturnLabel_5
          CFI (cfiCond43) R6 load(1, XDATA, add(CFA_XSP16, literal(-14)))
          CFI (cfiCond43) VB load(1, XDATA, add(CFA_XSP16, literal(-13)))
          CFI (cfiCond43) V0 load(1, XDATA, add(CFA_XSP16, literal(-12)))
          CFI (cfiCond43) V1 load(1, XDATA, add(CFA_XSP16, literal(-11)))
          CFI (cfiCond43) V2 load(1, XDATA, add(CFA_XSP16, literal(-10)))
          CFI (cfiCond43) V3 load(1, XDATA, add(CFA_XSP16, literal(-9)))
          CFI (cfiCond43) V4 load(1, XDATA, add(CFA_XSP16, literal(-8)))
          CFI (cfiCond43) V5 load(1, XDATA, add(CFA_XSP16, literal(-7)))
          CFI (cfiCond43) R7 load(1, XDATA, add(CFA_XSP16, literal(-6)))
          CFI (cfiCond43) ?RET_LOW load(1, XDATA, add(CFA_XSP16, literal(-5)))
          CFI (cfiCond43) ?RET_HIGH load(1, XDATA, add(CFA_XSP16, literal(-4)))
          CFI (cfiCond43) ?BRET_EXT load(1, XDATA, add(CFA_XSP16, literal(-3)))
          CFI (cfiCond43) DPL0 load(1, XDATA, add(CFA_XSP16, literal(-2)))
          CFI (cfiCond43) DPH0 load(1, XDATA, add(CFA_XSP16, literal(-1)))
          CFI (cfiCond43) CFA_SP SP+-2
          CFI (cfiCond43) CFA_XSP16 add(XSP16, 14)
          CFI Block cfiPicker44 Using cfiCommon1
          CFI (cfiPicker44) NoFunction
          CFI (cfiPicker44) Picker
        MUL       AB
        MOV       R0,A
        MOV       R1,B
        MOV       A,?V0
        ADD       A,R0
        MOV       R0,A
        MOV       A,?V1
        ADDC      A,R1
        MOV       R1,A
        MOV       A,R0
        MOV       R2,A
        MOV       A,R1
        MOV       R3,A
        MOV       DPL,R2
        MOV       DPH,R3
        INC       DPTR
        MOVX      A,@DPTR
        RET
          CFI EndBlock cfiCond42
          CFI EndBlock cfiCond43
          CFI EndBlock cfiPicker44
// 1067 
// 1068 #ifdef ZCL_READ
// 1069 /*********************************************************************
// 1070  * @fn      zclSampleSw_ProcessInReadRspCmd
// 1071  *
// 1072  * @brief   Process the "Profile" Read Response Command
// 1073  *
// 1074  * @param   pInMsg - incoming message to process
// 1075  *
// 1076  * @return  none
// 1077  */
// 1078 static uint8 zclSampleSw_ProcessInReadRspCmd( zclIncomingMsg_t *pInMsg )
// 1079 {
// 1080   zclReadRspCmd_t *readRspCmd;
// 1081   uint8 i;
// 1082 
// 1083   readRspCmd = (zclReadRspCmd_t *)pInMsg->attrCmd;
// 1084   for (i = 0; i < readRspCmd->numAttr; i++)
// 1085   {
// 1086     // Notify the originator of the results of the original read attributes
// 1087     // attempt and, for each successfull request, the value of the requested
// 1088     // attribute
// 1089     if( pInMsg->clusterId == ZCL_CLUSTER_ID_GEN_ON_OFF_SWITCH_CONFIG &&//如果该消息是关于指定的Cluster
// 1090         readRspCmd->attrList[i].attrID == ATTRID_ON_OFF_SWITCH_ACTIONS )//如果该属性的ID是指定的属性ID
// 1091     {
// 1092         uint8 val;
// 1093         val = *(readRspCmd->attrList[i].data);//读取属性值
// 1094         
// 1095         HalLcdWriteStringValue("Read:", val, 10, 4);//显示信息到屏幕中
// 1096     }
// 1097   }
// 1098 
// 1099   return TRUE;
// 1100 }
// 1101 #endif // ZCL_READ
// 1102 
// 1103 #ifdef ZCL_WRITE
// 1104 /*********************************************************************
// 1105  * @fn      zclSampleSw_ProcessInWriteRspCmd
// 1106  *
// 1107  * @brief   Process the "Profile" Write Response Command
// 1108  *
// 1109  * @param   pInMsg - incoming message to process
// 1110  *
// 1111  * @return  none
// 1112  */
// 1113 static uint8 zclSampleSw_ProcessInWriteRspCmd( zclIncomingMsg_t *pInMsg )
// 1114 {
// 1115   zclWriteRspCmd_t *writeRspCmd;
// 1116   uint8 i;
// 1117 
// 1118   writeRspCmd = (zclWriteRspCmd_t *)pInMsg->attrCmd;
// 1119   for (i = 0; i < writeRspCmd->numAttr; i++)
// 1120   {
// 1121     // Notify the device of the results of the its original write attributes
// 1122     // command.
// 1123   }
// 1124 
// 1125   return TRUE;
// 1126 }
// 1127 #endif // ZCL_WRITE
// 1128 
// 1129 /*********************************************************************
// 1130  * @fn      zclSampleSw_ProcessInDefaultRspCmd
// 1131  *
// 1132  * @brief   Process the "Profile" Default Response Command
// 1133  *
// 1134  * @param   pInMsg - incoming message to process
// 1135  *
// 1136  * @return  none
// 1137  */
// 1138 static uint8 zclSampleSw_ProcessInDefaultRspCmd( zclIncomingMsg_t *pInMsg )
// 1139 {
// 1140   // zclDefaultRspCmd_t *defaultRspCmd = (zclDefaultRspCmd_t *)pInMsg->attrCmd;
// 1141   // Device is notified of the Default Response command.
// 1142   (void)pInMsg;
// 1143   return TRUE;
// 1144 }
// 1145 
// 1146 #ifdef ZCL_DISCOVER
// 1147 /*********************************************************************
// 1148  * @fn      zclSampleSw_ProcessInDiscCmdsRspCmd
// 1149  *
// 1150  * @brief   Process the Discover Commands Response Command
// 1151  *
// 1152  * @param   pInMsg - incoming message to process
// 1153  *
// 1154  * @return  none
// 1155  */

        RSEG BANKED_CODE:HUGECODE:NOROOT(0)
// 1156 static uint8 zclSampleSw_ProcessInDiscCmdsRspCmd( zclIncomingMsg_t *pInMsg )
zclSampleSw_ProcessInDiscCmdsRspCmd:
          CFI Block cfiBlock45 Using cfiCommon0
          CFI Function zclSampleSw_ProcessInDiscCmdsRspCmd
        CODE
// 1157 {
        PUSH      DPL
          CFI DPL0 Frame(CFA_SP, 4)
          CFI CFA_SP SP+-4
        PUSH      DPH
          CFI DPH0 Frame(CFA_SP, 5)
          CFI CFA_SP SP+-5
        ; Saved register size: 2
        ; Auto size: 0
// 1158   zclDiscoverCmdsCmdRsp_t *discoverRspCmd;
// 1159   uint8 i;
// 1160 
// 1161   discoverRspCmd = (zclDiscoverCmdsCmdRsp_t *)pInMsg->attrCmd;
        MOV       A,R2
        ADD       A,#0x17
        MOV       DPL,A
        CLR       A
        ADDC      A,R3
        MOV       DPH,A
        LCALL     ??Subroutine13_0 & 0xFFFF
// 1162   for ( i = 0; i < discoverRspCmd->numCmd; i++ )
??CrossCallReturnLabel_18:
        SJMP      ??zclSampleSw_ProcessInDiscCmdsRspCmd_0
??zclSampleSw_ProcessInDiscCmdsRspCmd_1:
        INC       R2
??zclSampleSw_ProcessInDiscCmdsRspCmd_0:
        MOV       DPL,R0
        MOV       DPH,R1
        INC       DPTR
        INC       DPTR
        MOVX      A,@DPTR
        MOV       R3,A
        MOV       A,R2
        CLR       C
        SUBB      A,R3
        JC        ??zclSampleSw_ProcessInDiscCmdsRspCmd_1
// 1163   {
// 1164     // Device is notified of the result of its attribute discovery command.
// 1165   }
// 1166 
// 1167   return TRUE;
        MOV       R1,#0x1
        LJMP      ?Subroutine2 & 0xFFFF
// 1168 }
          CFI EndBlock cfiBlock45
// 1169 
// 1170 /*********************************************************************
// 1171  * @fn      zclSampleSw_ProcessInDiscAttrsRspCmd
// 1172  *
// 1173  * @brief   Process the "Profile" Discover Attributes Response Command
// 1174  *
// 1175  * @param   pInMsg - incoming message to process
// 1176  *
// 1177  * @return  none
// 1178  */
// 1179 static uint8 zclSampleSw_ProcessInDiscAttrsRspCmd( zclIncomingMsg_t *pInMsg )
// 1180 {
// 1181   zclDiscoverAttrsRspCmd_t *discoverRspCmd;
// 1182   uint8 i;
// 1183 
// 1184   discoverRspCmd = (zclDiscoverAttrsRspCmd_t *)pInMsg->attrCmd;
// 1185   for ( i = 0; i < discoverRspCmd->numAttr; i++ )
// 1186   {
// 1187     // Device is notified of the result of its attribute discovery command.
// 1188   }
// 1189 
// 1190   return TRUE;
// 1191 }
// 1192 
// 1193 /*********************************************************************
// 1194  * @fn      zclSampleSw_ProcessInDiscAttrsExtRspCmd
// 1195  *
// 1196  * @brief   Process the "Profile" Discover Attributes Extended Response Command
// 1197  *
// 1198  * @param   pInMsg - incoming message to process
// 1199  *
// 1200  * @return  none
// 1201  */
// 1202 static uint8 zclSampleSw_ProcessInDiscAttrsExtRspCmd( zclIncomingMsg_t *pInMsg )
// 1203 {
// 1204   zclDiscoverAttrsExtRsp_t *discoverRspCmd;
// 1205   uint8 i;
// 1206 
// 1207   discoverRspCmd = (zclDiscoverAttrsExtRsp_t *)pInMsg->attrCmd;
// 1208   for ( i = 0; i < discoverRspCmd->numAttr; i++ )
// 1209   {
// 1210     // Device is notified of the result of its attribute discovery command.
// 1211   }
// 1212 
// 1213   return TRUE;
// 1214 }
// 1215 #endif // ZCL_DISCOVER
// 1216 
// 1217 #if defined (OTA_CLIENT) && (OTA_CLIENT == TRUE)
// 1218 /*********************************************************************
// 1219  * @fn      zclSampleSw_ProcessOTAMsgs
// 1220  *
// 1221  * @brief   Called to process callbacks from the ZCL OTA.
// 1222  *
// 1223  * @param   none
// 1224  *
// 1225  * @return  none
// 1226  */
// 1227 static void zclSampleSw_ProcessOTAMsgs( zclOTA_CallbackMsg_t* pMsg )
// 1228 {
// 1229   uint8 RxOnIdle;
// 1230 
// 1231   switch(pMsg->ota_event)
// 1232   {
// 1233   case ZCL_OTA_START_CALLBACK:
// 1234     if (pMsg->hdr.status == ZSuccess)
// 1235     {
// 1236       // Speed up the poll rate
// 1237       RxOnIdle = TRUE;
// 1238       ZMacSetReq( ZMacRxOnIdle, &RxOnIdle );
// 1239       NLME_SetPollRate( 2000 );
// 1240     }
// 1241     break;
// 1242 
// 1243   case ZCL_OTA_DL_COMPLETE_CALLBACK:
// 1244     if (pMsg->hdr.status == ZSuccess)
// 1245     {
// 1246       // Reset the CRC Shadow and reboot.  The bootloader will see the
// 1247       // CRC shadow has been cleared and switch to the new image
// 1248       HalOTAInvRC();
// 1249       SystemReset();
// 1250     }
// 1251     else
// 1252     {
// 1253 #if (ZG_BUILD_ENDDEVICE_TYPE)    
// 1254       // slow the poll rate back down.
// 1255       RxOnIdle = FALSE;
// 1256       ZMacSetReq( ZMacRxOnIdle, &RxOnIdle );
// 1257       NLME_SetPollRate(DEVICE_POLL_RATE);
// 1258 #endif
// 1259     }
// 1260     break;
// 1261 
// 1262   default:
// 1263     break;
// 1264   }
// 1265 }
// 1266 #endif // defined (OTA_CLIENT) && (OTA_CLIENT == TRUE)
// 1267 
// 1268 /****************************************************************************
// 1269 ****************************************************************************/
// 1270 

        RSEG BANKED_CODE:HUGECODE:NOROOT(0)
// 1271 void zclSampleSw_UiActionToggleLight(uint16 keys)
zclSampleSw_UiActionToggleLight:
          CFI Block cfiBlock46 Using cfiCommon0
          CFI Function zclSampleSw_UiActionToggleLight
        CODE
// 1272 {
        FUNCALL zclSampleSw_UiActionToggleLight, bdb_getZCLFrameCounter
        LOCFRAME ISTACK, 0, STACK
        LOCFRAME PSTACK, 0, STACK
        LOCFRAME XSTACK, 10, STACK
        LOCFRAME IOVERLAY, 0, STATIC
        LOCFRAME DOVERLAY, 0, STATIC
        ARGFRAME ISTACK, 0, STACK
        ARGFRAME PSTACK, 0, STACK
        ARGFRAME XSTACK, 10, STACK
        ARGFRAME IOVERLAY, 0, STATIC
        ARGFRAME DOVERLAY, 0, STATIC
        FUNCALL zclSampleSw_UiActionToggleLight, zcl_SendCommand
        LOCFRAME ISTACK, 0, STACK
        LOCFRAME PSTACK, 0, STACK
        LOCFRAME XSTACK, 21, STACK
        LOCFRAME IOVERLAY, 0, STATIC
        LOCFRAME DOVERLAY, 0, STATIC
        ARGFRAME ISTACK, 0, STACK
        ARGFRAME PSTACK, 0, STACK
        ARGFRAME XSTACK, 21, STACK
        ARGFRAME IOVERLAY, 0, STATIC
        ARGFRAME DOVERLAY, 0, STATIC
        FUNCALL zclSampleSw_UiActionToggleLight, bdb_getZCLFrameCounter
        LOCFRAME ISTACK, 0, STACK
        LOCFRAME PSTACK, 0, STACK
        LOCFRAME XSTACK, 10, STACK
        LOCFRAME IOVERLAY, 0, STATIC
        LOCFRAME DOVERLAY, 0, STATIC
        ARGFRAME ISTACK, 0, STACK
        ARGFRAME PSTACK, 0, STACK
        ARGFRAME XSTACK, 10, STACK
        ARGFRAME IOVERLAY, 0, STATIC
        ARGFRAME DOVERLAY, 0, STATIC
        FUNCALL zclSampleSw_UiActionToggleLight, zcl_SendCommand
        LOCFRAME ISTACK, 0, STACK
        LOCFRAME PSTACK, 0, STACK
        LOCFRAME XSTACK, 21, STACK
        LOCFRAME IOVERLAY, 0, STATIC
        LOCFRAME DOVERLAY, 0, STATIC
        ARGFRAME ISTACK, 0, STACK
        ARGFRAME PSTACK, 0, STACK
        ARGFRAME XSTACK, 21, STACK
        ARGFRAME IOVERLAY, 0, STATIC
        ARGFRAME DOVERLAY, 0, STATIC
        FUNCALL zclSampleSw_UiActionToggleLight, bdb_getZCLFrameCounter
        LOCFRAME ISTACK, 0, STACK
        LOCFRAME PSTACK, 0, STACK
        LOCFRAME XSTACK, 10, STACK
        LOCFRAME IOVERLAY, 0, STATIC
        LOCFRAME DOVERLAY, 0, STATIC
        ARGFRAME ISTACK, 0, STACK
        ARGFRAME PSTACK, 0, STACK
        ARGFRAME XSTACK, 10, STACK
        ARGFRAME IOVERLAY, 0, STATIC
        ARGFRAME DOVERLAY, 0, STATIC
        FUNCALL zclSampleSw_UiActionToggleLight, zcl_SendCommand
        LOCFRAME ISTACK, 0, STACK
        LOCFRAME PSTACK, 0, STACK
        LOCFRAME XSTACK, 21, STACK
        LOCFRAME IOVERLAY, 0, STATIC
        LOCFRAME DOVERLAY, 0, STATIC
        ARGFRAME ISTACK, 0, STACK
        ARGFRAME PSTACK, 0, STACK
        ARGFRAME XSTACK, 21, STACK
        ARGFRAME IOVERLAY, 0, STATIC
        ARGFRAME DOVERLAY, 0, STATIC
        REQUIRE ?V0
        REQUIRE ?V1
        MOV       A,#-0xa
        LCALL     ?BANKED_ENTER_XDATA
          CFI DPH0 load(1, XDATA, add(CFA_XSP16, literal(-1)))
          CFI DPL0 load(1, XDATA, add(CFA_XSP16, literal(-2)))
          CFI ?BRET_EXT load(1, XDATA, add(CFA_XSP16, literal(-3)))
          CFI ?RET_HIGH load(1, XDATA, add(CFA_XSP16, literal(-4)))
          CFI ?RET_LOW load(1, XDATA, add(CFA_XSP16, literal(-5)))
          CFI R7 load(1, XDATA, add(CFA_XSP16, literal(-6)))
          CFI V1 load(1, XDATA, add(CFA_XSP16, literal(-7)))
          CFI V0 load(1, XDATA, add(CFA_XSP16, literal(-8)))
          CFI VB load(1, XDATA, add(CFA_XSP16, literal(-9)))
          CFI R6 load(1, XDATA, add(CFA_XSP16, literal(-10)))
          CFI CFA_SP SP+0
          CFI CFA_XSP16 add(XSP16, 10)
        ; Saved register size: 10
        ; Auto size: 0
// 1273   if (zclSampleSw_OnOffSwitchActions == ON_OFF_SWITCH_ACTIONS_TOGGLE)
        MOV       A,R2
        ANL       A,#0x4
        MOV       R0,A
        MOV       DPTR,#zclSampleSw_OnOffSwitchActions
        MOVX      A,@DPTR
        XRL       A,#0x2
        JNZ       ??zclSampleSw_UiActionToggleLight_0
// 1274   {
// 1275     if (keys & UI_KEY_SW_5_PRESSED)
        MOV       A,R0
        JNZ       $+5
        LJMP      ??zclSampleSw_UiActionToggleLight_1 & 0xFFFF
// 1276     {
// 1277       zclGeneral_SendOnOff_CmdToggle( SAMPLESW_ENDPOINT, &zclSampleSw_DstAddr, FALSE, bdb_getZCLFrameCounter() );
        ; Setup parameters for call to function bdb_getZCLFrameCounter
        LCALL     `??bdb_getZCLFrameCounter::?relay`; Banked call to: bdb_getZCLFrameCounter
        MOV       A,R1
        MOV       R1,A
        ; Setup parameters for call to function zcl_SendCommand
        CLR       A
        MOV       ?V0,A
        MOV       ?V1,A
        MOV       R0,#?V0
        LCALL     ?PUSH_XSTACK_I_TWO
          CFI CFA_XSP16 add(XSP16, 12)
        MOV       R0,#?V0
        LCALL     ?PUSH_XSTACK_I_TWO
          CFI CFA_XSP16 add(XSP16, 14)
        MOV       A,R1
        MOV       ?V0,A
        MOV       R0,#?V0
        LCALL     ?PUSH_XSTACK_I_ONE
          CFI CFA_XSP16 add(XSP16, 15)
        CLR       A
        MOV       ?V0,A
        MOV       R0,#?V0
        LCALL     ?PUSH_XSTACK_I_TWO
          CFI CFA_XSP16 add(XSP16, 17)
        MOV       R0,#?V0
        LCALL     ?PUSH_XSTACK_I_ONE
          CFI CFA_XSP16 add(XSP16, 18)
        MOV       R0,#?V0
        LCALL     ?PUSH_XSTACK_I_ONE
          CFI CFA_XSP16 add(XSP16, 19)
        MOV       ?V0,#0x1
        MOV       R0,#?V0
        LCALL     ?PUSH_XSTACK_I_ONE
          CFI CFA_XSP16 add(XSP16, 20)
        MOV       ?V0,#0x2
        LJMP      ??zclSampleSw_UiActionToggleLight_2 & 0xFFFF
          CFI CFA_XSP16 add(XSP16, 10)
// 1278     }
// 1279   }
// 1280   else if (((keys & UI_KEY_SW_5_PRESSED) && (zclSampleSw_OnOffSwitchActions == ON_OFF_SWITCH_ACTIONS_ON))
// 1281     || ((keys & UI_KEY_SW_5_RELEASED) && (zclSampleSw_OnOffSwitchActions == ON_OFF_SWITCH_ACTIONS_OFF)))
??zclSampleSw_UiActionToggleLight_0:
        MOV       A,R0
        JZ        ??zclSampleSw_UiActionToggleLight_3
        MOVX      A,@DPTR
        JZ        ??zclSampleSw_UiActionToggleLight_4
??zclSampleSw_UiActionToggleLight_3:
        MOV       A,R3
        ANL       A,#0x4
        JZ        ??zclSampleSw_UiActionToggleLight_5
        MOVX      A,@DPTR
        XRL       A,#0x1
        JNZ       ??zclSampleSw_UiActionToggleLight_5
// 1282   {
// 1283     zclGeneral_SendOnOff_CmdOn( SAMPLESW_ENDPOINT, &zclSampleSw_DstAddr, FALSE, bdb_getZCLFrameCounter() );
??zclSampleSw_UiActionToggleLight_4:
        ; Setup parameters for call to function bdb_getZCLFrameCounter
        LCALL     `??bdb_getZCLFrameCounter::?relay`; Banked call to: bdb_getZCLFrameCounter
        MOV       A,R1
        MOV       R1,A
        ; Setup parameters for call to function zcl_SendCommand
        CLR       A
        MOV       ?V0,A
        MOV       ?V1,A
        MOV       R0,#?V0
        LCALL     ?PUSH_XSTACK_I_TWO
          CFI CFA_XSP16 add(XSP16, 12)
        MOV       R0,#?V0
        LCALL     ?PUSH_XSTACK_I_TWO
          CFI CFA_XSP16 add(XSP16, 14)
        MOV       A,R1
        MOV       ?V0,A
        MOV       R0,#?V0
        LCALL     ?PUSH_XSTACK_I_ONE
          CFI CFA_XSP16 add(XSP16, 15)
        CLR       A
        MOV       ?V0,A
        MOV       R0,#?V0
        LCALL     ?PUSH_XSTACK_I_TWO
          CFI CFA_XSP16 add(XSP16, 17)
        MOV       R0,#?V0
        LCALL     ?PUSH_XSTACK_I_ONE
          CFI CFA_XSP16 add(XSP16, 18)
        MOV       R0,#?V0
        LCALL     ?PUSH_XSTACK_I_ONE
          CFI CFA_XSP16 add(XSP16, 19)
        MOV       ?V0,#0x1
        MOV       R0,#?V0
        LCALL     ?PUSH_XSTACK_I_ONE
          CFI CFA_XSP16 add(XSP16, 20)
        SJMP      ??zclSampleSw_UiActionToggleLight_2
          CFI CFA_XSP16 add(XSP16, 10)
// 1284   }
// 1285   else
// 1286   {
// 1287     zclGeneral_SendOnOff_CmdOff( SAMPLESW_ENDPOINT, &zclSampleSw_DstAddr, FALSE, bdb_getZCLFrameCounter() );
??zclSampleSw_UiActionToggleLight_5:
        ; Setup parameters for call to function bdb_getZCLFrameCounter
        LCALL     `??bdb_getZCLFrameCounter::?relay`; Banked call to: bdb_getZCLFrameCounter
        MOV       A,R1
        MOV       R1,A
        ; Setup parameters for call to function zcl_SendCommand
        CLR       A
        MOV       ?V0,A
        MOV       ?V1,A
        MOV       R0,#?V0
        LCALL     ?PUSH_XSTACK_I_TWO
          CFI CFA_XSP16 add(XSP16, 12)
        MOV       R0,#?V0
        LCALL     ?PUSH_XSTACK_I_TWO
          CFI CFA_XSP16 add(XSP16, 14)
        MOV       A,R1
        MOV       ?V0,A
        MOV       R0,#?V0
        LCALL     ?PUSH_XSTACK_I_ONE
          CFI CFA_XSP16 add(XSP16, 15)
        CLR       A
        MOV       ?V0,A
        MOV       R0,#?V0
        LCALL     ?PUSH_XSTACK_I_TWO
          CFI CFA_XSP16 add(XSP16, 17)
        MOV       R0,#?V0
        LCALL     ?PUSH_XSTACK_I_ONE
          CFI CFA_XSP16 add(XSP16, 18)
        MOV       R0,#?V0
        LCALL     ?PUSH_XSTACK_I_ONE
          CFI CFA_XSP16 add(XSP16, 19)
        MOV       ?V0,#0x1
        MOV       R0,#?V0
        LCALL     ?PUSH_XSTACK_I_ONE
          CFI CFA_XSP16 add(XSP16, 20)
        MOV       ?V0,#0x0
??zclSampleSw_UiActionToggleLight_2:
        MOV       R0,#?V0
        LCALL     ?PUSH_XSTACK_I_ONE
          CFI CFA_XSP16 add(XSP16, 21)
        MOV       R4,#0x6
        MOV       R5,#0x0
        MOV       R2,#zclSampleSw_DstAddr & 0xff
        MOV       R3,#(zclSampleSw_DstAddr >> 8) & 0xff
        MOV       R1,#0x8
        LCALL     `??zcl_SendCommand::?relay`; Banked call to: zcl_SendCommand
        MOV       A,#0xb
        LCALL     ?DEALLOC_XSTACK8
          CFI CFA_XSP16 add(XSP16, 10)
// 1288   }
// 1289 }
??zclSampleSw_UiActionToggleLight_1:
        LJMP      ?Subroutine1 & 0xFFFF
          CFI EndBlock cfiBlock46
// 1290 
// 1291 

        RSEG BANKED_CODE:HUGECODE:NOROOT(0)
// 1292 void zclSampleSw_UiUpdateLcd(uint8 gui_state, char * line[3])
zclSampleSw_UiUpdateLcd:
          CFI Block cfiBlock47 Using cfiCommon0
          CFI Function zclSampleSw_UiUpdateLcd
        CODE
// 1293 {
        PUSH      DPL
          CFI DPL0 Frame(CFA_SP, 4)
          CFI CFA_SP SP+-4
        PUSH      DPH
          CFI DPH0 Frame(CFA_SP, 5)
          CFI CFA_SP SP+-5
        ; Saved register size: 2
        ; Auto size: 0
// 1294   line[2] = "< TOGGLE LIGHT >";
        MOV       DPL,R2
        MOV       DPH,R3
        INC       DPTR
        INC       DPTR
        INC       DPTR
        INC       DPTR
        MOV       A,#`?<Constant "< TOGGLE LIGHT >">` & 0xff
        MOVX      @DPTR,A
        INC       DPTR
        MOV       A,#(`?<Constant "< TOGGLE LIGHT >">` >> 8) & 0xff
        MOVX      @DPTR,A
// 1295 }
        LJMP      ?Subroutine2 & 0xFFFF
          CFI EndBlock cfiBlock47

        RSEG XDATA_ID:CODE:NOROOT(0)
`?<Initializer for zclSampleSw_OnOffSwitchType>`:
        DATA8
        DB 1

        RSEG XDATA_ID:CODE:NOROOT(0)
`?<Initializer for sampleSw_TestEp>`:
        DATA8
        DB 8
        DB 0
        DATA16
        DW zclSampleSw_TaskID
        DW 0H
        DATA8
        DB 0

        RSEG XDATA_ID:CODE:NOROOT(0)
`?<Initializer for zclSampleSw_NwkState>`:
        DATA8
        DB 1

        RSEG XDATA_ID:CODE:NOROOT(0)
`?<Initializer for zclSampleSw_CmdCallbacks>`:
        DATA16
        DW `??zclSampleSw_BasicResetCB::?relay`
        DW 0H
        DW 0H
        DW 0H
        DW 0H
        DW 0H
        DW 0H
        DW 0H
        DW 0H

        RSEG BANK_RELAYS:CODE:REORDER:NOROOT(0)
`??zclSampleSw_WriteTest::?relay`:
        CODE
        LCALL   ?BDISPATCH
        DATA24
        DC24    zclSampleSw_WriteTest

        RSEG BANK_RELAYS:CODE:REORDER:NOROOT(0)
`??zclSampleSw_Init::?relay`:
        CODE
        LCALL   ?BDISPATCH
        DATA24
        DC24    zclSampleSw_Init

        RSEG BANK_RELAYS:CODE:REORDER:NOROOT(0)
`??zclSampleSw_event_loop::?relay`:
        CODE
        LCALL   ?BDISPATCH
        DATA24
        DC24    zclSampleSw_event_loop

        RSEG BANK_RELAYS:CODE:REORDER:NOROOT(0)
`??zclSampleSw_ProcessCommissioningStatus::?rela`:
        CODE
        LCALL   ?BDISPATCH
        DATA24
        DC24    zclSampleSw_ProcessCommissioningStatus

        RSEG BANK_RELAYS:CODE:REORDER:NOROOT(0)
`??zclSampleSw_BasicResetCB::?relay`:
        CODE
        LCALL   ?BDISPATCH
        DATA24
        DC24    zclSampleSw_BasicResetCB

        RSEG BANK_RELAYS:CODE:REORDER:NOROOT(0)
`??zclSampleApp_BatteryWarningCB::?relay`:
        CODE
        LCALL   ?BDISPATCH
        DATA24
        DC24    zclSampleApp_BatteryWarningCB

        RSEG BANK_RELAYS:CODE:REORDER:NOROOT(0)
`??zclSampleSw_ProcessIncomingMsg::?relay`:
        CODE
        LCALL   ?BDISPATCH
        DATA24
        DC24    zclSampleSw_ProcessIncomingMsg

        RSEG BANK_RELAYS:CODE:REORDER:NOROOT(0)
`??zclSampleSw_ProcessInDiscCmdsRspCmd::?relay`:
        CODE
        LCALL   ?BDISPATCH
        DATA24
        DC24    zclSampleSw_ProcessInDiscCmdsRspCmd

        RSEG BANK_RELAYS:CODE:REORDER:NOROOT(0)
`??zclSampleSw_UiActionToggleLight::?relay`:
        CODE
        LCALL   ?BDISPATCH
        DATA24
        DC24    zclSampleSw_UiActionToggleLight

        RSEG BANK_RELAYS:CODE:REORDER:NOROOT(0)
`??zclSampleSw_UiUpdateLcd::?relay`:
        CODE
        LCALL   ?BDISPATCH
        DATA24
        DC24    zclSampleSw_UiUpdateLcd

        RSEG XDATA_ROM_C:CONST:REORDER:NOROOT(0)
        DATA8
`?<Constant "Write:">`:
        DB "Write:"

        RSEG XDATA_ROM_C:CONST:REORDER:NOROOT(0)
        DATA8
`?<Constant "TI Sample Switch">`:
        DB "TI Sample Switch"

        RSEG XDATA_ROM_C:CONST:REORDER:NOROOT(0)
        DATA8
`?<Constant "Broadcast">`:
        DB "Broadcast"

        RSEG XDATA_ROM_C:CONST:REORDER:NOROOT(0)
        DATA8
`?<Constant "Groupcast">`:
        DB "Groupcast"

        RSEG XDATA_ROM_C:CONST:REORDER:NOROOT(0)
        DATA8
`?<Constant "I have beem form 2332\\n">`:
        DB "I have beem form 2332\012"

        RSEG XDATA_ROM_C:CONST:REORDER:NOROOT(0)
        DATA8
`?<Constant "faild\\n">`:
        DB "faild\012"

        RSEG XDATA_ROM_C:CONST:REORDER:NOROOT(0)
        DATA8
`?<Constant "i have been join 2332">`:
        DB "i have been join 2332"

        RSEG XDATA_ROM_C:CONST:REORDER:NOROOT(0)
        DATA8
`?<Constant "Rx Value:">`:
        DB "Rx Value:"

        RSEG XDATA_ROM_C:CONST:REORDER:NOROOT(0)
        DATA8
`?<Constant "Read:">`:
        DB "Read:"

        RSEG XDATA_ROM_C:CONST:REORDER:NOROOT(0)
        DATA8
`?<Constant "< TOGGLE LIGHT >">`:
        DB "< TOGGLE LIGHT >"

        RSEG XDATA_ROM_C:CONST:REORDER:NOROOT(0)
        DATA32
__Constant_bb8:
        DD 3000

        RSEG XDATA_ROM_C:CONST:REORDER:NOROOT(0)
        DATA32
__Constant_3e8:
        DD 1000

        RSEG XDATA_ROM_C:CONST:REORDER:NOROOT(0)
        DATA32
__Constant_1f4:
        DD 500

        END
// 1296 
// 
// 2 154 bytes in segment BANKED_CODE
//    60 bytes in segment BANK_RELAYS
//    27 bytes in segment XDATA_I
//    27 bytes in segment XDATA_ID
//   153 bytes in segment XDATA_ROM_C
//    24 bytes in segment XDATA_Z
// 
//    87 bytes of CODE     memory
//   141 bytes of CONST    memory (+ 12 bytes shared)
// 2 154 bytes of HUGECODE memory
//    51 bytes of XDATA    memory
//
//Errors: none
//Warnings: 3
